ASxxxx Linker V03.00 + NoICE + sdld,  page 1.
Hexadecimal  [32-Bits]

Area                                    Addr        Size        Decimal Bytes (Attributes)
--------------------------------        ----        ----        ------- ----- ------------
.  .ABS.                            00000000    00000000 =           0. bytes (ABS,CON)

      Value  Global                              Global Defined In Module
      -----  --------------------------------   ------------------------
     00000000  .__.ABS.                           
     00000000  l__BSEG                         
     00000000  l__BSS                          
     00000000  l__CABS                         
     00000000  l__DABS                         
     00000000  l__HEADER                       
     00000000  l__HOME                         
     00000000  s__CABS                         
     00000000  s__CABS0                        
     00000000  s__CABS1                        
     00000000  s__CABS2                        
     00000000  s__CABS3                        
     00000000  s__CABS4                        
     00000000  s__DABS                         
     00000000  s__HEADER                       
     00000000  s__HEADER0                      
     00000000  s__HEADER1                      
     00000000  s__HEADER2                      
     00000000  s__HEADER3                      
     00000000  s__HEADER4                      
     00000000  s__HEADER5                      
     00000001  l__GSFINAL                      
     00000001  l__HEAP_END                     
     00000003  l__HEADER3                      
     00000003  l__HEADER4                      
     00000006  l__HEADER0                      
     00000009  l__CABS2                        
     00000009  l__HEADER1                      
     0000000A  l__HEADER2                      
     0000000D  l__INITIALIZED                  
     0000000D  l__INITIALIZER                  
     00000010  l__CABS0                        
     00000010  l__CABS4                        
     00000011  l__CABS1                        
     00000012  l__GSINIT                       
     00000019  l__CABS3                        
     0000012A  l__HEADER5                      
     00000200  s__CODE                         
     00000250  l__DATA                         
     000003FF  l__HEAP                         
     00002C81  l__BANK4                        
     00003F06  l__BANK3                        
     00003F25  l__BANK2                        
     00006F18  l__CODE                         
     00007118  s__HOME                         
     00007118  s__INITIALIZER                  
     00007125  s__GSINIT                       
     00007137  s__GSFINAL                      
     00008000  G$SMS_SRAM$0_0$0                   _sms_manager
     00008000  _SMS_SRAM                          SMSlib_autotext
ASxxxx Linker V03.00 + NoICE + sdld,  page 2.
Hexadecimal  [32-Bits]

Area                                    Addr        Size        Decimal Bytes (Attributes)
--------------------------------        ----        ----        ------- ----- ------------
.  .ABS.                            00000000    00000000 =           0. bytes (ABS,CON)

      Value  Global                              Global Defined In Module
      -----  --------------------------------   ------------------------
     00008000  s__BANK2                        
     00008000  s__BANK3                        
     00008000  s__BANK4                        
     0000AC81  s__HEAP_END                     
     0000C000  s__DATA                         
     0000C250  s__INITIALIZED                  
     0000C25D  s__BSEG                         
     0000C25D  s__BSS                          
     0000C25D  s__HEAP                         
     0000FFFC  G$SRAM_bank_to_be_mapped_on_slot   _sms_manager
     0000FFFC  _SRAM_bank_to_be_mapped_on_slot2   SMSlib_autotext
     0000FFFF  G$ROM_bank_to_be_mapped_on_slot2   _sms_manager
     0000FFFF  _ROM_bank_to_be_mapped_on_slot2    SMSlib_autotext
ASxxxx Linker V03.00 + NoICE + sdld,  page 3.
Hexadecimal  [32-Bits]

Area                                    Addr        Size        Decimal Bytes (Attributes)
--------------------------------        ----        ----        ------- ----- ------------
_CODE                               00000200    00006F18 =       28440. bytes (REL,CON)

      Value  Global                              Global Defined In Module
      -----  --------------------------------   ------------------------
     00000200  __clock                            crt0
     00000204  _exit                              crt0
     0000020A  A$main$57                          main
     0000020A  C$main.c$3$0_0$82                  main
     0000020A  C$main.c$5$1_0$82                  main
     0000020A  G$main$0$0                         main
     0000020A  _main                              main
     0000020D  A$main$65                          main
     0000020D  C$main.c$6$1_0$82                  main
     0000020D  C$main.c$8$2_0$83                  main
     00000210  A$main$73                          main
     00000210  C$main.c$10$1_0$82                 main
     00000210  XG$main$0$0                        main
     00000212  _PSGStop                           PSGlib
     00000239  _PSGResume                         PSGlib
     00000285  _PSGPlay                           PSGlib
     000002B2  _PSGPlayLoops                      PSGlib
     000002C9  _PSGCancelLoop                     PSGlib
     000002D4  _PSGPlayNoRepeat                   PSGlib
     000002E8  _PSGGetStatus                      PSGlib
     000002ED  _PSGSilenceChannels                PSGlib
     000002FE  _PSGRestoreVolumes                 PSGlib
     000003F9  _PSGSetMusicVolumeAttenuation      PSGlib
     000004DD  _PSGSFXStop                        PSGlib
     000005A5  _PSGSFXPlay                        PSGlib
     000005F2  _PSGSFXCancelLoop                  PSGlib
     000005F8  _PSGSFXGetStatus                   PSGlib
     000005FD  _PSGSFXPlayLoop                    PSGlib
     0000061A  _PSGFrame                          PSGlib
     0000073E  _PSGSFXFrame                       PSGlib
     000007C4  A$GSLib$78                         GSLib
     000007C4  C$GSLib.c$56$0_0$8                 GSLib
     000007C4  C$GSLib.c$68$1_0$8                 GSLib
     000007C4  G$GSL_positionWindow$0$0           GSLib
     000007C4  _GSL_positionWindow                GSLib
     000007C5  A$GSLib$79                         GSLib
     000007C6  A$GSLib$80                         GSLib
     000007C7  A$GSLib$81                         GSLib
     000007C8  A$GSLib$82                         GSLib
     000007C9  A$GSLib$83                         GSLib
     000007CA  A$GSLib$84                         GSLib
     000007CD  A$GSLib$92                         GSLib
     000007CD  C$GSLib.c$69$1_0$8                 GSLib
     000007CD  XG$GSL_positionWindow$0$0          GSLib
     000007CE  A$GSLib$105                        GSLib
     000007CE  C$GSLib.c$73$1_0$10                GSLib
     000007CE  C$GSLib.c$84$1_0$10                GSLib
     000007CE  G$GSL_metatileLookup$0$0           GSLib
     000007CE  _GSL_metatileLookup                GSLib
     000007CF  A$GSLib$106                        GSLib
ASxxxx Linker V03.00 + NoICE + sdld,  page 4.
Hexadecimal  [32-Bits]

Area                                    Addr        Size        Decimal Bytes (Attributes)
--------------------------------        ----        ----        ------- ----- ------------
_CODE                               00000200    00006F18 =       28440. bytes (REL,CON)

      Value  Global                              Global Defined In Module
      -----  --------------------------------   ------------------------
     000007D0  A$GSLib$107                        GSLib
     000007D1  A$GSLib$108                        GSLib
     000007D2  A$GSLib$109                        GSLib
     000007D3  A$GSLib$110                        GSLib
     000007D4  A$GSLib$111                        GSLib
     000007D7  A$GSLib$119                        GSLib
     000007D7  C$GSLib.c$85$1_0$10                GSLib
     000007D7  XG$GSL_metatileLookup$0$0          GSLib
     000007D8  A$GSLib$132                        GSLib
     000007D8  C$GSLib.c$101$1_0$12               GSLib
     000007D8  C$GSLib.c$89$1_0$12                GSLib
     000007D8  G$GSL_tileLookup$0$0               GSLib
     000007D8  _GSL_tileLookup                    GSLib
     000007D9  A$GSLib$133                        GSLib
     000007DA  A$GSLib$134                        GSLib
     000007DB  A$GSLib$135                        GSLib
     000007DC  A$GSLib$136                        GSLib
     000007DD  A$GSLib$137                        GSLib
     000007DE  A$GSLib$138                        GSLib
     000007E1  A$GSLib$146                        GSLib
     000007E1  C$GSLib.c$102$1_0$12               GSLib
     000007E1  XG$GSL_tileLookup$0$0              GSLib
     000007E2  A$GSLib$159                        GSLib
     000007E2  C$GSLib.c$106$1_0$13               GSLib
     000007E2  C$GSLib.c$112$1_0$13               GSLib
     000007E2  G$GSL_refreshVDP$0$0               GSLib
     000007E2  _GSL_refreshVDP                    GSLib
     000007E4  A$GSLib$160                        GSLib
     000007E7  A$GSLib$161                        GSLib
     000007E9  A$GSLib$169                        GSLib
     000007E9  C$GSLib.c$113$1_0$13               GSLib
     000007E9  XG$GSL_refreshVDP$0$0              GSLib
     000007EA  A$GSLib$182                        GSLib
     000007EA  C$GSLib.c$117$1_0$15               GSLib
     000007EA  C$GSLib.c$135$1_0$15               GSLib
     000007EA  G$GSL_scroll$0$0                   GSLib
     000007EA  _GSL_scroll                        GSLib
     000007EB  A$GSLib$183                        GSLib
     000007EC  A$GSLib$184                        GSLib
     000007ED  A$GSLib$185                        GSLib
     000007EE  A$GSLib$186                        GSLib
     000007F0  A$GSLib$187                        GSLib
     000007F1  A$GSLib$188                        GSLib
     000007F4  A$GSLib$189                        GSLib
     000007F5  A$GSLib$190                        GSLib
     000007F8  A$GSLib$191                        GSLib
     000007FB  A$GSLib$192                        GSLib
     000007FD  A$GSLib$200                        GSLib
     000007FD  C$GSLib.c$136$1_0$15               GSLib
     000007FD  XG$GSL_scroll$0$0                  GSLib
     000007FE  A$GSLib$213                        GSLib
ASxxxx Linker V03.00 + NoICE + sdld,  page 5.
Hexadecimal  [32-Bits]

Area                                    Addr        Size        Decimal Bytes (Attributes)
--------------------------------        ----        ----        ------- ----- ------------
_CODE                               00000200    00006F18 =       28440. bytes (REL,CON)

      Value  Global                              Global Defined In Module
      -----  --------------------------------   ------------------------
     000007FE  C$GSLib.c$140$1_0$16               GSLib
     000007FE  C$GSLib.c$146$1_0$16               GSLib
     000007FE  G$GSL_VBlank$0$0                   GSLib
     000007FE  _GSL_VBlank                        GSLib
     00000800  A$GSLib$214                        GSLib
     00000803  A$GSLib$215                        GSLib
     00000805  A$GSLib$223                        GSLib
     00000805  C$GSLib.c$147$1_0$16               GSLib
     00000805  XG$GSL_VBlank$0$0                  GSLib
     00000806  A$GSLib$236                        GSLib
     00000806  C$GSLib.c$151$1_0$17               GSLib
     00000806  C$GSLib.c$155$1_0$17               GSLib
     00000806  G$GSL_metatileUpdate$0$0           GSLib
     00000806  _GSL_metatileUpdate                GSLib
     00000809  A$GSLib$244                        GSLib
     00000809  C$GSLib.c$156$1_0$17               GSLib
     00000809  XG$GSL_metatileUpdate$0$0          GSLib
     0000080A  A$GSLib$257                        GSLib
     0000080A  C$GSLib.c$160$1_0$19               GSLib
     0000080A  C$GSLib.c$178$1_0$19               GSLib
     0000080A  G$GSL_metatileUpdateCustom$0$0     GSLib
     0000080A  _GSL_metatileUpdateCustom          GSLib
     0000080B  A$GSLib$258                        GSLib
     0000080C  A$GSLib$259                        GSLib
     0000080F  A$GSLib$260                        GSLib
     00000810  A$GSLib$261                        GSLib
     00000813  A$GSLib$262                        GSLib
     00000814  A$GSLib$263                        GSLib
     00000818  A$GSLib$264                        GSLib
     00000819  A$GSLib$265                        GSLib
     0000081C  A$GSLib$266                        GSLib
     0000081D  A$GSLib$267                        GSLib
     0000081E  A$GSLib$268                        GSLib
     0000081F  A$GSLib$269                        GSLib
     00000820  A$GSLib$270                        GSLib
     00000823  A$GSLib$278                        GSLib
     00000823  C$GSLib.c$179$1_0$19               GSLib
     00000823  XG$GSL_metatileUpdateCustom$0$0    GSLib
     00000824  A$GSLib$291                        GSLib
     00000824  C$GSLib.c$182$1_0$20               GSLib
     00000824  C$GSLib.c$184$1_0$20               GSLib
     00000824  G$GSL_getMapWidthInPixels$0$0      GSLib
     00000824  _GSL_getMapWidthInPixels           GSLib
     00000827  A$GSLib$299                        GSLib
     00000827  C$GSLib.c$185$1_0$20               GSLib
     00000827  XG$GSL_getMapWidthInPixels$0$0     GSLib
     00000828  A$GSLib$312                        GSLib
     00000828  C$GSLib.c$189$1_0$21               GSLib
     00000828  C$GSLib.c$191$1_0$21               GSLib
     00000828  G$GSL_getMapHeightInPixels$0$0     GSLib
     00000828  _GSL_getMapHeightInPixels          GSLib
ASxxxx Linker V03.00 + NoICE + sdld,  page 6.
Hexadecimal  [32-Bits]

Area                                    Addr        Size        Decimal Bytes (Attributes)
--------------------------------        ----        ----        ------- ----- ------------
_CODE                               00000200    00006F18 =       28440. bytes (REL,CON)

      Value  Global                              Global Defined In Module
      -----  --------------------------------   ------------------------
     0000082B  A$GSLib$320                        GSLib
     0000082B  C$GSLib.c$192$1_0$21               GSLib
     0000082B  XG$GSL_getMapHeightInPixels$0$0    GSLib
     0000082C  A$GSLib$333                        GSLib
     0000082C  C$GSLib.c$196$1_0$22               GSLib
     0000082C  C$GSLib.c$198$1_0$22               GSLib
     0000082C  G$GSL_getMapWidthInMetatiles$0$0   GSLib
     0000082C  _GSL_getMapWidthInMetatiles        GSLib
     0000082F  A$GSLib$341                        GSLib
     0000082F  C$GSLib.c$199$1_0$22               GSLib
     0000082F  XG$GSL_getMapWidthInMetatiles$0$   GSLib
     00000830  A$GSLib$354                        GSLib
     00000830  C$GSLib.c$203$1_0$23               GSLib
     00000830  C$GSLib.c$205$1_0$23               GSLib
     00000830  G$GSL_getMapHeightInMetatiles$0$   GSLib
     00000830  _GSL_getMapHeightInMetatiles       GSLib
     00000833  A$GSLib$362                        GSLib
     00000833  C$GSLib.c$206$1_0$23               GSLib
     00000833  XG$GSL_getMapHeightInMetatiles$0   GSLib
     00000834  A$GSLib$375                        GSLib
     00000834  C$GSLib.c$210$1_0$24               GSLib
     00000834  C$GSLib.c$212$1_0$24               GSLib
     00000834  G$GSL_getScrolltableSize$0$0       GSLib
     00000834  _GSL_getScrolltableSize            GSLib
     00000837  A$GSLib$383                        GSLib
     00000837  C$GSLib.c$213$1_0$24               GSLib
     00000837  XG$GSL_getScrolltableSize$0$0      GSLib
     00000838  A$GSLib$396                        GSLib
     00000838  C$GSLib.c$217$1_0$25               GSLib
     00000838  C$GSLib.c$219$1_0$25               GSLib
     00000838  G$GSL_getCurrentX$0$0              GSLib
     00000838  _GSL_getCurrentX                   GSLib
     0000083B  A$GSLib$404                        GSLib
     0000083B  C$GSLib.c$220$1_0$25               GSLib
     0000083B  XG$GSL_getCurrentX$0$0             GSLib
     0000083C  A$GSLib$417                        GSLib
     0000083C  C$GSLib.c$224$1_0$26               GSLib
     0000083C  C$GSLib.c$226$1_0$26               GSLib
     0000083C  G$GSL_getCurrentY$0$0              GSLib
     0000083C  _GSL_getCurrentY                   GSLib
     0000083F  A$GSLib$425                        GSLib
     0000083F  C$GSLib.c$227$1_0$26               GSLib
     0000083F  XG$GSL_getCurrentY$0$0             GSLib
     00000840  A$GSLib$438                        GSLib
     00000840  C$GSLib.c$231$1_0$27               GSLib
     00000840  C$GSLib.c$233$1_0$27               GSLib
     00000840  G$GSL_getCollisionCount$0$0        GSLib
     00000840  _GSL_getCollisionCount             GSLib
     00000843  A$GSLib$439                        GSLib
     00000844  A$GSLib$447                        GSLib
     00000844  C$GSLib.c$234$1_0$27               GSLib
ASxxxx Linker V03.00 + NoICE + sdld,  page 7.
Hexadecimal  [32-Bits]

Area                                    Addr        Size        Decimal Bytes (Attributes)
--------------------------------        ----        ----        ------- ----- ------------
_CODE                               00000200    00006F18 =       28440. bytes (REL,CON)

      Value  Global                              Global Defined In Module
      -----  --------------------------------   ------------------------
     00000844  XG$GSL_getCollisionCount$0$0       GSLib
     00000845  A$GSLib$460                        GSLib
     00000845  C$GSLib.c$237$1_0$28               GSLib
     00000845  C$GSLib.c$239$1_0$28               GSLib
     00000845  G$GSL_getScrolltableAddress$0$0    GSLib
     00000845  _GSL_getScrolltableAddress         GSLib
     00000848  A$GSLib$468                        GSLib
     00000848  C$GSLib.c$240$1_0$28               GSLib
     00000848  XG$GSL_getScrolltableAddress$0$0   GSLib
     00000849  A$GSLib$481                        GSLib
     00000849  C$GSLib.c$1724$1_0$30              GSLib
     00000849  C$GSLib.c$244$1_0$30               GSLib
     00000849  G$GSL_initializeMap$0$0            GSLib
     00000849  _GSL_initializeMap                 GSLib
     0000084A  A$GSLib$482                        GSLib
     0000084B  A$GSLib$483                        GSLib
     0000084C  A$GSLib$484                        GSLib
     0000084D  A$GSLib$485                        GSLib
     0000084E  A$GSLib$486                        GSLib
     0000084F  A$GSLib$487                        GSLib
     00000852  A$GSLib$488                        GSLib
     00000855  A$GSLib$493                        GSLib
     00000859  A$GSLib$495                        GSLib
     0000085A  A$GSLib$496                        GSLib
     0000085B  A$GSLib$497                        GSLib
     0000085C  A$GSLib$498                        GSLib
     0000085D  A$GSLib$499                        GSLib
     00000860  A$GSLib$501                        GSLib
     00000863  A$GSLib$502                        GSLib
     00000866  A$GSLib$503                        GSLib
     00000868  A$GSLib$505                        GSLib
     0000086B  A$GSLib$507                        GSLib
     0000086E  A$GSLib$508                        GSLib
     00000871  A$GSLib$509                        GSLib
     00000872  A$GSLib$510                        GSLib
     00000875  A$GSLib$511                        GSLib
     00000878  A$GSLib$512                        GSLib
     0000087B  A$GSLib$513                        GSLib
     0000087C  A$GSLib$516                        GSLib
     00000880  A$GSLib$517                        GSLib
     00000883  A$GSLib$519                        GSLib
     00000886  A$GSLib$521                        GSLib
     00000889  A$GSLib$524                        GSLib
     0000088C  A$GSLib$525                        GSLib
     0000088E  A$GSLib$526                        GSLib
     00000890  A$GSLib$528                        GSLib
     00000892  A$GSLib$529                        GSLib
     00000893  A$GSLib$530                        GSLib
     00000895  A$GSLib$531                        GSLib
     00000896  A$GSLib$532                        GSLib
     00000898  A$GSLib$534                        GSLib
ASxxxx Linker V03.00 + NoICE + sdld,  page 8.
Hexadecimal  [32-Bits]

Area                                    Addr        Size        Decimal Bytes (Attributes)
--------------------------------        ----        ----        ------- ----- ------------
_CODE                               00000200    00006F18 =       28440. bytes (REL,CON)

      Value  Global                              Global Defined In Module
      -----  --------------------------------   ------------------------
     00000899  A$GSLib$535                        GSLib
     0000089A  A$GSLib$536                        GSLib
     0000089B  A$GSLib$538                        GSLib
     0000089D  A$GSLib$539                        GSLib
     0000089E  A$GSLib$540                        GSLib
     0000089F  A$GSLib$541                        GSLib
     000008A0  A$GSLib$543                        GSLib
     000008A1  A$GSLib$544                        GSLib
     000008A4  A$GSLib$547                        GSLib
     000008A6  A$GSLib$548                        GSLib
     000008A7  A$GSLib$549                        GSLib
     000008A8  A$GSLib$550                        GSLib
     000008A9  A$GSLib$551                        GSLib
     000008AA  A$GSLib$552                        GSLib
     000008AB  A$GSLib$553                        GSLib
     000008AC  A$GSLib$554                        GSLib
     000008AD  A$GSLib$555                        GSLib
     000008AE  A$GSLib$558                        GSLib
     000008B1  A$GSLib$559                        GSLib
     000008B3  A$GSLib$560                        GSLib
     000008B4  A$GSLib$561                        GSLib
     000008B5  A$GSLib$562                        GSLib
     000008B6  A$GSLib$563                        GSLib
     000008B7  A$GSLib$565                        GSLib
     000008BA  A$GSLib$566                        GSLib
     000008BB  A$GSLib$568                        GSLib
     000008BC  A$GSLib$569                        GSLib
     000008BD  A$GSLib$570                        GSLib
     000008C0  A$GSLib$572                        GSLib
     000008C3  A$GSLib$573                        GSLib
     000008C5  A$GSLib$574                        GSLib
     000008C7  A$GSLib$575                        GSLib
     000008C9  A$GSLib$576                        GSLib
     000008CC  A$GSLib$577                        GSLib
     000008CE  A$GSLib$578                        GSLib
     000008D0  A$GSLib$579                        GSLib
     000008D2  A$GSLib$580                        GSLib
     000008D3  A$GSLib$583                        GSLib
     000008D6  A$GSLib$584                        GSLib
     000008DA  A$GSLib$586                        GSLib
     000008DB  A$GSLib$587                        GSLib
     000008DD  A$GSLib$588                        GSLib
     000008DE  A$GSLib$589                        GSLib
     000008E0  A$GSLib$590                        GSLib
     000008E1  A$GSLib$591                        GSLib
     000008E3  A$GSLib$592                        GSLib
     000008E4  A$GSLib$593                        GSLib
     000008E6  A$GSLib$594                        GSLib
     000008E7  A$GSLib$595                        GSLib
     000008E8  A$GSLib$597                        GSLib
     000008EC  A$GSLib$598                        GSLib
ASxxxx Linker V03.00 + NoICE + sdld,  page 9.
Hexadecimal  [32-Bits]

Area                                    Addr        Size        Decimal Bytes (Attributes)
--------------------------------        ----        ----        ------- ----- ------------
_CODE                               00000200    00006F18 =       28440. bytes (REL,CON)

      Value  Global                              Global Defined In Module
      -----  --------------------------------   ------------------------
     000008EF  A$GSLib$599                        GSLib
     000008F0  A$GSLib$600                        GSLib
     000008F2  A$GSLib$602                        GSLib
     000008F3  A$GSLib$603                        GSLib
     000008F5  A$GSLib$604                        GSLib
     000008F6  A$GSLib$605                        GSLib
     000008F8  A$GSLib$606                        GSLib
     000008F9  A$GSLib$608                        GSLib
     000008FB  A$GSLib$610                        GSLib
     000008FF  A$GSLib$611                        GSLib
     00000900  A$GSLib$612                        GSLib
     00000902  A$GSLib$613                        GSLib
     00000903  A$GSLib$614                        GSLib
     00000905  A$GSLib$615                        GSLib
     00000906  A$GSLib$616                        GSLib
     00000908  A$GSLib$617                        GSLib
     00000909  A$GSLib$618                        GSLib
     0000090B  A$GSLib$619                        GSLib
     0000090C  A$GSLib$620                        GSLib
     0000090D  A$GSLib$621                        GSLib
     0000090E  A$GSLib$623                        GSLib
     00000912  A$GSLib$624                        GSLib
     00000913  A$GSLib$626                        GSLib
     00000916  A$GSLib$627                        GSLib
     00000917  A$GSLib$630                        GSLib
     00000919  A$GSLib$631                        GSLib
     0000091A  A$GSLib$632                        GSLib
     0000091B  A$GSLib$633                        GSLib
     0000091C  A$GSLib$634                        GSLib
     0000091D  A$GSLib$635                        GSLib
     0000091F  A$GSLib$636                        GSLib
     00000920  A$GSLib$637                        GSLib
     00000921  A$GSLib$638                        GSLib
     00000922  A$GSLib$639                        GSLib
     00000923  A$GSLib$641                        GSLib
     00000926  A$GSLib$643                        GSLib
     00000927  A$GSLib$644                        GSLib
     00000928  A$GSLib$645                        GSLib
     0000092A  A$GSLib$646                        GSLib
     0000092B  A$GSLib$647                        GSLib
     0000092C  A$GSLib$648                        GSLib
     0000092E  A$GSLib$649                        GSLib
     0000092F  A$GSLib$650                        GSLib
     00000930  A$GSLib$651                        GSLib
     00000931  A$GSLib$652                        GSLib
     00000932  A$GSLib$653                        GSLib
     00000936  A$GSLib$654                        GSLib
     00000937  A$GSLib$656                        GSLib
     00000938  A$GSLib$657                        GSLib
     00000939  A$GSLib$658                        GSLib
     0000093A  A$GSLib$659                        GSLib
ASxxxx Linker V03.00 + NoICE + sdld,  page 10.
Hexadecimal  [32-Bits]

Area                                    Addr        Size        Decimal Bytes (Attributes)
--------------------------------        ----        ----        ------- ----- ------------
_CODE                               00000200    00006F18 =       28440. bytes (REL,CON)

      Value  Global                              Global Defined In Module
      -----  --------------------------------   ------------------------
     0000093B  A$GSLib$660                        GSLib
     0000093C  A$GSLib$663                        GSLib
     0000093F  A$GSLib$664                        GSLib
     00000942  A$GSLib$666                        GSLib
     00000945  A$GSLib$667                        GSLib
     00000948  A$GSLib$668                        GSLib
     0000094B  A$GSLib$669                        GSLib
     0000094D  A$GSLib$670                        GSLib
     0000094F  A$GSLib$671                        GSLib
     00000951  A$GSLib$672                        GSLib
     00000953  A$GSLib$673                        GSLib
     00000956  A$GSLib$674                        GSLib
     00000958  A$GSLib$675                        GSLib
     0000095B  A$GSLib$678                        GSLib
     0000095E  A$GSLib$679                        GSLib
     00000960  A$GSLib$680                        GSLib
     00000962  A$GSLib$681                        GSLib
     00000964  A$GSLib$683                        GSLib
     00000968  A$GSLib$684                        GSLib
     0000096B  A$GSLib$685                        GSLib
     0000096E  A$GSLib$687                        GSLib
     0000096F  A$GSLib$688                        GSLib
     00000971  A$GSLib$690                        GSLib
     00000974  A$GSLib$691                        GSLib
     00000976  A$GSLib$692                        GSLib
     00000977  A$GSLib$693                        GSLib
     0000097A  A$GSLib$694                        GSLib
     0000097D  A$GSLib$696                        GSLib
     00000980  A$GSLib$697                        GSLib
     00000981  A$GSLib$698                        GSLib
     00000982  A$GSLib$699                        GSLib
     00000984  A$GSLib$700                        GSLib
     00000986  A$GSLib$701                        GSLib
     00000989  A$GSLib$702                        GSLib
     0000098A  A$GSLib$703                        GSLib
     0000098B  A$GSLib$704                        GSLib
     0000098C  A$GSLib$705                        GSLib
     0000098D  A$GSLib$707                        GSLib
     00000990  A$GSLib$708                        GSLib
     00000992  A$GSLib$709                        GSLib
     00000994  A$GSLib$710                        GSLib
     00000995  A$GSLib$711                        GSLib
     00000996  A$GSLib$712                        GSLib
     00000997  A$GSLib$713                        GSLib
     00000999  A$GSLib$714                        GSLib
     0000099A  A$GSLib$715                        GSLib
     0000099C  A$GSLib$716                        GSLib
     0000099D  A$GSLib$718                        GSLib
     0000099F  A$GSLib$720                        GSLib
     000009A1  A$GSLib$721                        GSLib
     000009A2  A$GSLib$722                        GSLib
ASxxxx Linker V03.00 + NoICE + sdld,  page 11.
Hexadecimal  [32-Bits]

Area                                    Addr        Size        Decimal Bytes (Attributes)
--------------------------------        ----        ----        ------- ----- ------------
_CODE                               00000200    00006F18 =       28440. bytes (REL,CON)

      Value  Global                              Global Defined In Module
      -----  --------------------------------   ------------------------
     000009A5  A$GSLib$724                        GSLib
     000009A9  A$GSLib$725                        GSLib
     000009AB  A$GSLib$726                        GSLib
     000009AD  A$GSLib$727                        GSLib
     000009AE  A$GSLib$728                        GSLib
     000009B0  A$GSLib$729                        GSLib
     000009B2  A$GSLib$731                        GSLib
     000009B5  A$GSLib$732                        GSLib
     000009B7  A$GSLib$733                        GSLib
     000009B9  A$GSLib$734                        GSLib
     000009BA  A$GSLib$735                        GSLib
     000009BB  A$GSLib$736                        GSLib
     000009BC  A$GSLib$737                        GSLib
     000009BE  A$GSLib$740                        GSLib
     000009C0  A$GSLib$741                        GSLib
     000009C1  A$GSLib$742                        GSLib
     000009C4  A$GSLib$745                        GSLib
     000009C7  A$GSLib$746                        GSLib
     000009CA  A$GSLib$747                        GSLib
     000009CB  A$GSLib$748                        GSLib
     000009CE  A$GSLib$750                        GSLib
     000009D1  A$GSLib$751                        GSLib
     000009D2  A$GSLib$752                        GSLib
     000009D3  A$GSLib$753                        GSLib
     000009D6  A$GSLib$755                        GSLib
     000009D9  A$GSLib$756                        GSLib
     000009DA  A$GSLib$757                        GSLib
     000009DD  A$GSLib$758                        GSLib
     000009E0  A$GSLib$759                        GSLib
     000009E3  A$GSLib$760                        GSLib
     000009E5  A$GSLib$761                        GSLib
     000009E7  A$GSLib$762                        GSLib
     000009E8  A$GSLib$763                        GSLib
     000009E9  A$GSLib$764                        GSLib
     000009EC  A$GSLib$767                        GSLib
     000009EF  A$GSLib$768                        GSLib
     000009F1  A$GSLib$769                        GSLib
     000009F3  A$GSLib$770                        GSLib
     000009F4  A$GSLib$771                        GSLib
     000009F7  A$GSLib$772                        GSLib
     000009FA  A$GSLib$775                        GSLib
     000009FD  A$GSLib$776                        GSLib
     00000A01  A$GSLib$778                        GSLib
     00000A04  A$GSLib$779                        GSLib
     00000A05  A$GSLib$780                        GSLib
     00000A08  A$GSLib$784                        GSLib
     00000A0B  A$GSLib$785                        GSLib
     00000A0D  A$GSLib$786                        GSLib
     00000A0F  A$GSLib$788                        GSLib
     00000A11  A$GSLib$789                        GSLib
     00000A12  A$GSLib$790                        GSLib
ASxxxx Linker V03.00 + NoICE + sdld,  page 12.
Hexadecimal  [32-Bits]

Area                                    Addr        Size        Decimal Bytes (Attributes)
--------------------------------        ----        ----        ------- ----- ------------
_CODE                               00000200    00006F18 =       28440. bytes (REL,CON)

      Value  Global                              Global Defined In Module
      -----  --------------------------------   ------------------------
     00000A14  A$GSLib$791                        GSLib
     00000A15  A$GSLib$792                        GSLib
     00000A17  A$GSLib$794                        GSLib
     00000A18  A$GSLib$795                        GSLib
     00000A19  A$GSLib$796                        GSLib
     00000A1A  A$GSLib$798                        GSLib
     00000A1C  A$GSLib$799                        GSLib
     00000A1D  A$GSLib$800                        GSLib
     00000A1E  A$GSLib$801                        GSLib
     00000A1F  A$GSLib$802                        GSLib
     00000A20  A$GSLib$803                        GSLib
     00000A21  A$GSLib$804                        GSLib
     00000A22  A$GSLib$805                        GSLib
     00000A23  A$GSLib$806                        GSLib
     00000A24  A$GSLib$807                        GSLib
     00000A26  A$GSLib$808                        GSLib
     00000A28  A$GSLib$809                        GSLib
     00000A29  A$GSLib$810                        GSLib
     00000A2A  A$GSLib$811                        GSLib
     00000A2B  A$GSLib$812                        GSLib
     00000A2C  A$GSLib$813                        GSLib
     00000A2E  A$GSLib$814                        GSLib
     00000A30  A$GSLib$816                        GSLib
     00000A33  A$GSLib$817                        GSLib
     00000A35  A$GSLib$818                        GSLib
     00000A36  A$GSLib$819                        GSLib
     00000A37  A$GSLib$820                        GSLib
     00000A38  A$GSLib$821                        GSLib
     00000A39  A$GSLib$823                        GSLib
     00000A3A  A$GSLib$824                        GSLib
     00000A3D  A$GSLib$825                        GSLib
     00000A3E  A$GSLib$826                        GSLib
     00000A3F  A$GSLib$827                        GSLib
     00000A40  A$GSLib$828                        GSLib
     00000A41  A$GSLib$829                        GSLib
     00000A42  A$GSLib$831                        GSLib
     00000A45  A$GSLib$832                        GSLib
     00000A46  A$GSLib$833                        GSLib
     00000A47  A$GSLib$834                        GSLib
     00000A49  A$GSLib$836                        GSLib
     00000A4A  A$GSLib$837                        GSLib
     00000A4B  A$GSLib$838                        GSLib
     00000A4D  A$GSLib$839                        GSLib
     00000A4E  A$GSLib$840                        GSLib
     00000A52  A$GSLib$841                        GSLib
     00000A53  A$GSLib$843                        GSLib
     00000A55  A$GSLib$844                        GSLib
     00000A57  A$GSLib$845                        GSLib
     00000A59  A$GSLib$846                        GSLib
     00000A5B  A$GSLib$847                        GSLib
     00000A5D  A$GSLib$848                        GSLib
ASxxxx Linker V03.00 + NoICE + sdld,  page 13.
Hexadecimal  [32-Bits]

Area                                    Addr        Size        Decimal Bytes (Attributes)
--------------------------------        ----        ----        ------- ----- ------------
_CODE                               00000200    00006F18 =       28440. bytes (REL,CON)

      Value  Global                              Global Defined In Module
      -----  --------------------------------   ------------------------
     00000A5F  A$GSLib$849                        GSLib
     00000A61  A$GSLib$850                        GSLib
     00000A63  A$GSLib$852                        GSLib
     00000A67  A$GSLib$853                        GSLib
     00000A6A  A$GSLib$854                        GSLib
     00000A6B  A$GSLib$855                        GSLib
     00000A6C  A$GSLib$857                        GSLib
     00000A6F  A$GSLib$858                        GSLib
     00000A71  A$GSLib$860                        GSLib
     00000A74  A$GSLib$861                        GSLib
     00000A75  A$GSLib$862                        GSLib
     00000A77  A$GSLib$863                        GSLib
     00000A78  A$GSLib$864                        GSLib
     00000A79  A$GSLib$865                        GSLib
     00000A7B  A$GSLib$866                        GSLib
     00000A7C  A$GSLib$867                        GSLib
     00000A7F  A$GSLib$868                        GSLib
     00000A80  A$GSLib$869                        GSLib
     00000A81  A$GSLib$870                        GSLib
     00000A82  A$GSLib$871                        GSLib
     00000A86  A$GSLib$872                        GSLib
     00000A87  A$GSLib$873                        GSLib
     00000A88  A$GSLib$874                        GSLib
     00000A8A  A$GSLib$875                        GSLib
     00000A8C  A$GSLib$876                        GSLib
     00000A8E  A$GSLib$877                        GSLib
     00000A90  A$GSLib$878                        GSLib
     00000A91  A$GSLib$879                        GSLib
     00000A92  A$GSLib$880                        GSLib
     00000A93  A$GSLib$881                        GSLib
     00000A95  A$GSLib$882                        GSLib
     00000A98  A$GSLib$884                        GSLib
     00000A9B  A$GSLib$885                        GSLib
     00000A9D  A$GSLib$887                        GSLib
     00000AA0  A$GSLib$888                        GSLib
     00000AA1  A$GSLib$889                        GSLib
     00000AA3  A$GSLib$890                        GSLib
     00000AA4  A$GSLib$891                        GSLib
     00000AA5  A$GSLib$892                        GSLib
     00000AA7  A$GSLib$893                        GSLib
     00000AA8  A$GSLib$894                        GSLib
     00000AAB  A$GSLib$895                        GSLib
     00000AAC  A$GSLib$896                        GSLib
     00000AAD  A$GSLib$897                        GSLib
     00000AAE  A$GSLib$898                        GSLib
     00000AB2  A$GSLib$899                        GSLib
     00000AB3  A$GSLib$900                        GSLib
     00000AB4  A$GSLib$901                        GSLib
     00000AB6  A$GSLib$902                        GSLib
     00000AB8  A$GSLib$903                        GSLib
     00000AB9  A$GSLib$904                        GSLib
ASxxxx Linker V03.00 + NoICE + sdld,  page 14.
Hexadecimal  [32-Bits]

Area                                    Addr        Size        Decimal Bytes (Attributes)
--------------------------------        ----        ----        ------- ----- ------------
_CODE                               00000200    00006F18 =       28440. bytes (REL,CON)

      Value  Global                              Global Defined In Module
      -----  --------------------------------   ------------------------
     00000ABA  A$GSLib$905                        GSLib
     00000ABC  A$GSLib$906                        GSLib
     00000ABE  A$GSLib$907                        GSLib
     00000ABF  A$GSLib$908                        GSLib
     00000AC0  A$GSLib$909                        GSLib
     00000AC1  A$GSLib$910                        GSLib
     00000AC4  A$GSLib$911                        GSLib
     00000AC5  A$GSLib$912                        GSLib
     00000AC7  A$GSLib$913                        GSLib
     00000AC8  A$GSLib$914                        GSLib
     00000ACB  A$GSLib$917                        GSLib
     00000ACF  A$GSLib$918                        GSLib
     00000AD0  A$GSLib$919                        GSLib
     00000AD3  A$GSLib$920                        GSLib
     00000AD6  A$GSLib$923                        GSLib
     00000AD9  A$GSLib$924                        GSLib
     00000ADA  A$GSLib$925                        GSLib
     00000ADD  A$GSLib$926                        GSLib
     00000AE0  A$GSLib$929                        GSLib
     00000AE3  A$GSLib$930                        GSLib
     00000AE4  A$GSLib$931                        GSLib
     00000AE5  A$GSLib$932                        GSLib
     00000AE7  A$GSLib$933                        GSLib
     00000AE8  A$GSLib$935                        GSLib
     00000AE9  A$GSLib$936                        GSLib
     00000AEA  A$GSLib$937                        GSLib
     00000AEB  A$GSLib$938                        GSLib
     00000AEE  A$GSLib$941                        GSLib
     00000AF0  A$GSLib$942                        GSLib
     00000AF3  A$GSLib$944                        GSLib
     00000AF5  A$GSLib$945                        GSLib
     00000AF8  A$GSLib$946                        GSLib
     00000AFB  A$GSLib$947                        GSLib
     00000AFC  A$GSLib$948                        GSLib
     00000AFE  A$GSLib$949                        GSLib
     00000AFF  A$GSLib$950                        GSLib
     00000B00  A$GSLib$951                        GSLib
     00000B02  A$GSLib$952                        GSLib
     00000B04  A$GSLib$953                        GSLib
     00000B05  A$GSLib$954                        GSLib
     00000B08  A$GSLib$957                        GSLib
     00000B09  A$GSLib$958                        GSLib
     00000B0B  A$GSLib$959                        GSLib
     00000B0E  A$GSLib$961                        GSLib
     00000B11  A$GSLib$962                        GSLib
     00000B12  A$GSLib$963                        GSLib
     00000B15  A$GSLib$964                        GSLib
     00000B18  A$GSLib$967                        GSLib
     00000B1B  A$GSLib$968                        GSLib
     00000B1C  A$GSLib$969                        GSLib
     00000B1D  A$GSLib$970                        GSLib
ASxxxx Linker V03.00 + NoICE + sdld,  page 15.
Hexadecimal  [32-Bits]

Area                                    Addr        Size        Decimal Bytes (Attributes)
--------------------------------        ----        ----        ------- ----- ------------
_CODE                               00000200    00006F18 =       28440. bytes (REL,CON)

      Value  Global                              Global Defined In Module
      -----  --------------------------------   ------------------------
     00000B1F  A$GSLib$971                        GSLib
     00000B20  A$GSLib$973                        GSLib
     00000B21  A$GSLib$974                        GSLib
     00000B22  A$GSLib$975                        GSLib
     00000B23  A$GSLib$976                        GSLib
     00000B26  A$GSLib$979                        GSLib
     00000B28  A$GSLib$980                        GSLib
     00000B2B  A$GSLib$982                        GSLib
     00000B2D  A$GSLib$983                        GSLib
     00000B30  A$GSLib$984                        GSLib
     00000B33  A$GSLib$985                        GSLib
     00000B34  A$GSLib$986                        GSLib
     00000B36  A$GSLib$987                        GSLib
     00000B37  A$GSLib$988                        GSLib
     00000B38  A$GSLib$989                        GSLib
     00000B3A  A$GSLib$990                        GSLib
     00000B3C  A$GSLib$991                        GSLib
     00000B3D  A$GSLib$992                        GSLib
     00000B40  A$GSLib$995                        GSLib
     00000B41  A$GSLib$996                        GSLib
     00000B43  A$GSLib$997                        GSLib
     00000B46  A$GSLib$999                        GSLib
     00000B49  A$GSLib$1000                       GSLib
     00000B4A  A$GSLib$1001                       GSLib
     00000B4D  A$GSLib$1004                       GSLib
     00000B50  A$GSLib$1005                       GSLib
     00000B51  A$GSLib$1006                       GSLib
     00000B54  A$GSLib$1007                       GSLib
     00000B57  A$GSLib$1010                       GSLib
     00000B58  A$GSLib$1011                       GSLib
     00000B5B  A$GSLib$1012                       GSLib
     00000B5C  A$GSLib$1013                       GSLib
     00000B5E  A$GSLib$1014                       GSLib
     00000B61  A$GSLib$1015                       GSLib
     00000B63  A$GSLib$1017                       GSLib
     00000B66  A$GSLib$1018                       GSLib
     00000B67  A$GSLib$1020                       GSLib
     00000B6A  A$GSLib$1021                       GSLib
     00000B6B  A$GSLib$1022                       GSLib
     00000B6C  A$GSLib$1023                       GSLib
     00000B6E  A$GSLib$1024                       GSLib
     00000B6F  A$GSLib$1026                       GSLib
     00000B70  A$GSLib$1027                       GSLib
     00000B71  A$GSLib$1028                       GSLib
     00000B72  A$GSLib$1029                       GSLib
     00000B75  A$GSLib$1032                       GSLib
     00000B77  A$GSLib$1033                       GSLib
     00000B7A  A$GSLib$1035                       GSLib
     00000B7C  A$GSLib$1036                       GSLib
     00000B7F  A$GSLib$1037                       GSLib
     00000B82  A$GSLib$1038                       GSLib
ASxxxx Linker V03.00 + NoICE + sdld,  page 16.
Hexadecimal  [32-Bits]

Area                                    Addr        Size        Decimal Bytes (Attributes)
--------------------------------        ----        ----        ------- ----- ------------
_CODE                               00000200    00006F18 =       28440. bytes (REL,CON)

      Value  Global                              Global Defined In Module
      -----  --------------------------------   ------------------------
     00000B85  A$GSLib$1039                       GSLib
     00000B86  A$GSLib$1040                       GSLib
     00000B88  A$GSLib$1041                       GSLib
     00000B89  A$GSLib$1042                       GSLib
     00000B8C  A$GSLib$1043                       GSLib
     00000B8E  A$GSLib$1045                       GSLib
     00000B91  A$GSLib$1048                       GSLib
     00000B92  A$GSLib$1049                       GSLib
     00000B94  A$GSLib$1050                       GSLib
     00000B97  A$GSLib$1052                       GSLib
     00000B9A  A$GSLib$1053                       GSLib
     00000B9E  A$GSLib$1054                       GSLib
     00000B9F  A$GSLib$1055                       GSLib
     00000BA2  A$GSLib$1056                       GSLib
     00000BA5  A$GSLib$1059                       GSLib
     00000BA6  A$GSLib$1060                       GSLib
     00000BA9  A$GSLib$1061                       GSLib
     00000BAA  A$GSLib$1062                       GSLib
     00000BAD  A$GSLib$1063                       GSLib
     00000BAF  A$GSLib$1065                       GSLib
     00000BB2  A$GSLib$1066                       GSLib
     00000BB3  A$GSLib$1068                       GSLib
     00000BB6  A$GSLib$1069                       GSLib
     00000BB7  A$GSLib$1070                       GSLib
     00000BB8  A$GSLib$1071                       GSLib
     00000BBA  A$GSLib$1072                       GSLib
     00000BBB  A$GSLib$1074                       GSLib
     00000BBC  A$GSLib$1075                       GSLib
     00000BBD  A$GSLib$1076                       GSLib
     00000BBE  A$GSLib$1077                       GSLib
     00000BC1  A$GSLib$1080                       GSLib
     00000BC2  A$GSLib$1081                       GSLib
     00000BC4  A$GSLib$1082                       GSLib
     00000BC7  A$GSLib$1084                       GSLib
     00000BC9  A$GSLib$1085                       GSLib
     00000BCC  A$GSLib$1086                       GSLib
     00000BCF  A$GSLib$1087                       GSLib
     00000BD2  A$GSLib$1088                       GSLib
     00000BD3  A$GSLib$1089                       GSLib
     00000BD5  A$GSLib$1090                       GSLib
     00000BD7  A$GSLib$1091                       GSLib
     00000BD8  A$GSLib$1092                       GSLib
     00000BDB  A$GSLib$1093                       GSLib
     00000BDD  A$GSLib$1095                       GSLib
     00000BE0  A$GSLib$1098                       GSLib
     00000BE1  A$GSLib$1099                       GSLib
     00000BE3  A$GSLib$1100                       GSLib
     00000BE6  A$GSLib$1102                       GSLib
     00000BE9  A$GSLib$1103                       GSLib
     00000BED  A$GSLib$1104                       GSLib
     00000BEE  A$GSLib$1105                       GSLib
ASxxxx Linker V03.00 + NoICE + sdld,  page 17.
Hexadecimal  [32-Bits]

Area                                    Addr        Size        Decimal Bytes (Attributes)
--------------------------------        ----        ----        ------- ----- ------------
_CODE                               00000200    00006F18 =       28440. bytes (REL,CON)

      Value  Global                              Global Defined In Module
      -----  --------------------------------   ------------------------
     00000BF0  A$GSLib$1106                       GSLib
     00000BF3  A$GSLib$1110                       GSLib
     00000BF6  A$GSLib$1111                       GSLib
     00000BF7  A$GSLib$1112                       GSLib
     00000BFA  A$GSLib$1113                       GSLib
     00000BFD  A$GSLib$1116                       GSLib
     00000C01  A$GSLib$1117                       GSLib
     00000C04  A$GSLib$1118                       GSLib
     00000C06  A$GSLib$1120                       GSLib
     00000C09  A$GSLib$1121                       GSLib
     00000C0B  A$GSLib$1122                       GSLib
     00000C0C  A$GSLib$1123                       GSLib
     00000C0D  A$GSLib$1124                       GSLib
     00000C10  A$GSLib$1126                       GSLib
     00000C13  A$GSLib$1128                       GSLib
     00000C16  A$GSLib$1129                       GSLib
     00000C17  A$GSLib$1130                       GSLib
     00000C19  A$GSLib$1131                       GSLib
     00000C1A  A$GSLib$1132                       GSLib
     00000C1B  A$GSLib$1133                       GSLib
     00000C1D  A$GSLib$1134                       GSLib
     00000C1F  A$GSLib$1135                       GSLib
     00000C20  A$GSLib$1136                       GSLib
     00000C23  A$GSLib$1137                       GSLib
     00000C26  A$GSLib$1138                       GSLib
     00000C29  A$GSLib$1139                       GSLib
     00000C2C  A$GSLib$1142                       GSLib
     00000C2D  A$GSLib$1143                       GSLib
     00000C30  A$GSLib$1145                       GSLib
     00000C34  A$GSLib$1146                       GSLib
     00000C37  A$GSLib$1147                       GSLib
     00000C39  A$GSLib$1148                       GSLib
     00000C3B  A$GSLib$1149                       GSLib
     00000C3E  A$GSLib$1150                       GSLib
     00000C40  A$GSLib$1153                       GSLib
     00000C41  A$GSLib$1154                       GSLib
     00000C42  A$GSLib$1155                       GSLib
     00000C45  A$GSLib$1157                       GSLib
     00000C48  A$GSLib$1159                       GSLib
     00000C4B  A$GSLib$1160                       GSLib
     00000C4E  A$GSLib$1163                       GSLib
     00000C51  A$GSLib$1164                       GSLib
     00000C52  A$GSLib$1165                       GSLib
     00000C53  A$GSLib$1166                       GSLib
     00000C56  A$GSLib$1169                       GSLib
     00000C57  A$GSLib$1170                       GSLib
     00000C58  A$GSLib$1172                       GSLib
     00000C5C  A$GSLib$1173                       GSLib
     00000C60  A$GSLib$1174                       GSLib
     00000C62  A$GSLib$1175                       GSLib
     00000C66  A$GSLib$1176                       GSLib
ASxxxx Linker V03.00 + NoICE + sdld,  page 18.
Hexadecimal  [32-Bits]

Area                                    Addr        Size        Decimal Bytes (Attributes)
--------------------------------        ----        ----        ------- ----- ------------
_CODE                               00000200    00006F18 =       28440. bytes (REL,CON)

      Value  Global                              Global Defined In Module
      -----  --------------------------------   ------------------------
     00000C69  A$GSLib$1177                       GSLib
     00000C6B  A$GSLib$1178                       GSLib
     00000C6D  A$GSLib$1179                       GSLib
     00000C70  A$GSLib$1180                       GSLib
     00000C72  A$GSLib$1182                       GSLib
     00000C73  A$GSLib$1183                       GSLib
     00000C76  A$GSLib$1185                       GSLib
     00000C79  A$GSLib$1187                       GSLib
     00000C7C  A$GSLib$1188                       GSLib
     00000C7F  A$GSLib$1189                       GSLib
     00000C80  A$GSLib$1190                       GSLib
     00000C82  A$GSLib$1191                       GSLib
     00000C84  A$GSLib$1192                       GSLib
     00000C85  A$GSLib$1193                       GSLib
     00000C88  A$GSLib$1194                       GSLib
     00000C8A  A$GSLib$1196                       GSLib
     00000C8D  A$GSLib$1197                       GSLib
     00000C8E  A$GSLib$1200                       GSLib
     00000C8F  A$GSLib$1201                       GSLib
     00000C90  A$GSLib$1203                       GSLib
     00000C94  A$GSLib$1205                       GSLib
     00000C97  A$GSLib$1206                       GSLib
     00000C99  A$GSLib$1207                       GSLib
     00000C9A  A$GSLib$1208                       GSLib
     00000C9D  A$GSLib$1209                       GSLib
     00000CA0  A$GSLib$1211                       GSLib
     00000CA3  A$GSLib$1212                       GSLib
     00000CA6  A$GSLib$1213                       GSLib
     00000CA7  A$GSLib$1216                       GSLib
     00000CAA  A$GSLib$1217                       GSLib
     00000CAB  A$GSLib$1218                       GSLib
     00000CAE  A$GSLib$1221                       GSLib
     00000CAF  A$GSLib$1222                       GSLib
     00000CB2  A$GSLib$1223                       GSLib
     00000CB4  A$GSLib$1224                       GSLib
     00000CB6  A$GSLib$1225                       GSLib
     00000CB8  A$GSLib$1226                       GSLib
     00000CB9  A$GSLib$1227                       GSLib
     00000CBB  A$GSLib$1229                       GSLib
     00000CBE  A$GSLib$1230                       GSLib
     00000CC0  A$GSLib$1231                       GSLib
     00000CC1  A$GSLib$1232                       GSLib
     00000CC2  A$GSLib$1233                       GSLib
     00000CC5  A$GSLib$1234                       GSLib
     00000CC6  A$GSLib$1235                       GSLib
     00000CC9  A$GSLib$1236                       GSLib
     00000CCA  A$GSLib$1238                       GSLib
     00000CCB  A$GSLib$1239                       GSLib
     00000CCC  A$GSLib$1242                       GSLib
     00000CCD  A$GSLib$1243                       GSLib
     00000CCE  A$GSLib$1244                       GSLib
ASxxxx Linker V03.00 + NoICE + sdld,  page 19.
Hexadecimal  [32-Bits]

Area                                    Addr        Size        Decimal Bytes (Attributes)
--------------------------------        ----        ----        ------- ----- ------------
_CODE                               00000200    00006F18 =       28440. bytes (REL,CON)

      Value  Global                              Global Defined In Module
      -----  --------------------------------   ------------------------
     00000CCF  A$GSLib$1245                       GSLib
     00000CD3  A$GSLib$1246                       GSLib
     00000CD5  A$GSLib$1248                       GSLib
     00000CD8  A$GSLib$1249                       GSLib
     00000CD9  A$GSLib$1250                       GSLib
     00000CDA  A$GSLib$1251                       GSLib
     00000CDC  A$GSLib$1252                       GSLib
     00000CDE  A$GSLib$1253                       GSLib
     00000CE1  A$GSLib$1254                       GSLib
     00000CE2  A$GSLib$1255                       GSLib
     00000CE3  A$GSLib$1256                       GSLib
     00000CE4  A$GSLib$1257                       GSLib
     00000CE5  A$GSLib$1258                       GSLib
     00000CE8  A$GSLib$1262                       GSLib
     00000CE9  A$GSLib$1263                       GSLib
     00000CEB  A$GSLib$1264                       GSLib
     00000CEC  A$GSLib$1265                       GSLib
     00000CEE  A$GSLib$1266                       GSLib
     00000CF0  A$GSLib$1267                       GSLib
     00000CF1  A$GSLib$1269                       GSLib
     00000CF2  A$GSLib$1270                       GSLib
     00000CF3  A$GSLib$1271                       GSLib
     00000CF5  A$GSLib$1272                       GSLib
     00000CF6  A$GSLib$1273                       GSLib
     00000CF7  A$GSLib$1274                       GSLib
     00000CFA  A$GSLib$1275                       GSLib
     00000CFB  A$GSLib$1279                       GSLib
     00000CFC  A$GSLib$1280                       GSLib
     00000CFD  A$GSLib$1281                       GSLib
     00000CFE  A$GSLib$1282                       GSLib
     00000D02  A$GSLib$1283                       GSLib
     00000D04  A$GSLib$1284                       GSLib
     00000D05  A$GSLib$1285                       GSLib
     00000D07  A$GSLib$1286                       GSLib
     00000D0A  A$GSLib$1289                       GSLib
     00000D0D  A$GSLib$1290                       GSLib
     00000D0E  A$GSLib$1291                       GSLib
     00000D11  A$GSLib$1293                       GSLib
     00000D12  A$GSLib$1294                       GSLib
     00000D15  A$GSLib$1295                       GSLib
     00000D18  A$GSLib$1296                       GSLib
     00000D1A  A$GSLib$1297                       GSLib
     00000D1B  A$GSLib$1298                       GSLib
     00000D1D  A$GSLib$1300                       GSLib
     00000D20  A$GSLib$1301                       GSLib
     00000D22  A$GSLib$1302                       GSLib
     00000D23  A$GSLib$1303                       GSLib
     00000D24  A$GSLib$1304                       GSLib
     00000D27  A$GSLib$1305                       GSLib
     00000D28  A$GSLib$1306                       GSLib
     00000D2B  A$GSLib$1307                       GSLib
ASxxxx Linker V03.00 + NoICE + sdld,  page 20.
Hexadecimal  [32-Bits]

Area                                    Addr        Size        Decimal Bytes (Attributes)
--------------------------------        ----        ----        ------- ----- ------------
_CODE                               00000200    00006F18 =       28440. bytes (REL,CON)

      Value  Global                              Global Defined In Module
      -----  --------------------------------   ------------------------
     00000D2C  A$GSLib$1309                       GSLib
     00000D2D  A$GSLib$1310                       GSLib
     00000D2E  A$GSLib$1313                       GSLib
     00000D2F  A$GSLib$1314                       GSLib
     00000D30  A$GSLib$1315                       GSLib
     00000D31  A$GSLib$1316                       GSLib
     00000D35  A$GSLib$1317                       GSLib
     00000D37  A$GSLib$1319                       GSLib
     00000D3A  A$GSLib$1320                       GSLib
     00000D3C  A$GSLib$1321                       GSLib
     00000D3D  A$GSLib$1322                       GSLib
     00000D3E  A$GSLib$1323                       GSLib
     00000D41  A$GSLib$1324                       GSLib
     00000D42  A$GSLib$1325                       GSLib
     00000D43  A$GSLib$1326                       GSLib
     00000D44  A$GSLib$1327                       GSLib
     00000D45  A$GSLib$1328                       GSLib
     00000D48  A$GSLib$1332                       GSLib
     00000D49  A$GSLib$1333                       GSLib
     00000D4C  A$GSLib$1334                       GSLib
     00000D4E  A$GSLib$1335                       GSLib
     00000D50  A$GSLib$1336                       GSLib
     00000D51  A$GSLib$1337                       GSLib
     00000D52  A$GSLib$1339                       GSLib
     00000D53  A$GSLib$1340                       GSLib
     00000D54  A$GSLib$1341                       GSLib
     00000D56  A$GSLib$1342                       GSLib
     00000D57  A$GSLib$1343                       GSLib
     00000D58  A$GSLib$1344                       GSLib
     00000D5B  A$GSLib$1345                       GSLib
     00000D5C  A$GSLib$1349                       GSLib
     00000D5D  A$GSLib$1350                       GSLib
     00000D5E  A$GSLib$1351                       GSLib
     00000D5F  A$GSLib$1352                       GSLib
     00000D63  A$GSLib$1353                       GSLib
     00000D65  A$GSLib$1354                       GSLib
     00000D66  A$GSLib$1355                       GSLib
     00000D68  A$GSLib$1356                       GSLib
     00000D6B  A$GSLib$1359                       GSLib
     00000D6E  A$GSLib$1360                       GSLib
     00000D6F  A$GSLib$1361                       GSLib
     00000D72  A$GSLib$1362                       GSLib
     00000D75  A$GSLib$1363                       GSLib
     00000D76  A$GSLib$1366                       GSLib
     00000D78  A$GSLib$1367                       GSLib
     00000D79  A$GSLib$1368                       GSLib
     00000D7A  A$GSLib$1370                       GSLib
     00000D7B  A$GSLib$1371                       GSLib
     00000D7C  A$GSLib$1372                       GSLib
     00000D7D  A$GSLib$1373                       GSLib
     00000D7E  A$GSLib$1374                       GSLib
ASxxxx Linker V03.00 + NoICE + sdld,  page 21.
Hexadecimal  [32-Bits]

Area                                    Addr        Size        Decimal Bytes (Attributes)
--------------------------------        ----        ----        ------- ----- ------------
_CODE                               00000200    00006F18 =       28440. bytes (REL,CON)

      Value  Global                              Global Defined In Module
      -----  --------------------------------   ------------------------
     00000D80  A$GSLib$1375                       GSLib
     00000D82  A$GSLib$1376                       GSLib
     00000D84  A$GSLib$1378                       GSLib
     00000D85  A$GSLib$1379                       GSLib
     00000D87  A$GSLib$1380                       GSLib
     00000D89  A$GSLib$1381                       GSLib
     00000D8B  A$GSLib$1382                       GSLib
     00000D8D  A$GSLib$1384                       GSLib
     00000D8F  A$GSLib$1385                       GSLib
     00000D90  A$GSLib$1386                       GSLib
     00000D91  A$GSLib$1387                       GSLib
     00000D92  A$GSLib$1388                       GSLib
     00000D94  A$GSLib$1389                       GSLib
     00000D96  A$GSLib$1391                       GSLib
     00000D97  A$GSLib$1392                       GSLib
     00000D99  A$GSLib$1393                       GSLib
     00000D9B  A$GSLib$1394                       GSLib
     00000D9D  A$GSLib$1395                       GSLib
     00000D9F  A$GSLib$1397                       GSLib
     00000DA0  A$GSLib$1398                       GSLib
     00000DA1  A$GSLib$1399                       GSLib
     00000DA4  A$GSLib$1402                       GSLib
     00000DA7  A$GSLib$1403                       GSLib
     00000DAA  A$GSLib$1404                       GSLib
     00000DAB  A$GSLib$1405                       GSLib
     00000DAE  A$GSLib$1406                       GSLib
     00000DB1  A$GSLib$1407                       GSLib
     00000DB4  A$GSLib$1409                       GSLib
     00000DB7  A$GSLib$1410                       GSLib
     00000DB9  A$GSLib$1411                       GSLib
     00000DBB  A$GSLib$1412                       GSLib
     00000DBD  A$GSLib$1413                       GSLib
     00000DBF  A$GSLib$1414                       GSLib
     00000DC2  A$GSLib$1415                       GSLib
     00000DC4  A$GSLib$1416                       GSLib
     00000DC6  A$GSLib$1417                       GSLib
     00000DC8  A$GSLib$1418                       GSLib
     00000DC9  A$GSLib$1420                       GSLib
     00000DCB  A$GSLib$1421                       GSLib
     00000DCC  A$GSLib$1422                       GSLib
     00000DCE  A$GSLib$1423                       GSLib
     00000DD0  A$GSLib$1424                       GSLib
     00000DD2  A$GSLib$1425                       GSLib
     00000DD4  A$GSLib$1426                       GSLib
     00000DD6  A$GSLib$1427                       GSLib
     00000DD8  A$GSLib$1428                       GSLib
     00000DDA  A$GSLib$1429                       GSLib
     00000DDC  A$GSLib$1430                       GSLib
     00000DDE  A$GSLib$1431                       GSLib
     00000DE0  A$GSLib$1432                       GSLib
     00000DE2  A$GSLib$1433                       GSLib
ASxxxx Linker V03.00 + NoICE + sdld,  page 22.
Hexadecimal  [32-Bits]

Area                                    Addr        Size        Decimal Bytes (Attributes)
--------------------------------        ----        ----        ------- ----- ------------
_CODE                               00000200    00006F18 =       28440. bytes (REL,CON)

      Value  Global                              Global Defined In Module
      -----  --------------------------------   ------------------------
     00000DE4  A$GSLib$1434                       GSLib
     00000DE6  A$GSLib$1435                       GSLib
     00000DE8  A$GSLib$1436                       GSLib
     00000DEA  A$GSLib$1437                       GSLib
     00000DEC  A$GSLib$1438                       GSLib
     00000DEE  A$GSLib$1439                       GSLib
     00000DF0  A$GSLib$1440                       GSLib
     00000DF2  A$GSLib$1441                       GSLib
     00000DF4  A$GSLib$1442                       GSLib
     00000DF6  A$GSLib$1443                       GSLib
     00000DF8  A$GSLib$1444                       GSLib
     00000DFA  A$GSLib$1445                       GSLib
     00000DFC  A$GSLib$1446                       GSLib
     00000DFE  A$GSLib$1447                       GSLib
     00000E00  A$GSLib$1448                       GSLib
     00000E02  A$GSLib$1449                       GSLib
     00000E04  A$GSLib$1450                       GSLib
     00000E06  A$GSLib$1451                       GSLib
     00000E08  A$GSLib$1452                       GSLib
     00000E0A  A$GSLib$1453                       GSLib
     00000E0C  A$GSLib$1454                       GSLib
     00000E0E  A$GSLib$1455                       GSLib
     00000E10  A$GSLib$1456                       GSLib
     00000E12  A$GSLib$1457                       GSLib
     00000E14  A$GSLib$1458                       GSLib
     00000E16  A$GSLib$1459                       GSLib
     00000E18  A$GSLib$1460                       GSLib
     00000E1A  A$GSLib$1461                       GSLib
     00000E1C  A$GSLib$1462                       GSLib
     00000E1E  A$GSLib$1463                       GSLib
     00000E20  A$GSLib$1464                       GSLib
     00000E22  A$GSLib$1465                       GSLib
     00000E24  A$GSLib$1466                       GSLib
     00000E26  A$GSLib$1467                       GSLib
     00000E28  A$GSLib$1468                       GSLib
     00000E2A  A$GSLib$1469                       GSLib
     00000E2C  A$GSLib$1470                       GSLib
     00000E2E  A$GSLib$1471                       GSLib
     00000E30  A$GSLib$1472                       GSLib
     00000E32  A$GSLib$1473                       GSLib
     00000E34  A$GSLib$1474                       GSLib
     00000E36  A$GSLib$1475                       GSLib
     00000E38  A$GSLib$1476                       GSLib
     00000E3A  A$GSLib$1477                       GSLib
     00000E3C  A$GSLib$1478                       GSLib
     00000E3E  A$GSLib$1479                       GSLib
     00000E40  A$GSLib$1480                       GSLib
     00000E42  A$GSLib$1481                       GSLib
     00000E44  A$GSLib$1482                       GSLib
     00000E46  A$GSLib$1483                       GSLib
     00000E48  A$GSLib$1484                       GSLib
ASxxxx Linker V03.00 + NoICE + sdld,  page 23.
Hexadecimal  [32-Bits]

Area                                    Addr        Size        Decimal Bytes (Attributes)
--------------------------------        ----        ----        ------- ----- ------------
_CODE                               00000200    00006F18 =       28440. bytes (REL,CON)

      Value  Global                              Global Defined In Module
      -----  --------------------------------   ------------------------
     00000E4A  A$GSLib$1485                       GSLib
     00000E4C  A$GSLib$1487                       GSLib
     00000E4D  A$GSLib$1488                       GSLib
     00000E4E  A$GSLib$1489                       GSLib
     00000E50  A$GSLib$1490                       GSLib
     00000E52  A$GSLib$1491                       GSLib
     00000E53  A$GSLib$1492                       GSLib
     00000E54  A$GSLib$1493                       GSLib
     00000E56  A$GSLib$1494                       GSLib
     00000E58  A$GSLib$1495                       GSLib
     00000E59  A$GSLib$1496                       GSLib
     00000E5B  A$GSLib$1497                       GSLib
     00000E5D  A$GSLib$1498                       GSLib
     00000E5E  A$GSLib$1499                       GSLib
     00000E5F  A$GSLib$1500                       GSLib
     00000E61  A$GSLib$1501                       GSLib
     00000E63  A$GSLib$1502                       GSLib
     00000E64  A$GSLib$1503                       GSLib
     00000E66  A$GSLib$1504                       GSLib
     00000E68  A$GSLib$1505                       GSLib
     00000E69  A$GSLib$1506                       GSLib
     00000E6A  A$GSLib$1507                       GSLib
     00000E6C  A$GSLib$1508                       GSLib
     00000E6E  A$GSLib$1509                       GSLib
     00000E6F  A$GSLib$1510                       GSLib
     00000E71  A$GSLib$1511                       GSLib
     00000E73  A$GSLib$1512                       GSLib
     00000E74  A$GSLib$1513                       GSLib
     00000E75  A$GSLib$1514                       GSLib
     00000E77  A$GSLib$1515                       GSLib
     00000E79  A$GSLib$1516                       GSLib
     00000E7A  A$GSLib$1517                       GSLib
     00000E7C  A$GSLib$1518                       GSLib
     00000E7E  A$GSLib$1519                       GSLib
     00000E7F  A$GSLib$1520                       GSLib
     00000E80  A$GSLib$1521                       GSLib
     00000E82  A$GSLib$1522                       GSLib
     00000E84  A$GSLib$1523                       GSLib
     00000E85  A$GSLib$1524                       GSLib
     00000E87  A$GSLib$1525                       GSLib
     00000E89  A$GSLib$1526                       GSLib
     00000E8A  A$GSLib$1527                       GSLib
     00000E8B  A$GSLib$1528                       GSLib
     00000E8D  A$GSLib$1529                       GSLib
     00000E8F  A$GSLib$1530                       GSLib
     00000E90  A$GSLib$1531                       GSLib
     00000E92  A$GSLib$1532                       GSLib
     00000E94  A$GSLib$1533                       GSLib
     00000E95  A$GSLib$1534                       GSLib
     00000E96  A$GSLib$1535                       GSLib
     00000E98  A$GSLib$1536                       GSLib
ASxxxx Linker V03.00 + NoICE + sdld,  page 24.
Hexadecimal  [32-Bits]

Area                                    Addr        Size        Decimal Bytes (Attributes)
--------------------------------        ----        ----        ------- ----- ------------
_CODE                               00000200    00006F18 =       28440. bytes (REL,CON)

      Value  Global                              Global Defined In Module
      -----  --------------------------------   ------------------------
     00000E9A  A$GSLib$1537                       GSLib
     00000E9B  A$GSLib$1538                       GSLib
     00000E9D  A$GSLib$1539                       GSLib
     00000E9F  A$GSLib$1540                       GSLib
     00000EA0  A$GSLib$1541                       GSLib
     00000EA1  A$GSLib$1542                       GSLib
     00000EA3  A$GSLib$1543                       GSLib
     00000EA5  A$GSLib$1544                       GSLib
     00000EA6  A$GSLib$1545                       GSLib
     00000EA8  A$GSLib$1546                       GSLib
     00000EAA  A$GSLib$1547                       GSLib
     00000EAB  A$GSLib$1548                       GSLib
     00000EAC  A$GSLib$1549                       GSLib
     00000EAE  A$GSLib$1550                       GSLib
     00000EB0  A$GSLib$1551                       GSLib
     00000EB1  A$GSLib$1552                       GSLib
     00000EB3  A$GSLib$1553                       GSLib
     00000EB5  A$GSLib$1554                       GSLib
     00000EB6  A$GSLib$1555                       GSLib
     00000EB7  A$GSLib$1556                       GSLib
     00000EB9  A$GSLib$1557                       GSLib
     00000EBB  A$GSLib$1558                       GSLib
     00000EBC  A$GSLib$1559                       GSLib
     00000EBE  A$GSLib$1560                       GSLib
     00000EC0  A$GSLib$1561                       GSLib
     00000EC1  A$GSLib$1562                       GSLib
     00000EC2  A$GSLib$1563                       GSLib
     00000EC4  A$GSLib$1564                       GSLib
     00000EC6  A$GSLib$1565                       GSLib
     00000EC7  A$GSLib$1566                       GSLib
     00000EC9  A$GSLib$1567                       GSLib
     00000ECB  A$GSLib$1568                       GSLib
     00000ECC  A$GSLib$1569                       GSLib
     00000ECD  A$GSLib$1570                       GSLib
     00000ECF  A$GSLib$1571                       GSLib
     00000ED1  A$GSLib$1572                       GSLib
     00000ED2  A$GSLib$1573                       GSLib
     00000ED4  A$GSLib$1574                       GSLib
     00000ED6  A$GSLib$1575                       GSLib
     00000ED7  A$GSLib$1576                       GSLib
     00000ED8  A$GSLib$1577                       GSLib
     00000EDA  A$GSLib$1578                       GSLib
     00000EDC  A$GSLib$1579                       GSLib
     00000EDD  A$GSLib$1580                       GSLib
     00000EDF  A$GSLib$1581                       GSLib
     00000EE1  A$GSLib$1582                       GSLib
     00000EE2  A$GSLib$1583                       GSLib
     00000EE3  A$GSLib$1584                       GSLib
     00000EE5  A$GSLib$1585                       GSLib
     00000EE7  A$GSLib$1586                       GSLib
     00000EE8  A$GSLib$1587                       GSLib
ASxxxx Linker V03.00 + NoICE + sdld,  page 25.
Hexadecimal  [32-Bits]

Area                                    Addr        Size        Decimal Bytes (Attributes)
--------------------------------        ----        ----        ------- ----- ------------
_CODE                               00000200    00006F18 =       28440. bytes (REL,CON)

      Value  Global                              Global Defined In Module
      -----  --------------------------------   ------------------------
     00000EEA  A$GSLib$1588                       GSLib
     00000EEC  A$GSLib$1589                       GSLib
     00000EED  A$GSLib$1590                       GSLib
     00000EEE  A$GSLib$1591                       GSLib
     00000EF0  A$GSLib$1592                       GSLib
     00000EF2  A$GSLib$1593                       GSLib
     00000EF3  A$GSLib$1594                       GSLib
     00000EF5  A$GSLib$1595                       GSLib
     00000EF7  A$GSLib$1596                       GSLib
     00000EF8  A$GSLib$1597                       GSLib
     00000EF9  A$GSLib$1598                       GSLib
     00000EFB  A$GSLib$1599                       GSLib
     00000EFD  A$GSLib$1600                       GSLib
     00000EFE  A$GSLib$1601                       GSLib
     00000F00  A$GSLib$1602                       GSLib
     00000F02  A$GSLib$1603                       GSLib
     00000F03  A$GSLib$1604                       GSLib
     00000F04  A$GSLib$1605                       GSLib
     00000F06  A$GSLib$1606                       GSLib
     00000F08  A$GSLib$1607                       GSLib
     00000F09  A$GSLib$1608                       GSLib
     00000F0B  A$GSLib$1609                       GSLib
     00000F0D  A$GSLib$1610                       GSLib
     00000F0E  A$GSLib$1611                       GSLib
     00000F0F  A$GSLib$1612                       GSLib
     00000F11  A$GSLib$1613                       GSLib
     00000F13  A$GSLib$1614                       GSLib
     00000F14  A$GSLib$1615                       GSLib
     00000F16  A$GSLib$1616                       GSLib
     00000F18  A$GSLib$1617                       GSLib
     00000F19  A$GSLib$1618                       GSLib
     00000F1A  A$GSLib$1619                       GSLib
     00000F1C  A$GSLib$1620                       GSLib
     00000F1E  A$GSLib$1621                       GSLib
     00000F1F  A$GSLib$1622                       GSLib
     00000F21  A$GSLib$1623                       GSLib
     00000F23  A$GSLib$1624                       GSLib
     00000F24  A$GSLib$1625                       GSLib
     00000F25  A$GSLib$1626                       GSLib
     00000F27  A$GSLib$1627                       GSLib
     00000F29  A$GSLib$1628                       GSLib
     00000F2A  A$GSLib$1629                       GSLib
     00000F2C  A$GSLib$1630                       GSLib
     00000F2E  A$GSLib$1631                       GSLib
     00000F2F  A$GSLib$1632                       GSLib
     00000F30  A$GSLib$1633                       GSLib
     00000F32  A$GSLib$1634                       GSLib
     00000F34  A$GSLib$1635                       GSLib
     00000F35  A$GSLib$1636                       GSLib
     00000F37  A$GSLib$1637                       GSLib
     00000F39  A$GSLib$1638                       GSLib
ASxxxx Linker V03.00 + NoICE + sdld,  page 26.
Hexadecimal  [32-Bits]

Area                                    Addr        Size        Decimal Bytes (Attributes)
--------------------------------        ----        ----        ------- ----- ------------
_CODE                               00000200    00006F18 =       28440. bytes (REL,CON)

      Value  Global                              Global Defined In Module
      -----  --------------------------------   ------------------------
     00000F3A  A$GSLib$1639                       GSLib
     00000F3B  A$GSLib$1640                       GSLib
     00000F3D  A$GSLib$1641                       GSLib
     00000F3F  A$GSLib$1642                       GSLib
     00000F40  A$GSLib$1643                       GSLib
     00000F42  A$GSLib$1644                       GSLib
     00000F44  A$GSLib$1645                       GSLib
     00000F45  A$GSLib$1646                       GSLib
     00000F46  A$GSLib$1647                       GSLib
     00000F48  A$GSLib$1648                       GSLib
     00000F4A  A$GSLib$1649                       GSLib
     00000F4B  A$GSLib$1650                       GSLib
     00000F4D  A$GSLib$1651                       GSLib
     00000F4F  A$GSLib$1652                       GSLib
     00000F50  A$GSLib$1653                       GSLib
     00000F51  A$GSLib$1654                       GSLib
     00000F53  A$GSLib$1655                       GSLib
     00000F55  A$GSLib$1656                       GSLib
     00000F56  A$GSLib$1657                       GSLib
     00000F58  A$GSLib$1658                       GSLib
     00000F5A  A$GSLib$1659                       GSLib
     00000F5B  A$GSLib$1660                       GSLib
     00000F5C  A$GSLib$1661                       GSLib
     00000F5E  A$GSLib$1662                       GSLib
     00000F60  A$GSLib$1663                       GSLib
     00000F61  A$GSLib$1664                       GSLib
     00000F63  A$GSLib$1665                       GSLib
     00000F65  A$GSLib$1666                       GSLib
     00000F66  A$GSLib$1667                       GSLib
     00000F67  A$GSLib$1668                       GSLib
     00000F69  A$GSLib$1669                       GSLib
     00000F6B  A$GSLib$1670                       GSLib
     00000F6C  A$GSLib$1671                       GSLib
     00000F6E  A$GSLib$1672                       GSLib
     00000F70  A$GSLib$1673                       GSLib
     00000F71  A$GSLib$1674                       GSLib
     00000F72  A$GSLib$1675                       GSLib
     00000F74  A$GSLib$1676                       GSLib
     00000F76  A$GSLib$1677                       GSLib
     00000F77  A$GSLib$1678                       GSLib
     00000F79  A$GSLib$1679                       GSLib
     00000F7B  A$GSLib$1680                       GSLib
     00000F7C  A$GSLib$1681                       GSLib
     00000F7D  A$GSLib$1682                       GSLib
     00000F7F  A$GSLib$1683                       GSLib
     00000F81  A$GSLib$1685                       GSLib
     00000F82  A$GSLib$1694                       GSLib
     00000F82  C$GSLib.c$1725$1_0$30              GSLib
     00000F82  XG$GSL_initializeMap$0$0           GSLib
     00000F83  G$GSL_LUTColumnUpdate$0_0$0        GSLib
     00000F83  _GSL_LUTColumnUpdate               GSLib
ASxxxx Linker V03.00 + NoICE + sdld,  page 27.
Hexadecimal  [32-Bits]

Area                                    Addr        Size        Decimal Bytes (Attributes)
--------------------------------        ----        ----        ------- ----- ------------
_CODE                               00000200    00006F18 =       28440. bytes (REL,CON)

      Value  Global                              Global Defined In Module
      -----  --------------------------------   ------------------------
     00000FF3  G$GSL_LUTRowUpdate$0_0$0           GSLib
     00000FF3  _GSL_LUTRowUpdate                  GSLib
     00001073  A$_sms_manager$279                 _sms_manager
     00001073  C$_sms_manager.c$12$0_0$146        _sms_manager
     00001073  C$_sms_manager.c$14$1_0$146        _sms_manager
     00001073  C$_sms_manager.c$15$1_0$146        _sms_manager
     00001073  G$devkit_SMS_init$0$0              _sms_manager
     00001073  XG$devkit_SMS_init$0$0             _sms_manager
     00001073  _devkit_SMS_init                   _sms_manager
     00001076  A$_sms_manager$292                 _sms_manager
     00001076  C$_sms_manager.c$18$1_0$148        _sms_manager
     00001076  C$_sms_manager.c$20$1_0$148        _sms_manager
     00001076  G$devkit_SMS_VDPturnOnFeature$0$   _sms_manager
     00001076  _devkit_SMS_VDPturnOnFeature       _sms_manager
     0000107A  A$_sms_manager$293                 _sms_manager
     0000107C  A$_sms_manager$294                 _sms_manager
     0000107F  A$_sms_manager$295                 _sms_manager
     00001082  A$_sms_manager$303                 _sms_manager
     00001082  C$_sms_manager.c$21$1_0$148        _sms_manager
     00001082  XG$devkit_SMS_VDPturnOnFeature$0   _sms_manager
     00001085  A$_sms_manager$316                 _sms_manager
     00001085  C$_sms_manager.c$22$1_0$150        _sms_manager
     00001085  C$_sms_manager.c$24$1_0$150        _sms_manager
     00001085  G$devkit_SMS_VDPturnOffFeature$0   _sms_manager
     00001085  _devkit_SMS_VDPturnOffFeature      _sms_manager
     00001089  A$_sms_manager$317                 _sms_manager
     0000108B  A$_sms_manager$318                 _sms_manager
     0000108E  A$_sms_manager$319                 _sms_manager
     00001091  A$_sms_manager$327                 _sms_manager
     00001091  C$_sms_manager.c$25$1_0$150        _sms_manager
     00001091  XG$devkit_SMS_VDPturnOffFeature$   _sms_manager
     00001094  A$_sms_manager$340                 _sms_manager
     00001094  C$_sms_manager.c$28$1_0$151        _sms_manager
     00001094  C$_sms_manager.c$30$1_0$151        _sms_manager
     00001094  G$devkit_VDPFEATURE_EXTRAHEIGHT$   _sms_manager
     00001094  _devkit_VDPFEATURE_EXTRAHEIGHT     _sms_manager
     00001097  A$_sms_manager$348                 _sms_manager
     00001097  C$_sms_manager.c$31$1_0$151        _sms_manager
     00001097  XG$devkit_VDPFEATURE_EXTRAHEIGHT   _sms_manager
     00001098  A$_sms_manager$361                 _sms_manager
     00001098  C$_sms_manager.c$32$1_0$152        _sms_manager
     00001098  C$_sms_manager.c$34$1_0$152        _sms_manager
     00001098  G$devkit_VDPFEATURE_SHIFTSPRITES   _sms_manager
     00001098  _devkit_VDPFEATURE_SHIFTSPRITES    _sms_manager
     0000109B  A$_sms_manager$369                 _sms_manager
     0000109B  C$_sms_manager.c$35$1_0$152        _sms_manager
     0000109B  XG$devkit_VDPFEATURE_SHIFTSPRITE   _sms_manager
     0000109C  A$_sms_manager$382                 _sms_manager
     0000109C  C$_sms_manager.c$36$1_0$153        _sms_manager
     0000109C  C$_sms_manager.c$38$1_0$153        _sms_manager
     0000109C  G$devkit_VDPFEATURE_HIDEFIRSTCOL   _sms_manager
ASxxxx Linker V03.00 + NoICE + sdld,  page 28.
Hexadecimal  [32-Bits]

Area                                    Addr        Size        Decimal Bytes (Attributes)
--------------------------------        ----        ----        ------- ----- ------------
_CODE                               00000200    00006F18 =       28440. bytes (REL,CON)

      Value  Global                              Global Defined In Module
      -----  --------------------------------   ------------------------
     0000109C  _devkit_VDPFEATURE_HIDEFIRSTCOL    _sms_manager
     0000109F  A$_sms_manager$390                 _sms_manager
     0000109F  C$_sms_manager.c$39$1_0$153        _sms_manager
     0000109F  XG$devkit_VDPFEATURE_HIDEFIRSTCO   _sms_manager
     000010A0  A$_sms_manager$403                 _sms_manager
     000010A0  C$_sms_manager.c$40$1_0$154        _sms_manager
     000010A0  C$_sms_manager.c$42$1_0$154        _sms_manager
     000010A0  G$devkit_VDPFEATURE_LEFTCOLBLANK   _sms_manager
     000010A0  _devkit_VDPFEATURE_LEFTCOLBLANK    _sms_manager
     000010A3  A$_sms_manager$411                 _sms_manager
     000010A3  C$_sms_manager.c$43$1_0$154        _sms_manager
     000010A3  XG$devkit_VDPFEATURE_LEFTCOLBLAN   _sms_manager
     000010A4  A$_sms_manager$424                 _sms_manager
     000010A4  C$_sms_manager.c$44$1_0$155        _sms_manager
     000010A4  C$_sms_manager.c$46$1_0$155        _sms_manager
     000010A4  G$devkit_VDPFEATURE_LOCKHSCROLL$   _sms_manager
     000010A4  _devkit_VDPFEATURE_LOCKHSCROLL     _sms_manager
     000010A7  A$_sms_manager$432                 _sms_manager
     000010A7  C$_sms_manager.c$47$1_0$155        _sms_manager
     000010A7  XG$devkit_VDPFEATURE_LOCKHSCROLL   _sms_manager
     000010A8  A$_sms_manager$445                 _sms_manager
     000010A8  C$_sms_manager.c$48$1_0$156        _sms_manager
     000010A8  C$_sms_manager.c$50$1_0$156        _sms_manager
     000010A8  G$devkit_VDPFEATURE_LOCKVSCROLL$   _sms_manager
     000010A8  _devkit_VDPFEATURE_LOCKVSCROLL     _sms_manager
     000010AB  A$_sms_manager$453                 _sms_manager
     000010AB  C$_sms_manager.c$51$1_0$156        _sms_manager
     000010AB  XG$devkit_VDPFEATURE_LOCKVSCROLL   _sms_manager
     000010AC  A$_sms_manager$466                 _sms_manager
     000010AC  C$_sms_manager.c$54$1_0$157        _sms_manager
     000010AC  C$_sms_manager.c$56$1_0$157        _sms_manager
     000010AC  G$devkit_VDPFEATURE_ZOOMSPRITES$   _sms_manager
     000010AC  _devkit_VDPFEATURE_ZOOMSPRITES     _sms_manager
     000010AF  A$_sms_manager$474                 _sms_manager
     000010AF  C$_sms_manager.c$57$1_0$157        _sms_manager
     000010AF  XG$devkit_VDPFEATURE_ZOOMSPRITES   _sms_manager
     000010B0  A$_sms_manager$487                 _sms_manager
     000010B0  C$_sms_manager.c$58$1_0$158        _sms_manager
     000010B0  C$_sms_manager.c$60$1_0$158        _sms_manager
     000010B0  G$devkit_VDPFEATURE_USETALLSPRIT   _sms_manager
     000010B0  _devkit_VDPFEATURE_USETALLSPRITE   _sms_manager
     000010B3  A$_sms_manager$495                 _sms_manager
     000010B3  C$_sms_manager.c$61$1_0$158        _sms_manager
     000010B3  XG$devkit_VDPFEATURE_USETALLSPRI   _sms_manager
     000010B4  A$_sms_manager$508                 _sms_manager
     000010B4  C$_sms_manager.c$62$1_0$159        _sms_manager
     000010B4  C$_sms_manager.c$64$1_0$159        _sms_manager
     000010B4  G$devkit_VDPFEATURE_240LINES$0$0   _sms_manager
     000010B4  _devkit_VDPFEATURE_240LINES        _sms_manager
     000010B7  A$_sms_manager$516                 _sms_manager
     000010B7  C$_sms_manager.c$65$1_0$159        _sms_manager
ASxxxx Linker V03.00 + NoICE + sdld,  page 29.
Hexadecimal  [32-Bits]

Area                                    Addr        Size        Decimal Bytes (Attributes)
--------------------------------        ----        ----        ------- ----- ------------
_CODE                               00000200    00006F18 =       28440. bytes (REL,CON)

      Value  Global                              Global Defined In Module
      -----  --------------------------------   ------------------------
     000010B7  XG$devkit_VDPFEATURE_240LINES$0$   _sms_manager
     000010B8  A$_sms_manager$529                 _sms_manager
     000010B8  C$_sms_manager.c$66$1_0$160        _sms_manager
     000010B8  C$_sms_manager.c$68$1_0$160        _sms_manager
     000010B8  G$devkit_VDPFEATURE_224LINES$0$0   _sms_manager
     000010B8  _devkit_VDPFEATURE_224LINES        _sms_manager
     000010BB  A$_sms_manager$537                 _sms_manager
     000010BB  C$_sms_manager.c$69$1_0$160        _sms_manager
     000010BB  XG$devkit_VDPFEATURE_224LINES$0$   _sms_manager
     000010BC  A$_sms_manager$550                 _sms_manager
     000010BC  C$_sms_manager.c$70$1_0$161        _sms_manager
     000010BC  C$_sms_manager.c$72$1_0$161        _sms_manager
     000010BC  G$devkit_VDPFEATURE_FRAMEIRQ$0$0   _sms_manager
     000010BC  _devkit_VDPFEATURE_FRAMEIRQ        _sms_manager
     000010BF  A$_sms_manager$558                 _sms_manager
     000010BF  C$_sms_manager.c$73$1_0$161        _sms_manager
     000010BF  XG$devkit_VDPFEATURE_FRAMEIRQ$0$   _sms_manager
     000010C0  A$_sms_manager$571                 _sms_manager
     000010C0  C$_sms_manager.c$74$1_0$162        _sms_manager
     000010C0  C$_sms_manager.c$76$1_0$162        _sms_manager
     000010C0  G$devkit_VDPFEATURE_SHOWDISPLAY$   _sms_manager
     000010C0  _devkit_VDPFEATURE_SHOWDISPLAY     _sms_manager
     000010C3  A$_sms_manager$579                 _sms_manager
     000010C3  C$_sms_manager.c$77$1_0$162        _sms_manager
     000010C3  XG$devkit_VDPFEATURE_SHOWDISPLAY   _sms_manager
     000010C4  A$_sms_manager$592                 _sms_manager
     000010C4  C$_sms_manager.c$80$1_0$163        _sms_manager
     000010C4  C$_sms_manager.c$82$1_0$163        _sms_manager
     000010C4  G$devkit_SMS_displayOn$0$0         _sms_manager
     000010C4  _devkit_SMS_displayOn              _sms_manager
     000010C7  A$_sms_manager$600                 _sms_manager
     000010C7  C$_sms_manager.c$83$1_0$163        _sms_manager
     000010C7  XG$devkit_SMS_displayOn$0$0        _sms_manager
     000010CA  A$_sms_manager$613                 _sms_manager
     000010CA  C$_sms_manager.c$84$1_0$164        _sms_manager
     000010CA  C$_sms_manager.c$86$1_0$164        _sms_manager
     000010CA  G$devkit_SMS_displayOff$0$0        _sms_manager
     000010CA  _devkit_SMS_displayOff             _sms_manager
     000010CD  A$_sms_manager$621                 _sms_manager
     000010CD  C$_sms_manager.c$87$1_0$164        _sms_manager
     000010CD  XG$devkit_SMS_displayOff$0$0       _sms_manager
     000010D0  A$_sms_manager$634                 _sms_manager
     000010D0  C$_sms_manager.c$89$1_0$166        _sms_manager
     000010D0  C$_sms_manager.c$91$1_0$166        _sms_manager
     000010D0  G$devkit_SMS_setBGScrollX$0$0      _sms_manager
     000010D0  _devkit_SMS_setBGScrollX           _sms_manager
     000010D4  A$_sms_manager$635                 _sms_manager
     000010D6  A$_sms_manager$636                 _sms_manager
     000010D9  A$_sms_manager$644                 _sms_manager
     000010D9  C$_sms_manager.c$92$1_0$166        _sms_manager
     000010D9  XG$devkit_SMS_setBGScrollX$0$0     _sms_manager
ASxxxx Linker V03.00 + NoICE + sdld,  page 30.
Hexadecimal  [32-Bits]

Area                                    Addr        Size        Decimal Bytes (Attributes)
--------------------------------        ----        ----        ------- ----- ------------
_CODE                               00000200    00006F18 =       28440. bytes (REL,CON)

      Value  Global                              Global Defined In Module
      -----  --------------------------------   ------------------------
     000010DC  A$_sms_manager$657                 _sms_manager
     000010DC  C$_sms_manager.c$93$1_0$168        _sms_manager
     000010DC  C$_sms_manager.c$95$1_0$168        _sms_manager
     000010DC  G$devkit_SMS_setBGScrollY$0$0      _sms_manager
     000010DC  _devkit_SMS_setBGScrollY           _sms_manager
     000010E0  A$_sms_manager$658                 _sms_manager
     000010E2  A$_sms_manager$659                 _sms_manager
     000010E5  A$_sms_manager$667                 _sms_manager
     000010E5  C$_sms_manager.c$96$1_0$168        _sms_manager
     000010E5  XG$devkit_SMS_setBGScrollY$0$0     _sms_manager
     000010E8  A$_sms_manager$680                 _sms_manager
     000010E8  C$_sms_manager.c$97$1_0$170        _sms_manager
     000010E8  C$_sms_manager.c$99$1_0$170        _sms_manager
     000010E8  G$devkit_SMS_setBackdropColor$0$   _sms_manager
     000010E8  _devkit_SMS_setBackdropColor       _sms_manager
     000010EC  A$_sms_manager$681                 _sms_manager
     000010EE  A$_sms_manager$682                 _sms_manager
     000010F1  A$_sms_manager$690                 _sms_manager
     000010F1  C$_sms_manager.c$100$1_0$170       _sms_manager
     000010F1  XG$devkit_SMS_setBackdropColor$0   _sms_manager
     000010F4  A$_sms_manager$703                 _sms_manager
     000010F4  C$_sms_manager.c$101$1_0$172       _sms_manager
     000010F4  C$_sms_manager.c$103$1_0$172       _sms_manager
     000010F4  G$devkit_SMS_useFirstHalfTilesfo   _sms_manager
     000010F4  _devkit_SMS_useFirstHalfTilesfor   _sms_manager
     000010F5  A$_sms_manager$704                 _sms_manager
     000010F9  A$_sms_manager$705                 _sms_manager
     000010FB  A$_sms_manager$706                 _sms_manager
     000010FE  A$_sms_manager$707                 _sms_manager
     000010FF  A$_sms_manager$708                 _sms_manager
     00001100  A$_sms_manager$716                 _sms_manager
     00001100  C$_sms_manager.c$104$1_0$172       _sms_manager
     00001100  XG$devkit_SMS_useFirstHalfTilesf   _sms_manager
     00001103  A$_sms_manager$729                 _sms_manager
     00001103  C$_sms_manager.c$105$1_0$174       _sms_manager
     00001103  C$_sms_manager.c$107$1_0$174       _sms_manager
     00001103  G$devkit_SMS_setSpriteMode$0$0     _sms_manager
     00001103  _devkit_SMS_setSpriteMode          _sms_manager
     00001107  A$_sms_manager$730                 _sms_manager
     00001109  A$_sms_manager$731                 _sms_manager
     0000110C  A$_sms_manager$739                 _sms_manager
     0000110C  C$_sms_manager.c$108$1_0$174       _sms_manager
     0000110C  XG$devkit_SMS_setSpriteMode$0$0    _sms_manager
     0000110F  A$_sms_manager$752                 _sms_manager
     0000110F  C$_sms_manager.c$111$1_0$175       _sms_manager
     0000110F  C$_sms_manager.c$113$1_0$175       _sms_manager
     0000110F  G$devkit_SPRITEMODE_NORMAL$0$0     _sms_manager
     0000110F  _devkit_SPRITEMODE_NORMAL          _sms_manager
     00001111  A$_sms_manager$760                 _sms_manager
     00001111  C$_sms_manager.c$114$1_0$175       _sms_manager
     00001111  XG$devkit_SPRITEMODE_NORMAL$0$0    _sms_manager
ASxxxx Linker V03.00 + NoICE + sdld,  page 31.
Hexadecimal  [32-Bits]

Area                                    Addr        Size        Decimal Bytes (Attributes)
--------------------------------        ----        ----        ------- ----- ------------
_CODE                               00000200    00006F18 =       28440. bytes (REL,CON)

      Value  Global                              Global Defined In Module
      -----  --------------------------------   ------------------------
     00001112  A$_sms_manager$773                 _sms_manager
     00001112  C$_sms_manager.c$115$1_0$176       _sms_manager
     00001112  C$_sms_manager.c$117$1_0$176       _sms_manager
     00001112  G$devkit_SPRITEMODE_TALL$0$0       _sms_manager
     00001112  _devkit_SPRITEMODE_TALL            _sms_manager
     00001114  A$_sms_manager$781                 _sms_manager
     00001114  C$_sms_manager.c$118$1_0$176       _sms_manager
     00001114  XG$devkit_SPRITEMODE_TALL$0$0      _sms_manager
     00001115  A$_sms_manager$794                 _sms_manager
     00001115  C$_sms_manager.c$119$1_0$177       _sms_manager
     00001115  C$_sms_manager.c$121$1_0$177       _sms_manager
     00001115  G$devkit_SPRITEMODE_ZOOMED$0$0     _sms_manager
     00001115  _devkit_SPRITEMODE_ZOOMED          _sms_manager
     00001117  A$_sms_manager$802                 _sms_manager
     00001117  C$_sms_manager.c$122$1_0$177       _sms_manager
     00001117  XG$devkit_SPRITEMODE_ZOOMED$0$0    _sms_manager
     00001118  A$_sms_manager$815                 _sms_manager
     00001118  C$_sms_manager.c$123$1_0$178       _sms_manager
     00001118  C$_sms_manager.c$125$1_0$178       _sms_manager
     00001118  G$devkit_SPRITEMODE_TALL_ZOOMED$   _sms_manager
     00001118  _devkit_SPRITEMODE_TALL_ZOOMED     _sms_manager
     0000111A  A$_sms_manager$823                 _sms_manager
     0000111A  C$_sms_manager.c$126$1_0$178       _sms_manager
     0000111A  XG$devkit_SPRITEMODE_TALL_ZOOMED   _sms_manager
     0000111B  A$_sms_manager$836                 _sms_manager
     0000111B  C$_sms_manager.c$130$1_0$180       _sms_manager
     0000111B  C$_sms_manager.c$132$1_0$180       _sms_manager
     0000111B  G$devkit_SMS_mapROMBank$0$0        _sms_manager
     0000111B  _devkit_SMS_mapROMBank             _sms_manager
     0000111F  A$_sms_manager$837                 _sms_manager
     00001121  A$_sms_manager$838                 _sms_manager
     00001124  A$_sms_manager$839                 _sms_manager
     00001127  A$_sms_manager$847                 _sms_manager
     00001127  C$_sms_manager.c$133$1_0$180       _sms_manager
     00001127  XG$devkit_SMS_mapROMBank$0$0       _sms_manager
     00001128  A$_sms_manager$860                 _sms_manager
     00001128  C$_sms_manager.c$136$1_0$181       _sms_manager
     00001128  C$_sms_manager.c$138$1_0$181       _sms_manager
     00001128  G$devkit_SMS_enableSRAM$0$0        _sms_manager
     00001128  _devkit_SMS_enableSRAM             _sms_manager
     0000112A  A$_sms_manager$861                 _sms_manager
     0000112D  A$_sms_manager$869                 _sms_manager
     0000112D  C$_sms_manager.c$139$1_0$181       _sms_manager
     0000112D  XG$devkit_SMS_enableSRAM$0$0       _sms_manager
     0000112E  A$_sms_manager$882                 _sms_manager
     0000112E  C$_sms_manager.c$140$1_0$183       _sms_manager
     0000112E  C$_sms_manager.c$142$1_0$183       _sms_manager
     0000112E  G$devkit_SMS_enableSRAMBank$0$0    _sms_manager
     0000112E  _devkit_SMS_enableSRAMBank         _sms_manager
     00001132  A$_sms_manager$883                 _sms_manager
     00001134  A$_sms_manager$884                 _sms_manager
ASxxxx Linker V03.00 + NoICE + sdld,  page 32.
Hexadecimal  [32-Bits]

Area                                    Addr        Size        Decimal Bytes (Attributes)
--------------------------------        ----        ----        ------- ----- ------------
_CODE                               00000200    00006F18 =       28440. bytes (REL,CON)

      Value  Global                              Global Defined In Module
      -----  --------------------------------   ------------------------
     00001137  A$_sms_manager$885                 _sms_manager
     00001138  A$_sms_manager$886                 _sms_manager
     00001139  A$_sms_manager$887                 _sms_manager
     0000113B  A$_sms_manager$888                 _sms_manager
     0000113D  A$_sms_manager$889                 _sms_manager
     00001140  A$_sms_manager$897                 _sms_manager
     00001140  C$_sms_manager.c$143$1_0$183       _sms_manager
     00001140  XG$devkit_SMS_enableSRAMBank$0$0   _sms_manager
     00001141  A$_sms_manager$910                 _sms_manager
     00001141  C$_sms_manager.c$144$1_0$184       _sms_manager
     00001141  C$_sms_manager.c$146$1_0$184       _sms_manager
     00001141  G$devkit_SMS_disableSRAM$0$0       _sms_manager
     00001141  _devkit_SMS_disableSRAM            _sms_manager
     00001143  A$_sms_manager$911                 _sms_manager
     00001146  A$_sms_manager$919                 _sms_manager
     00001146  C$_sms_manager.c$147$1_0$184       _sms_manager
     00001146  XG$devkit_SMS_disableSRAM$0$0      _sms_manager
     00001147  A$_sms_manager$932                 _sms_manager
     00001147  C$_sms_manager.c$150$1_0$185       _sms_manager
     00001147  C$_sms_manager.c$152$1_0$185       _sms_manager
     00001147  G$devkit_SMS_SRAM$0$0              _sms_manager
     00001147  _devkit_SMS_SRAM                   _sms_manager
     0000114A  A$_sms_manager$940                 _sms_manager
     0000114A  C$_sms_manager.c$153$1_0$185       _sms_manager
     0000114A  XG$devkit_SMS_SRAM$0$0             _sms_manager
     0000114B  A$_sms_manager$960                 _sms_manager
     0000114B  C$_sms_manager.c$156$1_0$186       _sms_manager
     0000114B  C$_sms_manager.c$158$1_0$186       _sms_manager
     0000114B  C$_sms_manager.c$159$1_0$186       _sms_manager
     0000114B  G$devkit_SMS_waitForVBlank$0$0     _sms_manager
     0000114B  XG$devkit_SMS_waitForVBlank$0$0    _sms_manager
     0000114B  _devkit_SMS_waitForVBlank          _sms_manager
     0000114E  A$_sms_manager$973                 _sms_manager
     0000114E  C$_sms_manager.c$161$1_0$188       _sms_manager
     0000114E  C$_sms_manager.c$163$1_0$188       _sms_manager
     0000114E  G$devkit_SMS_crt0_RST08$0$0        _sms_manager
     0000114E  _devkit_SMS_crt0_RST08             _sms_manager
     00001152  A$_sms_manager$974                 _sms_manager
     00001154  A$_sms_manager$975                 _sms_manager
     00001157  A$_sms_manager$976                 _sms_manager
     0000115A  A$_sms_manager$984                 _sms_manager
     0000115A  C$_sms_manager.c$164$1_0$188       _sms_manager
     0000115A  XG$devkit_SMS_crt0_RST08$0$0       _sms_manager
     0000115D  A$_sms_manager$997                 _sms_manager
     0000115D  C$_sms_manager.c$165$1_0$190       _sms_manager
     0000115D  C$_sms_manager.c$167$1_0$190       _sms_manager
     0000115D  G$devkit_SMS_crt0_RST18$0$0        _sms_manager
     0000115D  _devkit_SMS_crt0_RST18             _sms_manager
     00001161  A$_sms_manager$998                 _sms_manager
     00001163  A$_sms_manager$999                 _sms_manager
     00001166  A$_sms_manager$1000                _sms_manager
ASxxxx Linker V03.00 + NoICE + sdld,  page 33.
Hexadecimal  [32-Bits]

Area                                    Addr        Size        Decimal Bytes (Attributes)
--------------------------------        ----        ----        ------- ----- ------------
_CODE                               00000200    00006F18 =       28440. bytes (REL,CON)

      Value  Global                              Global Defined In Module
      -----  --------------------------------   ------------------------
     00001169  A$_sms_manager$1008                _sms_manager
     00001169  C$_sms_manager.c$168$1_0$190       _sms_manager
     00001169  XG$devkit_SMS_crt0_RST18$0$0       _sms_manager
     0000116C  A$_sms_manager$1021                _sms_manager
     0000116C  C$_sms_manager.c$171$1_0$192       _sms_manager
     0000116C  C$_sms_manager.c$173$1_0$192       _sms_manager
     0000116C  G$devkit_SMS_setTile$0$0           _sms_manager
     0000116C  _devkit_SMS_setTile                _sms_manager
     00001170  A$_sms_manager$1022                _sms_manager
     00001172  A$_sms_manager$1023                _sms_manager
     00001175  A$_sms_manager$1024                _sms_manager
     00001178  A$_sms_manager$1032                _sms_manager
     00001178  C$_sms_manager.c$174$1_0$192       _sms_manager
     00001178  XG$devkit_SMS_setTile$0$0          _sms_manager
     0000117B  A$_sms_manager$1045                _sms_manager
     0000117B  C$_sms_manager.c$175$1_0$194       _sms_manager
     0000117B  C$_sms_manager.c$177$1_0$194       _sms_manager
     0000117B  G$devkit_SMS_setAddr$0$0           _sms_manager
     0000117B  _devkit_SMS_setAddr                _sms_manager
     0000117F  A$_sms_manager$1046                _sms_manager
     00001181  A$_sms_manager$1047                _sms_manager
     00001184  A$_sms_manager$1048                _sms_manager
     00001187  A$_sms_manager$1056                _sms_manager
     00001187  C$_sms_manager.c$178$1_0$194       _sms_manager
     00001187  XG$devkit_SMS_setAddr$0$0          _sms_manager
     0000118A  A$_sms_manager$1076                _sms_manager
     0000118A  C$_sms_manager.c$182$1_0$196       _sms_manager
     0000118A  C$_sms_manager.c$184$1_0$196       _sms_manager
     0000118A  C$_sms_manager.c$185$1_0$196       _sms_manager
     0000118A  G$devkit_XYtoADDR$0$0              _sms_manager
     0000118A  XG$devkit_XYtoADDR$0$0             _sms_manager
     0000118A  _devkit_XYtoADDR                   _sms_manager
     0000118B  A$_sms_manager$1086                _sms_manager
     0000118B  C$_sms_manager.c$186$1_0$198       _sms_manager
     0000118B  G$devkit_SMS_setNextTileatXY$0$0   _sms_manager
     0000118B  _devkit_SMS_setNextTileatXY        _sms_manager
     0000118D  A$_sms_manager$1087                _sms_manager
     00001191  A$_sms_manager$1088                _sms_manager
     00001193  A$_sms_manager$1092                _sms_manager
     00001193  C$_sms_manager.c$188$1_0$198       _sms_manager
     00001196  A$_sms_manager$1093                _sms_manager
     00001198  A$_sms_manager$1094                _sms_manager
     00001199  A$_sms_manager$1095                _sms_manager
     0000119A  A$_sms_manager$1096                _sms_manager
     0000119B  A$_sms_manager$1097                _sms_manager
     0000119C  A$_sms_manager$1098                _sms_manager
     0000119D  A$_sms_manager$1099                _sms_manager
     000011A0  A$_sms_manager$1100                _sms_manager
     000011A2  A$_sms_manager$1101                _sms_manager
     000011A3  A$_sms_manager$1102                _sms_manager
     000011A4  A$_sms_manager$1103                _sms_manager
ASxxxx Linker V03.00 + NoICE + sdld,  page 34.
Hexadecimal  [32-Bits]

Area                                    Addr        Size        Decimal Bytes (Attributes)
--------------------------------        ----        ----        ------- ----- ------------
_CODE                               00000200    00006F18 =       28440. bytes (REL,CON)

      Value  Global                              Global Defined In Module
      -----  --------------------------------   ------------------------
     000011A5  A$_sms_manager$1104                _sms_manager
     000011A7  A$_sms_manager$1105                _sms_manager
     000011A8  A$_sms_manager$1113                _sms_manager
     000011A8  C$_sms_manager.c$189$1_0$198       _sms_manager
     000011A8  XG$devkit_SMS_setNextTileatXY$0$   _sms_manager
     000011AA  A$_sms_manager$1114                _sms_manager
     000011AD  A$_sms_manager$1127                _sms_manager
     000011AD  C$_sms_manager.c$190$1_0$200       _sms_manager
     000011AD  C$_sms_manager.c$192$1_0$200       _sms_manager
     000011AD  G$devkit_SMS_setNextTileatLoc$0$   _sms_manager
     000011AD  _devkit_SMS_setNextTileatLoc       _sms_manager
     000011AE  A$_sms_manager$1128                _sms_manager
     000011AF  A$_sms_manager$1129                _sms_manager
     000011B0  A$_sms_manager$1130                _sms_manager
     000011B1  A$_sms_manager$1131                _sms_manager
     000011B2  A$_sms_manager$1132                _sms_manager
     000011B3  A$_sms_manager$1133                _sms_manager
     000011B5  A$_sms_manager$1134                _sms_manager
     000011B6  A$_sms_manager$1142                _sms_manager
     000011B6  C$_sms_manager.c$193$1_0$200       _sms_manager
     000011B6  XG$devkit_SMS_setNextTileatLoc$0   _sms_manager
     000011B9  A$_sms_manager$1155                _sms_manager
     000011B9  C$_sms_manager.c$194$1_0$202       _sms_manager
     000011B9  C$_sms_manager.c$196$1_0$202       _sms_manager
     000011B9  G$devkit_SMS_setNextTileatAddr$0   _sms_manager
     000011B9  _devkit_SMS_setNextTileatAddr      _sms_manager
     000011BD  A$_sms_manager$1156                _sms_manager
     000011BF  A$_sms_manager$1157                _sms_manager
     000011C2  A$_sms_manager$1158                _sms_manager
     000011C4  A$_sms_manager$1166                _sms_manager
     000011C4  C$_sms_manager.c$197$1_0$202       _sms_manager
     000011C4  XG$devkit_SMS_setNextTileatAddr$   _sms_manager
     000011C7  A$_sms_manager$1176                _sms_manager
     000011C7  C$_sms_manager.c$198$1_0$204       _sms_manager
     000011C7  G$devkit_SMS_setTileatXY$0$0       _sms_manager
     000011C7  _devkit_SMS_setTileatXY            _sms_manager
     000011C9  A$_sms_manager$1177                _sms_manager
     000011CD  A$_sms_manager$1178                _sms_manager
     000011CF  A$_sms_manager$1182                _sms_manager
     000011CF  C$_sms_manager.c$200$2_0$205       _sms_manager
     000011D2  A$_sms_manager$1183                _sms_manager
     000011D4  A$_sms_manager$1184                _sms_manager
     000011D5  A$_sms_manager$1185                _sms_manager
     000011D6  A$_sms_manager$1186                _sms_manager
     000011D7  A$_sms_manager$1187                _sms_manager
     000011D8  A$_sms_manager$1188                _sms_manager
     000011D9  A$_sms_manager$1189                _sms_manager
     000011DC  A$_sms_manager$1190                _sms_manager
     000011DE  A$_sms_manager$1191                _sms_manager
     000011DF  A$_sms_manager$1192                _sms_manager
     000011E0  A$_sms_manager$1193                _sms_manager
ASxxxx Linker V03.00 + NoICE + sdld,  page 35.
Hexadecimal  [32-Bits]

Area                                    Addr        Size        Decimal Bytes (Attributes)
--------------------------------        ----        ----        ------- ----- ------------
_CODE                               00000200    00006F18 =       28440. bytes (REL,CON)

      Value  Global                              Global Defined In Module
      -----  --------------------------------   ------------------------
     000011E1  A$_sms_manager$1194                _sms_manager
     000011E3  A$_sms_manager$1195                _sms_manager
     000011E4  A$_sms_manager$1196                _sms_manager
     000011E5  A$_sms_manager$1197                _sms_manager
     000011E8  A$_sms_manager$1198                _sms_manager
     000011EB  A$_sms_manager$1206                _sms_manager
     000011EB  C$_sms_manager.c$201$1_0$204       _sms_manager
     000011EB  XG$devkit_SMS_setTileatXY$0$0      _sms_manager
     000011ED  A$_sms_manager$1207                _sms_manager
     000011F0  A$_sms_manager$1227                _sms_manager
     000011F0  C$_sms_manager.c$205$1_0$207       _sms_manager
     000011F0  C$_sms_manager.c$207$1_0$207       _sms_manager
     000011F0  C$_sms_manager.c$208$1_0$207       _sms_manager
     000011F0  G$devkit_TILEtoADDR$0$0            _sms_manager
     000011F0  XG$devkit_TILEtoADDR$0$0           _sms_manager
     000011F0  _devkit_TILEtoADDR                 _sms_manager
     000011F1  A$_sms_manager$1240                _sms_manager
     000011F1  C$_sms_manager.c$211$1_0$208       _sms_manager
     000011F1  C$_sms_manager.c$213$1_0$208       _sms_manager
     000011F1  G$devkit_TILE_FLIPPED_X$0$0        _sms_manager
     000011F1  _devkit_TILE_FLIPPED_X             _sms_manager
     000011F4  A$_sms_manager$1248                _sms_manager
     000011F4  C$_sms_manager.c$214$1_0$208       _sms_manager
     000011F4  XG$devkit_TILE_FLIPPED_X$0$0       _sms_manager
     000011F5  A$_sms_manager$1261                _sms_manager
     000011F5  C$_sms_manager.c$215$1_0$209       _sms_manager
     000011F5  C$_sms_manager.c$217$1_0$209       _sms_manager
     000011F5  G$devkit_TILE_FLIPPED_Y$0$0        _sms_manager
     000011F5  _devkit_TILE_FLIPPED_Y             _sms_manager
     000011F8  A$_sms_manager$1269                _sms_manager
     000011F8  C$_sms_manager.c$218$1_0$209       _sms_manager
     000011F8  XG$devkit_TILE_FLIPPED_Y$0$0       _sms_manager
     000011F9  A$_sms_manager$1282                _sms_manager
     000011F9  C$_sms_manager.c$219$1_0$210       _sms_manager
     000011F9  C$_sms_manager.c$221$1_0$210       _sms_manager
     000011F9  G$devkit_TILE_USE_SPRITE_PALETTE   _sms_manager
     000011F9  _devkit_TILE_USE_SPRITE_PALETTE    _sms_manager
     000011FC  A$_sms_manager$1290                _sms_manager
     000011FC  C$_sms_manager.c$222$1_0$210       _sms_manager
     000011FC  XG$devkit_TILE_USE_SPRITE_PALETT   _sms_manager
     000011FD  A$_sms_manager$1303                _sms_manager
     000011FD  C$_sms_manager.c$223$1_0$211       _sms_manager
     000011FD  C$_sms_manager.c$225$1_0$211       _sms_manager
     000011FD  G$devkit_TILE_PRIORITY$0$0         _sms_manager
     000011FD  _devkit_TILE_PRIORITY              _sms_manager
     00001200  A$_sms_manager$1311                _sms_manager
     00001200  C$_sms_manager.c$226$1_0$211       _sms_manager
     00001200  XG$devkit_TILE_PRIORITY$0$0        _sms_manager
     00001201  A$_sms_manager$1324                _sms_manager
     00001201  C$_sms_manager.c$229$1_0$213       _sms_manager
     00001201  C$_sms_manager.c$231$1_0$213       _sms_manager
ASxxxx Linker V03.00 + NoICE + sdld,  page 36.
Hexadecimal  [32-Bits]

Area                                    Addr        Size        Decimal Bytes (Attributes)
--------------------------------        ----        ----        ------- ----- ------------
_CODE                               00000200    00006F18 =       28440. bytes (REL,CON)

      Value  Global                              Global Defined In Module
      -----  --------------------------------   ------------------------
     00001201  G$devkit_SMS_loadTiles$0$0         _sms_manager
     00001201  _devkit_SMS_loadTiles              _sms_manager
     00001205  A$_sms_manager$1325                _sms_manager
     00001207  A$_sms_manager$1326                _sms_manager
     0000120A  A$_sms_manager$1327                _sms_manager
     0000120D  A$_sms_manager$1328                _sms_manager
     0000120E  A$_sms_manager$1329                _sms_manager
     0000120F  A$_sms_manager$1330                _sms_manager
     00001210  A$_sms_manager$1331                _sms_manager
     00001211  A$_sms_manager$1332                _sms_manager
     00001212  A$_sms_manager$1333                _sms_manager
     00001214  A$_sms_manager$1334                _sms_manager
     00001217  A$_sms_manager$1335                _sms_manager
     0000121A  A$_sms_manager$1336                _sms_manager
     0000121B  A$_sms_manager$1337                _sms_manager
     0000121F  A$_sms_manager$1338                _sms_manager
     00001221  A$_sms_manager$1339                _sms_manager
     00001224  A$_sms_manager$1340                _sms_manager
     00001227  A$_sms_manager$1341                _sms_manager
     00001228  A$_sms_manager$1342                _sms_manager
     00001229  A$_sms_manager$1343                _sms_manager
     0000122C  A$_sms_manager$1351                _sms_manager
     0000122C  C$_sms_manager.c$232$1_0$213       _sms_manager
     0000122C  XG$devkit_SMS_loadTiles$0$0        _sms_manager
     0000122D  A$_sms_manager$1364                _sms_manager
     0000122D  C$_sms_manager.c$233$1_0$215       _sms_manager
     0000122D  C$_sms_manager.c$235$1_0$215       _sms_manager
     0000122D  G$devkit_SMS_load1bppTiles$0$0     _sms_manager
     0000122D  _devkit_SMS_load1bppTiles          _sms_manager
     00001231  A$_sms_manager$1365                _sms_manager
     00001233  A$_sms_manager$1366                _sms_manager
     00001236  A$_sms_manager$1367                _sms_manager
     00001237  A$_sms_manager$1368                _sms_manager
     00001238  A$_sms_manager$1369                _sms_manager
     0000123B  A$_sms_manager$1370                _sms_manager
     0000123D  A$_sms_manager$1371                _sms_manager
     0000123E  A$_sms_manager$1372                _sms_manager
     0000123F  A$_sms_manager$1373                _sms_manager
     00001242  A$_sms_manager$1374                _sms_manager
     00001245  A$_sms_manager$1375                _sms_manager
     00001247  A$_sms_manager$1376                _sms_manager
     00001249  A$_sms_manager$1377                _sms_manager
     0000124A  A$_sms_manager$1378                _sms_manager
     0000124D  A$_sms_manager$1379                _sms_manager
     00001250  A$_sms_manager$1380                _sms_manager
     00001252  A$_sms_manager$1381                _sms_manager
     00001254  A$_sms_manager$1382                _sms_manager
     00001255  A$_sms_manager$1383                _sms_manager
     00001258  A$_sms_manager$1384                _sms_manager
     0000125B  A$_sms_manager$1385                _sms_manager
     0000125C  A$_sms_manager$1386                _sms_manager
ASxxxx Linker V03.00 + NoICE + sdld,  page 37.
Hexadecimal  [32-Bits]

Area                                    Addr        Size        Decimal Bytes (Attributes)
--------------------------------        ----        ----        ------- ----- ------------
_CODE                               00000200    00006F18 =       28440. bytes (REL,CON)

      Value  Global                              Global Defined In Module
      -----  --------------------------------   ------------------------
     0000125F  A$_sms_manager$1387                _sms_manager
     00001262  A$_sms_manager$1388                _sms_manager
     00001263  A$_sms_manager$1389                _sms_manager
     00001264  A$_sms_manager$1397                _sms_manager
     00001264  C$_sms_manager.c$236$1_0$215       _sms_manager
     00001264  XG$devkit_SMS_load1bppTiles$0$0    _sms_manager
     00001265  A$_sms_manager$1410                _sms_manager
     00001265  C$_sms_manager.c$239$1_0$217       _sms_manager
     00001265  C$_sms_manager.c$241$1_0$217       _sms_manager
     00001265  G$devkit_SMS_loadPSGaidencompres   _sms_manager
     00001265  _devkit_SMS_loadPSGaidencompress   _sms_manager
     00001269  A$_sms_manager$1411                _sms_manager
     0000126B  A$_sms_manager$1412                _sms_manager
     0000126E  A$_sms_manager$1413                _sms_manager
     00001271  A$_sms_manager$1414                _sms_manager
     00001272  A$_sms_manager$1415                _sms_manager
     00001275  A$_sms_manager$1416                _sms_manager
     00001278  A$_sms_manager$1417                _sms_manager
     00001279  A$_sms_manager$1418                _sms_manager
     0000127C  A$_sms_manager$1419                _sms_manager
     0000127D  A$_sms_manager$1420                _sms_manager
     0000127E  A$_sms_manager$1428                _sms_manager
     0000127E  C$_sms_manager.c$242$1_0$217       _sms_manager
     0000127E  XG$devkit_SMS_loadPSGaidencompre   _sms_manager
     0000127F  A$_sms_manager$1441                _sms_manager
     0000127F  C$_sms_manager.c$243$1_0$219       _sms_manager
     0000127F  C$_sms_manager.c$245$1_0$219       _sms_manager
     0000127F  G$devkit_SMS_loadPSGaidencompres   _sms_manager
     0000127F  _devkit_SMS_loadPSGaidencompress   _sms_manager
     00001283  A$_sms_manager$1442                _sms_manager
     00001285  A$_sms_manager$1443                _sms_manager
     00001288  A$_sms_manager$1444                _sms_manager
     0000128B  A$_sms_manager$1445                _sms_manager
     0000128C  A$_sms_manager$1446                _sms_manager
     0000128D  A$_sms_manager$1447                _sms_manager
     0000128E  A$_sms_manager$1448                _sms_manager
     0000128F  A$_sms_manager$1449                _sms_manager
     00001290  A$_sms_manager$1450                _sms_manager
     00001292  A$_sms_manager$1451                _sms_manager
     00001293  A$_sms_manager$1452                _sms_manager
     00001296  A$_sms_manager$1453                _sms_manager
     00001299  A$_sms_manager$1454                _sms_manager
     0000129A  A$_sms_manager$1455                _sms_manager
     0000129D  A$_sms_manager$1456                _sms_manager
     0000129E  A$_sms_manager$1457                _sms_manager
     0000129F  A$_sms_manager$1465                _sms_manager
     0000129F  C$_sms_manager.c$246$1_0$219       _sms_manager
     0000129F  XG$devkit_SMS_loadPSGaidencompre   _sms_manager
     000012A0  A$_sms_manager$1478                _sms_manager
     000012A0  C$_sms_manager.c$249$1_0$221       _sms_manager
     000012A0  C$_sms_manager.c$251$1_0$221       _sms_manager
ASxxxx Linker V03.00 + NoICE + sdld,  page 38.
Hexadecimal  [32-Bits]

Area                                    Addr        Size        Decimal Bytes (Attributes)
--------------------------------        ----        ----        ------- ----- ------------
_CODE                               00000200    00006F18 =       28440. bytes (REL,CON)

      Value  Global                              Global Defined In Module
      -----  --------------------------------   ------------------------
     000012A0  G$devkit_UNSAFE_SMS_loadZX7compr   _sms_manager
     000012A0  _devkit_UNSAFE_SMS_loadZX7compre   _sms_manager
     000012A4  A$_sms_manager$1479                _sms_manager
     000012A6  A$_sms_manager$1480                _sms_manager
     000012A9  A$_sms_manager$1481                _sms_manager
     000012AC  A$_sms_manager$1482                _sms_manager
     000012AD  A$_sms_manager$1483                _sms_manager
     000012B0  A$_sms_manager$1484                _sms_manager
     000012B3  A$_sms_manager$1485                _sms_manager
     000012B4  A$_sms_manager$1486                _sms_manager
     000012B7  A$_sms_manager$1487                _sms_manager
     000012B8  A$_sms_manager$1488                _sms_manager
     000012B9  A$_sms_manager$1496                _sms_manager
     000012B9  C$_sms_manager.c$252$1_0$221       _sms_manager
     000012B9  XG$devkit_UNSAFE_SMS_loadZX7comp   _sms_manager
     000012BA  A$_sms_manager$1509                _sms_manager
     000012BA  C$_sms_manager.c$253$1_0$223       _sms_manager
     000012BA  C$_sms_manager.c$255$1_0$223       _sms_manager
     000012BA  G$devkit_UNSAFE_SMS_loadZX7compr   _sms_manager
     000012BA  _devkit_UNSAFE_SMS_loadZX7compre   _sms_manager
     000012BE  A$_sms_manager$1510                _sms_manager
     000012C0  A$_sms_manager$1511                _sms_manager
     000012C3  A$_sms_manager$1512                _sms_manager
     000012C6  A$_sms_manager$1513                _sms_manager
     000012C7  A$_sms_manager$1514                _sms_manager
     000012C8  A$_sms_manager$1515                _sms_manager
     000012C9  A$_sms_manager$1516                _sms_manager
     000012CA  A$_sms_manager$1517                _sms_manager
     000012CB  A$_sms_manager$1518                _sms_manager
     000012CD  A$_sms_manager$1519                _sms_manager
     000012CE  A$_sms_manager$1520                _sms_manager
     000012D1  A$_sms_manager$1521                _sms_manager
     000012D4  A$_sms_manager$1522                _sms_manager
     000012D5  A$_sms_manager$1523                _sms_manager
     000012D8  A$_sms_manager$1524                _sms_manager
     000012D9  A$_sms_manager$1525                _sms_manager
     000012DA  A$_sms_manager$1533                _sms_manager
     000012DA  C$_sms_manager.c$256$1_0$223       _sms_manager
     000012DA  XG$devkit_UNSAFE_SMS_loadZX7comp   _sms_manager
     000012DB  A$_sms_manager$1546                _sms_manager
     000012DB  C$_sms_manager.c$257$1_0$225       _sms_manager
     000012DB  C$_sms_manager.c$259$1_0$225       _sms_manager
     000012DB  G$devkit_UNSAFE_SMS_loadaPLibcom   _sms_manager
     000012DB  _devkit_UNSAFE_SMS_loadaPLibcomp   _sms_manager
     000012DF  A$_sms_manager$1547                _sms_manager
     000012E1  A$_sms_manager$1548                _sms_manager
     000012E4  A$_sms_manager$1549                _sms_manager
     000012E7  A$_sms_manager$1550                _sms_manager
     000012E8  A$_sms_manager$1551                _sms_manager
     000012EB  A$_sms_manager$1552                _sms_manager
     000012EE  A$_sms_manager$1553                _sms_manager
ASxxxx Linker V03.00 + NoICE + sdld,  page 39.
Hexadecimal  [32-Bits]

Area                                    Addr        Size        Decimal Bytes (Attributes)
--------------------------------        ----        ----        ------- ----- ------------
_CODE                               00000200    00006F18 =       28440. bytes (REL,CON)

      Value  Global                              Global Defined In Module
      -----  --------------------------------   ------------------------
     000012EF  A$_sms_manager$1554                _sms_manager
     000012F2  A$_sms_manager$1555                _sms_manager
     000012F3  A$_sms_manager$1556                _sms_manager
     000012F4  A$_sms_manager$1564                _sms_manager
     000012F4  C$_sms_manager.c$260$1_0$225       _sms_manager
     000012F4  XG$devkit_UNSAFE_SMS_loadaPLibco   _sms_manager
     000012F5  A$_sms_manager$1577                _sms_manager
     000012F5  C$_sms_manager.c$261$1_0$227       _sms_manager
     000012F5  C$_sms_manager.c$263$1_0$227       _sms_manager
     000012F5  G$devkit_UNSAFE_SMS_loadaPLibcom   _sms_manager
     000012F5  _devkit_UNSAFE_SMS_loadaPLibcomp   _sms_manager
     000012F9  A$_sms_manager$1578                _sms_manager
     000012FB  A$_sms_manager$1579                _sms_manager
     000012FE  A$_sms_manager$1580                _sms_manager
     00001301  A$_sms_manager$1581                _sms_manager
     00001302  A$_sms_manager$1582                _sms_manager
     00001303  A$_sms_manager$1583                _sms_manager
     00001304  A$_sms_manager$1584                _sms_manager
     00001305  A$_sms_manager$1585                _sms_manager
     00001306  A$_sms_manager$1586                _sms_manager
     00001308  A$_sms_manager$1587                _sms_manager
     00001309  A$_sms_manager$1588                _sms_manager
     0000130C  A$_sms_manager$1589                _sms_manager
     0000130F  A$_sms_manager$1590                _sms_manager
     00001310  A$_sms_manager$1591                _sms_manager
     00001313  A$_sms_manager$1592                _sms_manager
     00001314  A$_sms_manager$1593                _sms_manager
     00001315  A$_sms_manager$1601                _sms_manager
     00001315  C$_sms_manager.c$264$1_0$227       _sms_manager
     00001315  XG$devkit_UNSAFE_SMS_loadaPLibco   _sms_manager
     00001316  A$_sms_manager$1611                _sms_manager
     00001316  C$_sms_manager.c$267$1_0$229       _sms_manager
     00001316  G$devkit_SMS_loadTileMap$0$0       _sms_manager
     00001316  _devkit_SMS_loadTileMap            _sms_manager
     00001318  A$_sms_manager$1612                _sms_manager
     0000131C  A$_sms_manager$1613                _sms_manager
     0000131E  A$_sms_manager$1617                _sms_manager
     0000131E  C$_sms_manager.c$269$1_0$229       _sms_manager
     00001321  A$_sms_manager$1618                _sms_manager
     00001324  A$_sms_manager$1619                _sms_manager
     00001327  A$_sms_manager$1620                _sms_manager
     00001329  A$_sms_manager$1621                _sms_manager
     0000132A  A$_sms_manager$1622                _sms_manager
     0000132B  A$_sms_manager$1623                _sms_manager
     0000132C  A$_sms_manager$1624                _sms_manager
     0000132D  A$_sms_manager$1625                _sms_manager
     0000132E  A$_sms_manager$1626                _sms_manager
     00001331  A$_sms_manager$1627                _sms_manager
     00001333  A$_sms_manager$1628                _sms_manager
     00001334  A$_sms_manager$1629                _sms_manager
     00001335  A$_sms_manager$1630                _sms_manager
ASxxxx Linker V03.00 + NoICE + sdld,  page 40.
Hexadecimal  [32-Bits]

Area                                    Addr        Size        Decimal Bytes (Attributes)
--------------------------------        ----        ----        ------- ----- ------------
_CODE                               00000200    00006F18 =       28440. bytes (REL,CON)

      Value  Global                              Global Defined In Module
      -----  --------------------------------   ------------------------
     00001336  A$_sms_manager$1631                _sms_manager
     00001338  A$_sms_manager$1632                _sms_manager
     00001339  A$_sms_manager$1633                _sms_manager
     0000133C  A$_sms_manager$1634                _sms_manager
     0000133F  A$_sms_manager$1635                _sms_manager
     00001340  A$_sms_manager$1636                _sms_manager
     00001341  A$_sms_manager$1637                _sms_manager
     00001342  A$_sms_manager$1638                _sms_manager
     00001345  A$_sms_manager$1642                _sms_manager
     00001347  A$_sms_manager$1647                _sms_manager
     00001347  C$_sms_manager.c$270$1_0$229       _sms_manager
     00001347  XG$devkit_SMS_loadTileMap$0$0      _sms_manager
     00001348  A$_sms_manager$1660                _sms_manager
     00001348  C$_sms_manager.c$271$1_0$231       _sms_manager
     00001348  C$_sms_manager.c$273$1_0$231       _sms_manager
     00001348  G$devkit_SMS_loadTileMapArea$0$0   _sms_manager
     00001348  _devkit_SMS_loadTileMapArea        _sms_manager
     0000134C  A$_sms_manager$1661                _sms_manager
     0000134E  A$_sms_manager$1662                _sms_manager
     00001351  A$_sms_manager$1663                _sms_manager
     00001352  A$_sms_manager$1664                _sms_manager
     00001353  A$_sms_manager$1665                _sms_manager
     00001356  A$_sms_manager$1666                _sms_manager
     00001358  A$_sms_manager$1667                _sms_manager
     00001359  A$_sms_manager$1668                _sms_manager
     0000135A  A$_sms_manager$1669                _sms_manager
     0000135D  A$_sms_manager$1670                _sms_manager
     00001360  A$_sms_manager$1671                _sms_manager
     00001362  A$_sms_manager$1672                _sms_manager
     00001364  A$_sms_manager$1673                _sms_manager
     00001365  A$_sms_manager$1674                _sms_manager
     00001368  A$_sms_manager$1675                _sms_manager
     0000136A  A$_sms_manager$1676                _sms_manager
     0000136B  A$_sms_manager$1677                _sms_manager
     0000136C  A$_sms_manager$1678                _sms_manager
     0000136F  A$_sms_manager$1679                _sms_manager
     00001370  A$_sms_manager$1680                _sms_manager
     00001371  A$_sms_manager$1681                _sms_manager
     00001374  A$_sms_manager$1682                _sms_manager
     00001377  A$_sms_manager$1683                _sms_manager
     00001378  A$_sms_manager$1684                _sms_manager
     00001379  A$_sms_manager$1692                _sms_manager
     00001379  C$_sms_manager.c$274$1_0$231       _sms_manager
     00001379  XG$devkit_SMS_loadTileMapArea$0$   _sms_manager
     0000137A  A$_sms_manager$1705                _sms_manager
     0000137A  C$_sms_manager.c$276$1_0$233       _sms_manager
     0000137A  C$_sms_manager.c$278$1_0$233       _sms_manager
     0000137A  G$devkit_SMS_loadSTMcompressedTi   _sms_manager
     0000137A  _devkit_SMS_loadSTMcompressedTil   _sms_manager
     0000137E  A$_sms_manager$1706                _sms_manager
     00001380  A$_sms_manager$1707                _sms_manager
ASxxxx Linker V03.00 + NoICE + sdld,  page 41.
Hexadecimal  [32-Bits]

Area                                    Addr        Size        Decimal Bytes (Attributes)
--------------------------------        ----        ----        ------- ----- ------------
_CODE                               00000200    00006F18 =       28440. bytes (REL,CON)

      Value  Global                              Global Defined In Module
      -----  --------------------------------   ------------------------
     00001383  A$_sms_manager$1708                _sms_manager
     00001386  A$_sms_manager$1709                _sms_manager
     00001387  A$_sms_manager$1710                _sms_manager
     0000138A  A$_sms_manager$1711                _sms_manager
     0000138D  A$_sms_manager$1712                _sms_manager
     0000138E  A$_sms_manager$1713                _sms_manager
     00001391  A$_sms_manager$1714                _sms_manager
     00001392  A$_sms_manager$1715                _sms_manager
     00001393  A$_sms_manager$1723                _sms_manager
     00001393  C$_sms_manager.c$279$1_0$233       _sms_manager
     00001393  XG$devkit_SMS_loadSTMcompressedT   _sms_manager
     00001394  A$_sms_manager$1733                _sms_manager
     00001394  C$_sms_manager.c$280$1_0$235       _sms_manager
     00001394  G$devkit_SMS_loadSTMcompressedTi   _sms_manager
     00001394  _devkit_SMS_loadSTMcompressedTil   _sms_manager
     00001396  A$_sms_manager$1734                _sms_manager
     0000139A  A$_sms_manager$1735                _sms_manager
     0000139C  A$_sms_manager$1739                _sms_manager
     0000139C  C$_sms_manager.c$282$1_0$235       _sms_manager
     0000139F  A$_sms_manager$1740                _sms_manager
     000013A2  A$_sms_manager$1741                _sms_manager
     000013A5  A$_sms_manager$1742                _sms_manager
     000013A7  A$_sms_manager$1743                _sms_manager
     000013A8  A$_sms_manager$1744                _sms_manager
     000013A9  A$_sms_manager$1745                _sms_manager
     000013AA  A$_sms_manager$1746                _sms_manager
     000013AB  A$_sms_manager$1747                _sms_manager
     000013AC  A$_sms_manager$1748                _sms_manager
     000013AF  A$_sms_manager$1749                _sms_manager
     000013B1  A$_sms_manager$1750                _sms_manager
     000013B2  A$_sms_manager$1751                _sms_manager
     000013B3  A$_sms_manager$1752                _sms_manager
     000013B4  A$_sms_manager$1753                _sms_manager
     000013B6  A$_sms_manager$1754                _sms_manager
     000013B7  A$_sms_manager$1755                _sms_manager
     000013B8  A$_sms_manager$1756                _sms_manager
     000013B9  A$_sms_manager$1757                _sms_manager
     000013BC  A$_sms_manager$1758                _sms_manager
     000013BD  A$_sms_manager$1759                _sms_manager
     000013BE  A$_sms_manager$1763                _sms_manager
     000013C0  A$_sms_manager$1768                _sms_manager
     000013C0  C$_sms_manager.c$283$1_0$235       _sms_manager
     000013C0  XG$devkit_SMS_loadSTMcompressedT   _sms_manager
     000013C1  A$_sms_manager$1778                _sms_manager
     000013C1  C$_sms_manager.c$284$1_0$237       _sms_manager
     000013C1  G$devkit_SMS_loadSTMcompressedTi   _sms_manager
     000013C1  _devkit_SMS_loadSTMcompressedTil   _sms_manager
     000013C3  A$_sms_manager$1779                _sms_manager
     000013C7  A$_sms_manager$1780                _sms_manager
     000013C9  A$_sms_manager$1784                _sms_manager
     000013C9  C$_sms_manager.c$286$1_0$237       _sms_manager
ASxxxx Linker V03.00 + NoICE + sdld,  page 42.
Hexadecimal  [32-Bits]

Area                                    Addr        Size        Decimal Bytes (Attributes)
--------------------------------        ----        ----        ------- ----- ------------
_CODE                               00000200    00006F18 =       28440. bytes (REL,CON)

      Value  Global                              Global Defined In Module
      -----  --------------------------------   ------------------------
     000013CC  A$_sms_manager$1785                _sms_manager
     000013CF  A$_sms_manager$1786                _sms_manager
     000013D2  A$_sms_manager$1787                _sms_manager
     000013D4  A$_sms_manager$1788                _sms_manager
     000013D5  A$_sms_manager$1789                _sms_manager
     000013D6  A$_sms_manager$1790                _sms_manager
     000013D7  A$_sms_manager$1791                _sms_manager
     000013D8  A$_sms_manager$1792                _sms_manager
     000013D9  A$_sms_manager$1793                _sms_manager
     000013DC  A$_sms_manager$1794                _sms_manager
     000013DE  A$_sms_manager$1795                _sms_manager
     000013DF  A$_sms_manager$1796                _sms_manager
     000013E0  A$_sms_manager$1797                _sms_manager
     000013E1  A$_sms_manager$1798                _sms_manager
     000013E3  A$_sms_manager$1799                _sms_manager
     000013E4  A$_sms_manager$1800                _sms_manager
     000013E5  A$_sms_manager$1801                _sms_manager
     000013E6  A$_sms_manager$1802                _sms_manager
     000013E9  A$_sms_manager$1803                _sms_manager
     000013EA  A$_sms_manager$1804                _sms_manager
     000013EB  A$_sms_manager$1808                _sms_manager
     000013ED  A$_sms_manager$1813                _sms_manager
     000013ED  C$_sms_manager.c$287$1_0$237       _sms_manager
     000013ED  XG$devkit_SMS_loadSTMcompressedT   _sms_manager
     000013EE  A$_sms_manager$1833                _sms_manager
     000013EE  C$_sms_manager.c$290$1_0$238       _sms_manager
     000013EE  C$_sms_manager.c$292$1_0$238       _sms_manager
     000013EE  C$_sms_manager.c$293$1_0$238       _sms_manager
     000013EE  G$devkit_SMS_initSprites$0$0       _sms_manager
     000013EE  XG$devkit_SMS_initSprites$0$0      _sms_manager
     000013EE  _devkit_SMS_initSprites            _sms_manager
     000013F1  A$_sms_manager$1846                _sms_manager
     000013F1  C$_sms_manager.c$294$1_0$240       _sms_manager
     000013F1  C$_sms_manager.c$296$1_0$240       _sms_manager
     000013F1  G$devkit_SMS_addSprite$0$0         _sms_manager
     000013F1  _devkit_SMS_addSprite              _sms_manager
     000013F5  A$_sms_manager$1847                _sms_manager
     000013F7  A$_sms_manager$1848                _sms_manager
     000013FA  A$_sms_manager$1849                _sms_manager
     000013FB  A$_sms_manager$1850                _sms_manager
     000013FC  A$_sms_manager$1851                _sms_manager
     000013FF  A$_sms_manager$1852                _sms_manager
     00001401  A$_sms_manager$1853                _sms_manager
     00001402  A$_sms_manager$1854                _sms_manager
     00001403  A$_sms_manager$1855                _sms_manager
     00001406  A$_sms_manager$1856                _sms_manager
     00001407  A$_sms_manager$1857                _sms_manager
     00001408  A$_sms_manager$1858                _sms_manager
     0000140B  A$_sms_manager$1859                _sms_manager
     0000140C  A$_sms_manager$1860                _sms_manager
     0000140D  A$_sms_manager$1868                _sms_manager
ASxxxx Linker V03.00 + NoICE + sdld,  page 43.
Hexadecimal  [32-Bits]

Area                                    Addr        Size        Decimal Bytes (Attributes)
--------------------------------        ----        ----        ------- ----- ------------
_CODE                               00000200    00006F18 =       28440. bytes (REL,CON)

      Value  Global                              Global Defined In Module
      -----  --------------------------------   ------------------------
     0000140D  C$_sms_manager.c$297$1_0$240       _sms_manager
     0000140D  XG$devkit_SMS_addSprite$0$0        _sms_manager
     0000140E  A$_sms_manager$1881                _sms_manager
     0000140E  C$_sms_manager.c$298$1_0$242       _sms_manager
     0000140E  C$_sms_manager.c$300$1_0$242       _sms_manager
     0000140E  G$devkit_SMS_addTwoAdjoiningSpri   _sms_manager
     0000140E  _devkit_SMS_addTwoAdjoiningSprit   _sms_manager
     00001412  A$_sms_manager$1882                _sms_manager
     00001414  A$_sms_manager$1883                _sms_manager
     00001417  A$_sms_manager$1884                _sms_manager
     00001418  A$_sms_manager$1885                _sms_manager
     00001419  A$_sms_manager$1886                _sms_manager
     0000141C  A$_sms_manager$1887                _sms_manager
     0000141E  A$_sms_manager$1888                _sms_manager
     0000141F  A$_sms_manager$1889                _sms_manager
     00001420  A$_sms_manager$1890                _sms_manager
     00001423  A$_sms_manager$1891                _sms_manager
     00001424  A$_sms_manager$1892                _sms_manager
     00001425  A$_sms_manager$1893                _sms_manager
     00001428  A$_sms_manager$1894                _sms_manager
     00001429  A$_sms_manager$1895                _sms_manager
     0000142A  A$_sms_manager$1903                _sms_manager
     0000142A  C$_sms_manager.c$301$1_0$242       _sms_manager
     0000142A  XG$devkit_SMS_addTwoAdjoiningSpr   _sms_manager
     0000142B  A$_sms_manager$1916                _sms_manager
     0000142B  C$_sms_manager.c$302$1_0$244       _sms_manager
     0000142B  C$_sms_manager.c$304$1_0$244       _sms_manager
     0000142B  G$devkit_SMS_addThreeAdjoiningSp   _sms_manager
     0000142B  _devkit_SMS_addThreeAdjoiningSpr   _sms_manager
     0000142F  A$_sms_manager$1917                _sms_manager
     00001431  A$_sms_manager$1918                _sms_manager
     00001434  A$_sms_manager$1919                _sms_manager
     00001435  A$_sms_manager$1920                _sms_manager
     00001436  A$_sms_manager$1921                _sms_manager
     00001439  A$_sms_manager$1922                _sms_manager
     0000143B  A$_sms_manager$1923                _sms_manager
     0000143C  A$_sms_manager$1924                _sms_manager
     0000143D  A$_sms_manager$1925                _sms_manager
     00001440  A$_sms_manager$1926                _sms_manager
     00001441  A$_sms_manager$1927                _sms_manager
     00001442  A$_sms_manager$1928                _sms_manager
     00001445  A$_sms_manager$1929                _sms_manager
     00001446  A$_sms_manager$1930                _sms_manager
     00001447  A$_sms_manager$1938                _sms_manager
     00001447  C$_sms_manager.c$305$1_0$244       _sms_manager
     00001447  XG$devkit_SMS_addThreeAdjoiningS   _sms_manager
     00001448  A$_sms_manager$1958                _sms_manager
     00001448  C$_sms_manager.c$306$1_0$246       _sms_manager
     00001448  C$_sms_manager.c$308$1_0$246       _sms_manager
     00001448  C$_sms_manager.c$309$1_0$246       _sms_manager
     00001448  G$devkit_SMS_reserveSprite$0$0     _sms_manager
ASxxxx Linker V03.00 + NoICE + sdld,  page 44.
Hexadecimal  [32-Bits]

Area                                    Addr        Size        Decimal Bytes (Attributes)
--------------------------------        ----        ----        ------- ----- ------------
_CODE                               00000200    00006F18 =       28440. bytes (REL,CON)

      Value  Global                              Global Defined In Module
      -----  --------------------------------   ------------------------
     00001448  XG$devkit_SMS_reserveSprite$0$0    _sms_manager
     00001448  _devkit_SMS_reserveSprite          _sms_manager
     0000144B  A$_sms_manager$1971                _sms_manager
     0000144B  C$_sms_manager.c$310$1_0$248       _sms_manager
     0000144B  C$_sms_manager.c$312$1_0$248       _sms_manager
     0000144B  G$devkit_SMS_updateSpritePositio   _sms_manager
     0000144B  _devkit_SMS_updateSpritePosition   _sms_manager
     0000144F  A$_sms_manager$1972                _sms_manager
     00001451  A$_sms_manager$1973                _sms_manager
     00001454  A$_sms_manager$1974                _sms_manager
     00001455  A$_sms_manager$1975                _sms_manager
     00001456  A$_sms_manager$1976                _sms_manager
     00001459  A$_sms_manager$1977                _sms_manager
     0000145B  A$_sms_manager$1978                _sms_manager
     0000145C  A$_sms_manager$1979                _sms_manager
     0000145D  A$_sms_manager$1980                _sms_manager
     00001460  A$_sms_manager$1981                _sms_manager
     00001461  A$_sms_manager$1982                _sms_manager
     00001462  A$_sms_manager$1983                _sms_manager
     00001465  A$_sms_manager$1984                _sms_manager
     00001466  A$_sms_manager$1985                _sms_manager
     00001467  A$_sms_manager$1993                _sms_manager
     00001467  C$_sms_manager.c$313$1_0$248       _sms_manager
     00001467  XG$devkit_SMS_updateSpritePositi   _sms_manager
     00001468  A$_sms_manager$2006                _sms_manager
     00001468  C$_sms_manager.c$314$1_0$250       _sms_manager
     00001468  C$_sms_manager.c$316$1_0$250       _sms_manager
     00001468  G$devkit_SMS_updateSpriteImage$0   _sms_manager
     00001468  _devkit_SMS_updateSpriteImage      _sms_manager
     0000146C  A$_sms_manager$2007                _sms_manager
     0000146E  A$_sms_manager$2008                _sms_manager
     00001471  A$_sms_manager$2009                _sms_manager
     00001474  A$_sms_manager$2010                _sms_manager
     00001475  A$_sms_manager$2011                _sms_manager
     00001478  A$_sms_manager$2012                _sms_manager
     00001479  A$_sms_manager$2020                _sms_manager
     00001479  C$_sms_manager.c$317$1_0$250       _sms_manager
     00001479  XG$devkit_SMS_updateSpriteImage$   _sms_manager
     0000147A  A$_sms_manager$2033                _sms_manager
     0000147A  C$_sms_manager.c$318$1_0$252       _sms_manager
     0000147A  C$_sms_manager.c$320$1_0$252       _sms_manager
     0000147A  G$devkit_SMS_hideSprite$0$0        _sms_manager
     0000147A  _devkit_SMS_hideSprite             _sms_manager
     0000147D  A$_sms_manager$2034                _sms_manager
     0000147E  A$_sms_manager$2035                _sms_manager
     0000147F  A$_sms_manager$2036                _sms_manager
     00001480  A$_sms_manager$2037                _sms_manager
     00001481  A$_sms_manager$2038                _sms_manager
     00001484  A$_sms_manager$2039                _sms_manager
     00001485  A$_sms_manager$2047                _sms_manager
     00001485  C$_sms_manager.c$321$1_0$252       _sms_manager
ASxxxx Linker V03.00 + NoICE + sdld,  page 45.
Hexadecimal  [32-Bits]

Area                                    Addr        Size        Decimal Bytes (Attributes)
--------------------------------        ----        ----        ------- ----- ------------
_CODE                               00000200    00006F18 =       28440. bytes (REL,CON)

      Value  Global                              Global Defined In Module
      -----  --------------------------------   ------------------------
     00001485  XG$devkit_SMS_hideSprite$0$0       _sms_manager
     00001486  A$_sms_manager$2060                _sms_manager
     00001486  C$_sms_manager.c$322$1_0$254       _sms_manager
     00001486  C$_sms_manager.c$324$1_0$254       _sms_manager
     00001486  G$devkit_SMS_setClippingWindow$0   _sms_manager
     00001486  _devkit_SMS_setClippingWindow      _sms_manager
     0000148A  A$_sms_manager$2061                _sms_manager
     0000148C  A$_sms_manager$2062                _sms_manager
     0000148F  A$_sms_manager$2063                _sms_manager
     00001490  A$_sms_manager$2064                _sms_manager
     00001491  A$_sms_manager$2065                _sms_manager
     00001494  A$_sms_manager$2066                _sms_manager
     00001496  A$_sms_manager$2067                _sms_manager
     00001497  A$_sms_manager$2068                _sms_manager
     00001498  A$_sms_manager$2069                _sms_manager
     0000149B  A$_sms_manager$2070                _sms_manager
     0000149D  A$_sms_manager$2071                _sms_manager
     0000149E  A$_sms_manager$2072                _sms_manager
     0000149F  A$_sms_manager$2073                _sms_manager
     000014A2  A$_sms_manager$2074                _sms_manager
     000014A3  A$_sms_manager$2075                _sms_manager
     000014A4  A$_sms_manager$2076                _sms_manager
     000014A7  A$_sms_manager$2077                _sms_manager
     000014A8  A$_sms_manager$2078                _sms_manager
     000014A9  A$_sms_manager$2086                _sms_manager
     000014A9  C$_sms_manager.c$325$1_0$254       _sms_manager
     000014A9  XG$devkit_SMS_setClippingWindow$   _sms_manager
     000014AA  A$_sms_manager$2099                _sms_manager
     000014AA  C$_sms_manager.c$326$1_0$256       _sms_manager
     000014AA  C$_sms_manager.c$328$1_0$256       _sms_manager
     000014AA  G$devkit_SMS_addSpriteClipping$0   _sms_manager
     000014AA  _devkit_SMS_addSpriteClipping      _sms_manager
     000014AE  A$_sms_manager$2100                _sms_manager
     000014B0  A$_sms_manager$2101                _sms_manager
     000014B3  A$_sms_manager$2102                _sms_manager
     000014B4  A$_sms_manager$2103                _sms_manager
     000014B5  A$_sms_manager$2104                _sms_manager
     000014B8  A$_sms_manager$2105                _sms_manager
     000014BB  A$_sms_manager$2106                _sms_manager
     000014BD  A$_sms_manager$2107                _sms_manager
     000014BF  A$_sms_manager$2108                _sms_manager
     000014C0  A$_sms_manager$2109                _sms_manager
     000014C3  A$_sms_manager$2110                _sms_manager
     000014C6  A$_sms_manager$2111                _sms_manager
     000014C7  A$_sms_manager$2112                _sms_manager
     000014CA  A$_sms_manager$2113                _sms_manager
     000014CB  A$_sms_manager$2114                _sms_manager
     000014CC  A$_sms_manager$2115                _sms_manager
     000014CD  A$_sms_manager$2123                _sms_manager
     000014CD  C$_sms_manager.c$329$1_0$256       _sms_manager
     000014CD  XG$devkit_SMS_addSpriteClipping$   _sms_manager
ASxxxx Linker V03.00 + NoICE + sdld,  page 46.
Hexadecimal  [32-Bits]

Area                                    Addr        Size        Decimal Bytes (Attributes)
--------------------------------        ----        ----        ------- ----- ------------
_CODE                               00000200    00006F18 =       28440. bytes (REL,CON)

      Value  Global                              Global Defined In Module
      -----  --------------------------------   ------------------------
     000014CE  A$_sms_manager$2143                _sms_manager
     000014CE  C$_sms_manager.c$330$1_0$257       _sms_manager
     000014CE  C$_sms_manager.c$332$1_0$257       _sms_manager
     000014CE  C$_sms_manager.c$333$1_0$257       _sms_manager
     000014CE  G$devkit_SMS_finalizeSprites$0$0   _sms_manager
     000014CE  XG$devkit_SMS_finalizeSprites$0$   _sms_manager
     000014CE  _devkit_SMS_finalizeSprites        _sms_manager
     000014D1  A$_sms_manager$2163                _sms_manager
     000014D1  C$_sms_manager.c$334$1_0$258       _sms_manager
     000014D1  C$_sms_manager.c$336$1_0$258       _sms_manager
     000014D1  C$_sms_manager.c$337$1_0$258       _sms_manager
     000014D1  G$devkit_SMS_copySpritestoSAT$0$   _sms_manager
     000014D1  XG$devkit_SMS_copySpritestoSAT$0   _sms_manager
     000014D1  _devkit_SMS_copySpritestoSAT       _sms_manager
     000014D4  A$_sms_manager$2176                _sms_manager
     000014D4  C$_sms_manager.c$347$1_0$260       _sms_manager
     000014D4  C$_sms_manager.c$349$1_0$260       _sms_manager
     000014D4  G$devkit_SMS_setBGPaletteColor$0   _sms_manager
     000014D4  _devkit_SMS_setBGPaletteColor      _sms_manager
     000014D8  A$_sms_manager$2177                _sms_manager
     000014DA  A$_sms_manager$2178                _sms_manager
     000014DD  A$_sms_manager$2179                _sms_manager
     000014E0  A$_sms_manager$2180                _sms_manager
     000014E1  A$_sms_manager$2181                _sms_manager
     000014E4  A$_sms_manager$2182                _sms_manager
     000014E5  A$_sms_manager$2190                _sms_manager
     000014E5  C$_sms_manager.c$350$1_0$260       _sms_manager
     000014E5  XG$devkit_SMS_setBGPaletteColor$   _sms_manager
     000014E6  A$_sms_manager$2203                _sms_manager
     000014E6  C$_sms_manager.c$351$1_0$262       _sms_manager
     000014E6  C$_sms_manager.c$353$1_0$262       _sms_manager
     000014E6  G$devkit_SMS_setSpritePaletteCol   _sms_manager
     000014E6  _devkit_SMS_setSpritePaletteColo   _sms_manager
     000014EA  A$_sms_manager$2204                _sms_manager
     000014EC  A$_sms_manager$2205                _sms_manager
     000014EF  A$_sms_manager$2206                _sms_manager
     000014F2  A$_sms_manager$2207                _sms_manager
     000014F3  A$_sms_manager$2208                _sms_manager
     000014F6  A$_sms_manager$2209                _sms_manager
     000014F7  A$_sms_manager$2217                _sms_manager
     000014F7  C$_sms_manager.c$354$1_0$262       _sms_manager
     000014F7  XG$devkit_SMS_setSpritePaletteCo   _sms_manager
     000014F8  A$_sms_manager$2230                _sms_manager
     000014F8  C$_sms_manager.c$355$1_0$264       _sms_manager
     000014F8  C$_sms_manager.c$357$1_0$264       _sms_manager
     000014F8  G$devkit_SMS_loadBGPalette$0$0     _sms_manager
     000014F8  _devkit_SMS_loadBGPalette          _sms_manager
     000014FC  A$_sms_manager$2231                _sms_manager
     000014FE  A$_sms_manager$2232                _sms_manager
     00001501  A$_sms_manager$2233                _sms_manager
     00001504  A$_sms_manager$2241                _sms_manager
ASxxxx Linker V03.00 + NoICE + sdld,  page 47.
Hexadecimal  [32-Bits]

Area                                    Addr        Size        Decimal Bytes (Attributes)
--------------------------------        ----        ----        ------- ----- ------------
_CODE                               00000200    00006F18 =       28440. bytes (REL,CON)

      Value  Global                              Global Defined In Module
      -----  --------------------------------   ------------------------
     00001504  C$_sms_manager.c$358$1_0$264       _sms_manager
     00001504  XG$devkit_SMS_loadBGPalette$0$0    _sms_manager
     00001507  A$_sms_manager$2254                _sms_manager
     00001507  C$_sms_manager.c$359$1_0$266       _sms_manager
     00001507  C$_sms_manager.c$361$1_0$266       _sms_manager
     00001507  G$devkit_SMS_loadSpritePalette$0   _sms_manager
     00001507  _devkit_SMS_loadSpritePalette      _sms_manager
     0000150B  A$_sms_manager$2255                _sms_manager
     0000150D  A$_sms_manager$2256                _sms_manager
     00001510  A$_sms_manager$2257                _sms_manager
     00001513  A$_sms_manager$2265                _sms_manager
     00001513  C$_sms_manager.c$362$1_0$266       _sms_manager
     00001513  XG$devkit_SMS_loadSpritePalette$   _sms_manager
     00001516  A$_sms_manager$2278                _sms_manager
     00001516  C$_sms_manager.c$363$1_0$268       _sms_manager
     00001516  C$_sms_manager.c$365$1_0$268       _sms_manager
     00001516  G$devkit_SMS_setNextBGColoratInd   _sms_manager
     00001516  _devkit_SMS_setNextBGColoratInde   _sms_manager
     0000151A  A$_sms_manager$2279                _sms_manager
     0000151C  A$_sms_manager$2280                _sms_manager
     0000151F  A$_sms_manager$2281                _sms_manager
     00001520  A$_sms_manager$2282                _sms_manager
     00001522  A$_sms_manager$2283                _sms_manager
     00001523  A$_sms_manager$2291                _sms_manager
     00001523  C$_sms_manager.c$366$1_0$268       _sms_manager
     00001523  XG$devkit_SMS_setNextBGColoratIn   _sms_manager
     00001526  A$_sms_manager$2304                _sms_manager
     00001526  C$_sms_manager.c$367$1_0$270       _sms_manager
     00001526  C$_sms_manager.c$369$1_0$270       _sms_manager
     00001526  G$devkit_SMS_setNextSpriteColora   _sms_manager
     00001526  _devkit_SMS_setNextSpriteColorat   _sms_manager
     0000152A  A$_sms_manager$2305                _sms_manager
     0000152C  A$_sms_manager$2306                _sms_manager
     0000152F  A$_sms_manager$2307                _sms_manager
     00001530  A$_sms_manager$2308                _sms_manager
     00001532  A$_sms_manager$2309                _sms_manager
     00001534  A$_sms_manager$2310                _sms_manager
     00001535  A$_sms_manager$2318                _sms_manager
     00001535  C$_sms_manager.c$370$1_0$270       _sms_manager
     00001535  XG$devkit_SMS_setNextSpriteColor   _sms_manager
     00001538  A$_sms_manager$2331                _sms_manager
     00001538  C$_sms_manager.c$371$1_0$272       _sms_manager
     00001538  C$_sms_manager.c$373$1_0$272       _sms_manager
     00001538  G$devkit_SMS_setColor$0$0          _sms_manager
     00001538  _devkit_SMS_setColor               _sms_manager
     0000153C  A$_sms_manager$2332                _sms_manager
     0000153E  A$_sms_manager$2333                _sms_manager
     00001541  A$_sms_manager$2341                _sms_manager
     00001541  C$_sms_manager.c$374$1_0$272       _sms_manager
     00001541  XG$devkit_SMS_setColor$0$0         _sms_manager
     00001544  A$_sms_manager$2354                _sms_manager
ASxxxx Linker V03.00 + NoICE + sdld,  page 48.
Hexadecimal  [32-Bits]

Area                                    Addr        Size        Decimal Bytes (Attributes)
--------------------------------        ----        ----        ------- ----- ------------
_CODE                               00000200    00006F18 =       28440. bytes (REL,CON)

      Value  Global                              Global Defined In Module
      -----  --------------------------------   ------------------------
     00001544  C$_sms_manager.c$377$1_0$274       _sms_manager
     00001544  C$_sms_manager.c$379$1_0$274       _sms_manager
     00001544  G$devkit_RGB$0$0                   _sms_manager
     00001544  _devkit_RGB                        _sms_manager
     00001548  A$_sms_manager$2355                _sms_manager
     0000154A  A$_sms_manager$2356                _sms_manager
     0000154D  A$_sms_manager$2357                _sms_manager
     0000154E  A$_sms_manager$2358                _sms_manager
     0000154F  A$_sms_manager$2359                _sms_manager
     00001551  A$_sms_manager$2360                _sms_manager
     00001554  A$_sms_manager$2361                _sms_manager
     00001555  A$_sms_manager$2362                _sms_manager
     00001558  A$_sms_manager$2363                _sms_manager
     00001559  A$_sms_manager$2364                _sms_manager
     0000155A  A$_sms_manager$2365                _sms_manager
     0000155B  A$_sms_manager$2366                _sms_manager
     0000155C  A$_sms_manager$2367                _sms_manager
     0000155D  A$_sms_manager$2368                _sms_manager
     0000155E  A$_sms_manager$2376                _sms_manager
     0000155E  C$_sms_manager.c$380$1_0$274       _sms_manager
     0000155E  XG$devkit_RGB$0$0                  _sms_manager
     0000155F  A$_sms_manager$2389                _sms_manager
     0000155F  C$_sms_manager.c$381$1_0$276       _sms_manager
     0000155F  C$_sms_manager.c$383$1_0$276       _sms_manager
     0000155F  G$devkit_RGB8$0$0                  _sms_manager
     0000155F  _devkit_RGB8                       _sms_manager
     00001563  A$_sms_manager$2390                _sms_manager
     00001565  A$_sms_manager$2391                _sms_manager
     00001568  A$_sms_manager$2392                _sms_manager
     00001569  A$_sms_manager$2393                _sms_manager
     0000156A  A$_sms_manager$2394                _sms_manager
     0000156C  A$_sms_manager$2395                _sms_manager
     0000156D  A$_sms_manager$2396                _sms_manager
     00001570  A$_sms_manager$2397                _sms_manager
     00001572  A$_sms_manager$2398                _sms_manager
     00001573  A$_sms_manager$2399                _sms_manager
     00001574  A$_sms_manager$2400                _sms_manager
     00001576  A$_sms_manager$2401                _sms_manager
     00001577  A$_sms_manager$2402                _sms_manager
     00001578  A$_sms_manager$2403                _sms_manager
     00001579  A$_sms_manager$2404                _sms_manager
     0000157A  A$_sms_manager$2405                _sms_manager
     0000157D  A$_sms_manager$2406                _sms_manager
     0000157E  A$_sms_manager$2407                _sms_manager
     0000157F  A$_sms_manager$2408                _sms_manager
     00001581  A$_sms_manager$2409                _sms_manager
     00001582  A$_sms_manager$2410                _sms_manager
     00001583  A$_sms_manager$2411                _sms_manager
     00001584  A$_sms_manager$2412                _sms_manager
     00001585  A$_sms_manager$2413                _sms_manager
     00001586  A$_sms_manager$2414                _sms_manager
ASxxxx Linker V03.00 + NoICE + sdld,  page 49.
Hexadecimal  [32-Bits]

Area                                    Addr        Size        Decimal Bytes (Attributes)
--------------------------------        ----        ----        ------- ----- ------------
_CODE                               00000200    00006F18 =       28440. bytes (REL,CON)

      Value  Global                              Global Defined In Module
      -----  --------------------------------   ------------------------
     00001587  A$_sms_manager$2422                _sms_manager
     00001587  C$_sms_manager.c$384$1_0$276       _sms_manager
     00001587  XG$devkit_RGB8$0$0                 _sms_manager
     00001588  A$_sms_manager$2435                _sms_manager
     00001588  C$_sms_manager.c$390$1_0$278       _sms_manager
     00001588  C$_sms_manager.c$392$1_0$278       _sms_manager
     00001588  G$devkit_SMS_loadBGPaletteHalfBr   _sms_manager
     00001588  _devkit_SMS_loadBGPaletteHalfBri   _sms_manager
     0000158C  A$_sms_manager$2436                _sms_manager
     0000158E  A$_sms_manager$2437                _sms_manager
     00001591  A$_sms_manager$2438                _sms_manager
     00001594  A$_sms_manager$2446                _sms_manager
     00001594  C$_sms_manager.c$393$1_0$278       _sms_manager
     00001594  XG$devkit_SMS_loadBGPaletteHalfB   _sms_manager
     00001597  A$_sms_manager$2459                _sms_manager
     00001597  C$_sms_manager.c$394$1_0$280       _sms_manager
     00001597  C$_sms_manager.c$396$1_0$280       _sms_manager
     00001597  G$devkit_SMS_loadSpritePaletteHa   _sms_manager
     00001597  _devkit_SMS_loadSpritePaletteHal   _sms_manager
     0000159B  A$_sms_manager$2460                _sms_manager
     0000159D  A$_sms_manager$2461                _sms_manager
     000015A0  A$_sms_manager$2462                _sms_manager
     000015A3  A$_sms_manager$2470                _sms_manager
     000015A3  C$_sms_manager.c$397$1_0$280       _sms_manager
     000015A3  XG$devkit_SMS_loadSpritePaletteH   _sms_manager
     000015A6  A$_sms_manager$2490                _sms_manager
     000015A6  C$_sms_manager.c$398$1_0$282       _sms_manager
     000015A6  C$_sms_manager.c$400$1_0$282       _sms_manager
     000015A6  C$_sms_manager.c$401$1_0$282       _sms_manager
     000015A6  G$devkit_SMS_zeroBGPalette$0$0     _sms_manager
     000015A6  XG$devkit_SMS_zeroBGPalette$0$0    _sms_manager
     000015A6  _devkit_SMS_zeroBGPalette          _sms_manager
     000015A9  A$_sms_manager$2510                _sms_manager
     000015A9  C$_sms_manager.c$402$1_0$284       _sms_manager
     000015A9  C$_sms_manager.c$404$1_0$284       _sms_manager
     000015A9  C$_sms_manager.c$405$1_0$284       _sms_manager
     000015A9  G$devkit_SMS_zeroSpritePalette$0   _sms_manager
     000015A9  XG$devkit_SMS_zeroSpritePalette$   _sms_manager
     000015A9  _devkit_SMS_zeroSpritePalette      _sms_manager
     000015AC  A$_sms_manager$2523                _sms_manager
     000015AC  C$_sms_manager.c$408$1_0$286       _sms_manager
     000015AC  C$_sms_manager.c$410$1_0$286       _sms_manager
     000015AC  G$devkit_SMS_configureTextRender   _sms_manager
     000015AC  _devkit_SMS_configureTextRendere   _sms_manager
     000015B0  A$_sms_manager$2524                _sms_manager
     000015B2  A$_sms_manager$2525                _sms_manager
     000015B5  A$_sms_manager$2526                _sms_manager
     000015B8  A$_sms_manager$2534                _sms_manager
     000015B8  C$_sms_manager.c$411$1_0$286       _sms_manager
     000015B8  XG$devkit_SMS_configureTextRende   _sms_manager
     000015BB  A$_sms_manager$2554                _sms_manager
ASxxxx Linker V03.00 + NoICE + sdld,  page 50.
Hexadecimal  [32-Bits]

Area                                    Addr        Size        Decimal Bytes (Attributes)
--------------------------------        ----        ----        ------- ----- ------------
_CODE                               00000200    00006F18 =       28440. bytes (REL,CON)

      Value  Global                              Global Defined In Module
      -----  --------------------------------   ------------------------
     000015BB  C$_sms_manager.c$412$1_0$288       _sms_manager
     000015BB  C$_sms_manager.c$414$1_0$288       _sms_manager
     000015BB  C$_sms_manager.c$415$1_0$288       _sms_manager
     000015BB  G$devkit_SMS_autoSetUpTextRender   _sms_manager
     000015BB  XG$devkit_SMS_autoSetUpTextRende   _sms_manager
     000015BB  _devkit_SMS_autoSetUpTextRendere   _sms_manager
     000015BE  A$_sms_manager$2567                _sms_manager
     000015BE  C$_sms_manager.c$418$1_0$290       _sms_manager
     000015BE  C$_sms_manager.c$420$1_0$290       _sms_manager
     000015BE  G$devkit_SMS_decompressZX7$0$0     _sms_manager
     000015BE  _devkit_SMS_decompressZX7          _sms_manager
     000015C2  A$_sms_manager$2568                _sms_manager
     000015C4  A$_sms_manager$2569                _sms_manager
     000015C7  A$_sms_manager$2570                _sms_manager
     000015CA  A$_sms_manager$2571                _sms_manager
     000015CB  A$_sms_manager$2572                _sms_manager
     000015CE  A$_sms_manager$2573                _sms_manager
     000015D1  A$_sms_manager$2574                _sms_manager
     000015D2  A$_sms_manager$2575                _sms_manager
     000015D5  A$_sms_manager$2576                _sms_manager
     000015D6  A$_sms_manager$2577                _sms_manager
     000015D7  A$_sms_manager$2585                _sms_manager
     000015D7  C$_sms_manager.c$421$1_0$290       _sms_manager
     000015D7  XG$devkit_SMS_decompressZX7$0$0    _sms_manager
     000015D8  A$_sms_manager$2605                _sms_manager
     000015D8  C$_sms_manager.c$424$1_0$291       _sms_manager
     000015D8  C$_sms_manager.c$426$1_0$291       _sms_manager
     000015D8  C$_sms_manager.c$427$1_0$291       _sms_manager
     000015D8  G$devkit_SMS_getKeysStatus$0$0     _sms_manager
     000015D8  XG$devkit_SMS_getKeysStatus$0$0    _sms_manager
     000015D8  _devkit_SMS_getKeysStatus          _sms_manager
     000015DB  A$_sms_manager$2625                _sms_manager
     000015DB  C$_sms_manager.c$428$1_0$292       _sms_manager
     000015DB  C$_sms_manager.c$430$1_0$292       _sms_manager
     000015DB  C$_sms_manager.c$431$1_0$292       _sms_manager
     000015DB  G$devkit_SMS_getKeysPressed$0$0    _sms_manager
     000015DB  XG$devkit_SMS_getKeysPressed$0$0   _sms_manager
     000015DB  _devkit_SMS_getKeysPressed         _sms_manager
     000015DE  A$_sms_manager$2645                _sms_manager
     000015DE  C$_sms_manager.c$432$1_0$293       _sms_manager
     000015DE  C$_sms_manager.c$434$1_0$293       _sms_manager
     000015DE  C$_sms_manager.c$435$1_0$293       _sms_manager
     000015DE  G$devkit_SMS_getKeysHeld$0$0       _sms_manager
     000015DE  XG$devkit_SMS_getKeysHeld$0$0      _sms_manager
     000015DE  _devkit_SMS_getKeysHeld            _sms_manager
     000015E1  A$_sms_manager$2665                _sms_manager
     000015E1  C$_sms_manager.c$436$1_0$294       _sms_manager
     000015E1  C$_sms_manager.c$438$1_0$294       _sms_manager
     000015E1  C$_sms_manager.c$439$1_0$294       _sms_manager
     000015E1  G$devkit_SMS_getKeysReleased$0$0   _sms_manager
     000015E1  XG$devkit_SMS_getKeysReleased$0$   _sms_manager
ASxxxx Linker V03.00 + NoICE + sdld,  page 51.
Hexadecimal  [32-Bits]

Area                                    Addr        Size        Decimal Bytes (Attributes)
--------------------------------        ----        ----        ------- ----- ------------
_CODE                               00000200    00006F18 =       28440. bytes (REL,CON)

      Value  Global                              Global Defined In Module
      -----  --------------------------------   ------------------------
     000015E1  _devkit_SMS_getKeysReleased        _sms_manager
     000015E4  A$_sms_manager$2678                _sms_manager
     000015E4  C$_sms_manager.c$442$1_0$295       _sms_manager
     000015E4  C$_sms_manager.c$444$1_0$295       _sms_manager
     000015E4  G$devkit_PORT_A_KEY_UP$0$0         _sms_manager
     000015E4  _devkit_PORT_A_KEY_UP              _sms_manager
     000015E7  A$_sms_manager$2686                _sms_manager
     000015E7  C$_sms_manager.c$445$1_0$295       _sms_manager
     000015E7  XG$devkit_PORT_A_KEY_UP$0$0        _sms_manager
     000015E8  A$_sms_manager$2699                _sms_manager
     000015E8  C$_sms_manager.c$446$1_0$296       _sms_manager
     000015E8  C$_sms_manager.c$448$1_0$296       _sms_manager
     000015E8  G$devkit_PORT_A_KEY_DOWN$0$0       _sms_manager
     000015E8  _devkit_PORT_A_KEY_DOWN            _sms_manager
     000015EB  A$_sms_manager$2707                _sms_manager
     000015EB  C$_sms_manager.c$449$1_0$296       _sms_manager
     000015EB  XG$devkit_PORT_A_KEY_DOWN$0$0      _sms_manager
     000015EC  A$_sms_manager$2720                _sms_manager
     000015EC  C$_sms_manager.c$450$1_0$297       _sms_manager
     000015EC  C$_sms_manager.c$452$1_0$297       _sms_manager
     000015EC  G$devkit_PORT_A_KEY_LEFT$0$0       _sms_manager
     000015EC  _devkit_PORT_A_KEY_LEFT            _sms_manager
     000015EF  A$_sms_manager$2728                _sms_manager
     000015EF  C$_sms_manager.c$453$1_0$297       _sms_manager
     000015EF  XG$devkit_PORT_A_KEY_LEFT$0$0      _sms_manager
     000015F0  A$_sms_manager$2741                _sms_manager
     000015F0  C$_sms_manager.c$454$1_0$298       _sms_manager
     000015F0  C$_sms_manager.c$456$1_0$298       _sms_manager
     000015F0  G$devkit_PORT_A_KEY_RIGHT$0$0      _sms_manager
     000015F0  _devkit_PORT_A_KEY_RIGHT           _sms_manager
     000015F3  A$_sms_manager$2749                _sms_manager
     000015F3  C$_sms_manager.c$457$1_0$298       _sms_manager
     000015F3  XG$devkit_PORT_A_KEY_RIGHT$0$0     _sms_manager
     000015F4  A$_sms_manager$2762                _sms_manager
     000015F4  C$_sms_manager.c$458$1_0$299       _sms_manager
     000015F4  C$_sms_manager.c$460$1_0$299       _sms_manager
     000015F4  G$devkit_PORT_A_KEY_1$0$0          _sms_manager
     000015F4  _devkit_PORT_A_KEY_1               _sms_manager
     000015F7  A$_sms_manager$2770                _sms_manager
     000015F7  C$_sms_manager.c$461$1_0$299       _sms_manager
     000015F7  XG$devkit_PORT_A_KEY_1$0$0         _sms_manager
     000015F8  A$_sms_manager$2783                _sms_manager
     000015F8  C$_sms_manager.c$462$1_0$300       _sms_manager
     000015F8  C$_sms_manager.c$464$1_0$300       _sms_manager
     000015F8  G$devkit_PORT_A_KEY_2$0$0          _sms_manager
     000015F8  _devkit_PORT_A_KEY_2               _sms_manager
     000015FB  A$_sms_manager$2791                _sms_manager
     000015FB  C$_sms_manager.c$465$1_0$300       _sms_manager
     000015FB  XG$devkit_PORT_A_KEY_2$0$0         _sms_manager
     000015FC  A$_sms_manager$2804                _sms_manager
     000015FC  C$_sms_manager.c$466$1_0$301       _sms_manager
ASxxxx Linker V03.00 + NoICE + sdld,  page 52.
Hexadecimal  [32-Bits]

Area                                    Addr        Size        Decimal Bytes (Attributes)
--------------------------------        ----        ----        ------- ----- ------------
_CODE                               00000200    00006F18 =       28440. bytes (REL,CON)

      Value  Global                              Global Defined In Module
      -----  --------------------------------   ------------------------
     000015FC  C$_sms_manager.c$468$1_0$301       _sms_manager
     000015FC  G$devkit_PORT_A_KEY_START$0$0      _sms_manager
     000015FC  _devkit_PORT_A_KEY_START           _sms_manager
     000015FF  A$_sms_manager$2812                _sms_manager
     000015FF  C$_sms_manager.c$469$1_0$301       _sms_manager
     000015FF  XG$devkit_PORT_A_KEY_START$0$0     _sms_manager
     00001600  A$_sms_manager$2825                _sms_manager
     00001600  C$_sms_manager.c$471$1_0$302       _sms_manager
     00001600  C$_sms_manager.c$473$1_0$302       _sms_manager
     00001600  G$devkit_PORT_B_KEY_UP$0$0         _sms_manager
     00001600  _devkit_PORT_B_KEY_UP              _sms_manager
     00001603  A$_sms_manager$2833                _sms_manager
     00001603  C$_sms_manager.c$474$1_0$302       _sms_manager
     00001603  XG$devkit_PORT_B_KEY_UP$0$0        _sms_manager
     00001604  A$_sms_manager$2846                _sms_manager
     00001604  C$_sms_manager.c$475$1_0$303       _sms_manager
     00001604  C$_sms_manager.c$477$1_0$303       _sms_manager
     00001604  G$devkit_PORT_B_KEY_DOWN$0$0       _sms_manager
     00001604  _devkit_PORT_B_KEY_DOWN            _sms_manager
     00001607  A$_sms_manager$2854                _sms_manager
     00001607  C$_sms_manager.c$478$1_0$303       _sms_manager
     00001607  XG$devkit_PORT_B_KEY_DOWN$0$0      _sms_manager
     00001608  A$_sms_manager$2867                _sms_manager
     00001608  C$_sms_manager.c$479$1_0$304       _sms_manager
     00001608  C$_sms_manager.c$481$1_0$304       _sms_manager
     00001608  G$devkit_PORT_B_KEY_LEFT$0$0       _sms_manager
     00001608  _devkit_PORT_B_KEY_LEFT            _sms_manager
     0000160B  A$_sms_manager$2875                _sms_manager
     0000160B  C$_sms_manager.c$482$1_0$304       _sms_manager
     0000160B  XG$devkit_PORT_B_KEY_LEFT$0$0      _sms_manager
     0000160C  A$_sms_manager$2888                _sms_manager
     0000160C  C$_sms_manager.c$483$1_0$305       _sms_manager
     0000160C  C$_sms_manager.c$485$1_0$305       _sms_manager
     0000160C  G$devkit_PORT_B_KEY_RIGHT$0$0      _sms_manager
     0000160C  _devkit_PORT_B_KEY_RIGHT           _sms_manager
     0000160F  A$_sms_manager$2896                _sms_manager
     0000160F  C$_sms_manager.c$486$1_0$305       _sms_manager
     0000160F  XG$devkit_PORT_B_KEY_RIGHT$0$0     _sms_manager
     00001610  A$_sms_manager$2909                _sms_manager
     00001610  C$_sms_manager.c$487$1_0$306       _sms_manager
     00001610  C$_sms_manager.c$489$1_0$306       _sms_manager
     00001610  G$devkit_PORT_B_KEY_1$0$0          _sms_manager
     00001610  _devkit_PORT_B_KEY_1               _sms_manager
     00001613  A$_sms_manager$2917                _sms_manager
     00001613  C$_sms_manager.c$490$1_0$306       _sms_manager
     00001613  XG$devkit_PORT_B_KEY_1$0$0         _sms_manager
     00001614  A$_sms_manager$2930                _sms_manager
     00001614  C$_sms_manager.c$491$1_0$307       _sms_manager
     00001614  C$_sms_manager.c$493$1_0$307       _sms_manager
     00001614  G$devkit_PORT_B_KEY_2$0$0          _sms_manager
     00001614  _devkit_PORT_B_KEY_2               _sms_manager
ASxxxx Linker V03.00 + NoICE + sdld,  page 53.
Hexadecimal  [32-Bits]

Area                                    Addr        Size        Decimal Bytes (Attributes)
--------------------------------        ----        ----        ------- ----- ------------
_CODE                               00000200    00006F18 =       28440. bytes (REL,CON)

      Value  Global                              Global Defined In Module
      -----  --------------------------------   ------------------------
     00001617  A$_sms_manager$2938                _sms_manager
     00001617  C$_sms_manager.c$494$1_0$307       _sms_manager
     00001617  XG$devkit_PORT_B_KEY_2$0$0         _sms_manager
     00001618  A$_sms_manager$2951                _sms_manager
     00001618  C$_sms_manager.c$495$1_0$308       _sms_manager
     00001618  C$_sms_manager.c$497$1_0$308       _sms_manager
     00001618  G$devkit_PORT_B_KEY_START$0$0      _sms_manager
     00001618  _devkit_PORT_B_KEY_START           _sms_manager
     0000161B  A$_sms_manager$2959                _sms_manager
     0000161B  C$_sms_manager.c$498$1_0$308       _sms_manager
     0000161B  XG$devkit_PORT_B_KEY_START$0$0     _sms_manager
     0000161C  A$_sms_manager$2972                _sms_manager
     0000161C  C$_sms_manager.c$500$1_0$309       _sms_manager
     0000161C  C$_sms_manager.c$502$1_0$309       _sms_manager
     0000161C  G$devkit_RESET_KEY$0$0             _sms_manager
     0000161C  _devkit_RESET_KEY                  _sms_manager
     0000161F  A$_sms_manager$2980                _sms_manager
     0000161F  C$_sms_manager.c$503$1_0$309       _sms_manager
     0000161F  XG$devkit_RESET_KEY$0$0            _sms_manager
     00001620  A$_sms_manager$2993                _sms_manager
     00001620  C$_sms_manager.c$504$1_0$310       _sms_manager
     00001620  C$_sms_manager.c$506$1_0$310       _sms_manager
     00001620  G$devkit_CARTRIDGE_SLOT$0$0        _sms_manager
     00001620  _devkit_CARTRIDGE_SLOT             _sms_manager
     00001623  A$_sms_manager$3001                _sms_manager
     00001623  C$_sms_manager.c$507$1_0$310       _sms_manager
     00001623  XG$devkit_CARTRIDGE_SLOT$0$0       _sms_manager
     00001624  A$_sms_manager$3014                _sms_manager
     00001624  C$_sms_manager.c$508$1_0$311       _sms_manager
     00001624  C$_sms_manager.c$510$1_0$311       _sms_manager
     00001624  G$devkit_PORT_A_TH$0$0             _sms_manager
     00001624  _devkit_PORT_A_TH                  _sms_manager
     00001627  A$_sms_manager$3022                _sms_manager
     00001627  C$_sms_manager.c$511$1_0$311       _sms_manager
     00001627  XG$devkit_PORT_A_TH$0$0            _sms_manager
     00001628  A$_sms_manager$3035                _sms_manager
     00001628  C$_sms_manager.c$512$1_0$312       _sms_manager
     00001628  C$_sms_manager.c$514$1_0$312       _sms_manager
     00001628  G$devkit_PORT_B_TH$0$0             _sms_manager
     00001628  _devkit_PORT_B_TH                  _sms_manager
     0000162B  A$_sms_manager$3043                _sms_manager
     0000162B  C$_sms_manager.c$515$1_0$312       _sms_manager
     0000162B  XG$devkit_PORT_B_TH$0$0            _sms_manager
     0000162C  A$_sms_manager$3056                _sms_manager
     0000162C  C$_sms_manager.c$518$1_0$313       _sms_manager
     0000162C  C$_sms_manager.c$520$1_0$313       _sms_manager
     0000162C  G$devkit_PORT_A$0$0                _sms_manager
     0000162C  _devkit_PORT_A                     _sms_manager
     0000162E  A$_sms_manager$3064                _sms_manager
     0000162E  C$_sms_manager.c$521$1_0$313       _sms_manager
     0000162E  XG$devkit_PORT_A$0$0               _sms_manager
ASxxxx Linker V03.00 + NoICE + sdld,  page 54.
Hexadecimal  [32-Bits]

Area                                    Addr        Size        Decimal Bytes (Attributes)
--------------------------------        ----        ----        ------- ----- ------------
_CODE                               00000200    00006F18 =       28440. bytes (REL,CON)

      Value  Global                              Global Defined In Module
      -----  --------------------------------   ------------------------
     0000162F  A$_sms_manager$3077                _sms_manager
     0000162F  C$_sms_manager.c$522$1_0$314       _sms_manager
     0000162F  C$_sms_manager.c$524$1_0$314       _sms_manager
     0000162F  G$devkit_PORT_B$0$0                _sms_manager
     0000162F  _devkit_PORT_B                     _sms_manager
     00001631  A$_sms_manager$3085                _sms_manager
     00001631  C$_sms_manager.c$525$1_0$314       _sms_manager
     00001631  XG$devkit_PORT_B$0$0               _sms_manager
     00001632  A$_sms_manager$3098                _sms_manager
     00001632  C$_sms_manager.c$526$1_0$316       _sms_manager
     00001632  C$_sms_manager.c$528$1_0$316       _sms_manager
     00001632  G$devkit_SMS_detectPaddle$0$0      _sms_manager
     00001632  _devkit_SMS_detectPaddle           _sms_manager
     00001636  A$_sms_manager$3099                _sms_manager
     00001638  A$_sms_manager$3100                _sms_manager
     0000163B  A$_sms_manager$3108                _sms_manager
     0000163B  C$_sms_manager.c$529$1_0$316       _sms_manager
     0000163B  XG$devkit_SMS_detectPaddle$0$0     _sms_manager
     0000163E  A$_sms_manager$3121                _sms_manager
     0000163E  C$_sms_manager.c$530$1_0$318       _sms_manager
     0000163E  C$_sms_manager.c$532$1_0$318       _sms_manager
     0000163E  G$devkit_SMS_readPaddle$0$0        _sms_manager
     0000163E  _devkit_SMS_readPaddle             _sms_manager
     00001642  A$_sms_manager$3122                _sms_manager
     00001644  A$_sms_manager$3123                _sms_manager
     00001647  A$_sms_manager$3131                _sms_manager
     00001647  C$_sms_manager.c$533$1_0$318       _sms_manager
     00001647  XG$devkit_SMS_readPaddle$0$0       _sms_manager
     0000164A  A$_sms_manager$3151                _sms_manager
     0000164A  C$_sms_manager.c$536$1_0$319       _sms_manager
     0000164A  C$_sms_manager.c$538$1_0$319       _sms_manager
     0000164A  C$_sms_manager.c$539$1_0$319       _sms_manager
     0000164A  G$devkit_SMS_queryPauseRequested   _sms_manager
     0000164A  XG$devkit_SMS_queryPauseRequeste   _sms_manager
     0000164A  _devkit_SMS_queryPauseRequested    _sms_manager
     0000164D  A$_sms_manager$3171                _sms_manager
     0000164D  C$_sms_manager.c$540$1_0$320       _sms_manager
     0000164D  C$_sms_manager.c$542$1_0$320       _sms_manager
     0000164D  C$_sms_manager.c$543$1_0$320       _sms_manager
     0000164D  G$devkit_SMS_resetPauseRequest$0   _sms_manager
     0000164D  XG$devkit_SMS_resetPauseRequest$   _sms_manager
     0000164D  _devkit_SMS_resetPauseRequest      _sms_manager
     00001650  A$_sms_manager$3184                _sms_manager
     00001650  C$_sms_manager.c$561$1_0$322       _sms_manager
     00001650  C$_sms_manager.c$563$1_0$322       _sms_manager
     00001650  G$devkit_SMS_VDPFlags$0$0          _sms_manager
     00001650  _devkit_SMS_VDPFlags               _sms_manager
     00001653  A$_sms_manager$3185                _sms_manager
     00001654  A$_sms_manager$3193                _sms_manager
     00001654  C$_sms_manager.c$564$1_0$322       _sms_manager
     00001654  XG$devkit_SMS_VDPFlags$0$0         _sms_manager
ASxxxx Linker V03.00 + NoICE + sdld,  page 55.
Hexadecimal  [32-Bits]

Area                                    Addr        Size        Decimal Bytes (Attributes)
--------------------------------        ----        ----        ------- ----- ------------
_CODE                               00000200    00006F18 =       28440. bytes (REL,CON)

      Value  Global                              Global Defined In Module
      -----  --------------------------------   ------------------------
     00001655  A$_sms_manager$3206                _sms_manager
     00001655  C$_sms_manager.c$565$1_0$323       _sms_manager
     00001655  C$_sms_manager.c$567$1_0$323       _sms_manager
     00001655  G$devkit_VDPFLAG_SPRITEOVERFLOW$   _sms_manager
     00001655  _devkit_VDPFLAG_SPRITEOVERFLOW     _sms_manager
     00001657  A$_sms_manager$3214                _sms_manager
     00001657  C$_sms_manager.c$568$1_0$323       _sms_manager
     00001657  XG$devkit_VDPFLAG_SPRITEOVERFLOW   _sms_manager
     00001658  A$_sms_manager$3227                _sms_manager
     00001658  C$_sms_manager.c$569$1_0$324       _sms_manager
     00001658  C$_sms_manager.c$571$1_0$324       _sms_manager
     00001658  G$devkit_VDPFLAG_SPRITECOLLISION   _sms_manager
     00001658  _devkit_VDPFLAG_SPRITECOLLISION    _sms_manager
     0000165A  A$_sms_manager$3235                _sms_manager
     0000165A  C$_sms_manager.c$572$1_0$324       _sms_manager
     0000165A  XG$devkit_VDPFLAG_SPRITECOLLISIO   _sms_manager
     0000165B  A$_sms_manager$3248                _sms_manager
     0000165B  C$_sms_manager.c$575$1_0$327       _sms_manager
     0000165B  C$_sms_manager.c$577$1_0$327       _sms_manager
     0000165B  G$devkit_SMS_setLineInterruptHan   _sms_manager
     0000165B  _devkit_SMS_setLineInterruptHand   _sms_manager
     0000165C  A$_sms_manager$3249                _sms_manager
     0000165D  A$_sms_manager$3250                _sms_manager
     0000165E  A$_sms_manager$3251                _sms_manager
     0000165F  A$_sms_manager$3259                _sms_manager
     0000165F  C$_sms_manager.c$578$1_0$327       _sms_manager
     0000165F  XG$devkit_SMS_setLineInterruptHa   _sms_manager
     00001662  A$_sms_manager$3272                _sms_manager
     00001662  C$_sms_manager.c$579$1_0$329       _sms_manager
     00001662  C$_sms_manager.c$581$1_0$329       _sms_manager
     00001662  G$devkit_SMS_setLineCounter$0$0    _sms_manager
     00001662  _devkit_SMS_setLineCounter         _sms_manager
     00001666  A$_sms_manager$3273                _sms_manager
     00001668  A$_sms_manager$3274                _sms_manager
     0000166B  A$_sms_manager$3282                _sms_manager
     0000166B  C$_sms_manager.c$582$1_0$329       _sms_manager
     0000166B  XG$devkit_SMS_setLineCounter$0$0   _sms_manager
     0000166E  A$_sms_manager$3295                _sms_manager
     0000166E  C$_sms_manager.c$583$1_0$330       _sms_manager
     0000166E  C$_sms_manager.c$585$1_0$330       _sms_manager
     0000166E  G$devkit_SMS_enableLineInterrupt   _sms_manager
     0000166E  _devkit_SMS_enableLineInterrupt    _sms_manager
     00001671  A$_sms_manager$3303                _sms_manager
     00001671  C$_sms_manager.c$586$1_0$330       _sms_manager
     00001671  XG$devkit_SMS_enableLineInterrup   _sms_manager
     00001674  A$_sms_manager$3316                _sms_manager
     00001674  C$_sms_manager.c$587$1_0$331       _sms_manager
     00001674  C$_sms_manager.c$589$1_0$331       _sms_manager
     00001674  G$devkit_SMS_disableLineInterrup   _sms_manager
     00001674  _devkit_SMS_disableLineInterrupt   _sms_manager
     00001677  A$_sms_manager$3324                _sms_manager
ASxxxx Linker V03.00 + NoICE + sdld,  page 56.
Hexadecimal  [32-Bits]

Area                                    Addr        Size        Decimal Bytes (Attributes)
--------------------------------        ----        ----        ------- ----- ------------
_CODE                               00000200    00006F18 =       28440. bytes (REL,CON)

      Value  Global                              Global Defined In Module
      -----  --------------------------------   ------------------------
     00001677  C$_sms_manager.c$590$1_0$331       _sms_manager
     00001677  XG$devkit_SMS_disableLineInterru   _sms_manager
     0000167A  A$_sms_manager$3344                _sms_manager
     0000167A  C$_sms_manager.c$593$1_0$333       _sms_manager
     0000167A  C$_sms_manager.c$595$1_0$333       _sms_manager
     0000167A  C$_sms_manager.c$596$1_0$333       _sms_manager
     0000167A  G$devkit_SMS_getVCount$0$0         _sms_manager
     0000167A  XG$devkit_SMS_getVCount$0$0        _sms_manager
     0000167A  _devkit_SMS_getVCount              _sms_manager
     0000167D  A$_sms_manager$3364                _sms_manager
     0000167D  C$_sms_manager.c$598$1_0$335       _sms_manager
     0000167D  C$_sms_manager.c$600$1_0$335       _sms_manager
     0000167D  C$_sms_manager.c$601$1_0$335       _sms_manager
     0000167D  G$devkit_SMS_getHCount$0$0         _sms_manager
     0000167D  XG$devkit_SMS_getHCount$0$0        _sms_manager
     0000167D  _devkit_SMS_getHCount              _sms_manager
     00001680  A$_sms_manager$3377                _sms_manager
     00001680  C$_sms_manager.c$604$1_0$337       _sms_manager
     00001680  C$_sms_manager.c$606$1_0$337       _sms_manager
     00001680  G$devkit_SMS_VRAMmemcpy$0$0        _sms_manager
     00001680  _devkit_SMS_VRAMmemcpy             _sms_manager
     00001684  A$_sms_manager$3378                _sms_manager
     00001686  A$_sms_manager$3379                _sms_manager
     00001689  A$_sms_manager$3380                _sms_manager
     0000168C  A$_sms_manager$3381                _sms_manager
     0000168D  A$_sms_manager$3382                _sms_manager
     00001690  A$_sms_manager$3383                _sms_manager
     00001693  A$_sms_manager$3384                _sms_manager
     00001695  A$_sms_manager$3385                _sms_manager
     00001697  A$_sms_manager$3386                _sms_manager
     00001698  A$_sms_manager$3387                _sms_manager
     0000169B  A$_sms_manager$3388                _sms_manager
     0000169E  A$_sms_manager$3389                _sms_manager
     0000169F  A$_sms_manager$3390                _sms_manager
     000016A2  A$_sms_manager$3398                _sms_manager
     000016A2  C$_sms_manager.c$607$1_0$337       _sms_manager
     000016A2  XG$devkit_SMS_VRAMmemcpy$0$0       _sms_manager
     000016A3  A$_sms_manager$3411                _sms_manager
     000016A3  C$_sms_manager.c$608$1_0$339       _sms_manager
     000016A3  C$_sms_manager.c$610$1_0$339       _sms_manager
     000016A3  G$devkit_SMS_VRAMmemcpy_brief$0$   _sms_manager
     000016A3  _devkit_SMS_VRAMmemcpy_brief       _sms_manager
     000016A7  A$_sms_manager$3412                _sms_manager
     000016A9  A$_sms_manager$3413                _sms_manager
     000016AC  A$_sms_manager$3414                _sms_manager
     000016AD  A$_sms_manager$3415                _sms_manager
     000016AE  A$_sms_manager$3416                _sms_manager
     000016B1  A$_sms_manager$3417                _sms_manager
     000016B4  A$_sms_manager$3418                _sms_manager
     000016B6  A$_sms_manager$3419                _sms_manager
     000016B8  A$_sms_manager$3420                _sms_manager
ASxxxx Linker V03.00 + NoICE + sdld,  page 57.
Hexadecimal  [32-Bits]

Area                                    Addr        Size        Decimal Bytes (Attributes)
--------------------------------        ----        ----        ------- ----- ------------
_CODE                               00000200    00006F18 =       28440. bytes (REL,CON)

      Value  Global                              Global Defined In Module
      -----  --------------------------------   ------------------------
     000016B9  A$_sms_manager$3421                _sms_manager
     000016BC  A$_sms_manager$3422                _sms_manager
     000016BF  A$_sms_manager$3423                _sms_manager
     000016C0  A$_sms_manager$3424                _sms_manager
     000016C3  A$_sms_manager$3432                _sms_manager
     000016C3  C$_sms_manager.c$611$1_0$339       _sms_manager
     000016C3  XG$devkit_SMS_VRAMmemcpy_brief$0   _sms_manager
     000016C4  A$_sms_manager$3445                _sms_manager
     000016C4  C$_sms_manager.c$612$1_0$341       _sms_manager
     000016C4  C$_sms_manager.c$614$1_0$341       _sms_manager
     000016C4  G$devkit_SMS_VRAMmemset$0$0        _sms_manager
     000016C4  _devkit_SMS_VRAMmemset             _sms_manager
     000016C8  A$_sms_manager$3446                _sms_manager
     000016CA  A$_sms_manager$3447                _sms_manager
     000016CD  A$_sms_manager$3448                _sms_manager
     000016D0  A$_sms_manager$3449                _sms_manager
     000016D1  A$_sms_manager$3450                _sms_manager
     000016D4  A$_sms_manager$3451                _sms_manager
     000016D6  A$_sms_manager$3452                _sms_manager
     000016D7  A$_sms_manager$3453                _sms_manager
     000016D8  A$_sms_manager$3454                _sms_manager
     000016DB  A$_sms_manager$3455                _sms_manager
     000016DE  A$_sms_manager$3456                _sms_manager
     000016DF  A$_sms_manager$3457                _sms_manager
     000016E2  A$_sms_manager$3458                _sms_manager
     000016E3  A$_sms_manager$3459                _sms_manager
     000016E4  A$_sms_manager$3460                _sms_manager
     000016E5  A$_sms_manager$3468                _sms_manager
     000016E5  C$_sms_manager.c$615$1_0$341       _sms_manager
     000016E5  XG$devkit_SMS_VRAMmemset$0$0       _sms_manager
     000016E6  A$_sms_manager$3481                _sms_manager
     000016E6  C$_sms_manager.c$616$1_0$343       _sms_manager
     000016E6  C$_sms_manager.c$618$1_0$343       _sms_manager
     000016E6  G$devkit_SMS_VRAMmemsetW$0$0       _sms_manager
     000016E6  _devkit_SMS_VRAMmemsetW            _sms_manager
     000016EA  A$_sms_manager$3482                _sms_manager
     000016EC  A$_sms_manager$3483                _sms_manager
     000016EF  A$_sms_manager$3484                _sms_manager
     000016F2  A$_sms_manager$3485                _sms_manager
     000016F3  A$_sms_manager$3486                _sms_manager
     000016F6  A$_sms_manager$3487                _sms_manager
     000016F9  A$_sms_manager$3488                _sms_manager
     000016FB  A$_sms_manager$3489                _sms_manager
     000016FD  A$_sms_manager$3490                _sms_manager
     000016FE  A$_sms_manager$3491                _sms_manager
     00001701  A$_sms_manager$3492                _sms_manager
     00001704  A$_sms_manager$3493                _sms_manager
     00001705  A$_sms_manager$3494                _sms_manager
     00001708  A$_sms_manager$3495                _sms_manager
     0000170B  A$_sms_manager$3496                _sms_manager
     0000170C  A$_sms_manager$3497                _sms_manager
ASxxxx Linker V03.00 + NoICE + sdld,  page 58.
Hexadecimal  [32-Bits]

Area                                    Addr        Size        Decimal Bytes (Attributes)
--------------------------------        ----        ----        ------- ----- ------------
_CODE                               00000200    00006F18 =       28440. bytes (REL,CON)

      Value  Global                              Global Defined In Module
      -----  --------------------------------   ------------------------
     0000170D  A$_sms_manager$3505                _sms_manager
     0000170D  C$_sms_manager.c$619$1_0$343       _sms_manager
     0000170D  XG$devkit_SMS_VRAMmemsetW$0$0      _sms_manager
     0000170E  A$_sms_manager$3525                _sms_manager
     0000170E  C$_sms_manager.c$622$1_0$345       _sms_manager
     0000170E  C$_sms_manager.c$624$1_0$345       _sms_manager
     0000170E  C$_sms_manager.c$625$1_0$345       _sms_manager
     0000170E  G$devkit_UNSAFE_SMS_copySpritest   _sms_manager
     0000170E  XG$devkit_UNSAFE_SMS_copySprites   _sms_manager
     0000170E  _devkit_UNSAFE_SMS_copySpritesto   _sms_manager
     00001711  A$_sms_manager$3538                _sms_manager
     00001711  C$_sms_manager.c$626$1_0$347       _sms_manager
     00001711  C$_sms_manager.c$628$1_0$347       _sms_manager
     00001711  G$devkit_UNSAFE_SMS_VRAMmemcpy32   _sms_manager
     00001711  _devkit_UNSAFE_SMS_VRAMmemcpy32    _sms_manager
     00001715  A$_sms_manager$3539                _sms_manager
     00001717  A$_sms_manager$3540                _sms_manager
     0000171A  A$_sms_manager$3541                _sms_manager
     0000171D  A$_sms_manager$3542                _sms_manager
     0000171E  A$_sms_manager$3543                _sms_manager
     00001721  A$_sms_manager$3544                _sms_manager
     00001724  A$_sms_manager$3545                _sms_manager
     00001725  A$_sms_manager$3546                _sms_manager
     00001728  A$_sms_manager$3547                _sms_manager
     00001729  A$_sms_manager$3548                _sms_manager
     0000172A  A$_sms_manager$3556                _sms_manager
     0000172A  C$_sms_manager.c$629$1_0$347       _sms_manager
     0000172A  XG$devkit_UNSAFE_SMS_VRAMmemcpy3   _sms_manager
     0000172B  A$_sms_manager$3569                _sms_manager
     0000172B  C$_sms_manager.c$630$1_0$349       _sms_manager
     0000172B  C$_sms_manager.c$632$1_0$349       _sms_manager
     0000172B  G$devkit_UNSAFE_SMS_VRAMmemcpy64   _sms_manager
     0000172B  _devkit_UNSAFE_SMS_VRAMmemcpy64    _sms_manager
     0000172F  A$_sms_manager$3570                _sms_manager
     00001731  A$_sms_manager$3571                _sms_manager
     00001734  A$_sms_manager$3572                _sms_manager
     00001737  A$_sms_manager$3573                _sms_manager
     00001738  A$_sms_manager$3574                _sms_manager
     0000173B  A$_sms_manager$3575                _sms_manager
     0000173E  A$_sms_manager$3576                _sms_manager
     0000173F  A$_sms_manager$3577                _sms_manager
     00001742  A$_sms_manager$3578                _sms_manager
     00001743  A$_sms_manager$3579                _sms_manager
     00001744  A$_sms_manager$3587                _sms_manager
     00001744  C$_sms_manager.c$633$1_0$349       _sms_manager
     00001744  XG$devkit_UNSAFE_SMS_VRAMmemcpy6   _sms_manager
     00001745  A$_sms_manager$3600                _sms_manager
     00001745  C$_sms_manager.c$634$1_0$351       _sms_manager
     00001745  C$_sms_manager.c$636$1_0$351       _sms_manager
     00001745  G$devkit_UNSAFE_SMS_VRAMmemcpy12   _sms_manager
     00001745  _devkit_UNSAFE_SMS_VRAMmemcpy128   _sms_manager
ASxxxx Linker V03.00 + NoICE + sdld,  page 59.
Hexadecimal  [32-Bits]

Area                                    Addr        Size        Decimal Bytes (Attributes)
--------------------------------        ----        ----        ------- ----- ------------
_CODE                               00000200    00006F18 =       28440. bytes (REL,CON)

      Value  Global                              Global Defined In Module
      -----  --------------------------------   ------------------------
     00001749  A$_sms_manager$3601                _sms_manager
     0000174B  A$_sms_manager$3602                _sms_manager
     0000174E  A$_sms_manager$3603                _sms_manager
     00001751  A$_sms_manager$3604                _sms_manager
     00001752  A$_sms_manager$3605                _sms_manager
     00001755  A$_sms_manager$3606                _sms_manager
     00001758  A$_sms_manager$3607                _sms_manager
     00001759  A$_sms_manager$3608                _sms_manager
     0000175C  A$_sms_manager$3609                _sms_manager
     0000175D  A$_sms_manager$3610                _sms_manager
     0000175E  A$_sms_manager$3618                _sms_manager
     0000175E  C$_sms_manager.c$637$1_0$351       _sms_manager
     0000175E  XG$devkit_UNSAFE_SMS_VRAMmemcpy1   _sms_manager
     0000175F  A$_sms_manager$3631                _sms_manager
     0000175F  C$_sms_manager.c$640$1_0$353       _sms_manager
     0000175F  C$_sms_manager.c$642$1_0$353       _sms_manager
     0000175F  G$devkit_UNSAFE_SMS_load1Tile$0$   _sms_manager
     0000175F  _devkit_UNSAFE_SMS_load1Tile       _sms_manager
     00001762  A$_sms_manager$3632                _sms_manager
     00001763  A$_sms_manager$3633                _sms_manager
     00001764  A$_sms_manager$3634                _sms_manager
     00001765  A$_sms_manager$3635                _sms_manager
     00001766  A$_sms_manager$3636                _sms_manager
     00001767  A$_sms_manager$3637                _sms_manager
     00001768  A$_sms_manager$3638                _sms_manager
     00001769  A$_sms_manager$3639                _sms_manager
     0000176A  A$_sms_manager$3640                _sms_manager
     0000176B  A$_sms_manager$3641                _sms_manager
     0000176C  A$_sms_manager$3642                _sms_manager
     0000176D  A$_sms_manager$3643                _sms_manager
     0000176E  A$_sms_manager$3644                _sms_manager
     0000176F  A$_sms_manager$3645                _sms_manager
     00001770  A$_sms_manager$3646                _sms_manager
     00001771  A$_sms_manager$3647                _sms_manager
     00001772  A$_sms_manager$3648                _sms_manager
     00001775  A$_sms_manager$3649                _sms_manager
     00001776  A$_sms_manager$3650                _sms_manager
     00001777  A$_sms_manager$3658                _sms_manager
     00001777  C$_sms_manager.c$643$1_0$353       _sms_manager
     00001777  XG$devkit_UNSAFE_SMS_load1Tile$0   _sms_manager
     00001778  A$_sms_manager$3671                _sms_manager
     00001778  C$_sms_manager.c$644$1_0$355       _sms_manager
     00001778  C$_sms_manager.c$646$1_0$355       _sms_manager
     00001778  G$devkit_UNSAFE_SMS_load2Tiles$0   _sms_manager
     00001778  _devkit_UNSAFE_SMS_load2Tiles      _sms_manager
     0000177B  A$_sms_manager$3672                _sms_manager
     0000177C  A$_sms_manager$3673                _sms_manager
     0000177D  A$_sms_manager$3674                _sms_manager
     0000177E  A$_sms_manager$3675                _sms_manager
     0000177F  A$_sms_manager$3676                _sms_manager
     00001780  A$_sms_manager$3677                _sms_manager
ASxxxx Linker V03.00 + NoICE + sdld,  page 60.
Hexadecimal  [32-Bits]

Area                                    Addr        Size        Decimal Bytes (Attributes)
--------------------------------        ----        ----        ------- ----- ------------
_CODE                               00000200    00006F18 =       28440. bytes (REL,CON)

      Value  Global                              Global Defined In Module
      -----  --------------------------------   ------------------------
     00001781  A$_sms_manager$3678                _sms_manager
     00001782  A$_sms_manager$3679                _sms_manager
     00001783  A$_sms_manager$3680                _sms_manager
     00001784  A$_sms_manager$3681                _sms_manager
     00001785  A$_sms_manager$3682                _sms_manager
     00001786  A$_sms_manager$3683                _sms_manager
     00001787  A$_sms_manager$3684                _sms_manager
     00001788  A$_sms_manager$3685                _sms_manager
     00001789  A$_sms_manager$3686                _sms_manager
     0000178A  A$_sms_manager$3687                _sms_manager
     0000178B  A$_sms_manager$3688                _sms_manager
     0000178E  A$_sms_manager$3689                _sms_manager
     0000178F  A$_sms_manager$3690                _sms_manager
     00001790  A$_sms_manager$3698                _sms_manager
     00001790  C$_sms_manager.c$647$1_0$355       _sms_manager
     00001790  XG$devkit_UNSAFE_SMS_load2Tiles$   _sms_manager
     00001791  A$_sms_manager$3711                _sms_manager
     00001791  C$_sms_manager.c$648$1_0$357       _sms_manager
     00001791  C$_sms_manager.c$650$1_0$357       _sms_manager
     00001791  G$devkit_UNSAFE_SMS_load4Tiles$0   _sms_manager
     00001791  _devkit_UNSAFE_SMS_load4Tiles      _sms_manager
     00001794  A$_sms_manager$3712                _sms_manager
     00001795  A$_sms_manager$3713                _sms_manager
     00001796  A$_sms_manager$3714                _sms_manager
     00001797  A$_sms_manager$3715                _sms_manager
     00001798  A$_sms_manager$3716                _sms_manager
     00001799  A$_sms_manager$3717                _sms_manager
     0000179A  A$_sms_manager$3718                _sms_manager
     0000179B  A$_sms_manager$3719                _sms_manager
     0000179C  A$_sms_manager$3720                _sms_manager
     0000179D  A$_sms_manager$3721                _sms_manager
     0000179E  A$_sms_manager$3722                _sms_manager
     0000179F  A$_sms_manager$3723                _sms_manager
     000017A0  A$_sms_manager$3724                _sms_manager
     000017A1  A$_sms_manager$3725                _sms_manager
     000017A2  A$_sms_manager$3726                _sms_manager
     000017A3  A$_sms_manager$3727                _sms_manager
     000017A4  A$_sms_manager$3728                _sms_manager
     000017A7  A$_sms_manager$3729                _sms_manager
     000017A8  A$_sms_manager$3730                _sms_manager
     000017A9  A$_sms_manager$3738                _sms_manager
     000017A9  C$_sms_manager.c$651$1_0$357       _sms_manager
     000017A9  XG$devkit_UNSAFE_SMS_load4Tiles$   _sms_manager
     000017AA  A$_sms_manager$3758                _sms_manager
     000017AA  C$_sms_manager.c$655$1_0$359       _sms_manager
     000017AA  C$_sms_manager.c$657$1_0$359       _sms_manager
     000017AA  C$_sms_manager.c$658$1_0$359       _sms_manager
     000017AA  G$dekvit_SMS_isr$0$0               _sms_manager
     000017AA  XG$dekvit_SMS_isr$0$0              _sms_manager
     000017AA  _dekvit_SMS_isr                    _sms_manager
     000017AD  A$_sms_manager$3778                _sms_manager
ASxxxx Linker V03.00 + NoICE + sdld,  page 61.
Hexadecimal  [32-Bits]

Area                                    Addr        Size        Decimal Bytes (Attributes)
--------------------------------        ----        ----        ------- ----- ------------
_CODE                               00000200    00006F18 =       28440. bytes (REL,CON)

      Value  Global                              Global Defined In Module
      -----  --------------------------------   ------------------------
     000017AD  C$_sms_manager.c$659$1_0$361       _sms_manager
     000017AD  C$_sms_manager.c$661$1_0$361       _sms_manager
     000017AD  C$_sms_manager.c$662$1_0$361       _sms_manager
     000017AD  G$dekvit_SMS_nmi_isr$0$0           _sms_manager
     000017AD  XG$dekvit_SMS_nmi_isr$0$0          _sms_manager
     000017AD  _dekvit_SMS_nmi_isr                _sms_manager
     000017B0  A$_sms_manager$3788                _sms_manager
     000017B0  C$_sms_manager.c$667$1_0$363       _sms_manager
     000017B0  G$devkit_SMS_addSprite_bulk8$0$0   _sms_manager
     000017B0  _devkit_SMS_addSprite_bulk8        _sms_manager
     000017B2  A$_sms_manager$3789                _sms_manager
     000017B6  A$_sms_manager$3790                _sms_manager
     000017B8  A$_sms_manager$3794                _sms_manager
     000017B8  C$_sms_manager.c$669$1_0$363       _sms_manager
     000017BB  A$_sms_manager$3795                _sms_manager
     000017BE  A$_sms_manager$3796                _sms_manager
     000017BF  A$_sms_manager$3797                _sms_manager
     000017C2  A$_sms_manager$3798                _sms_manager
     000017C5  A$_sms_manager$3799                _sms_manager
     000017C6  A$_sms_manager$3800                _sms_manager
     000017C9  A$_sms_manager$3801                _sms_manager
     000017CA  A$_sms_manager$3802                _sms_manager
     000017CB  A$_sms_manager$3806                _sms_manager
     000017CB  C$_sms_manager.c$670$1_0$363       _sms_manager
     000017CE  A$_sms_manager$3807                _sms_manager
     000017D1  A$_sms_manager$3808                _sms_manager
     000017D2  A$_sms_manager$3809                _sms_manager
     000017D5  A$_sms_manager$3810                _sms_manager
     000017D7  A$_sms_manager$3811                _sms_manager
     000017D8  A$_sms_manager$3812                _sms_manager
     000017D9  A$_sms_manager$3813                _sms_manager
     000017DA  A$_sms_manager$3814                _sms_manager
     000017DD  A$_sms_manager$3815                _sms_manager
     000017DE  A$_sms_manager$3816                _sms_manager
     000017DF  A$_sms_manager$3817                _sms_manager
     000017E0  A$_sms_manager$3818                _sms_manager
     000017E1  A$_sms_manager$3819                _sms_manager
     000017E4  A$_sms_manager$3820                _sms_manager
     000017E5  A$_sms_manager$3821                _sms_manager
     000017E6  A$_sms_manager$3822                _sms_manager
     000017E7  A$_sms_manager$3826                _sms_manager
     000017E7  C$_sms_manager.c$672$1_0$363       _sms_manager
     000017EA  A$_sms_manager$3827                _sms_manager
     000017ED  A$_sms_manager$3828                _sms_manager
     000017EE  A$_sms_manager$3829                _sms_manager
     000017EF  A$_sms_manager$3830                _sms_manager
     000017F2  A$_sms_manager$3831                _sms_manager
     000017F3  A$_sms_manager$3832                _sms_manager
     000017F5  A$_sms_manager$3833                _sms_manager
     000017F6  A$_sms_manager$3834                _sms_manager
     000017F7  A$_sms_manager$3835                _sms_manager
ASxxxx Linker V03.00 + NoICE + sdld,  page 62.
Hexadecimal  [32-Bits]

Area                                    Addr        Size        Decimal Bytes (Attributes)
--------------------------------        ----        ----        ------- ----- ------------
_CODE                               00000200    00006F18 =       28440. bytes (REL,CON)

      Value  Global                              Global Defined In Module
      -----  --------------------------------   ------------------------
     000017F8  A$_sms_manager$3836                _sms_manager
     000017F9  A$_sms_manager$3837                _sms_manager
     000017FA  A$_sms_manager$3838                _sms_manager
     000017FD  A$_sms_manager$3839                _sms_manager
     000017FE  A$_sms_manager$3840                _sms_manager
     00001801  A$_sms_manager$3841                _sms_manager
     00001802  A$_sms_manager$3842                _sms_manager
     00001803  A$_sms_manager$3843                _sms_manager
     00001804  A$_sms_manager$3844                _sms_manager
     00001805  A$_sms_manager$3848                _sms_manager
     00001805  C$_sms_manager.c$673$1_0$363       _sms_manager
     00001808  A$_sms_manager$3849                _sms_manager
     0000180B  A$_sms_manager$3850                _sms_manager
     0000180C  A$_sms_manager$3851                _sms_manager
     0000180D  A$_sms_manager$3852                _sms_manager
     0000180E  A$_sms_manager$3853                _sms_manager
     0000180F  A$_sms_manager$3854                _sms_manager
     00001810  A$_sms_manager$3855                _sms_manager
     00001811  A$_sms_manager$3856                _sms_manager
     00001812  A$_sms_manager$3857                _sms_manager
     00001813  A$_sms_manager$3858                _sms_manager
     00001814  A$_sms_manager$3859                _sms_manager
     00001815  A$_sms_manager$3860                _sms_manager
     00001818  A$_sms_manager$3861                _sms_manager
     00001819  A$_sms_manager$3862                _sms_manager
     0000181A  A$_sms_manager$3863                _sms_manager
     0000181B  A$_sms_manager$3867                _sms_manager
     0000181B  C$_sms_manager.c$675$1_0$363       _sms_manager
     0000181E  A$_sms_manager$3868                _sms_manager
     00001821  A$_sms_manager$3869                _sms_manager
     00001824  A$_sms_manager$3870                _sms_manager
     00001825  A$_sms_manager$3871                _sms_manager
     00001826  A$_sms_manager$3872                _sms_manager
     00001828  A$_sms_manager$3873                _sms_manager
     00001829  A$_sms_manager$3874                _sms_manager
     0000182A  A$_sms_manager$3875                _sms_manager
     0000182B  A$_sms_manager$3876                _sms_manager
     0000182C  A$_sms_manager$3877                _sms_manager
     0000182D  A$_sms_manager$3878                _sms_manager
     00001830  A$_sms_manager$3879                _sms_manager
     00001831  A$_sms_manager$3880                _sms_manager
     00001834  A$_sms_manager$3881                _sms_manager
     00001835  A$_sms_manager$3882                _sms_manager
     00001836  A$_sms_manager$3883                _sms_manager
     00001837  A$_sms_manager$3884                _sms_manager
     00001838  A$_sms_manager$3888                _sms_manager
     00001838  C$_sms_manager.c$676$1_0$363       _sms_manager
     0000183B  A$_sms_manager$3889                _sms_manager
     0000183D  A$_sms_manager$3890                _sms_manager
     0000183E  A$_sms_manager$3891                _sms_manager
     00001841  A$_sms_manager$3892                _sms_manager
ASxxxx Linker V03.00 + NoICE + sdld,  page 63.
Hexadecimal  [32-Bits]

Area                                    Addr        Size        Decimal Bytes (Attributes)
--------------------------------        ----        ----        ------- ----- ------------
_CODE                               00000200    00006F18 =       28440. bytes (REL,CON)

      Value  Global                              Global Defined In Module
      -----  --------------------------------   ------------------------
     00001843  A$_sms_manager$3893                _sms_manager
     00001844  A$_sms_manager$3894                _sms_manager
     00001845  A$_sms_manager$3895                _sms_manager
     00001846  A$_sms_manager$3896                _sms_manager
     00001847  A$_sms_manager$3897                _sms_manager
     00001848  A$_sms_manager$3898                _sms_manager
     00001849  A$_sms_manager$3899                _sms_manager
     0000184A  A$_sms_manager$3900                _sms_manager
     0000184B  A$_sms_manager$3901                _sms_manager
     0000184E  A$_sms_manager$3902                _sms_manager
     0000184F  A$_sms_manager$3903                _sms_manager
     00001850  A$_sms_manager$3904                _sms_manager
     00001851  A$_sms_manager$3908                _sms_manager
     00001851  C$_sms_manager.c$678$1_0$363       _sms_manager
     00001854  A$_sms_manager$3909                _sms_manager
     00001857  A$_sms_manager$3910                _sms_manager
     0000185A  A$_sms_manager$3911                _sms_manager
     0000185B  A$_sms_manager$3912                _sms_manager
     0000185C  A$_sms_manager$3913                _sms_manager
     0000185E  A$_sms_manager$3914                _sms_manager
     0000185F  A$_sms_manager$3915                _sms_manager
     00001860  A$_sms_manager$3916                _sms_manager
     00001861  A$_sms_manager$3917                _sms_manager
     00001862  A$_sms_manager$3918                _sms_manager
     00001865  A$_sms_manager$3919                _sms_manager
     00001866  A$_sms_manager$3920                _sms_manager
     00001869  A$_sms_manager$3921                _sms_manager
     0000186A  A$_sms_manager$3922                _sms_manager
     0000186B  A$_sms_manager$3923                _sms_manager
     0000186C  A$_sms_manager$3927                _sms_manager
     0000186C  C$_sms_manager.c$679$1_0$363       _sms_manager
     0000186F  A$_sms_manager$3928                _sms_manager
     00001872  A$_sms_manager$3929                _sms_manager
     00001875  A$_sms_manager$3930                _sms_manager
     00001876  A$_sms_manager$3931                _sms_manager
     00001877  A$_sms_manager$3932                _sms_manager
     00001878  A$_sms_manager$3933                _sms_manager
     00001879  A$_sms_manager$3934                _sms_manager
     0000187A  A$_sms_manager$3935                _sms_manager
     0000187B  A$_sms_manager$3936                _sms_manager
     0000187C  A$_sms_manager$3937                _sms_manager
     0000187F  A$_sms_manager$3938                _sms_manager
     00001880  A$_sms_manager$3939                _sms_manager
     00001881  A$_sms_manager$3943                _sms_manager
     00001883  A$_sms_manager$3948                _sms_manager
     00001883  C$_sms_manager.c$680$1_0$363       _sms_manager
     00001883  XG$devkit_SMS_addSprite_bulk8$0$   _sms_manager
     00001884  A$_sms_manager$3958                _sms_manager
     00001884  C$_sms_manager.c$681$1_0$365       _sms_manager
     00001884  G$devkit_SMS_addSprite_bulk12$0$   _sms_manager
     00001884  _devkit_SMS_addSprite_bulk12       _sms_manager
ASxxxx Linker V03.00 + NoICE + sdld,  page 64.
Hexadecimal  [32-Bits]

Area                                    Addr        Size        Decimal Bytes (Attributes)
--------------------------------        ----        ----        ------- ----- ------------
_CODE                               00000200    00006F18 =       28440. bytes (REL,CON)

      Value  Global                              Global Defined In Module
      -----  --------------------------------   ------------------------
     00001886  A$_sms_manager$3959                _sms_manager
     0000188A  A$_sms_manager$3960                _sms_manager
     0000188C  A$_sms_manager$3961                _sms_manager
     0000188D  A$_sms_manager$3965                _sms_manager
     0000188D  C$_sms_manager.c$683$1_0$365       _sms_manager
     00001890  A$_sms_manager$3966                _sms_manager
     00001891  A$_sms_manager$3967                _sms_manager
     00001892  A$_sms_manager$3968                _sms_manager
     00001895  A$_sms_manager$3969                _sms_manager
     00001896  A$_sms_manager$3970                _sms_manager
     00001899  A$_sms_manager$3971                _sms_manager
     0000189A  A$_sms_manager$3972                _sms_manager
     0000189B  A$_sms_manager$3973                _sms_manager
     0000189E  A$_sms_manager$3974                _sms_manager
     0000189F  A$_sms_manager$3975                _sms_manager
     000018A0  A$_sms_manager$3976                _sms_manager
     000018A1  A$_sms_manager$3980                _sms_manager
     000018A1  C$_sms_manager.c$684$1_0$365       _sms_manager
     000018A2  A$_sms_manager$3981                _sms_manager
     000018A3  A$_sms_manager$3982                _sms_manager
     000018A6  A$_sms_manager$3983                _sms_manager
     000018A7  A$_sms_manager$3984                _sms_manager
     000018A9  A$_sms_manager$3985                _sms_manager
     000018AC  A$_sms_manager$3986                _sms_manager
     000018AD  A$_sms_manager$3987                _sms_manager
     000018AE  A$_sms_manager$3988                _sms_manager
     000018AF  A$_sms_manager$3989                _sms_manager
     000018B2  A$_sms_manager$3990                _sms_manager
     000018B5  A$_sms_manager$3991                _sms_manager
     000018B6  A$_sms_manager$3992                _sms_manager
     000018B9  A$_sms_manager$3993                _sms_manager
     000018BA  A$_sms_manager$3994                _sms_manager
     000018BB  A$_sms_manager$3995                _sms_manager
     000018BC  A$_sms_manager$3999                _sms_manager
     000018BC  C$_sms_manager.c$685$1_0$365       _sms_manager
     000018BD  A$_sms_manager$4000                _sms_manager
     000018BE  A$_sms_manager$4001                _sms_manager
     000018BF  A$_sms_manager$4002                _sms_manager
     000018C0  A$_sms_manager$4003                _sms_manager
     000018C2  A$_sms_manager$4004                _sms_manager
     000018C3  A$_sms_manager$4005                _sms_manager
     000018C4  A$_sms_manager$4006                _sms_manager
     000018C5  A$_sms_manager$4007                _sms_manager
     000018C8  A$_sms_manager$4008                _sms_manager
     000018C9  A$_sms_manager$4009                _sms_manager
     000018CA  A$_sms_manager$4010                _sms_manager
     000018CB  A$_sms_manager$4011                _sms_manager
     000018CE  A$_sms_manager$4012                _sms_manager
     000018CF  A$_sms_manager$4013                _sms_manager
     000018D0  A$_sms_manager$4014                _sms_manager
     000018D1  A$_sms_manager$4018                _sms_manager
ASxxxx Linker V03.00 + NoICE + sdld,  page 65.
Hexadecimal  [32-Bits]

Area                                    Addr        Size        Decimal Bytes (Attributes)
--------------------------------        ----        ----        ------- ----- ------------
_CODE                               00000200    00006F18 =       28440. bytes (REL,CON)

      Value  Global                              Global Defined In Module
      -----  --------------------------------   ------------------------
     000018D1  C$_sms_manager.c$687$1_0$365       _sms_manager
     000018D2  A$_sms_manager$4019                _sms_manager
     000018D3  A$_sms_manager$4020                _sms_manager
     000018D4  A$_sms_manager$4021                _sms_manager
     000018D5  A$_sms_manager$4022                _sms_manager
     000018D8  A$_sms_manager$4023                _sms_manager
     000018D9  A$_sms_manager$4024                _sms_manager
     000018DB  A$_sms_manager$4025                _sms_manager
     000018DC  A$_sms_manager$4026                _sms_manager
     000018DD  A$_sms_manager$4027                _sms_manager
     000018DE  A$_sms_manager$4028                _sms_manager
     000018DF  A$_sms_manager$4029                _sms_manager
     000018E0  A$_sms_manager$4030                _sms_manager
     000018E1  A$_sms_manager$4031                _sms_manager
     000018E2  A$_sms_manager$4032                _sms_manager
     000018E3  A$_sms_manager$4033                _sms_manager
     000018E6  A$_sms_manager$4034                _sms_manager
     000018E7  A$_sms_manager$4035                _sms_manager
     000018E8  A$_sms_manager$4036                _sms_manager
     000018EB  A$_sms_manager$4037                _sms_manager
     000018EC  A$_sms_manager$4038                _sms_manager
     000018ED  A$_sms_manager$4039                _sms_manager
     000018EE  A$_sms_manager$4040                _sms_manager
     000018EF  A$_sms_manager$4044                _sms_manager
     000018EF  C$_sms_manager.c$688$1_0$365       _sms_manager
     000018F0  A$_sms_manager$4045                _sms_manager
     000018F1  A$_sms_manager$4046                _sms_manager
     000018F2  A$_sms_manager$4047                _sms_manager
     000018F3  A$_sms_manager$4048                _sms_manager
     000018F4  A$_sms_manager$4049                _sms_manager
     000018F5  A$_sms_manager$4050                _sms_manager
     000018F6  A$_sms_manager$4051                _sms_manager
     000018F7  A$_sms_manager$4052                _sms_manager
     000018F8  A$_sms_manager$4053                _sms_manager
     000018F9  A$_sms_manager$4054                _sms_manager
     000018FA  A$_sms_manager$4055                _sms_manager
     000018FD  A$_sms_manager$4056                _sms_manager
     000018FE  A$_sms_manager$4057                _sms_manager
     000018FF  A$_sms_manager$4058                _sms_manager
     00001902  A$_sms_manager$4059                _sms_manager
     00001903  A$_sms_manager$4060                _sms_manager
     00001904  A$_sms_manager$4061                _sms_manager
     00001905  A$_sms_manager$4062                _sms_manager
     00001906  A$_sms_manager$4066                _sms_manager
     00001906  C$_sms_manager.c$689$1_0$365       _sms_manager
     00001907  A$_sms_manager$4067                _sms_manager
     00001909  A$_sms_manager$4068                _sms_manager
     0000190A  A$_sms_manager$4069                _sms_manager
     0000190B  A$_sms_manager$4070                _sms_manager
     0000190C  A$_sms_manager$4071                _sms_manager
     0000190D  A$_sms_manager$4072                _sms_manager
ASxxxx Linker V03.00 + NoICE + sdld,  page 66.
Hexadecimal  [32-Bits]

Area                                    Addr        Size        Decimal Bytes (Attributes)
--------------------------------        ----        ----        ------- ----- ------------
_CODE                               00000200    00006F18 =       28440. bytes (REL,CON)

      Value  Global                              Global Defined In Module
      -----  --------------------------------   ------------------------
     0000190E  A$_sms_manager$4073                _sms_manager
     0000190F  A$_sms_manager$4074                _sms_manager
     00001912  A$_sms_manager$4075                _sms_manager
     00001913  A$_sms_manager$4076                _sms_manager
     00001914  A$_sms_manager$4077                _sms_manager
     00001915  A$_sms_manager$4078                _sms_manager
     00001916  A$_sms_manager$4082                _sms_manager
     00001916  C$_sms_manager.c$691$1_0$365       _sms_manager
     00001917  A$_sms_manager$4083                _sms_manager
     00001919  A$_sms_manager$4084                _sms_manager
     0000191A  A$_sms_manager$4085                _sms_manager
     0000191B  A$_sms_manager$4086                _sms_manager
     0000191D  A$_sms_manager$4087                _sms_manager
     0000191E  A$_sms_manager$4088                _sms_manager
     0000191F  A$_sms_manager$4089                _sms_manager
     00001920  A$_sms_manager$4090                _sms_manager
     00001921  A$_sms_manager$4091                _sms_manager
     00001922  A$_sms_manager$4092                _sms_manager
     00001925  A$_sms_manager$4093                _sms_manager
     00001926  A$_sms_manager$4094                _sms_manager
     00001927  A$_sms_manager$4095                _sms_manager
     0000192A  A$_sms_manager$4096                _sms_manager
     0000192B  A$_sms_manager$4097                _sms_manager
     0000192C  A$_sms_manager$4098                _sms_manager
     0000192D  A$_sms_manager$4099                _sms_manager
     0000192E  A$_sms_manager$4103                _sms_manager
     0000192E  C$_sms_manager.c$692$1_0$365       _sms_manager
     0000192F  A$_sms_manager$4104                _sms_manager
     00001931  A$_sms_manager$4105                _sms_manager
     00001932  A$_sms_manager$4106                _sms_manager
     00001933  A$_sms_manager$4107                _sms_manager
     00001934  A$_sms_manager$4108                _sms_manager
     00001935  A$_sms_manager$4109                _sms_manager
     00001936  A$_sms_manager$4110                _sms_manager
     00001937  A$_sms_manager$4111                _sms_manager
     0000193A  A$_sms_manager$4112                _sms_manager
     0000193B  A$_sms_manager$4113                _sms_manager
     0000193C  A$_sms_manager$4114                _sms_manager
     0000193F  A$_sms_manager$4115                _sms_manager
     00001940  A$_sms_manager$4116                _sms_manager
     00001941  A$_sms_manager$4117                _sms_manager
     00001942  A$_sms_manager$4118                _sms_manager
     00001943  A$_sms_manager$4122                _sms_manager
     00001943  C$_sms_manager.c$693$1_0$365       _sms_manager
     00001944  A$_sms_manager$4123                _sms_manager
     00001946  A$_sms_manager$4124                _sms_manager
     00001947  A$_sms_manager$4125                _sms_manager
     00001948  A$_sms_manager$4126                _sms_manager
     00001949  A$_sms_manager$4127                _sms_manager
     0000194A  A$_sms_manager$4128                _sms_manager
     0000194B  A$_sms_manager$4129                _sms_manager
ASxxxx Linker V03.00 + NoICE + sdld,  page 67.
Hexadecimal  [32-Bits]

Area                                    Addr        Size        Decimal Bytes (Attributes)
--------------------------------        ----        ----        ------- ----- ------------
_CODE                               00000200    00006F18 =       28440. bytes (REL,CON)

      Value  Global                              Global Defined In Module
      -----  --------------------------------   ------------------------
     0000194C  A$_sms_manager$4130                _sms_manager
     0000194F  A$_sms_manager$4131                _sms_manager
     00001950  A$_sms_manager$4132                _sms_manager
     00001951  A$_sms_manager$4133                _sms_manager
     00001952  A$_sms_manager$4134                _sms_manager
     00001953  A$_sms_manager$4138                _sms_manager
     00001953  C$_sms_manager.c$695$1_0$365       _sms_manager
     00001954  A$_sms_manager$4139                _sms_manager
     00001956  A$_sms_manager$4140                _sms_manager
     00001957  A$_sms_manager$4141                _sms_manager
     00001958  A$_sms_manager$4142                _sms_manager
     0000195A  A$_sms_manager$4143                _sms_manager
     0000195B  A$_sms_manager$4144                _sms_manager
     0000195C  A$_sms_manager$4145                _sms_manager
     0000195D  A$_sms_manager$4146                _sms_manager
     0000195E  A$_sms_manager$4147                _sms_manager
     0000195F  A$_sms_manager$4148                _sms_manager
     00001962  A$_sms_manager$4149                _sms_manager
     00001963  A$_sms_manager$4150                _sms_manager
     00001964  A$_sms_manager$4151                _sms_manager
     00001967  A$_sms_manager$4152                _sms_manager
     00001968  A$_sms_manager$4153                _sms_manager
     00001969  A$_sms_manager$4154                _sms_manager
     0000196A  A$_sms_manager$4155                _sms_manager
     0000196B  A$_sms_manager$4159                _sms_manager
     0000196B  C$_sms_manager.c$696$1_0$365       _sms_manager
     0000196C  A$_sms_manager$4160                _sms_manager
     0000196E  A$_sms_manager$4161                _sms_manager
     0000196F  A$_sms_manager$4162                _sms_manager
     00001970  A$_sms_manager$4163                _sms_manager
     00001971  A$_sms_manager$4164                _sms_manager
     00001972  A$_sms_manager$4165                _sms_manager
     00001973  A$_sms_manager$4166                _sms_manager
     00001974  A$_sms_manager$4167                _sms_manager
     00001977  A$_sms_manager$4168                _sms_manager
     00001978  A$_sms_manager$4169                _sms_manager
     00001979  A$_sms_manager$4170                _sms_manager
     0000197C  A$_sms_manager$4171                _sms_manager
     0000197D  A$_sms_manager$4172                _sms_manager
     0000197E  A$_sms_manager$4173                _sms_manager
     0000197F  A$_sms_manager$4174                _sms_manager
     00001980  A$_sms_manager$4178                _sms_manager
     00001980  C$_sms_manager.c$697$1_0$365       _sms_manager
     00001981  A$_sms_manager$4179                _sms_manager
     00001983  A$_sms_manager$4180                _sms_manager
     00001984  A$_sms_manager$4181                _sms_manager
     00001985  A$_sms_manager$4182                _sms_manager
     00001986  A$_sms_manager$4183                _sms_manager
     00001987  A$_sms_manager$4184                _sms_manager
     0000198A  A$_sms_manager$4185                _sms_manager
     0000198B  A$_sms_manager$4186                _sms_manager
ASxxxx Linker V03.00 + NoICE + sdld,  page 68.
Hexadecimal  [32-Bits]

Area                                    Addr        Size        Decimal Bytes (Attributes)
--------------------------------        ----        ----        ------- ----- ------------
_CODE                               00000200    00006F18 =       28440. bytes (REL,CON)

      Value  Global                              Global Defined In Module
      -----  --------------------------------   ------------------------
     0000198C  A$_sms_manager$4190                _sms_manager
     0000198D  A$_sms_manager$4191                _sms_manager
     0000198F  A$_sms_manager$4196                _sms_manager
     0000198F  C$_sms_manager.c$698$1_0$365       _sms_manager
     0000198F  XG$devkit_SMS_addSprite_bulk12$0   _sms_manager
     00001990  A$_sms_manager$4209                _sms_manager
     00001990  C$_sms_manager.c$700$1_0$367       _sms_manager
     00001990  C$_sms_manager.c$702$1_0$367       _sms_manager
     00001990  G$devkit_SMS_setTilePriority$0$0   _sms_manager
     00001990  _devkit_SMS_setTilePriority        _sms_manager
     00001994  A$_sms_manager$4210                _sms_manager
     00001996  A$_sms_manager$4211                _sms_manager
     00001999  A$_sms_manager$4212                _sms_manager
     0000199A  A$_sms_manager$4213                _sms_manager
     0000199C  A$_sms_manager$4214                _sms_manager
     0000199D  A$_sms_manager$4222                _sms_manager
     0000199D  C$_sms_manager.c$703$1_0$367       _sms_manager
     0000199D  XG$devkit_SMS_setTilePriority$0$   _sms_manager
     000019A0  A$_sms_manager$4235                _sms_manager
     000019A0  C$_sms_manager.c$704$1_0$368       _sms_manager
     000019A0  C$_sms_manager.c$706$1_0$368       _sms_manager
     000019A0  G$devkit_isCollisionDetected$0$0   _sms_manager
     000019A0  _devkit_isCollisionDetected        _sms_manager
     000019A3  A$_sms_manager$4236                _sms_manager
     000019A5  A$_sms_manager$4237                _sms_manager
     000019A6  A$_sms_manager$4245                _sms_manager
     000019A6  C$_sms_manager.c$707$1_0$368       _sms_manager
     000019A6  XG$devkit_isCollisionDetected$0$   _sms_manager
     000019A7  F_sms_manager$__str_0$0_0$0        _sms_manager
     000019B8  F_sms_manager$__str_1$0_0$0        _sms_manager
     000019C1  F_sms_manager$__str_2$0_0$0        _sms_manager
     000019DA  A$_snd_manager$85                  _snd_manager
     000019DA  C$_snd_manager.c$11$1_0$32         _snd_manager
     000019DA  C$_snd_manager.c$9$0_0$32          _snd_manager
     000019DA  G$devkit_PSGPlay$0$0               _snd_manager
     000019DA  _devkit_PSGPlay                    _snd_manager
     000019DB  A$_snd_manager$86                  _snd_manager
     000019DC  A$_snd_manager$87                  _snd_manager
     000019DD  A$_snd_manager$88                  _snd_manager
     000019DE  A$_snd_manager$89                  _snd_manager
     000019DF  A$_snd_manager$90                  _snd_manager
     000019E2  A$_snd_manager$91                  _snd_manager
     000019E3  A$_snd_manager$99                  _snd_manager
     000019E3  C$_snd_manager.c$12$1_0$32         _snd_manager
     000019E3  XG$devkit_PSGPlay$0$0              _snd_manager
     000019E4  A$_snd_manager$112                 _snd_manager
     000019E4  C$_snd_manager.c$13$1_0$34         _snd_manager
     000019E4  C$_snd_manager.c$15$1_0$34         _snd_manager
     000019E4  G$devkit_PSGPlayNoRepeat$0$0       _snd_manager
     000019E4  _devkit_PSGPlayNoRepeat            _snd_manager
     000019E5  A$_snd_manager$113                 _snd_manager
ASxxxx Linker V03.00 + NoICE + sdld,  page 69.
Hexadecimal  [32-Bits]

Area                                    Addr        Size        Decimal Bytes (Attributes)
--------------------------------        ----        ----        ------- ----- ------------
_CODE                               00000200    00006F18 =       28440. bytes (REL,CON)

      Value  Global                              Global Defined In Module
      -----  --------------------------------   ------------------------
     000019E6  A$_snd_manager$114                 _snd_manager
     000019E7  A$_snd_manager$115                 _snd_manager
     000019E8  A$_snd_manager$116                 _snd_manager
     000019E9  A$_snd_manager$117                 _snd_manager
     000019EC  A$_snd_manager$118                 _snd_manager
     000019ED  A$_snd_manager$126                 _snd_manager
     000019ED  C$_snd_manager.c$16$1_0$34         _snd_manager
     000019ED  XG$devkit_PSGPlayNoRepeat$0$0      _snd_manager
     000019EE  A$_snd_manager$146                 _snd_manager
     000019EE  C$_snd_manager.c$17$1_0$36         _snd_manager
     000019EE  C$_snd_manager.c$19$1_0$36         _snd_manager
     000019EE  C$_snd_manager.c$20$1_0$36         _snd_manager
     000019EE  G$devkit_PSGStop$0$0               _snd_manager
     000019EE  XG$devkit_PSGStop$0$0              _snd_manager
     000019EE  _devkit_PSGStop                    _snd_manager
     000019F1  A$_snd_manager$166                 _snd_manager
     000019F1  C$_snd_manager.c$21$1_0$38         _snd_manager
     000019F1  C$_snd_manager.c$23$1_0$38         _snd_manager
     000019F1  C$_snd_manager.c$24$1_0$38         _snd_manager
     000019F1  G$devkit_PSGResume$0$0             _snd_manager
     000019F1  XG$devkit_PSGResume$0$0            _snd_manager
     000019F1  _devkit_PSGResume                  _snd_manager
     000019F4  A$_snd_manager$186                 _snd_manager
     000019F4  C$_snd_manager.c$25$1_0$40         _snd_manager
     000019F4  C$_snd_manager.c$27$1_0$40         _snd_manager
     000019F4  C$_snd_manager.c$28$1_0$40         _snd_manager
     000019F4  G$devkit_PSGGetStatus$0$0          _snd_manager
     000019F4  XG$devkit_PSGGetStatus$0$0         _snd_manager
     000019F4  _devkit_PSGGetStatus               _snd_manager
     000019F7  A$_snd_manager$199                 _snd_manager
     000019F7  C$_snd_manager.c$29$1_0$42         _snd_manager
     000019F7  C$_snd_manager.c$31$1_0$42         _snd_manager
     000019F7  G$devkit_PSGSetMusicVolumeAttenu   _snd_manager
     000019F7  _devkit_PSGSetMusicVolumeAttenua   _snd_manager
     000019FA  A$_snd_manager$200                 _snd_manager
     000019FB  A$_snd_manager$201                 _snd_manager
     000019FC  A$_snd_manager$202                 _snd_manager
     000019FD  A$_snd_manager$203                 _snd_manager
     000019FE  A$_snd_manager$204                 _snd_manager
     00001A01  A$_snd_manager$205                 _snd_manager
     00001A02  A$_snd_manager$213                 _snd_manager
     00001A02  C$_snd_manager.c$32$1_0$42         _snd_manager
     00001A02  XG$devkit_PSGSetMusicVolumeAtten   _snd_manager
     00001A03  A$_snd_manager$226                 _snd_manager
     00001A03  C$_snd_manager.c$34$1_0$44         _snd_manager
     00001A03  C$_snd_manager.c$36$1_0$44         _snd_manager
     00001A03  G$devkit_PSGSFXPlay$0$0            _snd_manager
     00001A03  _devkit_PSGSFXPlay                 _snd_manager
     00001A07  A$_snd_manager$227                 _snd_manager
     00001A09  A$_snd_manager$228                 _snd_manager
     00001A0C  A$_snd_manager$229                 _snd_manager
ASxxxx Linker V03.00 + NoICE + sdld,  page 70.
Hexadecimal  [32-Bits]

Area                                    Addr        Size        Decimal Bytes (Attributes)
--------------------------------        ----        ----        ------- ----- ------------
_CODE                               00000200    00006F18 =       28440. bytes (REL,CON)

      Value  Global                              Global Defined In Module
      -----  --------------------------------   ------------------------
     00001A0D  A$_snd_manager$230                 _snd_manager
     00001A0E  A$_snd_manager$231                 _snd_manager
     00001A11  A$_snd_manager$232                 _snd_manager
     00001A14  A$_snd_manager$233                 _snd_manager
     00001A15  A$_snd_manager$234                 _snd_manager
     00001A18  A$_snd_manager$235                 _snd_manager
     00001A19  A$_snd_manager$236                 _snd_manager
     00001A1A  A$_snd_manager$244                 _snd_manager
     00001A1A  C$_snd_manager.c$37$1_0$44         _snd_manager
     00001A1A  XG$devkit_PSGSFXPlay$0$0           _snd_manager
     00001A1B  A$_snd_manager$264                 _snd_manager
     00001A1B  C$_snd_manager.c$38$1_0$46         _snd_manager
     00001A1B  C$_snd_manager.c$40$1_0$46         _snd_manager
     00001A1B  C$_snd_manager.c$41$1_0$46         _snd_manager
     00001A1B  G$devkit_PSGSFXStop$0$0            _snd_manager
     00001A1B  XG$devkit_PSGSFXStop$0$0           _snd_manager
     00001A1B  _devkit_PSGSFXStop                 _snd_manager
     00001A1E  A$_snd_manager$284                 _snd_manager
     00001A1E  C$_snd_manager.c$42$1_0$48         _snd_manager
     00001A1E  C$_snd_manager.c$44$1_0$48         _snd_manager
     00001A1E  C$_snd_manager.c$45$1_0$48         _snd_manager
     00001A1E  G$devkit_PSGSFXGetStatus$0$0       _snd_manager
     00001A1E  XG$devkit_PSGSFXGetStatus$0$0      _snd_manager
     00001A1E  _devkit_PSGSFXGetStatus            _snd_manager
     00001A21  A$_snd_manager$304                 _snd_manager
     00001A21  C$_snd_manager.c$47$1_0$50         _snd_manager
     00001A21  C$_snd_manager.c$49$1_0$50         _snd_manager
     00001A21  C$_snd_manager.c$50$1_0$50         _snd_manager
     00001A21  G$devkit_PSGSilenceChannels$0$0    _snd_manager
     00001A21  XG$devkit_PSGSilenceChannels$0$0   _snd_manager
     00001A21  _devkit_PSGSilenceChannels         _snd_manager
     00001A24  A$_snd_manager$324                 _snd_manager
     00001A24  C$_snd_manager.c$51$1_0$52         _snd_manager
     00001A24  C$_snd_manager.c$53$1_0$52         _snd_manager
     00001A24  C$_snd_manager.c$54$1_0$52         _snd_manager
     00001A24  G$devkit_PSGRestoreVolumes$0$0     _snd_manager
     00001A24  XG$devkit_PSGRestoreVolumes$0$0    _snd_manager
     00001A24  _devkit_PSGRestoreVolumes          _snd_manager
     00001A27  A$_snd_manager$344                 _snd_manager
     00001A27  C$_snd_manager.c$56$1_0$54         _snd_manager
     00001A27  C$_snd_manager.c$58$1_0$54         _snd_manager
     00001A27  C$_snd_manager.c$59$1_0$54         _snd_manager
     00001A27  G$devkit_PSGFrame$0$0              _snd_manager
     00001A27  XG$devkit_PSGFrame$0$0             _snd_manager
     00001A27  _devkit_PSGFrame                   _snd_manager
     00001A2A  A$_snd_manager$364                 _snd_manager
     00001A2A  C$_snd_manager.c$60$1_0$56         _snd_manager
     00001A2A  C$_snd_manager.c$62$1_0$56         _snd_manager
     00001A2A  C$_snd_manager.c$63$1_0$56         _snd_manager
     00001A2A  G$devkit_PSGSFXFrame$0$0           _snd_manager
     00001A2A  XG$devkit_PSGSFXFrame$0$0          _snd_manager
ASxxxx Linker V03.00 + NoICE + sdld,  page 71.
Hexadecimal  [32-Bits]

Area                                    Addr        Size        Decimal Bytes (Attributes)
--------------------------------        ----        ----        ------- ----- ------------
_CODE                               00000200    00006F18 =       28440. bytes (REL,CON)

      Value  Global                              Global Defined In Module
      -----  --------------------------------   ------------------------
     00001A2A  _devkit_PSGSFXFrame                _snd_manager
     00001A2D  A$_snd_manager$377                 _snd_manager
     00001A2D  C$_snd_manager.c$66$1_0$57         _snd_manager
     00001A2D  C$_snd_manager.c$68$1_0$57         _snd_manager
     00001A2D  G$devkit_PSG_STOPPED$0$0           _snd_manager
     00001A2D  _devkit_PSG_STOPPED                _snd_manager
     00001A2F  A$_snd_manager$385                 _snd_manager
     00001A2F  C$_snd_manager.c$69$1_0$57         _snd_manager
     00001A2F  XG$devkit_PSG_STOPPED$0$0          _snd_manager
     00001A30  A$_snd_manager$398                 _snd_manager
     00001A30  C$_snd_manager.c$70$1_0$58         _snd_manager
     00001A30  C$_snd_manager.c$72$1_0$58         _snd_manager
     00001A30  G$devkit_PSG_PLAYING$0$0           _snd_manager
     00001A30  _devkit_PSG_PLAYING                _snd_manager
     00001A32  A$_snd_manager$406                 _snd_manager
     00001A32  C$_snd_manager.c$73$1_0$58         _snd_manager
     00001A32  XG$devkit_PSG_PLAYING$0$0          _snd_manager
     00001A33  A$_snd_manager$419                 _snd_manager
     00001A33  C$_snd_manager.c$75$1_0$59         _snd_manager
     00001A33  C$_snd_manager.c$77$1_0$59         _snd_manager
     00001A33  G$devkit_SFX_CHANNEL2$0$0          _snd_manager
     00001A33  _devkit_SFX_CHANNEL2               _snd_manager
     00001A35  A$_snd_manager$427                 _snd_manager
     00001A35  C$_snd_manager.c$78$1_0$59         _snd_manager
     00001A35  XG$devkit_SFX_CHANNEL2$0$0         _snd_manager
     00001A36  A$_snd_manager$440                 _snd_manager
     00001A36  C$_snd_manager.c$79$1_0$60         _snd_manager
     00001A36  C$_snd_manager.c$81$1_0$60         _snd_manager
     00001A36  G$devkit_SFX_CHANNEL3$0$0          _snd_manager
     00001A36  _devkit_SFX_CHANNEL3               _snd_manager
     00001A38  A$_snd_manager$448                 _snd_manager
     00001A38  C$_snd_manager.c$82$1_0$60         _snd_manager
     00001A38  XG$devkit_SFX_CHANNEL3$0$0         _snd_manager
     00001A39  A$_snd_manager$461                 _snd_manager
     00001A39  C$_snd_manager.c$83$1_0$61         _snd_manager
     00001A39  C$_snd_manager.c$85$1_0$61         _snd_manager
     00001A39  G$devkit_SFX_CHANNELS2AND3$0$0     _snd_manager
     00001A39  _devkit_SFX_CHANNELS2AND3          _snd_manager
     00001A3B  A$_snd_manager$469                 _snd_manager
     00001A3B  C$_snd_manager.c$86$1_0$61         _snd_manager
     00001A3B  XG$devkit_SFX_CHANNELS2AND3$0$0    _snd_manager
     00001A3C  A$_gsl_manager$90                  _gsl_manager
     00001A3C  C$_gsl_manager.c$11$1_0$14         _gsl_manager
     00001A3C  C$_gsl_manager.c$9$0_0$14          _gsl_manager
     00001A3C  G$devkit_GSL_initializeMap$0$0     _gsl_manager
     00001A3C  _devkit_GSL_initializeMap          _gsl_manager
     00001A40  A$_gsl_manager$91                  _gsl_manager
     00001A42  A$_gsl_manager$92                  _gsl_manager
     00001A45  A$_gsl_manager$93                  _gsl_manager
     00001A48  A$_gsl_manager$94                  _gsl_manager
     00001A49  A$_gsl_manager$95                  _gsl_manager
ASxxxx Linker V03.00 + NoICE + sdld,  page 72.
Hexadecimal  [32-Bits]

Area                                    Addr        Size        Decimal Bytes (Attributes)
--------------------------------        ----        ----        ------- ----- ------------
_CODE                               00000200    00006F18 =       28440. bytes (REL,CON)

      Value  Global                              Global Defined In Module
      -----  --------------------------------   ------------------------
     00001A4C  A$_gsl_manager$96                  _gsl_manager
     00001A4F  A$_gsl_manager$97                  _gsl_manager
     00001A50  A$_gsl_manager$98                  _gsl_manager
     00001A53  A$_gsl_manager$99                  _gsl_manager
     00001A54  A$_gsl_manager$100                 _gsl_manager
     00001A55  A$_gsl_manager$108                 _gsl_manager
     00001A55  C$_gsl_manager.c$12$1_0$14         _gsl_manager
     00001A55  XG$devkit_GSL_initializeMap$0$0    _gsl_manager
     00001A56  A$_gsl_manager$121                 _gsl_manager
     00001A56  C$_gsl_manager.c$13$1_0$16         _gsl_manager
     00001A56  C$_gsl_manager.c$15$1_0$16         _gsl_manager
     00001A56  G$devkit_GSL_positionWindow$0$0    _gsl_manager
     00001A56  _devkit_GSL_positionWindow         _gsl_manager
     00001A5A  A$_gsl_manager$122                 _gsl_manager
     00001A5C  A$_gsl_manager$123                 _gsl_manager
     00001A5F  A$_gsl_manager$124                 _gsl_manager
     00001A62  A$_gsl_manager$125                 _gsl_manager
     00001A63  A$_gsl_manager$126                 _gsl_manager
     00001A66  A$_gsl_manager$127                 _gsl_manager
     00001A69  A$_gsl_manager$128                 _gsl_manager
     00001A6A  A$_gsl_manager$129                 _gsl_manager
     00001A6D  A$_gsl_manager$130                 _gsl_manager
     00001A6E  A$_gsl_manager$131                 _gsl_manager
     00001A6F  A$_gsl_manager$139                 _gsl_manager
     00001A6F  C$_gsl_manager.c$16$1_0$16         _gsl_manager
     00001A6F  XG$devkit_GSL_positionWindow$0$0   _gsl_manager
     00001A70  A$_gsl_manager$152                 _gsl_manager
     00001A70  C$_gsl_manager.c$17$1_0$18         _gsl_manager
     00001A70  C$_gsl_manager.c$19$1_0$18         _gsl_manager
     00001A70  G$devkit_GSL_metatileLookup$0$0    _gsl_manager
     00001A70  _devkit_GSL_metatileLookup         _gsl_manager
     00001A74  A$_gsl_manager$153                 _gsl_manager
     00001A76  A$_gsl_manager$154                 _gsl_manager
     00001A79  A$_gsl_manager$155                 _gsl_manager
     00001A7C  A$_gsl_manager$156                 _gsl_manager
     00001A7D  A$_gsl_manager$157                 _gsl_manager
     00001A80  A$_gsl_manager$158                 _gsl_manager
     00001A83  A$_gsl_manager$159                 _gsl_manager
     00001A84  A$_gsl_manager$160                 _gsl_manager
     00001A87  A$_gsl_manager$161                 _gsl_manager
     00001A88  A$_gsl_manager$162                 _gsl_manager
     00001A89  A$_gsl_manager$170                 _gsl_manager
     00001A89  C$_gsl_manager.c$20$1_0$18         _gsl_manager
     00001A89  XG$devkit_GSL_metatileLookup$0$0   _gsl_manager
     00001A8A  A$_gsl_manager$183                 _gsl_manager
     00001A8A  C$_gsl_manager.c$21$1_0$20         _gsl_manager
     00001A8A  C$_gsl_manager.c$23$1_0$20         _gsl_manager
     00001A8A  G$devkit_GSL_tileLookup$0$0        _gsl_manager
     00001A8A  _devkit_GSL_tileLookup             _gsl_manager
     00001A8E  A$_gsl_manager$184                 _gsl_manager
     00001A90  A$_gsl_manager$185                 _gsl_manager
ASxxxx Linker V03.00 + NoICE + sdld,  page 73.
Hexadecimal  [32-Bits]

Area                                    Addr        Size        Decimal Bytes (Attributes)
--------------------------------        ----        ----        ------- ----- ------------
_CODE                               00000200    00006F18 =       28440. bytes (REL,CON)

      Value  Global                              Global Defined In Module
      -----  --------------------------------   ------------------------
     00001A93  A$_gsl_manager$186                 _gsl_manager
     00001A96  A$_gsl_manager$187                 _gsl_manager
     00001A97  A$_gsl_manager$188                 _gsl_manager
     00001A9A  A$_gsl_manager$189                 _gsl_manager
     00001A9D  A$_gsl_manager$190                 _gsl_manager
     00001A9E  A$_gsl_manager$191                 _gsl_manager
     00001AA1  A$_gsl_manager$192                 _gsl_manager
     00001AA2  A$_gsl_manager$193                 _gsl_manager
     00001AA3  A$_gsl_manager$201                 _gsl_manager
     00001AA3  C$_gsl_manager.c$24$1_0$20         _gsl_manager
     00001AA3  XG$devkit_GSL_tileLookup$0$0       _gsl_manager
     00001AA4  A$_gsl_manager$221                 _gsl_manager
     00001AA4  C$_gsl_manager.c$25$1_0$21         _gsl_manager
     00001AA4  C$_gsl_manager.c$27$1_0$21         _gsl_manager
     00001AA4  C$_gsl_manager.c$28$1_0$21         _gsl_manager
     00001AA4  G$devkit_GSL_refreshVDP$0$0        _gsl_manager
     00001AA4  XG$devkit_GSL_refreshVDP$0$0       _gsl_manager
     00001AA4  _devkit_GSL_refreshVDP             _gsl_manager
     00001AA7  A$_gsl_manager$234                 _gsl_manager
     00001AA7  C$_gsl_manager.c$29$1_0$23         _gsl_manager
     00001AA7  C$_gsl_manager.c$31$1_0$23         _gsl_manager
     00001AA7  G$devkit_GSL_scroll$0$0            _gsl_manager
     00001AA7  _devkit_GSL_scroll                 _gsl_manager
     00001AAB  A$_gsl_manager$235                 _gsl_manager
     00001AAD  A$_gsl_manager$236                 _gsl_manager
     00001AB0  A$_gsl_manager$237                 _gsl_manager
     00001AB3  A$_gsl_manager$238                 _gsl_manager
     00001AB4  A$_gsl_manager$239                 _gsl_manager
     00001AB7  A$_gsl_manager$240                 _gsl_manager
     00001AB8  A$_gsl_manager$248                 _gsl_manager
     00001AB8  C$_gsl_manager.c$32$1_0$23         _gsl_manager
     00001AB8  XG$devkit_GSL_scroll$0$0           _gsl_manager
     00001AB9  A$_gsl_manager$268                 _gsl_manager
     00001AB9  C$_gsl_manager.c$33$1_0$24         _gsl_manager
     00001AB9  C$_gsl_manager.c$35$1_0$24         _gsl_manager
     00001AB9  C$_gsl_manager.c$36$1_0$24         _gsl_manager
     00001AB9  G$devkit_GSL_VBlank$0$0            _gsl_manager
     00001AB9  XG$devkit_GSL_VBlank$0$0           _gsl_manager
     00001AB9  _devkit_GSL_VBlank                 _gsl_manager
     00001ABC  A$_gsl_manager$288                 _gsl_manager
     00001ABC  C$_gsl_manager.c$37$1_0$25         _gsl_manager
     00001ABC  C$_gsl_manager.c$39$1_0$25         _gsl_manager
     00001ABC  C$_gsl_manager.c$40$1_0$25         _gsl_manager
     00001ABC  G$devkit_GSL_metatileUpdate$0$0    _gsl_manager
     00001ABC  XG$devkit_GSL_metatileUpdate$0$0   _gsl_manager
     00001ABC  _devkit_GSL_metatileUpdate         _gsl_manager
     00001ABF  A$_gsl_manager$301                 _gsl_manager
     00001ABF  C$_gsl_manager.c$41$1_0$27         _gsl_manager
     00001ABF  C$_gsl_manager.c$43$1_0$27         _gsl_manager
     00001ABF  G$devkit_GSL_metatileUpdateCusto   _gsl_manager
     00001ABF  _devkit_GSL_metatileUpdateCustom   _gsl_manager
ASxxxx Linker V03.00 + NoICE + sdld,  page 74.
Hexadecimal  [32-Bits]

Area                                    Addr        Size        Decimal Bytes (Attributes)
--------------------------------        ----        ----        ------- ----- ------------
_CODE                               00000200    00006F18 =       28440. bytes (REL,CON)

      Value  Global                              Global Defined In Module
      -----  --------------------------------   ------------------------
     00001AC3  A$_gsl_manager$302                 _gsl_manager
     00001AC5  A$_gsl_manager$303                 _gsl_manager
     00001AC8  A$_gsl_manager$304                 _gsl_manager
     00001ACB  A$_gsl_manager$305                 _gsl_manager
     00001ACC  A$_gsl_manager$306                 _gsl_manager
     00001ACF  A$_gsl_manager$307                 _gsl_manager
     00001AD2  A$_gsl_manager$308                 _gsl_manager
     00001AD4  A$_gsl_manager$309                 _gsl_manager
     00001AD6  A$_gsl_manager$310                 _gsl_manager
     00001AD7  A$_gsl_manager$311                 _gsl_manager
     00001ADA  A$_gsl_manager$312                 _gsl_manager
     00001ADD  A$_gsl_manager$313                 _gsl_manager
     00001ADE  A$_gsl_manager$314                 _gsl_manager
     00001AE1  A$_gsl_manager$315                 _gsl_manager
     00001AE4  A$_gsl_manager$316                 _gsl_manager
     00001AE5  A$_gsl_manager$317                 _gsl_manager
     00001AE6  A$_gsl_manager$325                 _gsl_manager
     00001AE6  C$_gsl_manager.c$44$1_0$27         _gsl_manager
     00001AE6  XG$devkit_GSL_metatileUpdateCust   _gsl_manager
     00001AE7  A$_gsl_manager$345                 _gsl_manager
     00001AE7  C$_gsl_manager.c$45$1_0$28         _gsl_manager
     00001AE7  C$_gsl_manager.c$47$1_0$28         _gsl_manager
     00001AE7  C$_gsl_manager.c$48$1_0$28         _gsl_manager
     00001AE7  G$devkit_GSL_getMapWidthInPixels   _gsl_manager
     00001AE7  XG$devkit_GSL_getMapWidthInPixel   _gsl_manager
     00001AE7  _devkit_GSL_getMapWidthInPixels    _gsl_manager
     00001AEA  A$_gsl_manager$365                 _gsl_manager
     00001AEA  C$_gsl_manager.c$49$1_0$29         _gsl_manager
     00001AEA  C$_gsl_manager.c$51$1_0$29         _gsl_manager
     00001AEA  C$_gsl_manager.c$52$1_0$29         _gsl_manager
     00001AEA  G$devkit_GSL_getMapHeightInPixel   _gsl_manager
     00001AEA  XG$devkit_GSL_getMapHeightInPixe   _gsl_manager
     00001AEA  _devkit_GSL_getMapHeightInPixels   _gsl_manager
     00001AED  A$_gsl_manager$385                 _gsl_manager
     00001AED  C$_gsl_manager.c$53$1_0$30         _gsl_manager
     00001AED  C$_gsl_manager.c$55$1_0$30         _gsl_manager
     00001AED  C$_gsl_manager.c$56$1_0$30         _gsl_manager
     00001AED  G$devkit_GSL_getMapWidthInMetati   _gsl_manager
     00001AED  XG$devkit_GSL_getMapWidthInMetat   _gsl_manager
     00001AED  _devkit_GSL_getMapWidthInMetatil   _gsl_manager
     00001AF0  A$_gsl_manager$405                 _gsl_manager
     00001AF0  C$_gsl_manager.c$57$1_0$31         _gsl_manager
     00001AF0  C$_gsl_manager.c$59$1_0$31         _gsl_manager
     00001AF0  C$_gsl_manager.c$60$1_0$31         _gsl_manager
     00001AF0  G$devkit_GSL_getMapHeightInMetat   _gsl_manager
     00001AF0  XG$devkit_GSL_getMapHeightInMeta   _gsl_manager
     00001AF0  _devkit_GSL_getMapHeightInMetati   _gsl_manager
     00001AF3  A$_gsl_manager$425                 _gsl_manager
     00001AF3  C$_gsl_manager.c$61$1_0$32         _gsl_manager
     00001AF3  C$_gsl_manager.c$63$1_0$32         _gsl_manager
     00001AF3  C$_gsl_manager.c$64$1_0$32         _gsl_manager
ASxxxx Linker V03.00 + NoICE + sdld,  page 75.
Hexadecimal  [32-Bits]

Area                                    Addr        Size        Decimal Bytes (Attributes)
--------------------------------        ----        ----        ------- ----- ------------
_CODE                               00000200    00006F18 =       28440. bytes (REL,CON)

      Value  Global                              Global Defined In Module
      -----  --------------------------------   ------------------------
     00001AF3  G$devkit_GSL_getScrolltableSize$   _gsl_manager
     00001AF3  XG$devkit_GSL_getScrolltableSize   _gsl_manager
     00001AF3  _devkit_GSL_getScrolltableSize     _gsl_manager
     00001AF6  A$_gsl_manager$445                 _gsl_manager
     00001AF6  C$_gsl_manager.c$65$1_0$33         _gsl_manager
     00001AF6  C$_gsl_manager.c$67$1_0$33         _gsl_manager
     00001AF6  C$_gsl_manager.c$68$1_0$33         _gsl_manager
     00001AF6  G$devkit_GSL_getCurrentX$0$0       _gsl_manager
     00001AF6  XG$devkit_GSL_getCurrentX$0$0      _gsl_manager
     00001AF6  _devkit_GSL_getCurrentX            _gsl_manager
     00001AF9  A$_gsl_manager$465                 _gsl_manager
     00001AF9  C$_gsl_manager.c$69$1_0$34         _gsl_manager
     00001AF9  C$_gsl_manager.c$71$1_0$34         _gsl_manager
     00001AF9  C$_gsl_manager.c$72$1_0$34         _gsl_manager
     00001AF9  G$devkit_GSL_getCurrentY$0$0       _gsl_manager
     00001AF9  XG$devkit_GSL_getCurrentY$0$0      _gsl_manager
     00001AF9  _devkit_GSL_getCurrentY            _gsl_manager
     00001AFC  A$_gsl_manager$485                 _gsl_manager
     00001AFC  C$_gsl_manager.c$73$1_0$35         _gsl_manager
     00001AFC  C$_gsl_manager.c$75$1_0$35         _gsl_manager
     00001AFC  C$_gsl_manager.c$76$1_0$35         _gsl_manager
     00001AFC  G$devkit_GSL_getCollisionCount$0   _gsl_manager
     00001AFC  XG$devkit_GSL_getCollisionCount$   _gsl_manager
     00001AFC  _devkit_GSL_getCollisionCount      _gsl_manager
     00001AFF  A$_gsl_manager$505                 _gsl_manager
     00001AFF  C$_gsl_manager.c$77$1_0$36         _gsl_manager
     00001AFF  C$_gsl_manager.c$79$1_0$36         _gsl_manager
     00001AFF  C$_gsl_manager.c$80$1_0$36         _gsl_manager
     00001AFF  G$devkit_GSL_getScrolltableAddre   _gsl_manager
     00001AFF  XG$devkit_GSL_getScrolltableAddr   _gsl_manager
     00001AFF  _devkit_GSL_getScrolltableAddres   _gsl_manager
     00001B02  A$spriteengine$84                  spriteengine
     00001B02  C$spriteengine.c$12$3_0$117        spriteengine
     00001B02  C$spriteengine.c$9$0_0$115         spriteengine
     00001B02  G$initEngine$0$0                   spriteengine
     00001B02  _initEngine                        spriteengine
     00001B05  A$spriteengine$89                  spriteengine
     00001B05  C$spriteengine.c$14$3_0$117        spriteengine
     00001B06  A$spriteengine$90                  spriteengine
     00001B07  A$spriteengine$91                  spriteengine
     00001B08  A$spriteengine$92                  spriteengine
     00001B0B  A$spriteengine$93                  spriteengine
     00001B0C  A$spriteengine$94                  spriteengine
     00001B0D  A$spriteengine$95                  spriteengine
     00001B0E  A$spriteengine$96                  spriteengine
     00001B0F  A$spriteengine$97                  spriteengine
     00001B10  A$spriteengine$98                  spriteengine
     00001B11  A$spriteengine$99                  spriteengine
     00001B12  A$spriteengine$100                 spriteengine
     00001B13  A$spriteengine$101                 spriteengine
     00001B16  A$spriteengine$102                 spriteengine
ASxxxx Linker V03.00 + NoICE + sdld,  page 76.
Hexadecimal  [32-Bits]

Area                                    Addr        Size        Decimal Bytes (Attributes)
--------------------------------        ----        ----        ------- ----- ------------
_CODE                               00000200    00006F18 =       28440. bytes (REL,CON)

      Value  Global                              Global Defined In Module
      -----  --------------------------------   ------------------------
     00001B17  A$spriteengine$103                 spriteengine
     00001B18  A$spriteengine$104                 spriteengine
     00001B19  A$spriteengine$108                 spriteengine
     00001B19  C$spriteengine.c$15$3_0$117        spriteengine
     00001B1A  A$spriteengine$109                 spriteengine
     00001B1B  A$spriteengine$110                 spriteengine
     00001B1C  A$spriteengine$111                 spriteengine
     00001B1D  A$spriteengine$115                 spriteengine
     00001B1D  C$spriteengine.c$12$2_0$116        spriteengine
     00001B1E  A$spriteengine$116                 spriteengine
     00001B1F  A$spriteengine$117                 spriteengine
     00001B21  A$spriteengine$118                 spriteengine
     00001B22  A$spriteengine$119                 spriteengine
     00001B23  A$spriteengine$120                 spriteengine
     00001B24  A$spriteengine$121                 spriteengine
     00001B25  A$spriteengine$122                 spriteengine
     00001B27  A$spriteengine$123                 spriteengine
     00001B29  A$spriteengine$127                 spriteengine
     00001B29  C$spriteengine.c$17$1_0$115        spriteengine
     00001B2B  A$spriteengine$128                 spriteengine
     00001B2E  A$spriteengine$136                 spriteengine
     00001B2E  C$spriteengine.c$18$1_0$115        spriteengine
     00001B2E  XG$initEngine$0$0                  spriteengine
     00001B2F  A$spriteengine$146                 spriteengine
     00001B2F  C$spriteengine.c$20$1_0$119        spriteengine
     00001B2F  G$addEntity$0$0                    spriteengine
     00001B2F  _addEntity                         spriteengine
     00001B31  A$spriteengine$147                 spriteengine
     00001B35  A$spriteengine$148                 spriteengine
     00001B37  A$spriteengine$152                 spriteengine
     00001B37  C$spriteengine.c$22$1_0$119        spriteengine
     00001B3A  A$spriteengine$153                 spriteengine
     00001B3D  A$spriteengine$154                 spriteengine
     00001B3E  A$spriteengine$155                 spriteengine
     00001B40  A$spriteengine$156                 spriteengine
     00001B41  A$spriteengine$157                 spriteengine
     00001B42  A$spriteengine$158                 spriteengine
     00001B43  A$spriteengine$159                 spriteengine
     00001B44  A$spriteengine$160                 spriteengine
     00001B47  A$spriteengine$161                 spriteengine
     00001B48  A$spriteengine$162                 spriteengine
     00001B4B  A$spriteengine$163                 spriteengine
     00001B4C  A$spriteengine$164                 spriteengine
     00001B4D  A$spriteengine$165                 spriteengine
     00001B4E  A$spriteengine$166                 spriteengine
     00001B4F  A$spriteengine$167                 spriteengine
     00001B50  A$spriteengine$168                 spriteengine
     00001B51  A$spriteengine$169                 spriteengine
     00001B52  A$spriteengine$173                 spriteengine
     00001B52  C$spriteengine.c$23$1_0$119        spriteengine
     00001B56  A$spriteengine$174                 spriteengine
ASxxxx Linker V03.00 + NoICE + sdld,  page 77.
Hexadecimal  [32-Bits]

Area                                    Addr        Size        Decimal Bytes (Attributes)
--------------------------------        ----        ----        ------- ----- ------------
_CODE                               00000200    00006F18 =       28440. bytes (REL,CON)

      Value  Global                              Global Defined In Module
      -----  --------------------------------   ------------------------
     00001B59  A$spriteengine$175                 spriteengine
     00001B5B  A$spriteengine$176                 spriteengine
     00001B5C  A$spriteengine$177                 spriteengine
     00001B5D  A$spriteengine$178                 spriteengine
     00001B5E  A$spriteengine$179                 spriteengine
     00001B5F  A$spriteengine$180                 spriteengine
     00001B60  A$spriteengine$181                 spriteengine
     00001B61  A$spriteengine$182                 spriteengine
     00001B62  A$spriteengine$183                 spriteengine
     00001B65  A$spriteengine$184                 spriteengine
     00001B66  A$spriteengine$188                 spriteengine
     00001B66  C$spriteengine.c$24$1_0$119        spriteengine
     00001B69  A$spriteengine$189                 spriteengine
     00001B6B  A$spriteengine$190                 spriteengine
     00001B6C  A$spriteengine$191                 spriteengine
     00001B6D  A$spriteengine$192                 spriteengine
     00001B6E  A$spriteengine$193                 spriteengine
     00001B6F  A$spriteengine$194                 spriteengine
     00001B70  A$spriteengine$195                 spriteengine
     00001B73  A$spriteengine$196                 spriteengine
     00001B74  A$spriteengine$197                 spriteengine
     00001B76  A$spriteengine$201                 spriteengine
     00001B76  C$spriteengine.c$25$1_0$119        spriteengine
     00001B79  A$spriteengine$202                 spriteengine
     00001B7B  A$spriteengine$203                 spriteengine
     00001B7C  A$spriteengine$204                 spriteengine
     00001B7D  A$spriteengine$205                 spriteengine
     00001B7E  A$spriteengine$206                 spriteengine
     00001B7F  A$spriteengine$207                 spriteengine
     00001B80  A$spriteengine$208                 spriteengine
     00001B83  A$spriteengine$209                 spriteengine
     00001B84  A$spriteengine$210                 spriteengine
     00001B86  A$spriteengine$214                 spriteengine
     00001B86  C$spriteengine.c$26$1_0$119        spriteengine
     00001B89  A$spriteengine$215                 spriteengine
     00001B8B  A$spriteengine$216                 spriteengine
     00001B8C  A$spriteengine$217                 spriteengine
     00001B8D  A$spriteengine$218                 spriteengine
     00001B8E  A$spriteengine$219                 spriteengine
     00001B8F  A$spriteengine$220                 spriteengine
     00001B90  A$spriteengine$221                 spriteengine
     00001B93  A$spriteengine$222                 spriteengine
     00001B94  A$spriteengine$223                 spriteengine
     00001B96  A$spriteengine$227                 spriteengine
     00001B96  C$spriteengine.c$27$1_0$119        spriteengine
     00001B99  A$spriteengine$228                 spriteengine
     00001B9B  A$spriteengine$229                 spriteengine
     00001B9C  A$spriteengine$230                 spriteengine
     00001B9D  A$spriteengine$231                 spriteengine
     00001B9E  A$spriteengine$232                 spriteengine
     00001B9F  A$spriteengine$233                 spriteengine
ASxxxx Linker V03.00 + NoICE + sdld,  page 78.
Hexadecimal  [32-Bits]

Area                                    Addr        Size        Decimal Bytes (Attributes)
--------------------------------        ----        ----        ------- ----- ------------
_CODE                               00000200    00006F18 =       28440. bytes (REL,CON)

      Value  Global                              Global Defined In Module
      -----  --------------------------------   ------------------------
     00001BA0  A$spriteengine$234                 spriteengine
     00001BA3  A$spriteengine$235                 spriteengine
     00001BA4  A$spriteengine$236                 spriteengine
     00001BA6  A$spriteengine$240                 spriteengine
     00001BA6  C$spriteengine.c$28$1_0$119        spriteengine
     00001BA9  A$spriteengine$241                 spriteengine
     00001BAB  A$spriteengine$242                 spriteengine
     00001BAC  A$spriteengine$243                 spriteengine
     00001BAD  A$spriteengine$244                 spriteengine
     00001BAE  A$spriteengine$245                 spriteengine
     00001BAF  A$spriteengine$246                 spriteengine
     00001BB0  A$spriteengine$247                 spriteengine
     00001BB3  A$spriteengine$248                 spriteengine
     00001BB4  A$spriteengine$249                 spriteengine
     00001BB6  A$spriteengine$253                 spriteengine
     00001BB6  C$spriteengine.c$29$1_0$119        spriteengine
     00001BB9  A$spriteengine$254                 spriteengine
     00001BBB  A$spriteengine$255                 spriteengine
     00001BBC  A$spriteengine$256                 spriteengine
     00001BBD  A$spriteengine$257                 spriteengine
     00001BBE  A$spriteengine$258                 spriteengine
     00001BBF  A$spriteengine$259                 spriteengine
     00001BC0  A$spriteengine$260                 spriteengine
     00001BC3  A$spriteengine$261                 spriteengine
     00001BC4  A$spriteengine$262                 spriteengine
     00001BC6  A$spriteengine$266                 spriteengine
     00001BC6  C$spriteengine.c$30$1_0$119        spriteengine
     00001BC9  A$spriteengine$267                 spriteengine
     00001BCB  A$spriteengine$268                 spriteengine
     00001BCC  A$spriteengine$269                 spriteengine
     00001BCD  A$spriteengine$270                 spriteengine
     00001BCE  A$spriteengine$271                 spriteengine
     00001BCF  A$spriteengine$272                 spriteengine
     00001BD0  A$spriteengine$273                 spriteengine
     00001BD3  A$spriteengine$274                 spriteengine
     00001BD4  A$spriteengine$275                 spriteengine
     00001BD5  A$spriteengine$276                 spriteengine
     00001BD8  A$spriteengine$277                 spriteengine
     00001BD9  A$spriteengine$281                 spriteengine
     00001BD9  C$spriteengine.c$31$1_0$119        spriteengine
     00001BDC  A$spriteengine$282                 spriteengine
     00001BDE  A$spriteengine$283                 spriteengine
     00001BDF  A$spriteengine$284                 spriteengine
     00001BE0  A$spriteengine$285                 spriteengine
     00001BE1  A$spriteengine$286                 spriteengine
     00001BE2  A$spriteengine$287                 spriteengine
     00001BE3  A$spriteengine$288                 spriteengine
     00001BE4  A$spriteengine$289                 spriteengine
     00001BE5  A$spriteengine$290                 spriteengine
     00001BE6  A$spriteengine$291                 spriteengine
     00001BE7  A$spriteengine$292                 spriteengine
ASxxxx Linker V03.00 + NoICE + sdld,  page 79.
Hexadecimal  [32-Bits]

Area                                    Addr        Size        Decimal Bytes (Attributes)
--------------------------------        ----        ----        ------- ----- ------------
_CODE                               00000200    00006F18 =       28440. bytes (REL,CON)

      Value  Global                              Global Defined In Module
      -----  --------------------------------   ------------------------
     00001BEA  A$spriteengine$293                 spriteengine
     00001BEB  A$spriteengine$297                 spriteengine
     00001BEB  C$spriteengine.c$32$1_0$119        spriteengine
     00001BEE  A$spriteengine$298                 spriteengine
     00001BF0  A$spriteengine$299                 spriteengine
     00001BF1  A$spriteengine$300                 spriteengine
     00001BF2  A$spriteengine$301                 spriteengine
     00001BF3  A$spriteengine$302                 spriteengine
     00001BF4  A$spriteengine$303                 spriteengine
     00001BF5  A$spriteengine$304                 spriteengine
     00001BF6  A$spriteengine$305                 spriteengine
     00001BF7  A$spriteengine$306                 spriteengine
     00001BF8  A$spriteengine$307                 spriteengine
     00001BF9  A$spriteengine$308                 spriteengine
     00001BFC  A$spriteengine$309                 spriteengine
     00001BFD  A$spriteengine$313                 spriteengine
     00001BFD  C$spriteengine.c$33$1_0$119        spriteengine
     00001C00  A$spriteengine$314                 spriteengine
     00001C02  A$spriteengine$315                 spriteengine
     00001C03  A$spriteengine$316                 spriteengine
     00001C04  A$spriteengine$317                 spriteengine
     00001C05  A$spriteengine$318                 spriteengine
     00001C06  A$spriteengine$319                 spriteengine
     00001C07  A$spriteengine$320                 spriteengine
     00001C0A  A$spriteengine$321                 spriteengine
     00001C0B  A$spriteengine$322                 spriteengine
     00001C0D  A$spriteengine$326                 spriteengine
     00001C0D  C$spriteengine.c$34$1_0$119        spriteengine
     00001C10  A$spriteengine$327                 spriteengine
     00001C12  A$spriteengine$328                 spriteengine
     00001C13  A$spriteengine$329                 spriteengine
     00001C14  A$spriteengine$330                 spriteengine
     00001C15  A$spriteengine$331                 spriteengine
     00001C16  A$spriteengine$332                 spriteengine
     00001C17  A$spriteengine$333                 spriteengine
     00001C1A  A$spriteengine$334                 spriteengine
     00001C1B  A$spriteengine$335                 spriteengine
     00001C1F  A$spriteengine$336                 spriteengine
     00001C22  A$spriteengine$337                 spriteengine
     00001C23  A$spriteengine$338                 spriteengine
     00001C24  A$spriteengine$339                 spriteengine
     00001C27  A$spriteengine$340                 spriteengine
     00001C28  A$spriteengine$344                 spriteengine
     00001C28  C$spriteengine.c$35$1_0$119        spriteengine
     00001C2B  A$spriteengine$345                 spriteengine
     00001C2E  A$spriteengine$346                 spriteengine
     00001C2F  A$spriteengine$347                 spriteengine
     00001C30  A$spriteengine$348                 spriteengine
     00001C32  A$spriteengine$349                 spriteengine
     00001C35  A$spriteengine$350                 spriteengine
     00001C36  A$spriteengine$351                 spriteengine
ASxxxx Linker V03.00 + NoICE + sdld,  page 80.
Hexadecimal  [32-Bits]

Area                                    Addr        Size        Decimal Bytes (Attributes)
--------------------------------        ----        ----        ------- ----- ------------
_CODE                               00000200    00006F18 =       28440. bytes (REL,CON)

      Value  Global                              Global Defined In Module
      -----  --------------------------------   ------------------------
     00001C37  A$spriteengine$352                 spriteengine
     00001C38  A$spriteengine$353                 spriteengine
     00001C39  A$spriteengine$354                 spriteengine
     00001C3A  A$spriteengine$355                 spriteengine
     00001C3B  A$spriteengine$356                 spriteengine
     00001C3C  A$spriteengine$360                 spriteengine
     00001C3C  C$spriteengine.c$36$1_0$119        spriteengine
     00001C40  A$spriteengine$361                 spriteengine
     00001C43  A$spriteengine$365                 spriteengine
     00001C43  C$spriteengine.c$37$1_0$119        spriteengine
     00001C46  A$spriteengine$366                 spriteengine
     00001C47  A$spriteengine$367                 spriteengine
     00001C48  A$spriteengine$368                 spriteengine
     00001C49  A$spriteengine$369                 spriteengine
     00001C4A  A$spriteengine$370                 spriteengine
     00001C4B  A$spriteengine$371                 spriteengine
     00001C4C  A$spriteengine$372                 spriteengine
     00001C4D  A$spriteengine$373                 spriteengine
     00001C4E  A$spriteengine$374                 spriteengine
     00001C4F  A$spriteengine$375                 spriteengine
     00001C50  A$spriteengine$376                 spriteengine
     00001C51  A$spriteengine$380                 spriteengine
     00001C53  A$spriteengine$385                 spriteengine
     00001C53  C$spriteengine.c$38$1_0$119        spriteengine
     00001C53  XG$addEntity$0$0                   spriteengine
     00001C54  A$spriteengine$395                 spriteengine
     00001C54  C$spriteengine.c$40$1_0$121        spriteengine
     00001C54  G$setAnimation$0$0                 spriteengine
     00001C54  _setAnimation                      spriteengine
     00001C56  A$spriteengine$396                 spriteengine
     00001C5A  A$spriteengine$397                 spriteengine
     00001C5C  A$spriteengine$401                 spriteengine
     00001C5C  C$spriteengine.c$42$1_0$121        spriteengine
     00001C5F  A$spriteengine$402                 spriteengine
     00001C62  A$spriteengine$403                 spriteengine
     00001C64  A$spriteengine$404                 spriteengine
     00001C65  A$spriteengine$405                 spriteengine
     00001C66  A$spriteengine$406                 spriteengine
     00001C67  A$spriteengine$407                 spriteengine
     00001C68  A$spriteengine$408                 spriteengine
     00001C69  A$spriteengine$409                 spriteengine
     00001C6A  A$spriteengine$410                 spriteengine
     00001C6B  A$spriteengine$411                 spriteengine
     00001C6C  A$spriteengine$412                 spriteengine
     00001C6D  A$spriteengine$413                 spriteengine
     00001C6E  A$spriteengine$414                 spriteengine
     00001C71  A$spriteengine$415                 spriteengine
     00001C72  A$spriteengine$416                 spriteengine
     00001C73  A$spriteengine$417                 spriteengine
     00001C75  A$spriteengine$418                 spriteengine
     00001C76  A$spriteengine$419                 spriteengine
ASxxxx Linker V03.00 + NoICE + sdld,  page 81.
Hexadecimal  [32-Bits]

Area                                    Addr        Size        Decimal Bytes (Attributes)
--------------------------------        ----        ----        ------- ----- ------------
_CODE                               00000200    00006F18 =       28440. bytes (REL,CON)

      Value  Global                              Global Defined In Module
      -----  --------------------------------   ------------------------
     00001C79  A$spriteengine$420                 spriteengine
     00001C7B  A$spriteengine$421                 spriteengine
     00001C7C  A$spriteengine$422                 spriteengine
     00001C7F  A$spriteengine$423                 spriteengine
     00001C81  A$spriteengine$428                 spriteengine
     00001C81  C$spriteengine.c$44$2_0$122        spriteengine
     00001C84  A$spriteengine$429                 spriteengine
     00001C85  A$spriteengine$430                 spriteengine
     00001C87  A$spriteengine$435                 spriteengine
     00001C87  C$spriteengine.c$46$1_0$121        spriteengine
     00001C88  A$spriteengine$436                 spriteengine
     00001C89  A$spriteengine$437                 spriteengine
     00001C8A  A$spriteengine$438                 spriteengine
     00001C8B  A$spriteengine$439                 spriteengine
     00001C8C  A$spriteengine$440                 spriteengine
     00001C8F  A$spriteengine$441                 spriteengine
     00001C90  A$spriteengine$442                 spriteengine
     00001C93  A$spriteengine$443                 spriteengine
     00001C94  A$spriteengine$447                 spriteengine
     00001C94  C$spriteengine.c$47$1_0$121        spriteengine
     00001C95  A$spriteengine$448                 spriteengine
     00001C96  A$spriteengine$449                 spriteengine
     00001C97  A$spriteengine$450                 spriteengine
     00001C98  A$spriteengine$451                 spriteengine
     00001C99  A$spriteengine$452                 spriteengine
     00001C9C  A$spriteengine$453                 spriteengine
     00001C9D  A$spriteengine$454                 spriteengine
     00001C9F  A$spriteengine$458                 spriteengine
     00001C9F  C$spriteengine.c$48$1_0$121        spriteengine
     00001CA0  A$spriteengine$459                 spriteengine
     00001CA1  A$spriteengine$460                 spriteengine
     00001CA2  A$spriteengine$461                 spriteengine
     00001CA3  A$spriteengine$462                 spriteengine
     00001CA4  A$spriteengine$463                 spriteengine
     00001CA7  A$spriteengine$464                 spriteengine
     00001CA8  A$spriteengine$465                 spriteengine
     00001CAA  A$spriteengine$469                 spriteengine
     00001CAA  C$spriteengine.c$49$1_0$121        spriteengine
     00001CAB  A$spriteengine$470                 spriteengine
     00001CAC  A$spriteengine$471                 spriteengine
     00001CAD  A$spriteengine$472                 spriteengine
     00001CAE  A$spriteengine$473                 spriteengine
     00001CAF  A$spriteengine$474                 spriteengine
     00001CB2  A$spriteengine$475                 spriteengine
     00001CB3  A$spriteengine$476                 spriteengine
     00001CB5  A$spriteengine$480                 spriteengine
     00001CB5  C$spriteengine.c$50$1_0$121        spriteengine
     00001CB6  A$spriteengine$481                 spriteengine
     00001CB7  A$spriteengine$482                 spriteengine
     00001CB8  A$spriteengine$483                 spriteengine
     00001CB9  A$spriteengine$484                 spriteengine
ASxxxx Linker V03.00 + NoICE + sdld,  page 82.
Hexadecimal  [32-Bits]

Area                                    Addr        Size        Decimal Bytes (Attributes)
--------------------------------        ----        ----        ------- ----- ------------
_CODE                               00000200    00006F18 =       28440. bytes (REL,CON)

      Value  Global                              Global Defined In Module
      -----  --------------------------------   ------------------------
     00001CBC  A$spriteengine$485                 spriteengine
     00001CBD  A$spriteengine$486                 spriteengine
     00001CBF  A$spriteengine$490                 spriteengine
     00001CC1  A$spriteengine$495                 spriteengine
     00001CC1  C$spriteengine.c$51$1_0$121        spriteengine
     00001CC1  XG$setAnimation$0$0                spriteengine
     00001CC2  A$spriteengine$505                 spriteengine
     00001CC2  C$spriteengine.c$53$1_0$124        spriteengine
     00001CC2  G$forceReload$0$0                  spriteengine
     00001CC2  _forceReload                       spriteengine
     00001CC4  A$spriteengine$506                 spriteengine
     00001CC8  A$spriteengine$507                 spriteengine
     00001CCA  A$spriteengine$511                 spriteengine
     00001CCA  C$spriteengine.c$55$1_0$124        spriteengine
     00001CCD  A$spriteengine$512                 spriteengine
     00001CD0  A$spriteengine$513                 spriteengine
     00001CD2  A$spriteengine$514                 spriteengine
     00001CD3  A$spriteengine$515                 spriteengine
     00001CD4  A$spriteengine$516                 spriteengine
     00001CD5  A$spriteengine$517                 spriteengine
     00001CD6  A$spriteengine$518                 spriteengine
     00001CD7  A$spriteengine$519                 spriteengine
     00001CDA  A$spriteengine$520                 spriteengine
     00001CDB  A$spriteengine$521                 spriteengine
     00001CDD  A$spriteengine$525                 spriteengine
     00001CDF  A$spriteengine$530                 spriteengine
     00001CDF  C$spriteengine.c$56$1_0$124        spriteengine
     00001CDF  XG$forceReload$0$0                 spriteengine
     00001CE0  A$spriteengine$540                 spriteengine
     00001CE0  C$spriteengine.c$58$1_0$126        spriteengine
     00001CE0  G$isFrameEnded$0$0                 spriteengine
     00001CE0  _isFrameEnded                      spriteengine
     00001CE2  A$spriteengine$541                 spriteengine
     00001CE6  A$spriteengine$542                 spriteengine
     00001CE8  A$spriteengine$546                 spriteengine
     00001CE8  C$spriteengine.c$60$1_0$126        spriteengine
     00001CEB  A$spriteengine$547                 spriteengine
     00001CED  A$spriteengine$548                 spriteengine
     00001CEE  A$spriteengine$549                 spriteengine
     00001CF1  A$spriteengine$550                 spriteengine
     00001CF2  A$spriteengine$551                 spriteengine
     00001CF3  A$spriteengine$552                 spriteengine
     00001CF4  A$spriteengine$553                 spriteengine
     00001CF5  A$spriteengine$554                 spriteengine
     00001CF8  A$spriteengine$555                 spriteengine
     00001CF9  A$spriteengine$556                 spriteengine
     00001CFA  A$spriteengine$560                 spriteengine
     00001CFC  A$spriteengine$565                 spriteengine
     00001CFC  C$spriteengine.c$61$1_0$126        spriteengine
     00001CFC  XG$isFrameEnded$0$0                spriteengine
     00001CFD  A$spriteengine$575                 spriteengine
ASxxxx Linker V03.00 + NoICE + sdld,  page 83.
Hexadecimal  [32-Bits]

Area                                    Addr        Size        Decimal Bytes (Attributes)
--------------------------------        ----        ----        ------- ----- ------------
_CODE                               00000200    00006F18 =       28440. bytes (REL,CON)

      Value  Global                              Global Defined In Module
      -----  --------------------------------   ------------------------
     00001CFD  C$spriteengine.c$63$1_0$128        spriteengine
     00001CFD  G$isAnimationEnded$0$0             spriteengine
     00001CFD  _isAnimationEnded                  spriteengine
     00001CFF  A$spriteengine$576                 spriteengine
     00001D03  A$spriteengine$577                 spriteengine
     00001D05  A$spriteengine$581                 spriteengine
     00001D05  C$spriteengine.c$65$1_0$128        spriteengine
     00001D08  A$spriteengine$582                 spriteengine
     00001D0A  A$spriteengine$583                 spriteengine
     00001D0B  A$spriteengine$584                 spriteengine
     00001D0E  A$spriteengine$585                 spriteengine
     00001D0F  A$spriteengine$586                 spriteengine
     00001D10  A$spriteengine$587                 spriteengine
     00001D11  A$spriteengine$588                 spriteengine
     00001D12  A$spriteengine$589                 spriteengine
     00001D15  A$spriteengine$590                 spriteengine
     00001D16  A$spriteengine$591                 spriteengine
     00001D17  A$spriteengine$595                 spriteengine
     00001D19  A$spriteengine$600                 spriteengine
     00001D19  C$spriteengine.c$66$1_0$128        spriteengine
     00001D19  XG$isAnimationEnded$0$0            spriteengine
     00001D1A  A$spriteengine$610                 spriteengine
     00001D1A  C$spriteengine.c$68$1_0$130        spriteengine
     00001D1A  G$setDirection$0$0                 spriteengine
     00001D1A  _setDirection                      spriteengine
     00001D1C  A$spriteengine$611                 spriteengine
     00001D20  A$spriteengine$612                 spriteengine
     00001D22  A$spriteengine$616                 spriteengine
     00001D22  C$spriteengine.c$70$1_0$130        spriteengine
     00001D25  A$spriteengine$617                 spriteengine
     00001D28  A$spriteengine$618                 spriteengine
     00001D2A  A$spriteengine$619                 spriteengine
     00001D2B  A$spriteengine$620                 spriteengine
     00001D2C  A$spriteengine$621                 spriteengine
     00001D2D  A$spriteengine$622                 spriteengine
     00001D2E  A$spriteengine$623                 spriteengine
     00001D2F  A$spriteengine$624                 spriteengine
     00001D30  A$spriteengine$625                 spriteengine
     00001D31  A$spriteengine$626                 spriteengine
     00001D34  A$spriteengine$627                 spriteengine
     00001D35  A$spriteengine$628                 spriteengine
     00001D38  A$spriteengine$629                 spriteengine
     00001D39  A$spriteengine$633                 spriteengine
     00001D39  C$spriteengine.c$71$1_0$130        spriteengine
     00001D3A  A$spriteengine$634                 spriteengine
     00001D3B  A$spriteengine$635                 spriteengine
     00001D3C  A$spriteengine$636                 spriteengine
     00001D3D  A$spriteengine$637                 spriteengine
     00001D40  A$spriteengine$638                 spriteengine
     00001D41  A$spriteengine$639                 spriteengine
     00001D43  A$spriteengine$643                 spriteengine
ASxxxx Linker V03.00 + NoICE + sdld,  page 84.
Hexadecimal  [32-Bits]

Area                                    Addr        Size        Decimal Bytes (Attributes)
--------------------------------        ----        ----        ------- ----- ------------
_CODE                               00000200    00006F18 =       28440. bytes (REL,CON)

      Value  Global                              Global Defined In Module
      -----  --------------------------------   ------------------------
     00001D45  A$spriteengine$648                 spriteengine
     00001D45  C$spriteengine.c$72$1_0$130        spriteengine
     00001D45  XG$setDirection$0$0                spriteengine
     00001D46  A$spriteengine$658                 spriteengine
     00001D46  C$spriteengine.c$74$1_0$132        spriteengine
     00001D46  G$updateAnimations$0$0             spriteengine
     00001D46  _updateAnimations                  spriteengine
     00001D48  A$spriteengine$659                 spriteengine
     00001D4C  A$spriteengine$660                 spriteengine
     00001D4E  A$spriteengine$661                 spriteengine
     00001D51  A$spriteengine$662                 spriteengine
     00001D52  A$spriteengine$663                 spriteengine
     00001D53  A$spriteengine$667                 spriteengine
     00001D53  C$spriteengine.c$77$3_0$133        spriteengine
     00001D56  A$spriteengine$669                 spriteengine
     00001D59  A$spriteengine$670                 spriteengine
     00001D5A  A$spriteengine$671                 spriteengine
     00001D5C  A$spriteengine$672                 spriteengine
     00001D5D  A$spriteengine$673                 spriteengine
     00001D5E  A$spriteengine$674                 spriteengine
     00001D5F  A$spriteengine$675                 spriteengine
     00001D60  A$spriteengine$676                 spriteengine
     00001D63  A$spriteengine$677                 spriteengine
     00001D65  A$spriteengine$679                 spriteengine
     00001D68  A$spriteengine$683                 spriteengine
     00001D68  C$spriteengine.c$79$2_0$132        spriteengine
     00001D69  A$spriteengine$684                 spriteengine
     00001D6A  A$spriteengine$685                 spriteengine
     00001D6B  A$spriteengine$686                 spriteengine
     00001D6C  A$spriteengine$687                 spriteengine
     00001D6E  A$spriteengine$688                 spriteengine
     00001D71  A$spriteengine$689                 spriteengine
     00001D72  A$spriteengine$690                 spriteengine
     00001D74  A$spriteengine$691                 spriteengine
     00001D77  A$spriteengine$692                 spriteengine
     00001D78  A$spriteengine$693                 spriteengine
     00001D79  A$spriteengine$694                 spriteengine
     00001D7A  A$spriteengine$695                 spriteengine
     00001D7B  A$spriteengine$696                 spriteengine
     00001D7C  A$spriteengine$697                 spriteengine
     00001D7F  A$spriteengine$698                 spriteengine
     00001D80  A$spriteengine$699                 spriteengine
     00001D81  A$spriteengine$703                 spriteengine
     00001D81  C$spriteengine.c$80$3_0$133        spriteengine
     00001D82  A$spriteengine$704                 spriteengine
     00001D83  A$spriteengine$705                 spriteengine
     00001D84  A$spriteengine$706                 spriteengine
     00001D87  A$spriteengine$707                 spriteengine
     00001D88  A$spriteengine$708                 spriteengine
     00001D89  A$spriteengine$709                 spriteengine
     00001D8C  A$spriteengine$710                 spriteengine
ASxxxx Linker V03.00 + NoICE + sdld,  page 85.
Hexadecimal  [32-Bits]

Area                                    Addr        Size        Decimal Bytes (Attributes)
--------------------------------        ----        ----        ------- ----- ------------
_CODE                               00000200    00006F18 =       28440. bytes (REL,CON)

      Value  Global                              Global Defined In Module
      -----  --------------------------------   ------------------------
     00001D8F  A$spriteengine$711                 spriteengine
     00001D92  A$spriteengine$712                 spriteengine
     00001D95  A$spriteengine$713                 spriteengine
     00001D96  A$spriteengine$714                 spriteengine
     00001D97  A$spriteengine$715                 spriteengine
     00001D9A  A$spriteengine$716                 spriteengine
     00001D9D  A$spriteengine$717                 spriteengine
     00001DA0  A$spriteengine$718                 spriteengine
     00001DA1  A$spriteengine$719                 spriteengine
     00001DA2  A$spriteengine$720                 spriteengine
     00001DA3  A$spriteengine$721                 spriteengine
     00001DA4  A$spriteengine$722                 spriteengine
     00001DA5  A$spriteengine$723                 spriteengine
     00001DA8  A$spriteengine$724                 spriteengine
     00001DAB  A$spriteengine$725                 spriteengine
     00001DAC  A$spriteengine$726                 spriteengine
     00001DAF  A$spriteengine$727                 spriteengine
     00001DB0  A$spriteengine$728                 spriteengine
     00001DB1  A$spriteengine$729                 spriteengine
     00001DB2  A$spriteengine$730                 spriteengine
     00001DB4  A$spriteengine$731                 spriteengine
     00001DB5  A$spriteengine$732                 spriteengine
     00001DB6  A$spriteengine$733                 spriteengine
     00001DB7  A$spriteengine$734                 spriteengine
     00001DB8  A$spriteengine$735                 spriteengine
     00001DB9  A$spriteengine$736                 spriteengine
     00001DBA  A$spriteengine$737                 spriteengine
     00001DBB  A$spriteengine$738                 spriteengine
     00001DBC  A$spriteengine$739                 spriteengine
     00001DBD  A$spriteengine$740                 spriteengine
     00001DBE  A$spriteengine$741                 spriteengine
     00001DBF  A$spriteengine$742                 spriteengine
     00001DC0  A$spriteengine$743                 spriteengine
     00001DC1  A$spriteengine$744                 spriteengine
     00001DC2  A$spriteengine$745                 spriteengine
     00001DC3  A$spriteengine$746                 spriteengine
     00001DC4  A$spriteengine$747                 spriteengine
     00001DC5  A$spriteengine$748                 spriteengine
     00001DC6  A$spriteengine$749                 spriteengine
     00001DC7  A$spriteengine$750                 spriteengine
     00001DC8  A$spriteengine$751                 spriteengine
     00001DCB  A$spriteengine$752                 spriteengine
     00001DCE  A$spriteengine$753                 spriteengine
     00001DCF  A$spriteengine$754                 spriteengine
     00001DD2  A$spriteengine$755                 spriteengine
     00001DD3  A$spriteengine$756                 spriteengine
     00001DD4  A$spriteengine$757                 spriteengine
     00001DD5  A$spriteengine$758                 spriteengine
     00001DD6  A$spriteengine$759                 spriteengine
     00001DD7  A$spriteengine$760                 spriteengine
     00001DD9  A$spriteengine$761                 spriteengine
ASxxxx Linker V03.00 + NoICE + sdld,  page 86.
Hexadecimal  [32-Bits]

Area                                    Addr        Size        Decimal Bytes (Attributes)
--------------------------------        ----        ----        ------- ----- ------------
_CODE                               00000200    00006F18 =       28440. bytes (REL,CON)

      Value  Global                              Global Defined In Module
      -----  --------------------------------   ------------------------
     00001DDA  A$spriteengine$762                 spriteengine
     00001DDB  A$spriteengine$763                 spriteengine
     00001DDC  A$spriteengine$764                 spriteengine
     00001DDD  A$spriteengine$765                 spriteengine
     00001DDE  A$spriteengine$766                 spriteengine
     00001DDF  A$spriteengine$767                 spriteengine
     00001DE0  A$spriteengine$768                 spriteengine
     00001DE1  A$spriteengine$769                 spriteengine
     00001DE2  A$spriteengine$770                 spriteengine
     00001DE3  A$spriteengine$771                 spriteengine
     00001DE4  A$spriteengine$772                 spriteengine
     00001DE7  A$spriteengine$773                 spriteengine
     00001DE8  A$spriteengine$774                 spriteengine
     00001DE9  A$spriteengine$775                 spriteengine
     00001DEC  A$spriteengine$776                 spriteengine
     00001DEF  A$spriteengine$780                 spriteengine
     00001DEF  C$spriteengine.c$82$4_0$134        spriteengine
     00001DF2  A$spriteengine$781                 spriteengine
     00001DF5  A$spriteengine$782                 spriteengine
     00001DF8  A$spriteengine$783                 spriteengine
     00001DF9  A$spriteengine$784                 spriteengine
     00001DFB  A$spriteengine$788                 spriteengine
     00001DFB  C$spriteengine.c$83$4_0$134        spriteengine
     00001DFC  A$spriteengine$789                 spriteengine
     00001DFD  A$spriteengine$790                 spriteengine
     00001DFE  A$spriteengine$791                 spriteengine
     00001E01  A$spriteengine$792                 spriteengine
     00001E02  A$spriteengine$793                 spriteengine
     00001E03  A$spriteengine$794                 spriteengine
     00001E06  A$spriteengine$795                 spriteengine
     00001E09  A$spriteengine$796                 spriteengine
     00001E0B  A$spriteengine$797                 spriteengine
     00001E0E  A$spriteengine$798                 spriteengine
     00001E11  A$spriteengine$799                 spriteengine
     00001E13  A$spriteengine$800                 spriteengine
     00001E16  A$spriteengine$801                 spriteengine
     00001E19  A$spriteengine$802                 spriteengine
     00001E1C  A$spriteengine$803                 spriteengine
     00001E1D  A$spriteengine$804                 spriteengine
     00001E20  A$spriteengine$805                 spriteengine
     00001E23  A$spriteengine$806                 spriteengine
     00001E26  A$spriteengine$807                 spriteengine
     00001E27  A$spriteengine$808                 spriteengine
     00001E28  A$spriteengine$809                 spriteengine
     00001E29  A$spriteengine$810                 spriteengine
     00001E2A  A$spriteengine$811                 spriteengine
     00001E2B  A$spriteengine$812                 spriteengine
     00001E2E  A$spriteengine$813                 spriteengine
     00001E31  A$spriteengine$814                 spriteengine
     00001E32  A$spriteengine$815                 spriteengine
     00001E35  A$spriteengine$816                 spriteengine
ASxxxx Linker V03.00 + NoICE + sdld,  page 87.
Hexadecimal  [32-Bits]

Area                                    Addr        Size        Decimal Bytes (Attributes)
--------------------------------        ----        ----        ------- ----- ------------
_CODE                               00000200    00006F18 =       28440. bytes (REL,CON)

      Value  Global                              Global Defined In Module
      -----  --------------------------------   ------------------------
     00001E36  A$spriteengine$817                 spriteengine
     00001E37  A$spriteengine$818                 spriteengine
     00001E38  A$spriteengine$819                 spriteengine
     00001E3A  A$spriteengine$820                 spriteengine
     00001E3B  A$spriteengine$821                 spriteengine
     00001E3C  A$spriteengine$822                 spriteengine
     00001E3D  A$spriteengine$823                 spriteengine
     00001E3E  A$spriteengine$824                 spriteengine
     00001E3F  A$spriteengine$825                 spriteengine
     00001E40  A$spriteengine$826                 spriteengine
     00001E41  A$spriteengine$827                 spriteengine
     00001E42  A$spriteengine$828                 spriteengine
     00001E43  A$spriteengine$829                 spriteengine
     00001E44  A$spriteengine$830                 spriteengine
     00001E45  A$spriteengine$831                 spriteengine
     00001E46  A$spriteengine$832                 spriteengine
     00001E47  A$spriteengine$833                 spriteengine
     00001E48  A$spriteengine$834                 spriteengine
     00001E49  A$spriteengine$835                 spriteengine
     00001E4A  A$spriteengine$836                 spriteengine
     00001E4B  A$spriteengine$837                 spriteengine
     00001E4C  A$spriteengine$838                 spriteengine
     00001E4D  A$spriteengine$839                 spriteengine
     00001E4F  A$spriteengine$840                 spriteengine
     00001E50  A$spriteengine$841                 spriteengine
     00001E53  A$spriteengine$842                 spriteengine
     00001E55  A$spriteengine$843                 spriteengine
     00001E56  A$spriteengine$844                 spriteengine
     00001E57  A$spriteengine$845                 spriteengine
     00001E58  A$spriteengine$846                 spriteengine
     00001E5B  A$spriteengine$847                 spriteengine
     00001E5D  A$spriteengine$849                 spriteengine
     00001E60  A$spriteengine$853                 spriteengine
     00001E60  C$spriteengine.c$84$5_0$135        spriteengine
     00001E63  A$spriteengine$854                 spriteengine
     00001E64  A$spriteengine$855                 spriteengine
     00001E67  A$spriteengine$856                 spriteengine
     00001E6A  A$spriteengine$857                 spriteengine
     00001E6B  A$spriteengine$861                 spriteengine
     00001E6B  C$spriteengine.c$85$5_0$135        spriteengine
     00001E6C  A$spriteengine$862                 spriteengine
     00001E6D  A$spriteengine$863                 spriteengine
     00001E6E  A$spriteengine$864                 spriteengine
     00001E6F  A$spriteengine$865                 spriteengine
     00001E70  A$spriteengine$866                 spriteengine
     00001E73  A$spriteengine$867                 spriteengine
     00001E74  A$spriteengine$868                 spriteengine
     00001E76  A$spriteengine$869                 spriteengine
     00001E78  A$spriteengine$874                 spriteengine
     00001E78  C$spriteengine.c$89$5_0$136        spriteengine
     00001E7B  A$spriteengine$875                 spriteengine
ASxxxx Linker V03.00 + NoICE + sdld,  page 88.
Hexadecimal  [32-Bits]

Area                                    Addr        Size        Decimal Bytes (Attributes)
--------------------------------        ----        ----        ------- ----- ------------
_CODE                               00000200    00006F18 =       28440. bytes (REL,CON)

      Value  Global                              Global Defined In Module
      -----  --------------------------------   ------------------------
     00001E7E  A$spriteengine$876                 spriteengine
     00001E81  A$spriteengine$877                 spriteengine
     00001E82  A$spriteengine$878                 spriteengine
     00001E84  A$spriteengine$882                 spriteengine
     00001E84  C$spriteengine.c$90$5_0$136        spriteengine
     00001E85  A$spriteengine$883                 spriteengine
     00001E86  A$spriteengine$884                 spriteengine
     00001E87  A$spriteengine$885                 spriteengine
     00001E88  A$spriteengine$886                 spriteengine
     00001E89  A$spriteengine$887                 spriteengine
     00001E8C  A$spriteengine$888                 spriteengine
     00001E8D  A$spriteengine$889                 spriteengine
     00001E8F  A$spriteengine$894                 spriteengine
     00001E8F  C$spriteengine.c$92$4_0$134        spriteengine
     00001E90  A$spriteengine$895                 spriteengine
     00001E91  A$spriteengine$896                 spriteengine
     00001E92  A$spriteengine$897                 spriteengine
     00001E93  A$spriteengine$898                 spriteengine
     00001E94  A$spriteengine$899                 spriteengine
     00001E97  A$spriteengine$900                 spriteengine
     00001E98  A$spriteengine$901                 spriteengine
     00001E9A  A$spriteengine$906                 spriteengine
     00001E9A  C$spriteengine.c$77$2_0$132        spriteengine
     00001E9B  A$spriteengine$907                 spriteengine
     00001E9E  A$spriteengine$912                 spriteengine
     00001EA0  A$spriteengine$913                 spriteengine
     00001EA2  A$spriteengine$918                 spriteengine
     00001EA2  C$spriteengine.c$95$2_0$132        spriteengine
     00001EA2  XG$updateAnimations$0$0            spriteengine
     00001EA3  A$spriteengine$928                 spriteengine
     00001EA3  C$spriteengine.c$97$2_0$138        spriteengine
     00001EA3  G$updateTiles$0$0                  spriteengine
     00001EA3  _updateTiles                       spriteengine
     00001EA5  A$spriteengine$929                 spriteengine
     00001EA9  A$spriteengine$930                 spriteengine
     00001EAB  A$spriteengine$931                 spriteengine
     00001EAE  A$spriteengine$932                 spriteengine
     00001EAF  A$spriteengine$933                 spriteengine
     00001EB0  A$spriteengine$937                 spriteengine
     00001EB0  C$spriteengine.c$100$3_0$139       spriteengine
     00001EB1  A$spriteengine$938                 spriteengine
     00001EB4  A$spriteengine$939                 spriteengine
     00001EB7  A$spriteengine$941                 spriteengine
     00001EBA  A$spriteengine$942                 spriteengine
     00001EBB  A$spriteengine$943                 spriteengine
     00001EBD  A$spriteengine$944                 spriteengine
     00001EC0  A$spriteengine$945                 spriteengine
     00001EC1  A$spriteengine$946                 spriteengine
     00001EC4  A$spriteengine$947                 spriteengine
     00001EC5  A$spriteengine$948                 spriteengine
     00001EC8  A$spriteengine$949                 spriteengine
ASxxxx Linker V03.00 + NoICE + sdld,  page 89.
Hexadecimal  [32-Bits]

Area                                    Addr        Size        Decimal Bytes (Attributes)
--------------------------------        ----        ----        ------- ----- ------------
_CODE                               00000200    00006F18 =       28440. bytes (REL,CON)

      Value  Global                              Global Defined In Module
      -----  --------------------------------   ------------------------
     00001ECA  A$spriteengine$951                 spriteengine
     00001ECD  A$spriteengine$955                 spriteengine
     00001ED0  A$spriteengine$956                 spriteengine
     00001ED3  A$spriteengine$957                 spriteengine
     00001ED6  A$spriteengine$958                 spriteengine
     00001ED9  A$spriteengine$959                 spriteengine
     00001EDD  A$spriteengine$960                 spriteengine
     00001EE1  A$spriteengine$961                 spriteengine
     00001EE4  A$spriteengine$962                 spriteengine
     00001EE6  A$spriteengine$963                 spriteengine
     00001EE9  A$spriteengine$964                 spriteengine
     00001EEC  A$spriteengine$965                 spriteengine
     00001EEE  A$spriteengine$966                 spriteengine
     00001EF1  A$spriteengine$967                 spriteengine
     00001EF2  A$spriteengine$968                 spriteengine
     00001EF3  A$spriteengine$969                 spriteengine
     00001EF4  A$spriteengine$970                 spriteengine
     00001EF7  A$spriteengine$971                 spriteengine
     00001EF8  A$spriteengine$972                 spriteengine
     00001EF9  A$spriteengine$973                 spriteengine
     00001EFC  A$spriteengine$974                 spriteengine
     00001EFF  A$spriteengine$975                 spriteengine
     00001F02  A$spriteengine$976                 spriteengine
     00001F05  A$spriteengine$977                 spriteengine
     00001F06  A$spriteengine$978                 spriteengine
     00001F08  A$spriteengine$979                 spriteengine
     00001F0B  A$spriteengine$983                 spriteengine
     00001F0E  A$spriteengine$984                 spriteengine
     00001F11  A$spriteengine$985                 spriteengine
     00001F14  A$spriteengine$986                 spriteengine
     00001F15  A$spriteengine$987                 spriteengine
     00001F16  A$spriteengine$991                 spriteengine
     00001F16  C$spriteengine.c$106$2_0$138       spriteengine
     00001F19  A$spriteengine$992                 spriteengine
     00001F1C  A$spriteengine$993                 spriteengine
     00001F1D  A$spriteengine$994                 spriteengine
     00001F1E  A$spriteengine$995                 spriteengine
     00001F1F  A$spriteengine$996                 spriteengine
     00001F22  A$spriteengine$997                 spriteengine
     00001F25  A$spriteengine$998                 spriteengine
     00001F26  A$spriteengine$999                 spriteengine
     00001F27  A$spriteengine$1000                spriteengine
     00001F2A  A$spriteengine$1001                spriteengine
     00001F2D  A$spriteengine$1002                spriteengine
     00001F30  A$spriteengine$1003                spriteengine
     00001F31  A$spriteengine$1004                spriteengine
     00001F32  A$spriteengine$1005                spriteengine
     00001F35  A$spriteengine$1006                spriteengine
     00001F38  A$spriteengine$1007                spriteengine
     00001F3B  A$spriteengine$1008                spriteengine
     00001F3C  A$spriteengine$1009                spriteengine
ASxxxx Linker V03.00 + NoICE + sdld,  page 90.
Hexadecimal  [32-Bits]

Area                                    Addr        Size        Decimal Bytes (Attributes)
--------------------------------        ----        ----        ------- ----- ------------
_CODE                               00000200    00006F18 =       28440. bytes (REL,CON)

      Value  Global                              Global Defined In Module
      -----  --------------------------------   ------------------------
     00001F3D  A$spriteengine$1010                spriteengine
     00001F3E  A$spriteengine$1011                spriteengine
     00001F40  A$spriteengine$1012                spriteengine
     00001F41  A$spriteengine$1013                spriteengine
     00001F42  A$spriteengine$1014                spriteengine
     00001F44  A$spriteengine$1015                spriteengine
     00001F45  A$spriteengine$1016                spriteengine
     00001F46  A$spriteengine$1017                spriteengine
     00001F47  A$spriteengine$1018                spriteengine
     00001F48  A$spriteengine$1019                spriteengine
     00001F49  A$spriteengine$1020                spriteengine
     00001F4A  A$spriteengine$1021                spriteengine
     00001F4B  A$spriteengine$1022                spriteengine
     00001F4C  A$spriteengine$1023                spriteengine
     00001F4D  A$spriteengine$1024                spriteengine
     00001F4E  A$spriteengine$1025                spriteengine
     00001F51  A$spriteengine$1026                spriteengine
     00001F54  A$spriteengine$1027                spriteengine
     00001F55  A$spriteengine$1028                spriteengine
     00001F56  A$spriteengine$1029                spriteengine
     00001F57  A$spriteengine$1030                spriteengine
     00001F58  A$spriteengine$1031                spriteengine
     00001F59  A$spriteengine$1032                spriteengine
     00001F5A  A$spriteengine$1033                spriteengine
     00001F5B  A$spriteengine$1034                spriteengine
     00001F5C  A$spriteengine$1035                spriteengine
     00001F5D  A$spriteengine$1036                spriteengine
     00001F5E  A$spriteengine$1037                spriteengine
     00001F5F  A$spriteengine$1038                spriteengine
     00001F60  A$spriteengine$1039                spriteengine
     00001F61  A$spriteengine$1040                spriteengine
     00001F62  A$spriteengine$1041                spriteengine
     00001F65  A$spriteengine$1042                spriteengine
     00001F68  A$spriteengine$1043                spriteengine
     00001F69  A$spriteengine$1044                spriteengine
     00001F6A  A$spriteengine$1045                spriteengine
     00001F6B  A$spriteengine$1046                spriteengine
     00001F6E  A$spriteengine$1047                spriteengine
     00001F71  A$spriteengine$1048                spriteengine
     00001F72  A$spriteengine$1049                spriteengine
     00001F75  A$spriteengine$1050                spriteengine
     00001F76  A$spriteengine$1051                spriteengine
     00001F77  A$spriteengine$1055                spriteengine
     00001F77  C$spriteengine.c$104$4_0$140       spriteengine
     00001F78  A$spriteengine$1056                spriteengine
     00001F79  A$spriteengine$1057                spriteengine
     00001F7B  A$spriteengine$1061                spriteengine
     00001F7B  C$spriteengine.c$106$5_0$141       spriteengine
     00001F7C  A$spriteengine$1062                spriteengine
     00001F7D  A$spriteengine$1063                spriteengine
     00001F7E  A$spriteengine$1064                spriteengine
ASxxxx Linker V03.00 + NoICE + sdld,  page 91.
Hexadecimal  [32-Bits]

Area                                    Addr        Size        Decimal Bytes (Attributes)
--------------------------------        ----        ----        ------- ----- ------------
_CODE                               00000200    00006F18 =       28440. bytes (REL,CON)

      Value  Global                              Global Defined In Module
      -----  --------------------------------   ------------------------
     00001F81  A$spriteengine$1065                spriteengine
     00001F82  A$spriteengine$1069                spriteengine
     00001F83  A$spriteengine$1070                spriteengine
     00001F84  A$spriteengine$1071                spriteengine
     00001F85  A$spriteengine$1072                spriteengine
     00001F86  A$spriteengine$1073                spriteengine
     00001F87  A$spriteengine$1077                spriteengine
     00001F88  A$spriteengine$1078                spriteengine
     00001F89  A$spriteengine$1079                spriteengine
     00001F8A  A$spriteengine$1080                spriteengine
     00001F8B  A$spriteengine$1081                spriteengine
     00001F8C  A$spriteengine$1082                spriteengine
     00001F8D  A$spriteengine$1083                spriteengine
     00001F8E  A$spriteengine$1084                spriteengine
     00001F8F  A$spriteengine$1085                spriteengine
     00001F90  A$spriteengine$1086                spriteengine
     00001F91  A$spriteengine$1087                spriteengine
     00001F94  A$spriteengine$1088                spriteengine
     00001F95  A$spriteengine$1089                spriteengine
     00001F96  A$spriteengine$1090                spriteengine
     00001F97  A$spriteengine$1091                spriteengine
     00001F99  A$spriteengine$1092                spriteengine
     00001F9A  A$spriteengine$1093                spriteengine
     00001F9B  A$spriteengine$1094                spriteengine
     00001F9C  A$spriteengine$1095                spriteengine
     00001F9D  A$spriteengine$1096                spriteengine
     00001F9E  A$spriteengine$1097                spriteengine
     00001F9F  A$spriteengine$1098                spriteengine
     00001FA0  A$spriteengine$1099                spriteengine
     00001FA1  A$spriteengine$1100                spriteengine
     00001FA2  A$spriteengine$1101                spriteengine
     00001FA3  A$spriteengine$1102                spriteengine
     00001FA4  A$spriteengine$1103                spriteengine
     00001FA5  A$spriteengine$1104                spriteengine
     00001FA6  A$spriteengine$1105                spriteengine
     00001FA7  A$spriteengine$1106                spriteengine
     00001FA8  A$spriteengine$1107                spriteengine
     00001FA9  A$spriteengine$1108                spriteengine
     00001FAA  A$spriteengine$1109                spriteengine
     00001FAB  A$spriteengine$1110                spriteengine
     00001FAC  A$spriteengine$1111                spriteengine
     00001FAD  A$spriteengine$1112                spriteengine
     00001FAE  A$spriteengine$1113                spriteengine
     00001FAF  A$spriteengine$1114                spriteengine
     00001FB0  A$spriteengine$1115                spriteengine
     00001FB3  A$spriteengine$1116                spriteengine
     00001FB4  A$spriteengine$1117                spriteengine
     00001FB5  A$spriteengine$1118                spriteengine
     00001FB6  A$spriteengine$1119                spriteengine
     00001FB7  A$spriteengine$1120                spriteengine
     00001FB8  A$spriteengine$1121                spriteengine
ASxxxx Linker V03.00 + NoICE + sdld,  page 92.
Hexadecimal  [32-Bits]

Area                                    Addr        Size        Decimal Bytes (Attributes)
--------------------------------        ----        ----        ------- ----- ------------
_CODE                               00000200    00006F18 =       28440. bytes (REL,CON)

      Value  Global                              Global Defined In Module
      -----  --------------------------------   ------------------------
     00001FBA  A$spriteengine$1122                spriteengine
     00001FBB  A$spriteengine$1123                spriteengine
     00001FBC  A$spriteengine$1124                spriteengine
     00001FBD  A$spriteengine$1125                spriteengine
     00001FBE  A$spriteengine$1126                spriteengine
     00001FBF  A$spriteengine$1127                spriteengine
     00001FC0  A$spriteengine$1128                spriteengine
     00001FC1  A$spriteengine$1129                spriteengine
     00001FC2  A$spriteengine$1130                spriteengine
     00001FC3  A$spriteengine$1131                spriteengine
     00001FC4  A$spriteengine$1132                spriteengine
     00001FC5  A$spriteengine$1133                spriteengine
     00001FC6  A$spriteengine$1134                spriteengine
     00001FC7  A$spriteengine$1135                spriteengine
     00001FC8  A$spriteengine$1136                spriteengine
     00001FC9  A$spriteengine$1137                spriteengine
     00001FCA  A$spriteengine$1138                spriteengine
     00001FCB  A$spriteengine$1139                spriteengine
     00001FCC  A$spriteengine$1140                spriteengine
     00001FCD  A$spriteengine$1141                spriteengine
     00001FD0  A$spriteengine$1142                spriteengine
     00001FD1  A$spriteengine$1143                spriteengine
     00001FD2  A$spriteengine$1144                spriteengine
     00001FD5  A$spriteengine$1145                spriteengine
     00001FD8  A$spriteengine$1146                spriteengine
     00001FD9  A$spriteengine$1147                spriteengine
     00001FDA  A$spriteengine$1148                spriteengine
     00001FDB  A$spriteengine$1149                spriteengine
     00001FDC  A$spriteengine$1150                spriteengine
     00001FDF  A$spriteengine$1151                spriteengine
     00001FE0  A$spriteengine$1152                spriteengine
     00001FE1  A$spriteengine$1153                spriteengine
     00001FE2  A$spriteengine$1154                spriteengine
     00001FE3  A$spriteengine$1155                spriteengine
     00001FE6  A$spriteengine$1156                spriteengine
     00001FE9  A$spriteengine$1157                spriteengine
     00001FEA  A$spriteengine$1158                spriteengine
     00001FEB  A$spriteengine$1159                spriteengine
     00001FEC  A$spriteengine$1160                spriteengine
     00001FEF  A$spriteengine$1161                spriteengine
     00001FF2  A$spriteengine$1162                spriteengine
     00001FF3  A$spriteengine$1163                spriteengine
     00001FF4  A$spriteengine$1164                spriteengine
     00001FF6  A$spriteengine$1169                spriteengine
     00001FF6  C$spriteengine.c$111$5_0$142       spriteengine
     00001FF7  A$spriteengine$1170                spriteengine
     00001FF8  A$spriteengine$1171                spriteengine
     00001FF9  A$spriteengine$1172                spriteengine
     00001FFC  A$spriteengine$1173                spriteengine
     00001FFD  A$spriteengine$1177                spriteengine
     00001FFD  C$spriteengine.c$102$2_0$138       spriteengine
ASxxxx Linker V03.00 + NoICE + sdld,  page 93.
Hexadecimal  [32-Bits]

Area                                    Addr        Size        Decimal Bytes (Attributes)
--------------------------------        ----        ----        ------- ----- ------------
_CODE                               00000200    00006F18 =       28440. bytes (REL,CON)

      Value  Global                              Global Defined In Module
      -----  --------------------------------   ------------------------
     00001FFE  A$spriteengine$1178                spriteengine
     00001FFF  A$spriteengine$1179                spriteengine
     00002000  A$spriteengine$1180                spriteengine
     00002001  A$spriteengine$1181                spriteengine
     00002002  A$spriteengine$1185                spriteengine
     00002002  C$spriteengine.c$107$2_0$138       spriteengine
     00002003  A$spriteengine$1186                spriteengine
     00002004  A$spriteengine$1187                spriteengine
     00002005  A$spriteengine$1188                spriteengine
     00002006  A$spriteengine$1189                spriteengine
     00002007  A$spriteengine$1190                spriteengine
     00002008  A$spriteengine$1191                spriteengine
     00002009  A$spriteengine$1195                spriteengine
     00002009  C$spriteengine.c$112$5_0$142       spriteengine
     0000200A  A$spriteengine$1196                spriteengine
     0000200B  A$spriteengine$1197                spriteengine
     0000200C  A$spriteengine$1198                spriteengine
     0000200F  A$spriteengine$1199                spriteengine
     00002010  A$spriteengine$1200                spriteengine
     00002011  A$spriteengine$1201                spriteengine
     00002012  A$spriteengine$1202                spriteengine
     00002014  A$spriteengine$1203                spriteengine
     00002015  A$spriteengine$1204                spriteengine
     00002016  A$spriteengine$1205                spriteengine
     00002017  A$spriteengine$1206                spriteengine
     00002018  A$spriteengine$1207                spriteengine
     00002019  A$spriteengine$1208                spriteengine
     0000201A  A$spriteengine$1209                spriteengine
     0000201B  A$spriteengine$1210                spriteengine
     0000201C  A$spriteengine$1211                spriteengine
     0000201D  A$spriteengine$1212                spriteengine
     0000201E  A$spriteengine$1213                spriteengine
     0000201F  A$spriteengine$1214                spriteengine
     00002020  A$spriteengine$1215                spriteengine
     00002021  A$spriteengine$1216                spriteengine
     00002022  A$spriteengine$1217                spriteengine
     00002023  A$spriteengine$1218                spriteengine
     00002024  A$spriteengine$1219                spriteengine
     00002025  A$spriteengine$1220                spriteengine
     00002026  A$spriteengine$1221                spriteengine
     00002029  A$spriteengine$1222                spriteengine
     0000202A  A$spriteengine$1223                spriteengine
     0000202B  A$spriteengine$1224                spriteengine
     0000202C  A$spriteengine$1225                spriteengine
     0000202D  A$spriteengine$1226                spriteengine
     0000202E  A$spriteengine$1227                spriteengine
     00002031  A$spriteengine$1228                spriteengine
     00002032  A$spriteengine$1229                spriteengine
     00002033  A$spriteengine$1230                spriteengine
     00002034  A$spriteengine$1231                spriteengine
     00002035  A$spriteengine$1232                spriteengine
ASxxxx Linker V03.00 + NoICE + sdld,  page 94.
Hexadecimal  [32-Bits]

Area                                    Addr        Size        Decimal Bytes (Attributes)
--------------------------------        ----        ----        ------- ----- ------------
_CODE                               00000200    00006F18 =       28440. bytes (REL,CON)

      Value  Global                              Global Defined In Module
      -----  --------------------------------   ------------------------
     00002036  A$spriteengine$1233                spriteengine
     00002038  A$spriteengine$1234                spriteengine
     00002039  A$spriteengine$1235                spriteengine
     0000203A  A$spriteengine$1236                spriteengine
     0000203B  A$spriteengine$1237                spriteengine
     0000203C  A$spriteengine$1238                spriteengine
     0000203D  A$spriteengine$1239                spriteengine
     0000203E  A$spriteengine$1240                spriteengine
     0000203F  A$spriteengine$1241                spriteengine
     00002040  A$spriteengine$1242                spriteengine
     00002041  A$spriteengine$1243                spriteengine
     00002042  A$spriteengine$1244                spriteengine
     00002043  A$spriteengine$1245                spriteengine
     00002044  A$spriteengine$1246                spriteengine
     00002045  A$spriteengine$1247                spriteengine
     00002046  A$spriteengine$1248                spriteengine
     00002047  A$spriteengine$1249                spriteengine
     00002048  A$spriteengine$1250                spriteengine
     00002049  A$spriteengine$1251                spriteengine
     0000204A  A$spriteengine$1252                spriteengine
     0000204B  A$spriteengine$1253                spriteengine
     0000204E  A$spriteengine$1254                spriteengine
     0000204F  A$spriteengine$1255                spriteengine
     00002050  A$spriteengine$1256                spriteengine
     00002053  A$spriteengine$1257                spriteengine
     00002056  A$spriteengine$1258                spriteengine
     00002057  A$spriteengine$1259                spriteengine
     00002058  A$spriteengine$1260                spriteengine
     00002059  A$spriteengine$1261                spriteengine
     0000205A  A$spriteengine$1262                spriteengine
     0000205D  A$spriteengine$1263                spriteengine
     0000205E  A$spriteengine$1264                spriteengine
     0000205F  A$spriteengine$1265                spriteengine
     00002060  A$spriteengine$1266                spriteengine
     00002061  A$spriteengine$1267                spriteengine
     00002064  A$spriteengine$1268                spriteengine
     00002067  A$spriteengine$1269                spriteengine
     00002068  A$spriteengine$1270                spriteengine
     00002069  A$spriteengine$1271                spriteengine
     0000206A  A$spriteengine$1272                spriteengine
     0000206D  A$spriteengine$1273                spriteengine
     00002070  A$spriteengine$1274                spriteengine
     00002071  A$spriteengine$1275                spriteengine
     00002072  A$spriteengine$1280                spriteengine
     00002072  C$spriteengine.c$114$4_0$140       spriteengine
     00002073  A$spriteengine$1281                spriteengine
     00002074  A$spriteengine$1282                spriteengine
     00002075  A$spriteengine$1283                spriteengine
     00002076  A$spriteengine$1284                spriteengine
     00002077  A$spriteengine$1285                spriteengine
     0000207A  A$spriteengine$1286                spriteengine
ASxxxx Linker V03.00 + NoICE + sdld,  page 95.
Hexadecimal  [32-Bits]

Area                                    Addr        Size        Decimal Bytes (Attributes)
--------------------------------        ----        ----        ------- ----- ------------
_CODE                               00000200    00006F18 =       28440. bytes (REL,CON)

      Value  Global                              Global Defined In Module
      -----  --------------------------------   ------------------------
     0000207B  A$spriteengine$1287                spriteengine
     0000207D  A$spriteengine$1292                spriteengine
     0000207D  C$spriteengine.c$100$2_0$138       spriteengine
     00002080  A$spriteengine$1293                spriteengine
     00002083  A$spriteengine$1294                spriteengine
     00002086  A$spriteengine$1295                spriteengine
     00002089  A$spriteengine$1300                spriteengine
     0000208B  A$spriteengine$1301                spriteengine
     0000208D  A$spriteengine$1306                spriteengine
     0000208D  C$spriteengine.c$117$2_0$138       spriteengine
     0000208D  XG$updateTiles$0$0                 spriteengine
     0000208E  A$spriteengine$1316                spriteengine
     0000208E  C$spriteengine.c$119$2_0$143       spriteengine
     0000208E  G$drawEntities$0$0                 spriteengine
     0000208E  _drawEntities                      spriteengine
     00002090  A$spriteengine$1317                spriteengine
     00002094  A$spriteengine$1318                spriteengine
     00002096  A$spriteengine$1319                spriteengine
     00002099  A$spriteengine$1320                spriteengine
     0000209A  A$spriteengine$1321                spriteengine
     0000209B  A$spriteengine$1325                spriteengine
     0000209B  C$spriteengine.c$122$1_0$143       spriteengine
     0000209E  A$spriteengine$1329                spriteengine
     0000209E  C$spriteengine.c$123$3_0$145       spriteengine
     0000209F  A$spriteengine$1330                spriteengine
     000020A2  A$spriteengine$1331                spriteengine
     000020A5  A$spriteengine$1333                spriteengine
     000020A8  A$spriteengine$1334                spriteengine
     000020A9  A$spriteengine$1335                spriteengine
     000020AB  A$spriteengine$1336                spriteengine
     000020AE  A$spriteengine$1337                spriteengine
     000020AF  A$spriteengine$1338                spriteengine
     000020B2  A$spriteengine$1339                spriteengine
     000020B3  A$spriteengine$1340                spriteengine
     000020B6  A$spriteengine$1341                spriteengine
     000020B8  A$spriteengine$1343                spriteengine
     000020BB  A$spriteengine$1347                spriteengine
     000020BB  C$spriteengine.c$125$3_0$145       spriteengine
     000020BE  A$spriteengine$1348                spriteengine
     000020C1  A$spriteengine$1349                spriteengine
     000020C4  A$spriteengine$1350                spriteengine
     000020C7  A$spriteengine$1351                spriteengine
     000020CB  A$spriteengine$1352                spriteengine
     000020CF  A$spriteengine$1353                spriteengine
     000020D2  A$spriteengine$1354                spriteengine
     000020D4  A$spriteengine$1355                spriteengine
     000020D7  A$spriteengine$1356                spriteengine
     000020DA  A$spriteengine$1357                spriteengine
     000020DC  A$spriteengine$1358                spriteengine
     000020DF  A$spriteengine$1359                spriteengine
     000020E2  A$spriteengine$1360                spriteengine
ASxxxx Linker V03.00 + NoICE + sdld,  page 96.
Hexadecimal  [32-Bits]

Area                                    Addr        Size        Decimal Bytes (Attributes)
--------------------------------        ----        ----        ------- ----- ------------
_CODE                               00000200    00006F18 =       28440. bytes (REL,CON)

      Value  Global                              Global Defined In Module
      -----  --------------------------------   ------------------------
     000020E5  A$spriteengine$1361                spriteengine
     000020E6  A$spriteengine$1362                spriteengine
     000020E7  A$spriteengine$1363                spriteengine
     000020E8  A$spriteengine$1364                spriteengine
     000020EB  A$spriteengine$1365                spriteengine
     000020EC  A$spriteengine$1366                spriteengine
     000020ED  A$spriteengine$1367                spriteengine
     000020F0  A$spriteengine$1368                spriteengine
     000020F1  A$spriteengine$1369                spriteengine
     000020F4  A$spriteengine$1373                spriteengine
     000020F7  A$spriteengine$1374                spriteengine
     000020FA  A$spriteengine$1375                spriteengine
     000020FD  A$spriteengine$1376                spriteengine
     00002100  A$spriteengine$1377                spriteengine
     00002101  A$spriteengine$1378                spriteengine
     00002104  A$spriteengine$1379                spriteengine
     00002107  A$spriteengine$1381                spriteengine
     0000210A  A$spriteengine$1382                spriteengine
     0000210D  A$spriteengine$1383                spriteengine
     0000210E  A$spriteengine$1384                spriteengine
     0000210F  A$spriteengine$1385                spriteengine
     00002110  A$spriteengine$1386                spriteengine
     00002111  A$spriteengine$1387                spriteengine
     00002112  A$spriteengine$1388                spriteengine
     00002113  A$spriteengine$1389                spriteengine
     00002114  A$spriteengine$1390                spriteengine
     00002115  A$spriteengine$1391                spriteengine
     00002116  A$spriteengine$1392                spriteengine
     00002117  A$spriteengine$1393                spriteengine
     00002118  A$spriteengine$1394                spriteengine
     00002119  A$spriteengine$1395                spriteengine
     0000211A  A$spriteengine$1396                spriteengine
     0000211D  A$spriteengine$1397                spriteengine
     0000211E  A$spriteengine$1398                spriteengine
     0000211F  A$spriteengine$1399                spriteengine
     00002120  A$spriteengine$1400                spriteengine
     00002122  A$spriteengine$1401                spriteengine
     00002123  A$spriteengine$1402                spriteengine
     00002124  A$spriteengine$1403                spriteengine
     00002125  A$spriteengine$1404                spriteengine
     00002126  A$spriteengine$1405                spriteengine
     00002127  A$spriteengine$1406                spriteengine
     00002128  A$spriteengine$1407                spriteengine
     00002129  A$spriteengine$1408                spriteengine
     0000212A  A$spriteengine$1409                spriteengine
     0000212B  A$spriteengine$1410                spriteengine
     0000212C  A$spriteengine$1411                spriteengine
     0000212D  A$spriteengine$1412                spriteengine
     0000212E  A$spriteengine$1413                spriteengine
     0000212F  A$spriteengine$1414                spriteengine
     00002130  A$spriteengine$1415                spriteengine
ASxxxx Linker V03.00 + NoICE + sdld,  page 97.
Hexadecimal  [32-Bits]

Area                                    Addr        Size        Decimal Bytes (Attributes)
--------------------------------        ----        ----        ------- ----- ------------
_CODE                               00000200    00006F18 =       28440. bytes (REL,CON)

      Value  Global                              Global Defined In Module
      -----  --------------------------------   ------------------------
     00002131  A$spriteengine$1416                spriteengine
     00002132  A$spriteengine$1417                spriteengine
     00002133  A$spriteengine$1418                spriteengine
     00002134  A$spriteengine$1419                spriteengine
     00002135  A$spriteengine$1420                spriteengine
     00002136  A$spriteengine$1421                spriteengine
     00002137  A$spriteengine$1422                spriteengine
     00002138  A$spriteengine$1423                spriteengine
     00002139  A$spriteengine$1424                spriteengine
     0000213C  A$spriteengine$1425                spriteengine
     0000213D  A$spriteengine$1426                spriteengine
     0000213E  A$spriteengine$1427                spriteengine
     0000213F  A$spriteengine$1428                spriteengine
     00002140  A$spriteengine$1429                spriteengine
     00002141  A$spriteengine$1430                spriteengine
     00002143  A$spriteengine$1431                spriteengine
     00002144  A$spriteengine$1432                spriteengine
     00002145  A$spriteengine$1433                spriteengine
     00002146  A$spriteengine$1434                spriteengine
     00002147  A$spriteengine$1435                spriteengine
     00002148  A$spriteengine$1436                spriteengine
     00002149  A$spriteengine$1437                spriteengine
     0000214A  A$spriteengine$1438                spriteengine
     0000214B  A$spriteengine$1439                spriteengine
     0000214C  A$spriteengine$1440                spriteengine
     0000214D  A$spriteengine$1441                spriteengine
     0000214E  A$spriteengine$1442                spriteengine
     0000214F  A$spriteengine$1443                spriteengine
     00002150  A$spriteengine$1444                spriteengine
     00002151  A$spriteengine$1445                spriteengine
     00002152  A$spriteengine$1446                spriteengine
     00002153  A$spriteengine$1447                spriteengine
     00002155  A$spriteengine$1448                spriteengine
     00002158  A$spriteengine$1449                spriteengine
     00002159  A$spriteengine$1450                spriteengine
     0000215C  A$spriteengine$1451                spriteengine
     0000215D  A$spriteengine$1452                spriteengine
     00002160  A$spriteengine$1453                spriteengine
     00002162  A$spriteengine$1455                spriteengine
     00002165  A$spriteengine$1459                spriteengine
     00002165  C$spriteengine.c$128$6_0$148       spriteengine
     00002166  A$spriteengine$1460                spriteengine
     00002167  A$spriteengine$1461                spriteengine
     00002168  A$spriteengine$1462                spriteengine
     0000216B  A$spriteengine$1463                spriteengine
     0000216C  A$spriteengine$1464                spriteengine
     0000216D  A$spriteengine$1465                spriteengine
     0000216E  A$spriteengine$1466                spriteengine
     00002171  A$spriteengine$1467                spriteengine
     00002172  A$spriteengine$1468                spriteengine
     00002173  A$spriteengine$1469                spriteengine
ASxxxx Linker V03.00 + NoICE + sdld,  page 98.
Hexadecimal  [32-Bits]

Area                                    Addr        Size        Decimal Bytes (Attributes)
--------------------------------        ----        ----        ------- ----- ------------
_CODE                               00000200    00006F18 =       28440. bytes (REL,CON)

      Value  Global                              Global Defined In Module
      -----  --------------------------------   ------------------------
     00002176  A$spriteengine$1470                spriteengine
     00002179  A$spriteengine$1471                spriteengine
     0000217A  A$spriteengine$1472                spriteengine
     0000217B  A$spriteengine$1473                spriteengine
     0000217E  A$spriteengine$1474                spriteengine
     00002181  A$spriteengine$1475                spriteengine
     00002182  A$spriteengine$1476                spriteengine
     00002183  A$spriteengine$1477                spriteengine
     00002184  A$spriteengine$1478                spriteengine
     00002185  A$spriteengine$1479                spriteengine
     00002186  A$spriteengine$1480                spriteengine
     00002187  A$spriteengine$1481                spriteengine
     00002188  A$spriteengine$1482                spriteengine
     00002189  A$spriteengine$1483                spriteengine
     0000218B  A$spriteengine$1484                spriteengine
     0000218E  A$spriteengine$1485                spriteengine
     00002191  A$spriteengine$1486                spriteengine
     00002192  A$spriteengine$1487                spriteengine
     00002195  A$spriteengine$1488                spriteengine
     00002198  A$spriteengine$1489                spriteengine
     00002199  A$spriteengine$1490                spriteengine
     0000219A  A$spriteengine$1491                spriteengine
     0000219B  A$spriteengine$1492                spriteengine
     0000219C  A$spriteengine$1493                spriteengine
     0000219D  A$spriteengine$1494                spriteengine
     0000219E  A$spriteengine$1495                spriteengine
     0000219F  A$spriteengine$1496                spriteengine
     000021A2  A$spriteengine$1497                spriteengine
     000021A3  A$spriteengine$1498                spriteengine
     000021A4  A$spriteengine$1499                spriteengine
     000021A5  A$spriteengine$1500                spriteengine
     000021A6  A$spriteengine$1501                spriteengine
     000021A7  A$spriteengine$1502                spriteengine
     000021AA  A$spriteengine$1503                spriteengine
     000021AB  A$spriteengine$1504                spriteengine
     000021AE  A$spriteengine$1505                spriteengine
     000021B1  A$spriteengine$1506                spriteengine
     000021B2  A$spriteengine$1507                spriteengine
     000021B3  A$spriteengine$1508                spriteengine
     000021B4  A$spriteengine$1509                spriteengine
     000021B5  A$spriteengine$1510                spriteengine
     000021B6  A$spriteengine$1511                spriteengine
     000021B9  A$spriteengine$1512                spriteengine
     000021BC  A$spriteengine$1513                spriteengine
     000021BD  A$spriteengine$1514                spriteengine
     000021C0  A$spriteengine$1515                spriteengine
     000021C1  A$spriteengine$1516                spriteengine
     000021C2  A$spriteengine$1517                spriteengine
     000021C3  A$spriteengine$1518                spriteengine
     000021C4  A$spriteengine$1519                spriteengine
     000021C7  A$spriteengine$1520                spriteengine
ASxxxx Linker V03.00 + NoICE + sdld,  page 99.
Hexadecimal  [32-Bits]

Area                                    Addr        Size        Decimal Bytes (Attributes)
--------------------------------        ----        ----        ------- ----- ------------
_CODE                               00000200    00006F18 =       28440. bytes (REL,CON)

      Value  Global                              Global Defined In Module
      -----  --------------------------------   ------------------------
     000021C8  A$spriteengine$1521                spriteengine
     000021C9  A$spriteengine$1525                spriteengine
     000021C9  C$spriteengine.c$126$5_0$147       spriteengine
     000021CC  A$spriteengine$1526                spriteengine
     000021CF  A$spriteengine$1527                spriteengine
     000021D2  A$spriteengine$1528                spriteengine
     000021D5  A$spriteengine$1533                spriteengine
     000021D5  C$spriteengine.c$133$1_0$143       spriteengine
     000021D8  A$spriteengine$1534                spriteengine
     000021DB  A$spriteengine$1535                spriteengine
     000021DE  A$spriteengine$1536                spriteengine
     000021E1  A$spriteengine$1537                spriteengine
     000021E2  A$spriteengine$1538                spriteengine
     000021E5  A$spriteengine$1539                spriteengine
     000021E8  A$spriteengine$1541                spriteengine
     000021EB  A$spriteengine$1542                spriteengine
     000021EE  A$spriteengine$1543                spriteengine
     000021EF  A$spriteengine$1544                spriteengine
     000021F2  A$spriteengine$1545                spriteengine
     000021F3  A$spriteengine$1546                spriteengine
     000021F4  A$spriteengine$1547                spriteengine
     000021F7  A$spriteengine$1548                spriteengine
     000021FA  A$spriteengine$1549                spriteengine
     000021FD  A$spriteengine$1550                spriteengine
     000021FE  A$spriteengine$1551                spriteengine
     000021FF  A$spriteengine$1552                spriteengine
     00002200  A$spriteengine$1553                spriteengine
     00002201  A$spriteengine$1554                spriteengine
     00002202  A$spriteengine$1555                spriteengine
     00002205  A$spriteengine$1556                spriteengine
     00002208  A$spriteengine$1557                spriteengine
     0000220B  A$spriteengine$1558                spriteengine
     0000220C  A$spriteengine$1559                spriteengine
     0000220D  A$spriteengine$1560                spriteengine
     0000220F  A$spriteengine$1561                spriteengine
     00002210  A$spriteengine$1562                spriteengine
     00002211  A$spriteengine$1563                spriteengine
     00002212  A$spriteengine$1564                spriteengine
     00002213  A$spriteengine$1565                spriteengine
     00002214  A$spriteengine$1566                spriteengine
     00002215  A$spriteengine$1567                spriteengine
     00002216  A$spriteengine$1568                spriteengine
     00002217  A$spriteengine$1569                spriteengine
     00002218  A$spriteengine$1570                spriteengine
     00002219  A$spriteengine$1571                spriteengine
     0000221A  A$spriteengine$1572                spriteengine
     0000221B  A$spriteengine$1573                spriteengine
     0000221C  A$spriteengine$1574                spriteengine
     0000221D  A$spriteengine$1575                spriteengine
     0000221E  A$spriteengine$1576                spriteengine
     0000221F  A$spriteengine$1577                spriteengine
ASxxxx Linker V03.00 + NoICE + sdld,  page 100.
Hexadecimal  [32-Bits]

Area                                    Addr        Size        Decimal Bytes (Attributes)
--------------------------------        ----        ----        ------- ----- ------------
_CODE                               00000200    00006F18 =       28440. bytes (REL,CON)

      Value  Global                              Global Defined In Module
      -----  --------------------------------   ------------------------
     00002222  A$spriteengine$1578                spriteengine
     00002223  A$spriteengine$1579                spriteengine
     00002224  A$spriteengine$1580                spriteengine
     00002227  A$spriteengine$1581                spriteengine
     0000222A  A$spriteengine$1582                spriteengine
     0000222D  A$spriteengine$1583                spriteengine
     0000222E  A$spriteengine$1584                spriteengine
     0000222F  A$spriteengine$1585                spriteengine
     00002231  A$spriteengine$1586                spriteengine
     00002232  A$spriteengine$1587                spriteengine
     00002233  A$spriteengine$1588                spriteengine
     00002234  A$spriteengine$1589                spriteengine
     00002235  A$spriteengine$1590                spriteengine
     00002236  A$spriteengine$1591                spriteengine
     00002237  A$spriteengine$1592                spriteengine
     00002238  A$spriteengine$1593                spriteengine
     00002239  A$spriteengine$1594                spriteengine
     0000223A  A$spriteengine$1595                spriteengine
     0000223B  A$spriteengine$1596                spriteengine
     0000223C  A$spriteengine$1597                spriteengine
     0000223D  A$spriteengine$1598                spriteengine
     0000223E  A$spriteengine$1599                spriteengine
     0000223F  A$spriteengine$1600                spriteengine
     00002240  A$spriteengine$1601                spriteengine
     00002242  A$spriteengine$1602                spriteengine
     00002245  A$spriteengine$1603                spriteengine
     00002246  A$spriteengine$1604                spriteengine
     00002249  A$spriteengine$1605                spriteengine
     0000224A  A$spriteengine$1606                spriteengine
     0000224D  A$spriteengine$1607                spriteengine
     0000224F  A$spriteengine$1609                spriteengine
     00002252  A$spriteengine$1613                spriteengine
     00002252  C$spriteengine.c$135$6_0$151       spriteengine
     00002255  A$spriteengine$1614                spriteengine
     00002258  A$spriteengine$1615                spriteengine
     0000225B  A$spriteengine$1616                spriteengine
     0000225C  A$spriteengine$1617                spriteengine
     0000225D  A$spriteengine$1618                spriteengine
     00002260  A$spriteengine$1619                spriteengine
     00002261  A$spriteengine$1620                spriteengine
     00002262  A$spriteengine$1621                spriteengine
     00002265  A$spriteengine$1622                spriteengine
     00002268  A$spriteengine$1623                spriteengine
     00002269  A$spriteengine$1624                spriteengine
     0000226C  A$spriteengine$1625                spriteengine
     0000226F  A$spriteengine$1626                spriteengine
     00002272  A$spriteengine$1627                spriteengine
     00002275  A$spriteengine$1628                spriteengine
     00002276  A$spriteengine$1629                spriteengine
     00002277  A$spriteengine$1630                spriteengine
     00002278  A$spriteengine$1631                spriteengine
ASxxxx Linker V03.00 + NoICE + sdld,  page 101.
Hexadecimal  [32-Bits]

Area                                    Addr        Size        Decimal Bytes (Attributes)
--------------------------------        ----        ----        ------- ----- ------------
_CODE                               00000200    00006F18 =       28440. bytes (REL,CON)

      Value  Global                              Global Defined In Module
      -----  --------------------------------   ------------------------
     00002279  A$spriteengine$1632                spriteengine
     0000227C  A$spriteengine$1633                spriteengine
     0000227F  A$spriteengine$1634                spriteengine
     00002282  A$spriteengine$1635                spriteengine
     00002285  A$spriteengine$1636                spriteengine
     00002288  A$spriteengine$1637                spriteengine
     0000228B  A$spriteengine$1638                spriteengine
     0000228E  A$spriteengine$1639                spriteengine
     00002291  A$spriteengine$1640                spriteengine
     00002294  A$spriteengine$1641                spriteengine
     00002297  A$spriteengine$1642                spriteengine
     00002298  A$spriteengine$1643                spriteengine
     0000229B  A$spriteengine$1644                spriteengine
     0000229E  A$spriteengine$1645                spriteengine
     000022A2  A$spriteengine$1646                spriteengine
     000022A5  A$spriteengine$1647                spriteengine
     000022A8  A$spriteengine$1648                spriteengine
     000022AB  A$spriteengine$1649                spriteengine
     000022AE  A$spriteengine$1650                spriteengine
     000022B1  A$spriteengine$1651                spriteengine
     000022B4  A$spriteengine$1652                spriteengine
     000022B7  A$spriteengine$1653                spriteengine
     000022BA  A$spriteengine$1654                spriteengine
     000022BD  A$spriteengine$1655                spriteengine
     000022C0  A$spriteengine$1656                spriteengine
     000022C3  A$spriteengine$1657                spriteengine
     000022C6  A$spriteengine$1658                spriteengine
     000022C9  A$spriteengine$1659                spriteengine
     000022CA  A$spriteengine$1660                spriteengine
     000022CB  A$spriteengine$1661                spriteengine
     000022CE  A$spriteengine$1662                spriteengine
     000022D1  A$spriteengine$1663                spriteengine
     000022D4  A$spriteengine$1664                spriteengine
     000022D7  A$spriteengine$1665                spriteengine
     000022DA  A$spriteengine$1666                spriteengine
     000022DB  A$spriteengine$1667                spriteengine
     000022DC  A$spriteengine$1668                spriteengine
     000022DD  A$spriteengine$1669                spriteengine
     000022DE  A$spriteengine$1670                spriteengine
     000022DF  A$spriteengine$1671                spriteengine
     000022E2  A$spriteengine$1672                spriteengine
     000022E5  A$spriteengine$1673                spriteengine
     000022E8  A$spriteengine$1674                spriteengine
     000022EB  A$spriteengine$1675                spriteengine
     000022EE  A$spriteengine$1676                spriteengine
     000022F1  A$spriteengine$1677                spriteengine
     000022F4  A$spriteengine$1678                spriteengine
     000022F7  A$spriteengine$1679                spriteengine
     000022FA  A$spriteengine$1680                spriteengine
     000022FD  A$spriteengine$1681                spriteengine
     000022FE  A$spriteengine$1682                spriteengine
ASxxxx Linker V03.00 + NoICE + sdld,  page 102.
Hexadecimal  [32-Bits]

Area                                    Addr        Size        Decimal Bytes (Attributes)
--------------------------------        ----        ----        ------- ----- ------------
_CODE                               00000200    00006F18 =       28440. bytes (REL,CON)

      Value  Global                              Global Defined In Module
      -----  --------------------------------   ------------------------
     000022FF  A$spriteengine$1683                spriteengine
     00002300  A$spriteengine$1684                spriteengine
     00002301  A$spriteengine$1685                spriteengine
     00002304  A$spriteengine$1686                spriteengine
     00002307  A$spriteengine$1687                spriteengine
     0000230A  A$spriteengine$1688                spriteengine
     0000230B  A$spriteengine$1689                spriteengine
     0000230C  A$spriteengine$1690                spriteengine
     0000230F  A$spriteengine$1691                spriteengine
     00002312  A$spriteengine$1692                spriteengine
     00002315  A$spriteengine$1693                spriteengine
     00002318  A$spriteengine$1694                spriteengine
     0000231B  A$spriteengine$1695                spriteengine
     0000231E  A$spriteengine$1696                spriteengine
     0000231F  A$spriteengine$1697                spriteengine
     00002322  A$spriteengine$1698                spriteengine
     00002325  A$spriteengine$1699                spriteengine
     00002326  A$spriteengine$1700                spriteengine
     00002329  A$spriteengine$1701                spriteengine
     0000232A  A$spriteengine$1702                spriteengine
     0000232B  A$spriteengine$1706                spriteengine
     0000232B  C$spriteengine.c$133$5_0$150       spriteengine
     0000232E  A$spriteengine$1707                spriteengine
     00002331  A$spriteengine$1708                spriteengine
     00002334  A$spriteengine$1709                spriteengine
     00002337  A$spriteengine$1714                spriteengine
     00002337  C$spriteengine.c$123$2_0$144       spriteengine
     0000233A  A$spriteengine$1715                spriteengine
     0000233D  A$spriteengine$1716                spriteengine
     00002340  A$spriteengine$1717                spriteengine
     00002343  A$spriteengine$1722                spriteengine
     00002343  C$spriteengine.c$139$1_0$143       spriteengine
     00002346  A$spriteengine$1726                spriteengine
     00002348  A$spriteengine$1727                spriteengine
     0000234A  A$spriteengine$1732                spriteengine
     0000234A  C$spriteengine.c$140$1_0$143       spriteengine
     0000234A  XG$drawEntities$0$0                spriteengine
     0000234B  A$spriteengine$1742                spriteengine
     0000234B  C$spriteengine.c$142$1_0$153       spriteengine
     0000234B  G$move_entity$0$0                  spriteengine
     0000234B  _move_entity                       spriteengine
     0000234D  A$spriteengine$1743                spriteengine
     00002351  A$spriteengine$1744                spriteengine
     00002353  A$spriteengine$1748                spriteengine
     00002353  C$spriteengine.c$144$1_0$153       spriteengine
     00002356  A$spriteengine$1749                spriteengine
     00002359  A$spriteengine$1750                spriteengine
     0000235B  A$spriteengine$1751                spriteengine
     0000235C  A$spriteengine$1752                spriteengine
     0000235D  A$spriteengine$1753                spriteengine
     0000235E  A$spriteengine$1754                spriteengine
ASxxxx Linker V03.00 + NoICE + sdld,  page 103.
Hexadecimal  [32-Bits]

Area                                    Addr        Size        Decimal Bytes (Attributes)
--------------------------------        ----        ----        ------- ----- ------------
_CODE                               00000200    00006F18 =       28440. bytes (REL,CON)

      Value  Global                              Global Defined In Module
      -----  --------------------------------   ------------------------
     0000235F  A$spriteengine$1755                spriteengine
     00002360  A$spriteengine$1756                spriteengine
     00002361  A$spriteengine$1757                spriteengine
     00002362  A$spriteengine$1758                spriteengine
     00002363  A$spriteengine$1759                spriteengine
     00002364  A$spriteengine$1760                spriteengine
     00002365  A$spriteengine$1761                spriteengine
     00002366  A$spriteengine$1762                spriteengine
     00002369  A$spriteengine$1763                spriteengine
     0000236A  A$spriteengine$1767                spriteengine
     0000236A  C$spriteengine.c$145$1_0$153       spriteengine
     0000236B  A$spriteengine$1768                spriteengine
     0000236C  A$spriteengine$1769                spriteengine
     0000236D  A$spriteengine$1770                spriteengine
     0000236E  A$spriteengine$1771                spriteengine
     0000236F  A$spriteengine$1772                spriteengine
     00002370  A$spriteengine$1773                spriteengine
     00002371  A$spriteengine$1774                spriteengine
     00002372  A$spriteengine$1775                spriteengine
     00002373  A$spriteengine$1776                spriteengine
     00002376  A$spriteengine$1777                spriteengine
     00002377  A$spriteengine$1781                spriteengine
     00002379  A$spriteengine$1786                spriteengine
     00002379  C$spriteengine.c$146$1_0$153       spriteengine
     00002379  XG$move_entity$0$0                 spriteengine
     0000237A  A$soundengine$79                   soundengine
     0000237A  C$soundengine.c$11$0_0$95          soundengine
     0000237A  C$soundengine.c$13$1_0$95          soundengine
     0000237A  G$play_logo_music$0$0              soundengine
     0000237A  _play_logo_music                   soundengine
     0000237C  A$soundengine$80                   soundengine
     0000237D  A$soundengine$81                   soundengine
     0000237E  A$soundengine$82                   soundengine
     00002381  A$soundengine$83                   soundengine
     00002382  A$soundengine$87                   soundengine
     00002382  C$soundengine.c$14$1_0$95          soundengine
     00002385  A$soundengine$88                   soundengine
     00002387  A$soundengine$92                   soundengine
     00002387  C$soundengine.c$15$1_0$95          soundengine
     0000238A  A$soundengine$93                   soundengine
     0000238B  A$soundengine$94                   soundengine
     0000238E  A$soundengine$95                   soundengine
     0000238F  A$soundengine$103                  soundengine
     0000238F  C$soundengine.c$16$1_0$95          soundengine
     0000238F  XG$play_logo_music$0$0             soundengine
     00002390  A$soundengine$116                  soundengine
     00002390  C$soundengine.c$18$1_0$96          soundengine
     00002390  C$soundengine.c$20$1_0$96          soundengine
     00002390  G$play_presentation_music$0$0      soundengine
     00002390  _play_presentation_music           soundengine
     00002392  A$soundengine$117                  soundengine
ASxxxx Linker V03.00 + NoICE + sdld,  page 104.
Hexadecimal  [32-Bits]

Area                                    Addr        Size        Decimal Bytes (Attributes)
--------------------------------        ----        ----        ------- ----- ------------
_CODE                               00000200    00006F18 =       28440. bytes (REL,CON)

      Value  Global                              Global Defined In Module
      -----  --------------------------------   ------------------------
     00002393  A$soundengine$118                  soundengine
     00002394  A$soundengine$119                  soundengine
     00002397  A$soundengine$120                  soundengine
     00002398  A$soundengine$124                  soundengine
     00002398  C$soundengine.c$21$1_0$96          soundengine
     0000239B  A$soundengine$125                  soundengine
     0000239D  A$soundengine$129                  soundengine
     0000239D  C$soundengine.c$22$1_0$96          soundengine
     000023A0  A$soundengine$130                  soundengine
     000023A1  A$soundengine$131                  soundengine
     000023A4  A$soundengine$132                  soundengine
     000023A5  A$soundengine$140                  soundengine
     000023A5  C$soundengine.c$23$1_0$96          soundengine
     000023A5  XG$play_presentation_music$0$0     soundengine
     000023A6  A$soundengine$153                  soundengine
     000023A6  C$soundengine.c$25$1_0$97          soundengine
     000023A6  C$soundengine.c$27$1_0$97          soundengine
     000023A6  G$play_game_music$0$0              soundengine
     000023A6  _play_game_music                   soundengine
     000023A8  A$soundengine$154                  soundengine
     000023A9  A$soundengine$155                  soundengine
     000023AA  A$soundengine$156                  soundengine
     000023AD  A$soundengine$157                  soundengine
     000023AE  A$soundengine$161                  soundengine
     000023AE  C$soundengine.c$28$1_0$97          soundengine
     000023B1  A$soundengine$162                  soundengine
     000023B3  A$soundengine$166                  soundengine
     000023B3  C$soundengine.c$29$1_0$97          soundengine
     000023B6  A$soundengine$167                  soundengine
     000023B7  A$soundengine$168                  soundengine
     000023BA  A$soundengine$169                  soundengine
     000023BB  A$soundengine$177                  soundengine
     000023BB  C$soundengine.c$30$1_0$97          soundengine
     000023BB  XG$play_game_music$0$0             soundengine
     000023BC  A$soundengine$190                  soundengine
     000023BC  C$soundengine.c$32$1_0$98          soundengine
     000023BC  C$soundengine.c$34$1_0$98          soundengine
     000023BC  G$play_punch_sound1$0$0            soundengine
     000023BC  _play_punch_sound1                 soundengine
     000023BE  A$soundengine$191                  soundengine
     000023BF  A$soundengine$192                  soundengine
     000023C0  A$soundengine$193                  soundengine
     000023C3  A$soundengine$194                  soundengine
     000023C4  A$soundengine$198                  soundengine
     000023C4  C$soundengine.c$35$1_0$98          soundengine
     000023C7  A$soundengine$199                  soundengine
     000023C9  A$soundengine$203                  soundengine
     000023C9  C$soundengine.c$36$1_0$98          soundengine
     000023CC  A$soundengine$204                  soundengine
     000023CF  A$soundengine$205                  soundengine
     000023D0  A$soundengine$206                  soundengine
ASxxxx Linker V03.00 + NoICE + sdld,  page 105.
Hexadecimal  [32-Bits]

Area                                    Addr        Size        Decimal Bytes (Attributes)
--------------------------------        ----        ----        ------- ----- ------------
_CODE                               00000200    00006F18 =       28440. bytes (REL,CON)

      Value  Global                              Global Defined In Module
      -----  --------------------------------   ------------------------
     000023D1  A$soundengine$207                  soundengine
     000023D2  A$soundengine$208                  soundengine
     000023D3  A$soundengine$209                  soundengine
     000023D6  A$soundengine$210                  soundengine
     000023D7  A$soundengine$211                  soundengine
     000023D8  A$soundengine$219                  soundengine
     000023D8  C$soundengine.c$37$1_0$98          soundengine
     000023D8  XG$play_punch_sound1$0$0           soundengine
     000023D9  A$soundengine$232                  soundengine
     000023D9  C$soundengine.c$39$1_0$99          soundengine
     000023D9  C$soundengine.c$41$1_0$99          soundengine
     000023D9  G$play_punch_sound2$0$0            soundengine
     000023D9  _play_punch_sound2                 soundengine
     000023DB  A$soundengine$233                  soundengine
     000023DC  A$soundengine$234                  soundengine
     000023DD  A$soundengine$235                  soundengine
     000023E0  A$soundengine$236                  soundengine
     000023E1  A$soundengine$240                  soundengine
     000023E1  C$soundengine.c$42$1_0$99          soundengine
     000023E4  A$soundengine$241                  soundengine
     000023E6  A$soundengine$245                  soundengine
     000023E6  C$soundengine.c$43$1_0$99          soundengine
     000023E9  A$soundengine$246                  soundengine
     000023EC  A$soundengine$247                  soundengine
     000023ED  A$soundengine$248                  soundengine
     000023EE  A$soundengine$249                  soundengine
     000023EF  A$soundengine$250                  soundengine
     000023F0  A$soundengine$251                  soundengine
     000023F3  A$soundengine$252                  soundengine
     000023F4  A$soundengine$253                  soundengine
     000023F5  A$soundengine$261                  soundengine
     000023F5  C$soundengine.c$44$1_0$99          soundengine
     000023F5  XG$play_punch_sound2$0$0           soundengine
     000023F6  A$soundengine$274                  soundengine
     000023F6  C$soundengine.c$46$1_0$100         soundengine
     000023F6  C$soundengine.c$48$1_0$100         soundengine
     000023F6  G$manage_sound_frame$0$0           soundengine
     000023F6  _manage_sound_frame                soundengine
     000023F9  A$soundengine$275                  soundengine
     000023FA  A$soundengine$276                  soundengine
     000023FB  A$soundengine$277                  soundengine
     000023FE  A$soundengine$278                  soundengine
     000023FF  A$soundengine$279                  soundengine
     00002400  A$soundengine$280                  soundengine
     00002401  A$soundengine$281                  soundengine
     00002403  A$soundengine$285                  soundengine
     00002403  C$soundengine.c$50$2_0$101         soundengine
     00002406  A$soundengine$286                  soundengine
     00002407  A$soundengine$287                  soundengine
     00002408  A$soundengine$288                  soundengine
     0000240B  A$soundengine$289                  soundengine
ASxxxx Linker V03.00 + NoICE + sdld,  page 106.
Hexadecimal  [32-Bits]

Area                                    Addr        Size        Decimal Bytes (Attributes)
--------------------------------        ----        ----        ------- ----- ------------
_CODE                               00000200    00006F18 =       28440. bytes (REL,CON)

      Value  Global                              Global Defined In Module
      -----  --------------------------------   ------------------------
     0000240C  A$soundengine$293                  soundengine
     0000240C  C$soundengine.c$51$2_0$101         soundengine
     0000240F  A$soundengine$298                  soundengine
     0000240F  C$soundengine.c$53$1_0$100         soundengine
     00002412  A$soundengine$299                  soundengine
     00002413  A$soundengine$300                  soundengine
     00002414  A$soundengine$301                  soundengine
     00002417  A$soundengine$302                  soundengine
     00002418  A$soundengine$303                  soundengine
     00002419  A$soundengine$304                  soundengine
     0000241A  A$soundengine$305                  soundengine
     0000241D  A$soundengine$309                  soundengine
     0000241D  C$soundengine.c$55$2_0$102         soundengine
     00002420  A$soundengine$310                  soundengine
     00002421  A$soundengine$311                  soundengine
     00002422  A$soundengine$312                  soundengine
     00002425  A$soundengine$313                  soundengine
     00002426  A$soundengine$327                  soundengine
     00002426  C$soundengine.c$56$2_0$102         soundengine
     00002426  C$soundengine.c$60$2_0$103         soundengine
     00002426  C$soundengine.c$62$1_0$100         soundengine
     00002426  XG$manage_sound_frame$0$0          soundengine
     00002429  A$montylib$94                      montylib
     00002429  C$montylib.c$16$0_0$103            montylib
     00002429  C$montylib.c$18$1_0$103            montylib
     00002429  G$init_console$0$0                 montylib
     00002429  _init_console                      montylib
     0000242C  A$montylib$98                      montylib
     0000242C  C$montylib.c$19$1_0$103            montylib
     0000242F  A$montylib$99                      montylib
     00002430  A$montylib$100                     montylib
     00002431  A$montylib$101                     montylib
     00002432  A$montylib$102                     montylib
     00002433  A$montylib$103                     montylib
     00002435  A$montylib$104                     montylib
     00002436  A$montylib$105                     montylib
     00002439  A$montylib$106                     montylib
     0000243A  A$montylib$110                     montylib
     0000243A  C$montylib.c$20$1_0$103            montylib
     0000243B  A$montylib$111                     montylib
     0000243E  A$montylib$112                     montylib
     0000243F  A$montylib$113                     montylib
     00002440  A$montylib$114                     montylib
     00002441  A$montylib$115                     montylib
     00002442  A$montylib$116                     montylib
     00002445  A$montylib$117                     montylib
     00002446  A$montylib$118                     montylib
     00002449  A$montylib$119                     montylib
     0000244A  A$montylib$120                     montylib
     0000244B  A$montylib$121                     montylib
     0000244C  A$montylib$125                     montylib
ASxxxx Linker V03.00 + NoICE + sdld,  page 107.
Hexadecimal  [32-Bits]

Area                                    Addr        Size        Decimal Bytes (Attributes)
--------------------------------        ----        ----        ------- ----- ------------
_CODE                               00000200    00006F18 =       28440. bytes (REL,CON)

      Value  Global                              Global Defined In Module
      -----  --------------------------------   ------------------------
     0000244C  C$montylib.c$21$1_0$103            montylib
     0000244F  A$montylib$126                     montylib
     00002450  A$montylib$127                     montylib
     00002451  A$montylib$128                     montylib
     00002452  A$montylib$129                     montylib
     00002455  A$montylib$130                     montylib
     00002456  A$montylib$134                     montylib
     00002456  C$montylib.c$22$1_0$103            montylib
     00002459  A$montylib$138                     montylib
     00002459  C$montylib.c$23$1_0$103            montylib
     0000245C  A$montylib$139                     montylib
     0000245D  A$montylib$140                     montylib
     00002460  A$montylib$141                     montylib
     00002461  A$montylib$145                     montylib
     00002461  C$montylib.c$24$1_0$103            montylib
     00002462  A$montylib$146                     montylib
     00002463  A$montylib$147                     montylib
     00002464  A$montylib$148                     montylib
     00002467  A$montylib$149                     montylib
     00002468  A$montylib$153                     montylib
     00002468  C$montylib.c$25$1_0$103            montylib
     0000246A  A$montylib$154                     montylib
     0000246D  A$montylib$162                     montylib
     0000246D  C$montylib.c$26$1_0$103            montylib
     0000246D  XG$init_console$0$0                montylib
     0000246E  G$randLUT$0_0$0                    montylib
     0000246E  _randLUT                           montylib
     0000256E  A$montylib$433                     montylib
     0000256E  C$montylib.c$28$1_0$105            montylib
     0000256E  C$montylib.c$30$1_0$105            montylib
     0000256E  G$init_scroll$0$0                  montylib
     0000256E  _init_scroll                       montylib
     00002572  A$montylib$434                     montylib
     00002574  A$montylib$435                     montylib
     00002577  A$montylib$436                     montylib
     0000257A  A$montylib$437                     montylib
     0000257B  A$montylib$438                     montylib
     0000257E  A$montylib$439                     montylib
     00002581  A$montylib$440                     montylib
     00002582  A$montylib$441                     montylib
     00002585  A$montylib$442                     montylib
     00002586  A$montylib$443                     montylib
     00002587  A$montylib$447                     montylib
     00002587  C$montylib.c$31$1_0$105            montylib
     0000258B  A$montylib$448                     montylib
     0000258D  A$montylib$449                     montylib
     00002590  A$montylib$450                     montylib
     00002593  A$montylib$451                     montylib
     00002594  A$montylib$452                     montylib
     00002597  A$montylib$453                     montylib
     0000259A  A$montylib$454                     montylib
ASxxxx Linker V03.00 + NoICE + sdld,  page 108.
Hexadecimal  [32-Bits]

Area                                    Addr        Size        Decimal Bytes (Attributes)
--------------------------------        ----        ----        ------- ----- ------------
_CODE                               00000200    00006F18 =       28440. bytes (REL,CON)

      Value  Global                              Global Defined In Module
      -----  --------------------------------   ------------------------
     0000259B  A$montylib$455                     montylib
     0000259E  A$montylib$456                     montylib
     0000259F  A$montylib$457                     montylib
     000025A0  A$montylib$468                     montylib
     000025A0  C$montylib.c$32$1_0$105            montylib
     000025A0  C$montylib.c$33$1_0$105            montylib
     000025A0  XG$init_scroll$0$0                 montylib
     000025A3  A$montylib$478                     montylib
     000025A3  C$montylib.c$35$1_0$107            montylib
     000025A3  G$move_scroll$0$0                  montylib
     000025A3  _move_scroll                       montylib
     000025A5  A$montylib$479                     montylib
     000025A9  A$montylib$480                     montylib
     000025AB  A$montylib$484                     montylib
     000025AB  C$montylib.c$37$1_0$107            montylib
     000025AE  A$montylib$488                     montylib
     000025AE  C$montylib.c$38$1_0$107            montylib
     000025AF  A$montylib$489                     montylib
     000025B2  A$montylib$490                     montylib
     000025B3  A$montylib$491                     montylib
     000025B4  A$montylib$492                     montylib
     000025B5  A$montylib$496                     montylib
     000025B5  C$montylib.c$39$1_0$107            montylib
     000025B8  A$montylib$497                     montylib
     000025B9  A$montylib$498                     montylib
     000025BA  A$montylib$499                     montylib
     000025BB  A$montylib$500                     montylib
     000025BC  A$montylib$501                     montylib
     000025BD  A$montylib$502                     montylib
     000025BF  A$montylib$503                     montylib
     000025C1  A$montylib$504                     montylib
     000025C5  A$montylib$509                     montylib
     000025C5  C$montylib.c$40$1_0$107            montylib
     000025C8  A$montylib$510                     montylib
     000025C9  A$montylib$511                     montylib
     000025CA  A$montylib$512                     montylib
     000025CB  A$montylib$513                     montylib
     000025CC  A$montylib$514                     montylib
     000025CD  A$montylib$515                     montylib
     000025CE  A$montylib$516                     montylib
     000025CF  A$montylib$517                     montylib
     000025D2  A$montylib$518                     montylib
     000025D3  A$montylib$519                     montylib
     000025D4  A$montylib$520                     montylib
     000025D5  A$montylib$521                     montylib
     000025D7  A$montylib$522                     montylib
     000025D8  A$montylib$523                     montylib
     000025D9  A$montylib$524                     montylib
     000025DB  A$montylib$525                     montylib
     000025DD  A$montylib$526                     montylib
     000025E1  A$montylib$531                     montylib
ASxxxx Linker V03.00 + NoICE + sdld,  page 109.
Hexadecimal  [32-Bits]

Area                                    Addr        Size        Decimal Bytes (Attributes)
--------------------------------        ----        ----        ------- ----- ------------
_CODE                               00000200    00006F18 =       28440. bytes (REL,CON)

      Value  Global                              Global Defined In Module
      -----  --------------------------------   ------------------------
     000025E1  C$montylib.c$41$1_0$107            montylib
     000025E4  A$montylib$532                     montylib
     000025E5  A$montylib$533                     montylib
     000025E6  A$montylib$534                     montylib
     000025E7  A$montylib$535                     montylib
     000025E8  A$montylib$536                     montylib
     000025E9  A$montylib$537                     montylib
     000025EB  A$montylib$538                     montylib
     000025ED  A$montylib$539                     montylib
     000025F1  A$montylib$544                     montylib
     000025F1  C$montylib.c$42$1_0$107            montylib
     000025F4  A$montylib$545                     montylib
     000025F5  A$montylib$546                     montylib
     000025F6  A$montylib$547                     montylib
     000025F7  A$montylib$548                     montylib
     000025F8  A$montylib$549                     montylib
     000025F9  A$montylib$550                     montylib
     000025FA  A$montylib$551                     montylib
     000025FD  A$montylib$552                     montylib
     000025FE  A$montylib$553                     montylib
     000025FF  A$montylib$554                     montylib
     00002601  A$montylib$555                     montylib
     00002602  A$montylib$556                     montylib
     00002603  A$montylib$557                     montylib
     00002605  A$montylib$558                     montylib
     00002606  A$montylib$559                     montylib
     00002607  A$montylib$560                     montylib
     00002609  A$montylib$561                     montylib
     0000260B  A$montylib$562                     montylib
     0000260F  A$montylib$567                     montylib
     0000260F  C$montylib.c$44$1_0$107            montylib
     00002612  A$montylib$568                     montylib
     00002615  A$montylib$569                     montylib
     00002616  A$montylib$570                     montylib
     00002619  A$montylib$571                     montylib
     0000261A  A$montylib$575                     montylib
     0000261C  A$montylib$580                     montylib
     0000261C  C$montylib.c$45$1_0$107            montylib
     0000261C  XG$move_scroll$0$0                 montylib
     0000261D  A$montylib$600                     montylib
     0000261D  C$montylib.c$47$1_0$108            montylib
     0000261D  C$montylib.c$49$1_0$108            montylib
     0000261D  C$montylib.c$50$1_0$108            montylib
     0000261D  G$get_scroll_x$0$0                 montylib
     0000261D  XG$get_scroll_x$0$0                montylib
     0000261D  _get_scroll_x                      montylib
     00002620  A$montylib$620                     montylib
     00002620  C$montylib.c$52$1_0$109            montylib
     00002620  C$montylib.c$54$1_0$109            montylib
     00002620  C$montylib.c$55$1_0$109            montylib
     00002620  G$get_scroll_y$0$0                 montylib
ASxxxx Linker V03.00 + NoICE + sdld,  page 110.
Hexadecimal  [32-Bits]

Area                                    Addr        Size        Decimal Bytes (Attributes)
--------------------------------        ----        ----        ------- ----- ------------
_CODE                               00000200    00006F18 =       28440. bytes (REL,CON)

      Value  Global                              Global Defined In Module
      -----  --------------------------------   ------------------------
     00002620  XG$get_scroll_y$0$0                montylib
     00002620  _get_scroll_y                      montylib
     00002623  A$montylib$633                     montylib
     00002623  C$montylib.c$57$1_0$110            montylib
     00002623  C$montylib.c$59$1_0$110            montylib
     00002623  G$waitForFrame$0$0                 montylib
     00002623  _waitForFrame                      montylib
     00002626  A$montylib$634                     montylib
     00002628  A$montylib$635                     montylib
     0000262A  A$montylib$639                     montylib
     0000262A  C$montylib.c$61$2_0$111            montylib
     0000262D  A$montylib$644                     montylib
     0000262D  C$montylib.c$63$1_0$110            montylib
     00002630  A$montylib$648                     montylib
     00002630  C$montylib.c$64$1_0$110            montylib
     00002633  A$montylib$659                     montylib
     00002633  C$montylib.c$65$1_0$110            montylib
     00002633  C$montylib.c$66$1_0$110            montylib
     00002633  XG$waitForFrame$0$0                montylib
     00002636  A$montylib$672                     montylib
     00002636  C$montylib.c$68$1_0$112            montylib
     00002636  C$montylib.c$70$1_0$112            montylib
     00002636  G$rand$0$0                         montylib
     00002636  _rand                              montylib
     0000263A  A$montylib$673                     montylib
     0000263D  A$montylib$674                     montylib
     00002640  A$montylib$675                     montylib
     00002643  A$montylib$676                     montylib
     00002645  A$montylib$677                     montylib
     00002646  A$montylib$678                     montylib
     00002647  A$montylib$686                     montylib
     00002647  C$montylib.c$71$1_0$112            montylib
     00002647  XG$rand$0$0                        montylib
     00002648  A$gamelogic$107                    gamelogic
     00002648  C$gamelogic.c$15$0_0$106           gamelogic
     00002648  C$gamelogic.c$17$1_0$106           gamelogic
     00002648  C$gamelogic.c$18$1_0$106           gamelogic
     00002648  G$init_game$0$0                    gamelogic
     00002648  XG$init_game$0$0                   gamelogic
     00002648  _init_game                         gamelogic
     0000264B  A$gamelogic$120                    gamelogic
     0000264B  C$gamelogic.c$20$1_0$107           gamelogic
     0000264B  C$gamelogic.c$22$1_0$107           gamelogic
     0000264B  G$play_game$0$0                    gamelogic
     0000264B  _play_game                         gamelogic
     0000264E  A$gamelogic$124                    gamelogic
     0000264E  C$gamelogic.c$23$1_0$107           gamelogic
     00002651  A$gamelogic$128                    gamelogic
     00002651  C$gamelogic.c$24$1_0$107           gamelogic
     00002654  A$gamelogic$133                    gamelogic
     00002654  C$gamelogic.c$25$1_0$107           gamelogic
ASxxxx Linker V03.00 + NoICE + sdld,  page 111.
Hexadecimal  [32-Bits]

Area                                    Addr        Size        Decimal Bytes (Attributes)
--------------------------------        ----        ----        ------- ----- ------------
_CODE                               00000200    00006F18 =       28440. bytes (REL,CON)

      Value  Global                              Global Defined In Module
      -----  --------------------------------   ------------------------
     00002657  A$gamelogic$134                    gamelogic
     00002658  A$gamelogic$135                    gamelogic
     00002659  A$gamelogic$139                    gamelogic
     00002659  C$gamelogic.c$27$2_0$108           gamelogic
     0000265C  A$gamelogic$147                    gamelogic
     0000265C  C$gamelogic.c$29$1_0$107           gamelogic
     0000265C  XG$play_game$0$0                   gamelogic
     0000265E  A$gamelogic$160                    gamelogic
     0000265E  C$gamelogic.c$31$1_0$109           gamelogic
     0000265E  C$gamelogic.c$33$1_0$109           gamelogic
     0000265E  G$logo_screen$0$0                  gamelogic
     0000265E  _logo_screen                       gamelogic
     00002661  A$gamelogic$164                    gamelogic
     00002661  C$gamelogic.c$34$1_0$109           gamelogic
     00002664  A$gamelogic$168                    gamelogic
     00002664  C$gamelogic.c$35$1_0$109           gamelogic
     00002667  A$gamelogic$169                    gamelogic
     0000266A  A$gamelogic$173                    gamelogic
     0000266A  C$gamelogic.c$36$1_0$109           gamelogic
     0000266D  A$gamelogic$178                    gamelogic
     0000266D  C$gamelogic.c$37$1_0$109           gamelogic
     00002671  A$gamelogic$179                    gamelogic
     00002674  A$gamelogic$180                    gamelogic
     00002676  A$gamelogic$181                    gamelogic
     00002679  A$gamelogic$182                    gamelogic
     0000267B  A$gamelogic$183                    gamelogic
     0000267C  A$gamelogic$187                    gamelogic
     0000267C  C$gamelogic.c$39$2_0$110           gamelogic
     0000267F  A$gamelogic$188                    gamelogic
     00002680  A$gamelogic$189                    gamelogic
     00002683  A$gamelogic$193                    gamelogic
     00002683  C$gamelogic.c$40$2_0$110           gamelogic
     00002686  A$gamelogic$194                    gamelogic
     00002688  A$gamelogic$195                    gamelogic
     0000268B  A$gamelogic$196                    gamelogic
     0000268D  A$gamelogic$200                    gamelogic
     0000268D  C$gamelogic.c$42$3_0$111           gamelogic
     00002690  A$gamelogic$205                    gamelogic
     00002690  C$gamelogic.c$44$2_0$110           gamelogic
     00002694  A$gamelogic$206                    gamelogic
     00002697  A$gamelogic$207                    gamelogic
     00002699  A$gamelogic$208                    gamelogic
     0000269C  A$gamelogic$209                    gamelogic
     0000269E  A$gamelogic$213                    gamelogic
     0000269E  C$gamelogic.c$46$3_0$112           gamelogic
     000026A1  A$gamelogic$218                    gamelogic
     000026A1  C$gamelogic.c$48$2_0$110           gamelogic
     000026A5  A$gamelogic$219                    gamelogic
     000026A8  A$gamelogic$220                    gamelogic
     000026AA  A$gamelogic$221                    gamelogic
     000026AD  A$gamelogic$222                    gamelogic
ASxxxx Linker V03.00 + NoICE + sdld,  page 112.
Hexadecimal  [32-Bits]

Area                                    Addr        Size        Decimal Bytes (Attributes)
--------------------------------        ----        ----        ------- ----- ------------
_CODE                               00000200    00006F18 =       28440. bytes (REL,CON)

      Value  Global                              Global Defined In Module
      -----  --------------------------------   ------------------------
     000026AF  A$gamelogic$226                    gamelogic
     000026AF  C$gamelogic.c$50$3_0$113           gamelogic
     000026B2  A$gamelogic$231                    gamelogic
     000026B2  C$gamelogic.c$52$2_0$110           gamelogic
     000026B6  A$gamelogic$232                    gamelogic
     000026B9  A$gamelogic$233                    gamelogic
     000026BB  A$gamelogic$234                    gamelogic
     000026BD  A$gamelogic$235                    gamelogic
     000026C0  A$gamelogic$236                    gamelogic
     000026C1  A$gamelogic$237                    gamelogic
     000026C3  A$gamelogic$241                    gamelogic
     000026C3  C$gamelogic.c$54$3_0$114           gamelogic
     000026C6  A$gamelogic$246                    gamelogic
     000026C6  C$gamelogic.c$56$2_0$110           gamelogic
     000026C9  A$gamelogic$254                    gamelogic
     000026C9  C$gamelogic.c$58$1_0$109           gamelogic
     000026C9  XG$logo_screen$0$0                 gamelogic
     000026CB  A$gamelogic$267                    gamelogic
     000026CB  C$gamelogic.c$60$1_0$115           gamelogic
     000026CB  C$gamelogic.c$62$1_0$115           gamelogic
     000026CB  G$fnaclogo_screen$0$0              gamelogic
     000026CB  _fnaclogo_screen                   gamelogic
     000026CE  A$gamelogic$271                    gamelogic
     000026CE  C$gamelogic.c$63$1_0$115           gamelogic
     000026D1  A$gamelogic$275                    gamelogic
     000026D1  C$gamelogic.c$64$1_0$115           gamelogic
     000026D4  A$gamelogic$276                    gamelogic
     000026D7  A$gamelogic$281                    gamelogic
     000026D7  C$gamelogic.c$65$1_0$115           gamelogic
     000026DB  A$gamelogic$282                    gamelogic
     000026DE  A$gamelogic$283                    gamelogic
     000026E0  A$gamelogic$284                    gamelogic
     000026E3  A$gamelogic$285                    gamelogic
     000026E5  A$gamelogic$286                    gamelogic
     000026E6  A$gamelogic$290                    gamelogic
     000026E6  C$gamelogic.c$67$2_0$116           gamelogic
     000026E9  A$gamelogic$291                    gamelogic
     000026EA  A$gamelogic$292                    gamelogic
     000026ED  A$gamelogic$296                    gamelogic
     000026ED  C$gamelogic.c$68$2_0$116           gamelogic
     000026F0  A$gamelogic$297                    gamelogic
     000026F2  A$gamelogic$298                    gamelogic
     000026F5  A$gamelogic$299                    gamelogic
     000026F7  A$gamelogic$303                    gamelogic
     000026F7  C$gamelogic.c$70$3_0$117           gamelogic
     000026FA  A$gamelogic$308                    gamelogic
     000026FA  C$gamelogic.c$72$2_0$116           gamelogic
     000026FE  A$gamelogic$309                    gamelogic
     00002701  A$gamelogic$310                    gamelogic
     00002703  A$gamelogic$311                    gamelogic
     00002706  A$gamelogic$312                    gamelogic
ASxxxx Linker V03.00 + NoICE + sdld,  page 113.
Hexadecimal  [32-Bits]

Area                                    Addr        Size        Decimal Bytes (Attributes)
--------------------------------        ----        ----        ------- ----- ------------
_CODE                               00000200    00006F18 =       28440. bytes (REL,CON)

      Value  Global                              Global Defined In Module
      -----  --------------------------------   ------------------------
     00002708  A$gamelogic$316                    gamelogic
     00002708  C$gamelogic.c$74$3_0$118           gamelogic
     0000270B  A$gamelogic$321                    gamelogic
     0000270B  C$gamelogic.c$76$2_0$116           gamelogic
     0000270F  A$gamelogic$322                    gamelogic
     00002712  A$gamelogic$323                    gamelogic
     00002714  A$gamelogic$324                    gamelogic
     00002717  A$gamelogic$325                    gamelogic
     00002719  A$gamelogic$329                    gamelogic
     00002719  C$gamelogic.c$78$3_0$119           gamelogic
     0000271C  A$gamelogic$334                    gamelogic
     0000271C  C$gamelogic.c$80$2_0$116           gamelogic
     00002720  A$gamelogic$335                    gamelogic
     00002723  A$gamelogic$336                    gamelogic
     00002725  A$gamelogic$337                    gamelogic
     00002727  A$gamelogic$338                    gamelogic
     0000272A  A$gamelogic$339                    gamelogic
     0000272B  A$gamelogic$340                    gamelogic
     0000272D  A$gamelogic$344                    gamelogic
     0000272D  C$gamelogic.c$82$3_0$120           gamelogic
     00002730  A$gamelogic$349                    gamelogic
     00002730  C$gamelogic.c$84$2_0$116           gamelogic
     00002733  A$gamelogic$357                    gamelogic
     00002733  C$gamelogic.c$86$1_0$115           gamelogic
     00002733  XG$fnaclogo_screen$0$0             gamelogic
     00002735  A$gamelogic$370                    gamelogic
     00002735  C$gamelogic.c$88$1_0$121           gamelogic
     00002735  C$gamelogic.c$91$1_0$121           gamelogic
     00002735  G$presentation_screen$0$0          gamelogic
     00002735  _presentation_screen               gamelogic
     00002738  A$gamelogic$374                    gamelogic
     00002738  C$gamelogic.c$92$1_0$121           gamelogic
     0000273B  A$gamelogic$378                    gamelogic
     0000273B  C$gamelogic.c$93$1_0$121           gamelogic
     0000273E  A$gamelogic$382                    gamelogic
     0000273E  C$gamelogic.c$94$1_0$121           gamelogic
     00002741  A$gamelogic$383                    gamelogic
     00002744  A$gamelogic$388                    gamelogic
     00002744  C$gamelogic.c$95$1_0$121           gamelogic
     00002748  A$gamelogic$389                    gamelogic
     0000274B  A$gamelogic$390                    gamelogic
     0000274D  A$gamelogic$391                    gamelogic
     00002750  A$gamelogic$392                    gamelogic
     00002752  A$gamelogic$393                    gamelogic
     00002753  A$gamelogic$397                    gamelogic
     00002753  C$gamelogic.c$97$2_0$122           gamelogic
     00002756  A$gamelogic$398                    gamelogic
     00002757  A$gamelogic$399                    gamelogic
     0000275A  A$gamelogic$403                    gamelogic
     0000275A  C$gamelogic.c$98$2_0$122           gamelogic
     0000275D  A$gamelogic$404                    gamelogic
ASxxxx Linker V03.00 + NoICE + sdld,  page 114.
Hexadecimal  [32-Bits]

Area                                    Addr        Size        Decimal Bytes (Attributes)
--------------------------------        ----        ----        ------- ----- ------------
_CODE                               00000200    00006F18 =       28440. bytes (REL,CON)

      Value  Global                              Global Defined In Module
      -----  --------------------------------   ------------------------
     0000275F  A$gamelogic$405                    gamelogic
     00002762  A$gamelogic$406                    gamelogic
     00002764  A$gamelogic$410                    gamelogic
     00002764  C$gamelogic.c$100$3_0$123          gamelogic
     00002767  A$gamelogic$415                    gamelogic
     00002767  C$gamelogic.c$102$2_0$122          gamelogic
     0000276B  A$gamelogic$416                    gamelogic
     0000276E  A$gamelogic$417                    gamelogic
     00002770  A$gamelogic$418                    gamelogic
     00002773  A$gamelogic$419                    gamelogic
     00002775  A$gamelogic$423                    gamelogic
     00002775  C$gamelogic.c$104$3_0$124          gamelogic
     00002778  A$gamelogic$428                    gamelogic
     00002778  C$gamelogic.c$106$2_0$122          gamelogic
     0000277C  A$gamelogic$429                    gamelogic
     0000277F  A$gamelogic$430                    gamelogic
     00002781  A$gamelogic$431                    gamelogic
     00002783  A$gamelogic$432                    gamelogic
     00002786  A$gamelogic$433                    gamelogic
     00002788  A$gamelogic$434                    gamelogic
     0000278A  A$gamelogic$438                    gamelogic
     0000278A  C$gamelogic.c$108$3_0$125          gamelogic
     0000278D  A$gamelogic$443                    gamelogic
     0000278D  C$gamelogic.c$110$2_0$122          gamelogic
     00002791  A$gamelogic$444                    gamelogic
     00002794  A$gamelogic$445                    gamelogic
     00002796  A$gamelogic$446                    gamelogic
     00002798  A$gamelogic$447                    gamelogic
     0000279B  A$gamelogic$448                    gamelogic
     0000279D  A$gamelogic$449                    gamelogic
     0000279F  A$gamelogic$453                    gamelogic
     0000279F  C$gamelogic.c$112$3_0$126          gamelogic
     000027A2  A$gamelogic$458                    gamelogic
     000027A2  C$gamelogic.c$114$2_0$122          gamelogic
     000027A5  A$gamelogic$462                    gamelogic
     000027A5  C$gamelogic.c$115$2_0$122          gamelogic
     000027A6  A$gamelogic$463                    gamelogic
     000027A9  A$gamelogic$464                    gamelogic
     000027AA  A$gamelogic$465                    gamelogic
     000027AB  A$gamelogic$466                    gamelogic
     000027AC  A$gamelogic$467                    gamelogic
     000027AD  A$gamelogic$468                    gamelogic
     000027AE  A$gamelogic$469                    gamelogic
     000027AF  A$gamelogic$470                    gamelogic
     000027B0  A$gamelogic$471                    gamelogic
     000027B2  A$gamelogic$472                    gamelogic
     000027B6  A$gamelogic$473                    gamelogic
     000027B9  A$gamelogic$474                    gamelogic
     000027BB  A$gamelogic$475                    gamelogic
     000027BE  A$gamelogic$476                    gamelogic
     000027C0  A$gamelogic$477                    gamelogic
ASxxxx Linker V03.00 + NoICE + sdld,  page 115.
Hexadecimal  [32-Bits]

Area                                    Addr        Size        Decimal Bytes (Attributes)
--------------------------------        ----        ----        ------- ----- ------------
_CODE                               00000200    00006F18 =       28440. bytes (REL,CON)

      Value  Global                              Global Defined In Module
      -----  --------------------------------   ------------------------
     000027C2  A$gamelogic$481                    gamelogic
     000027C2  C$gamelogic.c$117$3_0$127          gamelogic
     000027C5  A$gamelogic$482                    gamelogic
     000027C8  A$gamelogic$487                    gamelogic
     000027C8  C$gamelogic.c$119$2_0$122          gamelogic
     000027CB  A$gamelogic$495                    gamelogic
     000027CB  C$gamelogic.c$121$1_0$121          gamelogic
     000027CB  XG$presentation_screen$0$0         gamelogic
     000027CE  A$gamelogic$508                    gamelogic
     000027CE  C$gamelogic.c$123$1_0$128          gamelogic
     000027CE  C$gamelogic.c$125$1_0$128          gamelogic
     000027CE  G$game_loop$0$0                    gamelogic
     000027CE  _game_loop                         gamelogic
     000027D0  A$gamelogic$509                    gamelogic
     000027D1  A$gamelogic$510                    gamelogic
     000027D2  A$gamelogic$511                    gamelogic
     000027D5  A$gamelogic$512                    gamelogic
     000027D6  A$gamelogic$516                    gamelogic
     000027D6  C$gamelogic.c$126$1_0$128          gamelogic
     000027D9  A$gamelogic$520                    gamelogic
     000027D9  C$gamelogic.c$127$1_0$128          gamelogic
     000027DC  A$gamelogic$524                    gamelogic
     000027DC  C$gamelogic.c$128$1_0$128          gamelogic
     000027DF  A$gamelogic$528                    gamelogic
     000027DF  C$gamelogic.c$129$1_0$128          gamelogic
     000027E2  A$gamelogic$532                    gamelogic
     000027E2  C$gamelogic.c$130$1_0$128          gamelogic
     000027E4  A$gamelogic$533                    gamelogic
     000027E5  A$gamelogic$534                    gamelogic
     000027E6  A$gamelogic$535                    gamelogic
     000027E9  A$gamelogic$536                    gamelogic
     000027EA  A$gamelogic$540                    gamelogic
     000027EA  C$gamelogic.c$132$1_0$128          gamelogic
     000027ED  A$gamelogic$541                    gamelogic
     000027F0  A$gamelogic$545                    gamelogic
     000027F0  C$gamelogic.c$133$1_0$128          gamelogic
     000027F3  A$gamelogic$546                    gamelogic
     000027F5  A$gamelogic$554                    gamelogic
     000027F5  C$gamelogic.c$134$1_0$128          gamelogic
     000027F5  C$gamelogic.c$136$2_0$129          gamelogic
     000027F8  A$gamelogic$555                    gamelogic
     000027FA  A$gamelogic$556                    gamelogic
     000027FC  A$gamelogic$560                    gamelogic
     000027FC  C$gamelogic.c$138$3_0$130          gamelogic
     000027FF  A$gamelogic$565                    gamelogic
     000027FF  C$gamelogic.c$140$2_0$129          gamelogic
     00002802  A$gamelogic$573                    gamelogic
     00002802  C$gamelogic.c$142$1_0$128          gamelogic
     00002802  XG$game_loop$0$0                   gamelogic
     00002804  A$gamelogic$586                    gamelogic
     00002804  C$gamelogic.c$144$1_0$131          gamelogic
ASxxxx Linker V03.00 + NoICE + sdld,  page 116.
Hexadecimal  [32-Bits]

Area                                    Addr        Size        Decimal Bytes (Attributes)
--------------------------------        ----        ----        ------- ----- ------------
_CODE                               00000200    00006F18 =       28440. bytes (REL,CON)

      Value  Global                              Global Defined In Module
      -----  --------------------------------   ------------------------
     00002804  C$gamelogic.c$145$1_0$131          gamelogic
     00002804  G$init_gamestatus$0$0              gamelogic
     00002804  _init_gamestatus                   gamelogic
     00002807  A$gamelogic$587                    gamelogic
     00002809  A$gamelogic$591                    gamelogic
     00002809  C$gamelogic.c$146$1_0$131          gamelogic
     0000280C  A$gamelogic$592                    gamelogic
     0000280F  A$gamelogic$600                    gamelogic
     0000280F  C$gamelogic.c$147$1_0$131          gamelogic
     0000280F  XG$init_gamestatus$0$0             gamelogic
     00002810  A$gamelogic$613                    gamelogic
     00002810  C$gamelogic.c$149$1_0$132          gamelogic
     00002810  C$gamelogic.c$152$1_0$132          gamelogic
     00002810  G$execute_game_logic$0$0           gamelogic
     00002810  _execute_game_logic                gamelogic
     00002813  A$gamelogic$614                    gamelogic
     00002814  A$gamelogic$615                    gamelogic
     00002815  A$gamelogic$619                    gamelogic
     00002815  C$gamelogic.c$156$2_0$133          gamelogic
     00002818  A$gamelogic$623                    gamelogic
     00002818  C$gamelogic.c$157$2_0$133          gamelogic
     00002819  A$gamelogic$624                    gamelogic
     0000281C  A$gamelogic$625                    gamelogic
     0000281D  A$gamelogic$629                    gamelogic
     0000281D  C$gamelogic.c$160$2_0$133          gamelogic
     00002820  A$gamelogic$633                    gamelogic
     00002820  C$gamelogic.c$162$2_0$133          gamelogic
     00002824  A$gamelogic$634                    gamelogic
     00002825  A$gamelogic$635                    gamelogic
     00002826  A$gamelogic$636                    gamelogic
     00002828  A$gamelogic$637                    gamelogic
     0000282B  A$gamelogic$638                    gamelogic
     0000282D  A$gamelogic$639                    gamelogic
     0000282F  A$gamelogic$643                    gamelogic
     0000282F  C$gamelogic.c$164$3_0$134          gamelogic
     00002832  A$gamelogic$644                    gamelogic
     00002833  A$gamelogic$645                    gamelogic
     00002834  A$gamelogic$646                    gamelogic
     00002835  A$gamelogic$647                    gamelogic
     00002836  A$gamelogic$648                    gamelogic
     00002838  A$gamelogic$649                    gamelogic
     00002839  A$gamelogic$650                    gamelogic
     0000283B  A$gamelogic$651                    gamelogic
     0000283E  A$gamelogic$652                    gamelogic
     0000283F  A$gamelogic$653                    gamelogic
     00002841  A$gamelogic$657                    gamelogic
     00002841  C$gamelogic.c$166$4_0$135          gamelogic
     00002842  A$gamelogic$658                    gamelogic
     00002844  A$gamelogic$659                    gamelogic
     00002845  A$gamelogic$660                    gamelogic
     00002846  A$gamelogic$661                    gamelogic
ASxxxx Linker V03.00 + NoICE + sdld,  page 117.
Hexadecimal  [32-Bits]

Area                                    Addr        Size        Decimal Bytes (Attributes)
--------------------------------        ----        ----        ------- ----- ------------
_CODE                               00000200    00006F18 =       28440. bytes (REL,CON)

      Value  Global                              Global Defined In Module
      -----  --------------------------------   ------------------------
     00002847  A$gamelogic$662                    gamelogic
     00002848  A$gamelogic$663                    gamelogic
     0000284B  A$gamelogic$664                    gamelogic
     0000284C  A$gamelogic$668                    gamelogic
     0000284C  C$gamelogic.c$167$4_0$135          gamelogic
     0000284F  A$gamelogic$669                    gamelogic
     00002851  A$gamelogic$670                    gamelogic
     00002852  A$gamelogic$671                    gamelogic
     00002854  A$gamelogic$672                    gamelogic
     00002855  A$gamelogic$673                    gamelogic
     00002857  A$gamelogic$677                    gamelogic
     00002857  C$gamelogic.c$168$5_0$136          gamelogic
     0000285A  A$gamelogic$678                    gamelogic
     0000285C  A$gamelogic$683                    gamelogic
     0000285C  C$gamelogic.c$171$4_0$135          gamelogic
     0000285F  A$gamelogic$684                    gamelogic
     00002860  A$gamelogic$685                    gamelogic
     00002862  A$gamelogic$686                    gamelogic
     00002863  A$gamelogic$687                    gamelogic
     00002864  A$gamelogic$688                    gamelogic
     00002865  A$gamelogic$689                    gamelogic
     00002866  A$gamelogic$690                    gamelogic
     00002869  A$gamelogic$691                    gamelogic
     0000286A  A$gamelogic$692                    gamelogic
     0000286C  A$gamelogic$697                    gamelogic
     0000286C  C$gamelogic.c$173$3_0$134          gamelogic
     0000286D  A$gamelogic$698                    gamelogic
     0000286F  A$gamelogic$699                    gamelogic
     00002871  A$gamelogic$700                    gamelogic
     00002874  A$gamelogic$701                    gamelogic
     00002875  A$gamelogic$702                    gamelogic
     00002877  A$gamelogic$706                    gamelogic
     00002877  C$gamelogic.c$175$4_0$137          gamelogic
     00002878  A$gamelogic$707                    gamelogic
     00002879  A$gamelogic$708                    gamelogic
     0000287A  A$gamelogic$709                    gamelogic
     0000287C  A$gamelogic$710                    gamelogic
     0000287D  A$gamelogic$711                    gamelogic
     0000287E  A$gamelogic$712                    gamelogic
     0000287F  A$gamelogic$713                    gamelogic
     00002880  A$gamelogic$714                    gamelogic
     00002883  A$gamelogic$715                    gamelogic
     00002884  A$gamelogic$719                    gamelogic
     00002884  C$gamelogic.c$176$4_0$137          gamelogic
     00002887  A$gamelogic$720                    gamelogic
     00002888  A$gamelogic$721                    gamelogic
     00002889  A$gamelogic$722                    gamelogic
     0000288A  A$gamelogic$723                    gamelogic
     0000288C  A$gamelogic$724                    gamelogic
     0000288D  A$gamelogic$725                    gamelogic
     0000288E  A$gamelogic$726                    gamelogic
ASxxxx Linker V03.00 + NoICE + sdld,  page 118.
Hexadecimal  [32-Bits]

Area                                    Addr        Size        Decimal Bytes (Attributes)
--------------------------------        ----        ----        ------- ----- ------------
_CODE                               00000200    00006F18 =       28440. bytes (REL,CON)

      Value  Global                              Global Defined In Module
      -----  --------------------------------   ------------------------
     0000288F  A$gamelogic$727                    gamelogic
     00002890  A$gamelogic$728                    gamelogic
     00002893  A$gamelogic$729                    gamelogic
     00002894  A$gamelogic$730                    gamelogic
     00002896  A$gamelogic$735                    gamelogic
     00002896  C$gamelogic.c$180$4_0$138          gamelogic
     00002897  A$gamelogic$736                    gamelogic
     00002898  A$gamelogic$737                    gamelogic
     00002899  A$gamelogic$738                    gamelogic
     0000289A  A$gamelogic$739                    gamelogic
     0000289B  A$gamelogic$740                    gamelogic
     0000289C  A$gamelogic$741                    gamelogic
     0000289F  A$gamelogic$742                    gamelogic
     000028A0  A$gamelogic$743                    gamelogic
     000028A2  A$gamelogic$748                    gamelogic
     000028A2  C$gamelogic.c$185$3_0$139          gamelogic
     000028A3  A$gamelogic$749                    gamelogic
     000028A4  A$gamelogic$750                    gamelogic
     000028A5  A$gamelogic$751                    gamelogic
     000028A6  A$gamelogic$752                    gamelogic
     000028A7  A$gamelogic$753                    gamelogic
     000028A8  A$gamelogic$754                    gamelogic
     000028AB  A$gamelogic$755                    gamelogic
     000028AC  A$gamelogic$760                    gamelogic
     000028AC  C$gamelogic.c$187$2_0$133          gamelogic
     000028AF  A$gamelogic$761                    gamelogic
     000028B0  A$gamelogic$762                    gamelogic
     000028B3  A$gamelogic$773                    gamelogic
     000028B3  C$gamelogic.c$191$1_0$132          gamelogic
     000028B3  C$gamelogic.c$192$1_0$132          gamelogic
     000028B3  XG$execute_game_logic$0$0          gamelogic
     000028B4  A$resources$99                     resources
     000028B4  C$resources.c$13$0_0$94            resources
     000028B4  C$resources.c$15$1_0$94            resources
     000028B4  G$load_logo_assets$0$0             resources
     000028B4  _load_logo_assets                  resources
     000028B6  A$resources$100                    resources
     000028B7  A$resources$101                    resources
     000028B8  A$resources$102                    resources
     000028BB  A$resources$103                    resources
     000028BC  A$resources$107                    resources
     000028BC  C$resources.c$16$1_0$94            resources
     000028BF  A$resources$108                    resources
     000028C0  A$resources$109                    resources
     000028C3  A$resources$110                    resources
     000028C4  A$resources$111                    resources
     000028C7  A$resources$112                    resources
     000028C8  A$resources$113                    resources
     000028CB  A$resources$114                    resources
     000028CE  A$resources$115                    resources
     000028CF  A$resources$116                    resources
ASxxxx Linker V03.00 + NoICE + sdld,  page 119.
Hexadecimal  [32-Bits]

Area                                    Addr        Size        Decimal Bytes (Attributes)
--------------------------------        ----        ----        ------- ----- ------------
_CODE                               00000200    00006F18 =       28440. bytes (REL,CON)

      Value  Global                              Global Defined In Module
      -----  --------------------------------   ------------------------
     000028D0  A$resources$120                    resources
     000028D0  C$resources.c$17$1_0$94            resources
     000028D3  A$resources$121                    resources
     000028D4  A$resources$122                    resources
     000028D7  A$resources$123                    resources
     000028D8  A$resources$124                    resources
     000028D9  A$resources$125                    resources
     000028DA  A$resources$126                    resources
     000028DB  A$resources$127                    resources
     000028DC  A$resources$128                    resources
     000028DD  A$resources$129                    resources
     000028DE  A$resources$130                    resources
     000028E1  A$resources$131                    resources
     000028E4  A$resources$132                    resources
     000028E5  A$resources$133                    resources
     000028E6  A$resources$141                    resources
     000028E6  C$resources.c$18$1_0$94            resources
     000028E6  XG$load_logo_assets$0$0            resources
     000028E7  A$resources$154                    resources
     000028E7  C$resources.c$20$1_0$95            resources
     000028E7  C$resources.c$22$1_0$95            resources
     000028E7  G$load_logo_halfpalette$0$0        resources
     000028E7  _load_logo_halfpalette             resources
     000028EA  A$resources$155                    resources
     000028EB  A$resources$156                    resources
     000028EE  A$resources$157                    resources
     000028EF  A$resources$165                    resources
     000028EF  C$resources.c$23$1_0$95            resources
     000028EF  XG$load_logo_halfpalette$0$0       resources
     000028F0  A$resources$178                    resources
     000028F0  C$resources.c$25$1_0$96            resources
     000028F0  C$resources.c$27$1_0$96            resources
     000028F0  G$load_logo_fullpalette$0$0        resources
     000028F0  _load_logo_fullpalette             resources
     000028F3  A$resources$179                    resources
     000028F4  A$resources$180                    resources
     000028F7  A$resources$181                    resources
     000028F8  A$resources$189                    resources
     000028F8  C$resources.c$28$1_0$96            resources
     000028F8  XG$load_logo_fullpalette$0$0       resources
     000028F9  A$resources$202                    resources
     000028F9  C$resources.c$30$1_0$97            resources
     000028F9  C$resources.c$32$1_0$97            resources
     000028F9  G$load_fnaclogo_assets$0$0         resources
     000028F9  _load_fnaclogo_assets              resources
     000028FB  A$resources$203                    resources
     000028FC  A$resources$204                    resources
     000028FD  A$resources$205                    resources
     00002900  A$resources$206                    resources
     00002901  A$resources$210                    resources
     00002901  C$resources.c$33$1_0$97            resources
ASxxxx Linker V03.00 + NoICE + sdld,  page 120.
Hexadecimal  [32-Bits]

Area                                    Addr        Size        Decimal Bytes (Attributes)
--------------------------------        ----        ----        ------- ----- ------------
_CODE                               00000200    00006F18 =       28440. bytes (REL,CON)

      Value  Global                              Global Defined In Module
      -----  --------------------------------   ------------------------
     00002904  A$resources$211                    resources
     00002905  A$resources$212                    resources
     00002908  A$resources$213                    resources
     00002909  A$resources$214                    resources
     0000290C  A$resources$215                    resources
     0000290D  A$resources$219                    resources
     0000290D  C$resources.c$34$1_0$97            resources
     00002910  A$resources$220                    resources
     00002911  A$resources$221                    resources
     00002914  A$resources$222                    resources
     00002915  A$resources$223                    resources
     00002916  A$resources$224                    resources
     00002917  A$resources$225                    resources
     00002918  A$resources$226                    resources
     00002919  A$resources$227                    resources
     0000291A  A$resources$228                    resources
     0000291B  A$resources$229                    resources
     0000291E  A$resources$230                    resources
     00002921  A$resources$231                    resources
     00002922  A$resources$232                    resources
     00002923  A$resources$240                    resources
     00002923  C$resources.c$35$1_0$97            resources
     00002923  XG$load_fnaclogo_assets$0$0        resources
     00002924  A$resources$253                    resources
     00002924  C$resources.c$37$1_0$98            resources
     00002924  C$resources.c$39$1_0$98            resources
     00002924  G$load_fnaclogo_halfpalette$0$0    resources
     00002924  _load_fnaclogo_halfpalette         resources
     00002926  A$resources$254                    resources
     00002927  A$resources$255                    resources
     00002928  A$resources$256                    resources
     0000292B  A$resources$257                    resources
     0000292C  A$resources$261                    resources
     0000292C  C$resources.c$40$1_0$98            resources
     0000292F  A$resources$262                    resources
     00002930  A$resources$263                    resources
     00002933  A$resources$264                    resources
     00002934  A$resources$272                    resources
     00002934  C$resources.c$41$1_0$98            resources
     00002934  XG$load_fnaclogo_halfpalette$0$0   resources
     00002935  A$resources$285                    resources
     00002935  C$resources.c$43$1_0$99            resources
     00002935  C$resources.c$45$1_0$99            resources
     00002935  G$load_fnaclogo_fullpalette$0$0    resources
     00002935  _load_fnaclogo_fullpalette         resources
     00002937  A$resources$286                    resources
     00002938  A$resources$287                    resources
     00002939  A$resources$288                    resources
     0000293C  A$resources$289                    resources
     0000293D  A$resources$293                    resources
     0000293D  C$resources.c$46$1_0$99            resources
ASxxxx Linker V03.00 + NoICE + sdld,  page 121.
Hexadecimal  [32-Bits]

Area                                    Addr        Size        Decimal Bytes (Attributes)
--------------------------------        ----        ----        ------- ----- ------------
_CODE                               00000200    00006F18 =       28440. bytes (REL,CON)

      Value  Global                              Global Defined In Module
      -----  --------------------------------   ------------------------
     00002940  A$resources$294                    resources
     00002941  A$resources$295                    resources
     00002944  A$resources$296                    resources
     00002945  A$resources$304                    resources
     00002945  C$resources.c$47$1_0$99            resources
     00002945  XG$load_fnaclogo_fullpalette$0$0   resources
     00002946  A$resources$317                    resources
     00002946  C$resources.c$49$1_0$100           resources
     00002946  C$resources.c$50$1_0$100           resources
     00002946  G$load_presentation_assets$0$0     resources
     00002946  _load_presentation_assets          resources
     00002948  A$resources$318                    resources
     00002949  A$resources$319                    resources
     0000294A  A$resources$320                    resources
     0000294D  A$resources$321                    resources
     0000294E  A$resources$325                    resources
     0000294E  C$resources.c$51$1_0$100           resources
     00002951  A$resources$326                    resources
     00002952  A$resources$327                    resources
     00002955  A$resources$328                    resources
     00002956  A$resources$329                    resources
     00002959  A$resources$330                    resources
     0000295A  A$resources$334                    resources
     0000295A  C$resources.c$52$1_0$100           resources
     0000295D  A$resources$335                    resources
     0000295E  A$resources$336                    resources
     00002961  A$resources$337                    resources
     00002962  A$resources$338                    resources
     00002963  A$resources$339                    resources
     00002964  A$resources$340                    resources
     00002965  A$resources$341                    resources
     00002966  A$resources$342                    resources
     00002967  A$resources$343                    resources
     00002968  A$resources$344                    resources
     0000296B  A$resources$345                    resources
     0000296E  A$resources$346                    resources
     0000296F  A$resources$347                    resources
     00002970  A$resources$355                    resources
     00002970  C$resources.c$53$1_0$100           resources
     00002970  XG$load_presentation_assets$0$0    resources
     00002971  A$resources$368                    resources
     00002971  C$resources.c$55$1_0$101           resources
     00002971  C$resources.c$56$1_0$101           resources
     00002971  G$load_presentation_halfpalette$   resources
     00002971  _load_presentation_halfpalette     resources
     00002973  A$resources$369                    resources
     00002974  A$resources$370                    resources
     00002975  A$resources$371                    resources
     00002978  A$resources$372                    resources
     00002979  A$resources$376                    resources
     00002979  C$resources.c$57$1_0$101           resources
ASxxxx Linker V03.00 + NoICE + sdld,  page 122.
Hexadecimal  [32-Bits]

Area                                    Addr        Size        Decimal Bytes (Attributes)
--------------------------------        ----        ----        ------- ----- ------------
_CODE                               00000200    00006F18 =       28440. bytes (REL,CON)

      Value  Global                              Global Defined In Module
      -----  --------------------------------   ------------------------
     0000297C  A$resources$377                    resources
     0000297D  A$resources$378                    resources
     00002980  A$resources$379                    resources
     00002981  A$resources$387                    resources
     00002981  C$resources.c$58$1_0$101           resources
     00002981  XG$load_presentation_halfpalette   resources
     00002982  A$resources$400                    resources
     00002982  C$resources.c$60$1_0$102           resources
     00002982  C$resources.c$61$1_0$102           resources
     00002982  G$load_presentation_fullpalette$   resources
     00002982  _load_presentation_fullpalette     resources
     00002984  A$resources$401                    resources
     00002985  A$resources$402                    resources
     00002986  A$resources$403                    resources
     00002989  A$resources$404                    resources
     0000298A  A$resources$408                    resources
     0000298A  C$resources.c$62$1_0$102           resources
     0000298D  A$resources$409                    resources
     0000298E  A$resources$410                    resources
     00002991  A$resources$411                    resources
     00002992  A$resources$419                    resources
     00002992  C$resources.c$63$1_0$102           resources
     00002992  XG$load_presentation_fullpalette   resources
     00002993  A$resources$432                    resources
     00002993  C$resources.c$65$1_0$103           resources
     00002993  C$resources.c$66$1_0$103           resources
     00002993  G$load_level1_assets$0$0           resources
     00002993  _load_level1_assets                resources
     00002995  A$resources$433                    resources
     00002996  A$resources$434                    resources
     00002997  A$resources$435                    resources
     0000299A  A$resources$436                    resources
     0000299B  A$resources$440                    resources
     0000299B  C$resources.c$67$1_0$103           resources
     0000299E  A$resources$441                    resources
     0000299F  A$resources$442                    resources
     000029A2  A$resources$443                    resources
     000029A3  A$resources$447                    resources
     000029A3  C$resources.c$68$1_0$103           resources
     000029A6  A$resources$448                    resources
     000029A7  A$resources$449                    resources
     000029A8  A$resources$450                    resources
     000029A9  A$resources$451                    resources
     000029AC  A$resources$452                    resources
     000029AD  A$resources$453                    resources
     000029B0  A$resources$454                    resources
     000029B3  A$resources$455                    resources
     000029B4  A$resources$456                    resources
     000029B5  A$resources$460                    resources
     000029B5  C$resources.c$69$1_0$103           resources
     000029B7  A$resources$461                    resources
ASxxxx Linker V03.00 + NoICE + sdld,  page 123.
Hexadecimal  [32-Bits]

Area                                    Addr        Size        Decimal Bytes (Attributes)
--------------------------------        ----        ----        ------- ----- ------------
_CODE                               00000200    00006F18 =       28440. bytes (REL,CON)

      Value  Global                              Global Defined In Module
      -----  --------------------------------   ------------------------
     000029B8  A$resources$462                    resources
     000029B9  A$resources$463                    resources
     000029BC  A$resources$464                    resources
     000029BD  A$resources$468                    resources
     000029BD  C$resources.c$70$1_0$103           resources
     000029C0  A$resources$469                    resources
     000029C1  A$resources$470                    resources
     000029C4  A$resources$471                    resources
     000029C5  A$resources$479                    resources
     000029C5  C$resources.c$71$1_0$103           resources
     000029C5  XG$load_level1_assets$0$0          resources
     000029C6  A$resources$492                    resources
     000029C6  C$resources.c$73$1_0$104           resources
     000029C6  C$resources.c$74$1_0$104           resources
     000029C6  G$init_level1_scroll$0$0           resources
     000029C6  _init_level1_scroll                resources
     000029C9  A$resources$493                    resources
     000029CC  A$resources$497                    resources
     000029CC  C$resources.c$75$1_0$104           resources
     000029CD  A$resources$498                    resources
     000029D0  A$resources$502                    resources
     000029D0  C$resources.c$76$1_0$104           resources
     000029D2  A$resources$503                    resources
     000029D3  A$resources$504                    resources
     000029D4  A$resources$505                    resources
     000029D7  A$resources$506                    resources
     000029D8  A$resources$510                    resources
     000029D8  C$resources.c$77$1_0$104           resources
     000029DB  A$resources$511                    resources
     000029DC  A$resources$512                    resources
     000029DF  A$resources$513                    resources
     000029E0  A$resources$514                    resources
     000029E3  A$resources$515                    resources
     000029E4  A$resources$516                    resources
     000029E7  A$resources$517                    resources
     000029E8  A$resources$518                    resources
     000029EB  A$resources$519                    resources
     000029EE  A$resources$520                    resources
     000029EF  A$resources$521                    resources
     000029F0  A$resources$529                    resources
     000029F0  C$resources.c$78$1_0$104           resources
     000029F0  XG$init_level1_scroll$0$0          resources
     000029F1  A$resources$542                    resources
     000029F1  C$resources.c$80$1_0$106           resources
     000029F1  C$resources.c$81$1_0$106           resources
     000029F1  G$update_scroll$0$0                resources
     000029F1  _update_scroll                     resources
     000029F3  A$resources$543                    resources
     000029F4  A$resources$544                    resources
     000029F5  A$resources$545                    resources
     000029F8  A$resources$546                    resources
ASxxxx Linker V03.00 + NoICE + sdld,  page 124.
Hexadecimal  [32-Bits]

Area                                    Addr        Size        Decimal Bytes (Attributes)
--------------------------------        ----        ----        ------- ----- ------------
_CODE                               00000200    00006F18 =       28440. bytes (REL,CON)

      Value  Global                              Global Defined In Module
      -----  --------------------------------   ------------------------
     000029F9  A$resources$550                    resources
     000029F9  C$resources.c$82$1_0$106           resources
     000029FD  A$resources$551                    resources
     000029FF  A$resources$552                    resources
     00002A02  A$resources$553                    resources
     00002A05  A$resources$554                    resources
     00002A06  A$resources$555                    resources
     00002A09  A$resources$556                    resources
     00002A0A  A$resources$564                    resources
     00002A0A  C$resources.c$83$1_0$106           resources
     00002A0A  XG$update_scroll$0$0               resources
     00002A0B  A$resources$584                    resources
     00002A0B  C$resources.c$85$1_0$107           resources
     00002A0B  C$resources.c$86$1_0$107           resources
     00002A0B  C$resources.c$87$1_0$107           resources
     00002A0B  G$get_scroll_position_x$0$0        resources
     00002A0B  XG$get_scroll_position_x$0$0       resources
     00002A0B  _get_scroll_position_x             resources
     00002A0E  A$resources$604                    resources
     00002A0E  C$resources.c$89$1_0$108           resources
     00002A0E  C$resources.c$90$1_0$108           resources
     00002A0E  C$resources.c$91$1_0$108           resources
     00002A0E  G$get_scroll_position_y$0$0        resources
     00002A0E  XG$get_scroll_position_y$0$0       resources
     00002A0E  _get_scroll_position_y             resources
     00002A11  A$resources$617                    resources
     00002A11  C$resources.c$94$1_0$109           resources
     00002A11  C$resources.c$96$1_0$109           resources
     00002A11  G$update_resources$0$0             resources
     00002A11  _update_resources                  resources
     00002A14  A$resources$621                    resources
     00002A14  C$resources.c$97$1_0$109           resources
     00002A17  A$resources$632                    resources
     00002A17  C$resources.c$98$1_0$109           resources
     00002A17  C$resources.c$99$1_0$109           resources
     00002A17  XG$update_resources$0$0            resources
     00002A1A  A$resources$652                    resources
     00002A1A  C$resources.c$101$1_0$110          resources
     00002A1A  C$resources.c$103$1_0$110          resources
     00002A1A  C$resources.c$104$1_0$110          resources
     00002A1A  G$load_background_blackpalette$0   resources
     00002A1A  XG$load_background_blackpalette$   resources
     00002A1A  _load_background_blackpalette      resources
     00002A1D  A$resources$665                    resources
     00002A1D  C$resources.c$106$1_0$111          resources
     00002A1D  C$resources.c$108$1_0$111          resources
     00002A1D  G$load_system_font$0$0             resources
     00002A1D  _load_system_font                  resources
     00002A1F  A$resources$666                    resources
     00002A20  A$resources$667                    resources
     00002A21  A$resources$668                    resources
ASxxxx Linker V03.00 + NoICE + sdld,  page 125.
Hexadecimal  [32-Bits]

Area                                    Addr        Size        Decimal Bytes (Attributes)
--------------------------------        ----        ----        ------- ----- ------------
_CODE                               00000200    00006F18 =       28440. bytes (REL,CON)

      Value  Global                              Global Defined In Module
      -----  --------------------------------   ------------------------
     00002A24  A$resources$669                    resources
     00002A25  A$resources$673                    resources
     00002A25  C$resources.c$109$1_0$111          resources
     00002A28  A$resources$674                    resources
     00002A29  A$resources$675                    resources
     00002A2C  A$resources$676                    resources
     00002A2D  A$resources$677                    resources
     00002A30  A$resources$678                    resources
     00002A31  A$resources$679                    resources
     00002A32  A$resources$687                    resources
     00002A32  C$resources.c$110$1_0$111          resources
     00002A32  XG$load_system_font$0$0            resources
     00002A33  A$resources$707                    resources
     00002A33  C$resources.c$112$1_0$112          resources
     00002A33  C$resources.c$115$1_0$112          resources
     00002A33  C$resources.c$117$1_0$112          resources
     00002A33  G$print_debug_info$0$0             resources
     00002A33  XG$print_debug_info$0$0            resources
     00002A33  _print_debug_info                  resources
     00002A34  A$resources$717                    resources
     00002A34  C$resources.c$119$1_0$114          resources
     00002A34  G$print_unsigned_char$0$0          resources
     00002A34  _print_unsigned_char               resources
     00002A36  A$resources$718                    resources
     00002A3A  A$resources$719                    resources
     00002A3C  A$resources$720                    resources
     00002A3D  A$resources$724                    resources
     00002A3D  C$resources.c$122$1_0$114          resources
     00002A3E  A$resources$725                    resources
     00002A3F  A$resources$726                    resources
     00002A41  A$resources$727                    resources
     00002A42  A$resources$728                    resources
     00002A45  A$resources$729                    resources
     00002A46  A$resources$733                    resources
     00002A46  C$resources.c$123$1_0$114          resources
     00002A49  A$resources$734                    resources
     00002A4B  A$resources$735                    resources
     00002A4C  A$resources$736                    resources
     00002A4F  A$resources$737                    resources
     00002A50  A$resources$738                    resources
     00002A51  A$resources$739                    resources
     00002A54  A$resources$740                    resources
     00002A55  A$resources$741                    resources
     00002A56  A$resources$742                    resources
     00002A57  A$resources$746                    resources
     00002A57  C$resources.c$124$1_0$114          resources
     00002A5A  A$resources$747                    resources
     00002A5B  A$resources$748                    resources
     00002A5D  A$resources$749                    resources
     00002A60  A$resources$750                    resources
     00002A61  A$resources$751                    resources
ASxxxx Linker V03.00 + NoICE + sdld,  page 126.
Hexadecimal  [32-Bits]

Area                                    Addr        Size        Decimal Bytes (Attributes)
--------------------------------        ----        ----        ------- ----- ------------
_CODE                               00000200    00006F18 =       28440. bytes (REL,CON)

      Value  Global                              Global Defined In Module
      -----  --------------------------------   ------------------------
     00002A62  A$resources$752                    resources
     00002A63  A$resources$753                    resources
     00002A64  A$resources$754                    resources
     00002A67  A$resources$755                    resources
     00002A68  A$resources$756                    resources
     00002A69  A$resources$757                    resources
     00002A6A  A$resources$761                    resources
     00002A6A  C$resources.c$125$1_0$114          resources
     00002A6B  A$resources$762                    resources
     00002A6C  A$resources$763                    resources
     00002A6D  A$resources$764                    resources
     00002A6E  A$resources$765                    resources
     00002A6F  A$resources$766                    resources
     00002A70  A$resources$767                    resources
     00002A71  A$resources$768                    resources
     00002A72  A$resources$769                    resources
     00002A73  A$resources$770                    resources
     00002A74  A$resources$771                    resources
     00002A75  A$resources$772                    resources
     00002A76  A$resources$773                    resources
     00002A77  A$resources$774                    resources
     00002A78  A$resources$775                    resources
     00002A79  A$resources$776                    resources
     00002A7A  A$resources$777                    resources
     00002A7D  A$resources$778                    resources
     00002A7E  A$resources$779                    resources
     00002A7F  A$resources$780                    resources
     00002A82  A$resources$781                    resources
     00002A83  A$resources$782                    resources
     00002A84  A$resources$783                    resources
     00002A85  A$resources$787                    resources
     00002A85  C$resources.c$126$1_0$114          resources
     00002A87  A$resources$788                    resources
     00002A88  A$resources$789                    resources
     00002A8B  A$resources$790                    resources
     00002A8C  A$resources$791                    resources
     00002A8D  A$resources$792                    resources
     00002A8E  A$resources$793                    resources
     00002A91  A$resources$794                    resources
     00002A92  A$resources$795                    resources
     00002A93  A$resources$799                    resources
     00002A93  C$resources.c$127$1_0$114          resources
     00002A96  A$resources$800                    resources
     00002A97  A$resources$801                    resources
     00002A98  A$resources$802                    resources
     00002A99  A$resources$803                    resources
     00002A9A  A$resources$804                    resources
     00002A9B  A$resources$805                    resources
     00002A9C  A$resources$806                    resources
     00002A9D  A$resources$807                    resources
     00002A9E  A$resources$808                    resources
ASxxxx Linker V03.00 + NoICE + sdld,  page 127.
Hexadecimal  [32-Bits]

Area                                    Addr        Size        Decimal Bytes (Attributes)
--------------------------------        ----        ----        ------- ----- ------------
_CODE                               00000200    00006F18 =       28440. bytes (REL,CON)

      Value  Global                              Global Defined In Module
      -----  --------------------------------   ------------------------
     00002A9F  A$resources$809                    resources
     00002AA0  A$resources$810                    resources
     00002AA3  A$resources$811                    resources
     00002AA4  A$resources$812                    resources
     00002AA5  A$resources$813                    resources
     00002AA6  A$resources$814                    resources
     00002AA7  A$resources$815                    resources
     00002AA8  A$resources$816                    resources
     00002AA9  A$resources$817                    resources
     00002AAA  A$resources$818                    resources
     00002AAB  A$resources$819                    resources
     00002AAC  A$resources$820                    resources
     00002AAD  A$resources$824                    resources
     00002AAD  C$resources.c$128$1_0$114          resources
     00002AAF  A$resources$825                    resources
     00002AB0  A$resources$826                    resources
     00002AB3  A$resources$827                    resources
     00002AB4  A$resources$828                    resources
     00002AB5  A$resources$829                    resources
     00002AB8  A$resources$830                    resources
     00002AB9  A$resources$834                    resources
     00002ABA  A$resources$835                    resources
     00002ABC  A$resources$840                    resources
     00002ABC  C$resources.c$129$1_0$114          resources
     00002ABC  XG$print_unsigned_char$0$0         resources
     00002ABD  A$resources$850                    resources
     00002ABD  C$resources.c$131$1_0$116          resources
     00002ABD  G$print_signed_char$0$0            resources
     00002ABD  _print_signed_char                 resources
     00002ABF  A$resources$851                    resources
     00002AC3  A$resources$852                    resources
     00002AC5  A$resources$853                    resources
     00002AC6  A$resources$857                    resources
     00002AC6  C$resources.c$134$1_0$116          resources
     00002AC7  A$resources$858                    resources
     00002AC8  A$resources$859                    resources
     00002ACA  A$resources$860                    resources
     00002ACB  A$resources$861                    resources
     00002ACE  A$resources$862                    resources
     00002ACF  A$resources$866                    resources
     00002ACF  C$resources.c$135$1_0$116          resources
     00002AD3  A$resources$867                    resources
     00002AD5  A$resources$871                    resources
     00002AD5  C$resources.c$136$2_0$117          resources
     00002AD8  A$resources$872                    resources
     00002AD9  A$resources$873                    resources
     00002ADC  A$resources$874                    resources
     00002ADD  A$resources$878                    resources
     00002ADD  C$resources.c$137$2_0$117          resources
     00002ADE  A$resources$879                    resources
     00002AE1  A$resources$880                    resources
ASxxxx Linker V03.00 + NoICE + sdld,  page 128.
Hexadecimal  [32-Bits]

Area                                    Addr        Size        Decimal Bytes (Attributes)
--------------------------------        ----        ----        ------- ----- ------------
_CODE                               00000200    00006F18 =       28440. bytes (REL,CON)

      Value  Global                              Global Defined In Module
      -----  --------------------------------   ------------------------
     00002AE4  A$resources$885                    resources
     00002AE4  C$resources.c$139$1_0$116          resources
     00002AE7  A$resources$886                    resources
     00002AE8  A$resources$887                    resources
     00002AE9  A$resources$888                    resources
     00002AEA  A$resources$889                    resources
     00002AEB  A$resources$890                    resources
     00002AEC  A$resources$891                    resources
     00002AEF  A$resources$892                    resources
     00002AF0  A$resources$893                    resources
     00002AF1  A$resources$894                    resources
     00002AF4  A$resources$895                    resources
     00002AF5  A$resources$896                    resources
     00002AF6  A$resources$897                    resources
     00002AF7  A$resources$901                    resources
     00002AF7  C$resources.c$140$1_0$116          resources
     00002AFA  A$resources$902                    resources
     00002AFB  A$resources$903                    resources
     00002AFD  A$resources$904                    resources
     00002B00  A$resources$905                    resources
     00002B01  A$resources$906                    resources
     00002B02  A$resources$907                    resources
     00002B03  A$resources$908                    resources
     00002B04  A$resources$909                    resources
     00002B07  A$resources$910                    resources
     00002B08  A$resources$911                    resources
     00002B09  A$resources$912                    resources
     00002B0A  A$resources$916                    resources
     00002B0A  C$resources.c$141$1_0$116          resources
     00002B0B  A$resources$917                    resources
     00002B0C  A$resources$918                    resources
     00002B0D  A$resources$919                    resources
     00002B0E  A$resources$920                    resources
     00002B0F  A$resources$921                    resources
     00002B10  A$resources$922                    resources
     00002B11  A$resources$923                    resources
     00002B12  A$resources$924                    resources
     00002B13  A$resources$925                    resources
     00002B14  A$resources$926                    resources
     00002B15  A$resources$927                    resources
     00002B16  A$resources$928                    resources
     00002B17  A$resources$929                    resources
     00002B18  A$resources$930                    resources
     00002B19  A$resources$931                    resources
     00002B1A  A$resources$932                    resources
     00002B1D  A$resources$933                    resources
     00002B1E  A$resources$934                    resources
     00002B1F  A$resources$935                    resources
     00002B22  A$resources$936                    resources
     00002B23  A$resources$937                    resources
     00002B24  A$resources$938                    resources
ASxxxx Linker V03.00 + NoICE + sdld,  page 129.
Hexadecimal  [32-Bits]

Area                                    Addr        Size        Decimal Bytes (Attributes)
--------------------------------        ----        ----        ------- ----- ------------
_CODE                               00000200    00006F18 =       28440. bytes (REL,CON)

      Value  Global                              Global Defined In Module
      -----  --------------------------------   ------------------------
     00002B25  A$resources$942                    resources
     00002B25  C$resources.c$142$1_0$116          resources
     00002B27  A$resources$943                    resources
     00002B28  A$resources$944                    resources
     00002B2B  A$resources$945                    resources
     00002B2C  A$resources$946                    resources
     00002B2D  A$resources$947                    resources
     00002B2E  A$resources$948                    resources
     00002B31  A$resources$949                    resources
     00002B32  A$resources$950                    resources
     00002B33  A$resources$954                    resources
     00002B33  C$resources.c$143$1_0$116          resources
     00002B36  A$resources$955                    resources
     00002B37  A$resources$956                    resources
     00002B38  A$resources$957                    resources
     00002B39  A$resources$958                    resources
     00002B3A  A$resources$959                    resources
     00002B3B  A$resources$960                    resources
     00002B3C  A$resources$961                    resources
     00002B3D  A$resources$962                    resources
     00002B3E  A$resources$963                    resources
     00002B3F  A$resources$964                    resources
     00002B40  A$resources$965                    resources
     00002B43  A$resources$966                    resources
     00002B44  A$resources$967                    resources
     00002B45  A$resources$968                    resources
     00002B46  A$resources$969                    resources
     00002B47  A$resources$970                    resources
     00002B48  A$resources$971                    resources
     00002B49  A$resources$972                    resources
     00002B4A  A$resources$973                    resources
     00002B4B  A$resources$974                    resources
     00002B4C  A$resources$975                    resources
     00002B4D  A$resources$979                    resources
     00002B4D  C$resources.c$144$1_0$116          resources
     00002B4F  A$resources$980                    resources
     00002B50  A$resources$981                    resources
     00002B53  A$resources$982                    resources
     00002B54  A$resources$983                    resources
     00002B55  A$resources$984                    resources
     00002B58  A$resources$985                    resources
     00002B59  A$resources$989                    resources
     00002B5A  A$resources$990                    resources
     00002B5C  A$resources$995                    resources
     00002B5C  C$resources.c$145$1_0$116          resources
     00002B5C  XG$print_signed_char$0$0           resources
     00002B5D  A$player$87                        player
     00002B5D  C$player.c$14$0_0$99               player
     00002B5D  G$add_player$0$0                   player
     00002B5D  _add_player                        player
     00002B5F  A$player$91                        player
ASxxxx Linker V03.00 + NoICE + sdld,  page 130.
Hexadecimal  [32-Bits]

Area                                    Addr        Size        Decimal Bytes (Attributes)
--------------------------------        ----        ----        ------- ----- ------------
_CODE                               00000200    00006F18 =       28440. bytes (REL,CON)

      Value  Global                              Global Defined In Module
      -----  --------------------------------   ------------------------
     00002B5F  C$player.c$17$1_0$99               player
     00002B62  A$player$92                        player
     00002B63  A$player$93                        player
     00002B64  A$player$94                        player
     00002B65  A$player$95                        player
     00002B67  A$player$99                        player
     00002B67  C$player.c$18$2_0$100              player
     00002B6A  A$player$103                       player
     00002B6A  C$player.c$19$2_0$100              player
     00002B6D  A$player$104                       player
     00002B6F  A$player$109                       player
     00002B6F  C$player.c$21$2_0$101              player
     00002B72  A$player$114                       player
     00002B72  C$player.c$23$1_0$99               player
     00002B73  A$player$115                       player
     00002B74  A$player$116                       player
     00002B75  A$player$117                       player
     00002B76  A$player$118                       player
     00002B77  A$player$119                       player
     00002B79  A$player$123                       player
     00002B79  C$player.c$24$2_0$102              player
     00002B7A  A$player$124                       player
     00002B7B  A$player$125                       player
     00002B7C  A$player$126                       player
     00002B7D  A$player$127                       player
     00002B7E  A$player$128                       player
     00002B7F  A$player$129                       player
     00002B80  A$player$130                       player
     00002B81  A$player$134                       player
     00002B81  C$player.c$25$2_0$102              player
     00002B84  A$player$135                       player
     00002B85  A$player$136                       player
     00002B86  A$player$137                       player
     00002B87  A$player$138                       player
     00002B88  A$player$139                       player
     00002B89  A$player$143                       player
     00002B89  C$player.c$26$2_0$102              player
     00002B8C  A$player$144                       player
     00002B8D  A$player$145                       player
     00002B8F  A$player$149                       player
     00002B8F  C$player.c$27$2_0$102              player
     00002B92  A$player$150                       player
     00002B93  A$player$151                       player
     00002B95  A$player$155                       player
     00002B95  C$player.c$28$2_0$102              player
     00002B96  A$player$156                       player
     00002B99  A$player$157                       player
     00002B9A  A$player$158                       player
     00002B9D  A$player$159                       player
     00002B9E  A$player$160                       player
     00002BA1  A$player$161                       player
ASxxxx Linker V03.00 + NoICE + sdld,  page 131.
Hexadecimal  [32-Bits]

Area                                    Addr        Size        Decimal Bytes (Attributes)
--------------------------------        ----        ----        ------- ----- ------------
_CODE                               00000200    00006F18 =       28440. bytes (REL,CON)

      Value  Global                              Global Defined In Module
      -----  --------------------------------   ------------------------
     00002BA2  A$player$162                       player
     00002BA3  A$player$163                       player
     00002BA4  A$player$164                       player
     00002BA5  A$player$165                       player
     00002BA6  A$player$166                       player
     00002BA7  A$player$167                       player
     00002BA8  A$player$168                       player
     00002BA9  A$player$169                       player
     00002BAA  A$player$173                       player
     00002BAA  C$player.c$29$2_0$102              player
     00002BAD  A$player$174                       player
     00002BAE  A$player$175                       player
     00002BB0  A$player$179                       player
     00002BB0  C$player.c$30$2_0$102              player
     00002BB3  A$player$180                       player
     00002BB4  A$player$181                       player
     00002BB6  A$player$186                       player
     00002BB8  A$player$191                       player
     00002BB8  C$player.c$32$1_0$99               player
     00002BB8  XG$add_player$0$0                  player
     00002BB9  Fplayer$player_character$0_0$0     player
     000051EF  A$player$9921                      player
     000051EF  C$player.c$34$1_0$104              player
     000051EF  G$manage_input$0$0                 player
     000051EF  _manage_input                      player
     000051F1  A$player$9922                      player
     000051F5  A$player$9923                      player
     000051F7  A$player$9927                      player
     000051F7  C$player.c$35$1_0$104              player
     000051FA  A$player$9928                      player
     000051FB  A$player$9929                      player
     000051FD  A$player$9930                      player
     000051FF  A$player$9931                      player
     00005201  A$player$9932                      player
     00005203  A$player$9933                      player
     00005205  A$player$9934                      player
     00005207  A$player$9935                      player
     00005209  A$player$9936                      player
     0000520B  A$player$9944                      player
     0000520B  C$player.c$36$2_0$105              player
     0000520B  C$player.c$37$2_0$105              player
     0000520E  A$player$9945                      player
     00005211  A$player$9946                      player
     00005212  A$player$9947                      player
     00005214  A$player$9948                      player
     00005215  A$player$9949                      player
     00005216  A$player$9950                      player
     00005219  A$player$9951                      player
     0000521A  A$player$9952                      player
     0000521B  A$player$9956                      player
     0000521B  C$player.c$38$2_0$105              player
ASxxxx Linker V03.00 + NoICE + sdld,  page 132.
Hexadecimal  [32-Bits]

Area                                    Addr        Size        Decimal Bytes (Attributes)
--------------------------------        ----        ----        ------- ----- ------------
_CODE                               00000200    00006F18 =       28440. bytes (REL,CON)

      Value  Global                              Global Defined In Module
      -----  --------------------------------   ------------------------
     0000521D  A$player$9964                      player
     0000521D  C$player.c$39$2_0$105              player
     0000521D  C$player.c$40$2_0$105              player
     00005220  A$player$9965                      player
     00005223  A$player$9966                      player
     00005224  A$player$9967                      player
     00005226  A$player$9968                      player
     00005227  A$player$9969                      player
     00005228  A$player$9970                      player
     0000522B  A$player$9971                      player
     0000522C  A$player$9972                      player
     0000522D  A$player$9976                      player
     0000522D  C$player.c$41$2_0$105              player
     0000522F  A$player$9984                      player
     0000522F  C$player.c$42$2_0$105              player
     0000522F  C$player.c$43$2_0$105              player
     00005232  A$player$9985                      player
     00005235  A$player$9986                      player
     00005236  A$player$9987                      player
     00005238  A$player$9988                      player
     00005239  A$player$9989                      player
     0000523A  A$player$9990                      player
     0000523D  A$player$9991                      player
     0000523E  A$player$9992                      player
     0000523F  A$player$9996                      player
     0000523F  C$player.c$44$2_0$105              player
     00005241  A$player$10004                     player
     00005241  C$player.c$45$2_0$105              player
     00005241  C$player.c$46$2_0$105              player
     00005244  A$player$10005                     player
     00005247  A$player$10006                     player
     00005248  A$player$10007                     player
     0000524A  A$player$10008                     player
     0000524B  A$player$10009                     player
     0000524C  A$player$10010                     player
     0000524F  A$player$10011                     player
     00005250  A$player$10012                     player
     00005251  A$player$10020                     player
     00005251  C$player.c$50$1_0$104              player
     00005251  C$player.c$51$1_0$104              player
     00005254  A$player$10021                     player
     00005255  A$player$10022                     player
     00005256  A$player$10023                     player
     00005258  A$player$10027                     player
     00005258  C$player.c$52$2_0$106              player
     0000525B  A$player$10028                     player
     0000525C  A$player$10029                     player
     0000525E  A$player$10030                     player
     00005260  A$player$10031                     player
     00005262  A$player$10032                     player
     00005264  A$player$10033                     player
ASxxxx Linker V03.00 + NoICE + sdld,  page 133.
Hexadecimal  [32-Bits]

Area                                    Addr        Size        Decimal Bytes (Attributes)
--------------------------------        ----        ----        ------- ----- ------------
_CODE                               00000200    00006F18 =       28440. bytes (REL,CON)

      Value  Global                              Global Defined In Module
      -----  --------------------------------   ------------------------
     00005266  A$player$10034                     player
     00005268  A$player$10035                     player
     0000526A  A$player$10036                     player
     0000526C  A$player$10044                     player
     0000526C  C$player.c$53$3_0$107              player
     0000526C  C$player.c$54$3_0$107              player
     0000526F  A$player$10045                     player
     00005272  A$player$10046                     player
     00005273  A$player$10047                     player
     00005275  A$player$10048                     player
     00005276  A$player$10049                     player
     00005277  A$player$10050                     player
     0000527A  A$player$10051                     player
     0000527B  A$player$10052                     player
     0000527C  A$player$10056                     player
     0000527C  C$player.c$55$3_0$107              player
     0000527E  A$player$10064                     player
     0000527E  C$player.c$56$3_0$107              player
     0000527E  C$player.c$57$3_0$107              player
     00005281  A$player$10065                     player
     00005284  A$player$10066                     player
     00005285  A$player$10067                     player
     00005287  A$player$10068                     player
     00005288  A$player$10069                     player
     00005289  A$player$10070                     player
     0000528C  A$player$10071                     player
     0000528D  A$player$10072                     player
     0000528E  A$player$10076                     player
     0000528E  C$player.c$58$3_0$107              player
     00005290  A$player$10084                     player
     00005290  C$player.c$59$3_0$107              player
     00005290  C$player.c$60$3_0$107              player
     00005293  A$player$10085                     player
     00005296  A$player$10086                     player
     00005297  A$player$10087                     player
     00005299  A$player$10088                     player
     0000529A  A$player$10089                     player
     0000529B  A$player$10090                     player
     0000529E  A$player$10091                     player
     0000529F  A$player$10092                     player
     000052A0  A$player$10096                     player
     000052A0  C$player.c$61$3_0$107              player
     000052A2  A$player$10104                     player
     000052A2  C$player.c$62$3_0$107              player
     000052A2  C$player.c$63$3_0$107              player
     000052A5  A$player$10105                     player
     000052A8  A$player$10106                     player
     000052A9  A$player$10107                     player
     000052AB  A$player$10108                     player
     000052AC  A$player$10109                     player
     000052AD  A$player$10110                     player
ASxxxx Linker V03.00 + NoICE + sdld,  page 134.
Hexadecimal  [32-Bits]

Area                                    Addr        Size        Decimal Bytes (Attributes)
--------------------------------        ----        ----        ------- ----- ------------
_CODE                               00000200    00006F18 =       28440. bytes (REL,CON)

      Value  Global                              Global Defined In Module
      -----  --------------------------------   ------------------------
     000052B0  A$player$10111                     player
     000052B1  A$player$10112                     player
     000052B2  A$player$10120                     player
     000052B2  C$player.c$67$1_0$104              player
     000052B4  A$player$10125                     player
     000052B4  C$player.c$69$1_0$104              player
     000052B4  XG$manage_input$0$0                player
     000052B5  A$player$10135                     player
     000052B5  C$player.c$71$1_0$109              player
     000052B5  G$manage_player_iddle_status$0$0   player
     000052B5  _manage_player_iddle_status        player
     000052B7  A$player$10136                     player
     000052BB  A$player$10137                     player
     000052BD  A$player$10141                     player
     000052BD  C$player.c$72$1_0$109              player
     000052C0  A$player$10142                     player
     000052C1  A$player$10143                     player
     000052C4  A$player$10147                     player
     000052C4  C$player.c$73$2_0$110              player
     000052C7  A$player$10148                     player
     000052C8  A$player$10149                     player
     000052CA  A$player$10153                     player
     000052CA  C$player.c$74$3_0$111              player
     000052CD  A$player$10154                     player
     000052CE  A$player$10155                     player
     000052CF  A$player$10156                     player
     000052D0  A$player$10157                     player
     000052D1  A$player$10158                     player
     000052D2  A$player$10159                     player
     000052D5  A$player$10160                     player
     000052D6  A$player$10161                     player
     000052D8  A$player$10162                     player
     000052DA  A$player$10166                     player
     000052DA  C$player.c$75$4_0$112              player
     000052DD  A$player$10167                     player
     000052DF  A$player$10171                     player
     000052DF  C$player.c$76$4_0$112              player
     000052E2  A$player$10175                     player
     000052E2  C$player.c$77$4_0$112              player
     000052E5  A$player$10176                     player
     000052E6  A$player$10177                     player
     000052E7  A$player$10178                     player
     000052E8  A$player$10179                     player
     000052EB  A$player$10180                     player
     000052EC  A$player$10181                     player
     000052ED  A$player$10182                     player
     000052EE  A$player$10183                     player
     000052F1  A$player$10184                     player
     000052F2  A$player$10185                     player
     000052F3  A$player$10186                     player
     000052F6  A$player$10191                     player
ASxxxx Linker V03.00 + NoICE + sdld,  page 135.
Hexadecimal  [32-Bits]

Area                                    Addr        Size        Decimal Bytes (Attributes)
--------------------------------        ----        ----        ------- ----- ------------
_CODE                               00000200    00006F18 =       28440. bytes (REL,CON)

      Value  Global                              Global Defined In Module
      -----  --------------------------------   ------------------------
     000052F6  C$player.c$78$3_0$111              player
     000052F9  A$player$10192                     player
     000052FA  A$player$10193                     player
     000052FB  A$player$10194                     player
     000052FC  A$player$10195                     player
     000052FD  A$player$10196                     player
     000052FE  A$player$10197                     player
     00005301  A$player$10198                     player
     00005302  A$player$10199                     player
     00005304  A$player$10200                     player
     00005307  A$player$10201                     player
     0000530A  A$player$10202                     player
     0000530B  A$player$10203                     player
     0000530E  A$player$10204                     player
     0000530F  A$player$10205                     player
     00005310  A$player$10206                     player
     00005313  A$player$10207                     player
     00005314  A$player$10208                     player
     00005317  A$player$10212                     player
     00005317  C$player.c$79$4_0$113              player
     0000531A  A$player$10213                     player
     0000531C  A$player$10217                     player
     0000531C  C$player.c$80$4_0$113              player
     0000531F  A$player$10221                     player
     0000531F  C$player.c$81$4_0$113              player
     00005322  A$player$10222                     player
     00005323  A$player$10223                     player
     00005324  A$player$10224                     player
     00005325  A$player$10225                     player
     00005328  A$player$10226                     player
     00005329  A$player$10227                     player
     0000532A  A$player$10228                     player
     0000532B  A$player$10229                     player
     0000532E  A$player$10230                     player
     0000532F  A$player$10231                     player
     00005330  A$player$10232                     player
     00005333  A$player$10237                     player
     00005333  C$player.c$84$3_0$114              player
     00005336  A$player$10238                     player
     00005337  A$player$10239                     player
     0000533A  A$player$10240                     player
     0000533B  A$player$10241                     player
     0000533C  A$player$10242                     player
     0000533F  A$player$10243                     player
     00005340  A$player$10244                     player
     00005342  A$player$10248                     player
     00005342  C$player.c$85$4_0$115              player
     00005345  A$player$10249                     player
     00005347  A$player$10253                     player
     00005347  C$player.c$86$4_0$115              player
     0000534A  A$player$10254                     player
ASxxxx Linker V03.00 + NoICE + sdld,  page 136.
Hexadecimal  [32-Bits]

Area                                    Addr        Size        Decimal Bytes (Attributes)
--------------------------------        ----        ----        ------- ----- ------------
_CODE                               00000200    00006F18 =       28440. bytes (REL,CON)

      Value  Global                              Global Defined In Module
      -----  --------------------------------   ------------------------
     0000534D  A$player$10258                     player
     0000534D  C$player.c$87$4_0$115              player
     00005350  A$player$10259                     player
     00005352  A$player$10263                     player
     00005352  C$player.c$88$4_0$115              player
     00005355  A$player$10264                     player
     00005358  A$player$10265                     player
     00005359  A$player$10266                     player
     0000535B  A$player$10267                     player
     0000535E  A$player$10272                     player
     0000535E  C$player.c$89$3_0$114              player
     00005361  A$player$10273                     player
     00005362  A$player$10274                     player
     00005365  A$player$10275                     player
     00005366  A$player$10276                     player
     00005367  A$player$10277                     player
     0000536A  A$player$10278                     player
     0000536B  A$player$10279                     player
     0000536D  A$player$10283                     player
     0000536D  C$player.c$90$4_0$116              player
     00005370  A$player$10284                     player
     00005372  A$player$10288                     player
     00005372  C$player.c$91$4_0$116              player
     00005375  A$player$10289                     player
     00005378  A$player$10293                     player
     00005378  C$player.c$92$4_0$116              player
     0000537B  A$player$10294                     player
     0000537D  A$player$10298                     player
     0000537D  C$player.c$93$4_0$116              player
     00005380  A$player$10299                     player
     00005383  A$player$10300                     player
     00005384  A$player$10301                     player
     00005386  A$player$10302                     player
     00005389  A$player$10307                     player
     00005389  C$player.c$94$3_0$114              player
     0000538C  A$player$10308                     player
     0000538D  A$player$10309                     player
     00005390  A$player$10310                     player
     00005391  A$player$10311                     player
     00005392  A$player$10312                     player
     00005395  A$player$10313                     player
     00005396  A$player$10314                     player
     00005398  A$player$10318                     player
     00005398  C$player.c$95$4_0$117              player
     0000539B  A$player$10319                     player
     0000539D  A$player$10323                     player
     0000539D  C$player.c$96$4_0$117              player
     000053A0  A$player$10324                     player
     000053A3  A$player$10328                     player
     000053A3  C$player.c$97$4_0$117              player
     000053A6  A$player$10329                     player
ASxxxx Linker V03.00 + NoICE + sdld,  page 137.
Hexadecimal  [32-Bits]

Area                                    Addr        Size        Decimal Bytes (Attributes)
--------------------------------        ----        ----        ------- ----- ------------
_CODE                               00000200    00006F18 =       28440. bytes (REL,CON)

      Value  Global                              Global Defined In Module
      -----  --------------------------------   ------------------------
     000053A8  A$player$10330                     player
     000053AB  A$player$10335                     player
     000053AB  C$player.c$98$3_0$114              player
     000053AE  A$player$10336                     player
     000053AF  A$player$10337                     player
     000053B2  A$player$10338                     player
     000053B3  A$player$10339                     player
     000053B4  A$player$10340                     player
     000053B7  A$player$10341                     player
     000053B8  A$player$10342                     player
     000053BA  A$player$10346                     player
     000053BD  A$player$10347                     player
     000053BE  A$player$10351                     player
     000053BE  C$player.c$85$1_0$109              player
     000053C1  A$player$10355                     player
     000053C1  C$player.c$99$4_0$118              player
     000053C4  A$player$10356                     player
     000053C5  A$player$10357                     player
     000053C6  A$player$10358                     player
     000053C9  A$player$10359                     player
     000053CA  A$player$10360                     player
     000053CB  A$player$10361                     player
     000053CD  A$player$10365                     player
     000053CD  C$player.c$100$5_0$119             player
     000053CF  A$player$10369                     player
     000053CF  C$player.c$101$5_0$119             player
     000053D2  A$player$10370                     player
     000053D3  A$player$10371                     player
     000053D4  A$player$10372                     player
     000053D5  A$player$10373                     player
     000053D8  A$player$10374                     player
     000053D9  A$player$10375                     player
     000053DA  A$player$10376                     player
     000053DB  A$player$10377                     player
     000053DE  A$player$10378                     player
     000053DF  A$player$10379                     player
     000053E0  A$player$10380                     player
     000053E3  A$player$10385                     player
     000053E3  C$player.c$103$5_0$120             player
     000053E5  A$player$10389                     player
     000053E5  C$player.c$104$5_0$120             player
     000053E8  A$player$10390                     player
     000053EB  A$player$10394                     player
     000053EB  C$player.c$105$5_0$120             player
     000053EE  A$player$10395                     player
     000053F0  A$player$10396                     player
     000053F3  A$player$10401                     player
     000053F3  C$player.c$107$3_0$114             player
     000053F6  A$player$10402                     player
     000053F7  A$player$10403                     player
     000053FA  A$player$10404                     player
ASxxxx Linker V03.00 + NoICE + sdld,  page 138.
Hexadecimal  [32-Bits]

Area                                    Addr        Size        Decimal Bytes (Attributes)
--------------------------------        ----        ----        ------- ----- ------------
_CODE                               00000200    00006F18 =       28440. bytes (REL,CON)

      Value  Global                              Global Defined In Module
      -----  --------------------------------   ------------------------
     000053FB  A$player$10405                     player
     000053FC  A$player$10406                     player
     000053FF  A$player$10407                     player
     00005400  A$player$10408                     player
     00005402  A$player$10409                     player
     00005405  A$player$10410                     player
     00005406  A$player$10411                     player
     00005408  A$player$10415                     player
     00005408  C$player.c$108$4_0$121             player
     0000540B  A$player$10416                     player
     0000540D  A$player$10420                     player
     0000540D  C$player.c$109$4_0$121             player
     00005410  A$player$10421                     player
     00005411  A$player$10422                     player
     00005412  A$player$10423                     player
     00005413  A$player$10424                     player
     00005416  A$player$10425                     player
     00005417  A$player$10426                     player
     00005418  A$player$10427                     player
     00005419  A$player$10428                     player
     0000541C  A$player$10429                     player
     0000541D  A$player$10430                     player
     0000541E  A$player$10434                     player
     0000541E  C$player.c$110$4_0$121             player
     00005421  A$player$10435                     player
     00005424  A$player$10440                     player
     00005424  C$player.c$112$3_0$114             player
     00005427  A$player$10441                     player
     00005428  A$player$10442                     player
     0000542B  A$player$10443                     player
     0000542C  A$player$10444                     player
     0000542D  A$player$10445                     player
     00005430  A$player$10446                     player
     00005431  A$player$10447                     player
     00005434  A$player$10451                     player
     00005434  C$player.c$113$4_0$122             player
     00005437  A$player$10452                     player
     00005439  A$player$10456                     player
     00005439  C$player.c$114$4_0$122             player
     0000543C  A$player$10457                     player
     0000543F  A$player$10461                     player
     0000543F  C$player.c$115$4_0$122             player
     00005442  A$player$10462                     player
     00005444  A$player$10463                     player
     00005447  A$player$10468                     player
     00005447  C$player.c$120$2_0$123             player
     0000544A  A$player$10469                     player
     0000544B  A$player$10470                     player
     0000544D  A$player$10474                     player
     0000544D  C$player.c$121$3_0$124             player
     00005450  A$player$10475                     player
ASxxxx Linker V03.00 + NoICE + sdld,  page 139.
Hexadecimal  [32-Bits]

Area                                    Addr        Size        Decimal Bytes (Attributes)
--------------------------------        ----        ----        ------- ----- ------------
_CODE                               00000200    00006F18 =       28440. bytes (REL,CON)

      Value  Global                              Global Defined In Module
      -----  --------------------------------   ------------------------
     00005451  A$player$10476                     player
     00005452  A$player$10477                     player
     00005453  A$player$10478                     player
     00005454  A$player$10479                     player
     00005455  A$player$10480                     player
     00005458  A$player$10481                     player
     00005459  A$player$10482                     player
     0000545B  A$player$10483                     player
     0000545D  A$player$10487                     player
     0000545D  C$player.c$122$4_0$125             player
     00005460  A$player$10488                     player
     00005462  A$player$10492                     player
     00005462  C$player.c$123$4_0$125             player
     00005465  A$player$10493                     player
     00005466  A$player$10494                     player
     00005467  A$player$10495                     player
     00005468  A$player$10496                     player
     0000546B  A$player$10497                     player
     0000546C  A$player$10498                     player
     0000546D  A$player$10499                     player
     0000546E  A$player$10500                     player
     00005471  A$player$10501                     player
     00005472  A$player$10502                     player
     00005473  A$player$10506                     player
     00005473  C$player.c$124$4_0$125             player
     00005476  A$player$10507                     player
     00005479  A$player$10512                     player
     00005479  C$player.c$125$3_0$124             player
     0000547C  A$player$10513                     player
     0000547D  A$player$10514                     player
     0000547E  A$player$10515                     player
     0000547F  A$player$10516                     player
     00005480  A$player$10517                     player
     00005481  A$player$10518                     player
     00005484  A$player$10519                     player
     00005485  A$player$10520                     player
     00005487  A$player$10521                     player
     0000548A  A$player$10522                     player
     0000548D  A$player$10523                     player
     0000548E  A$player$10524                     player
     00005491  A$player$10525                     player
     00005492  A$player$10526                     player
     00005493  A$player$10527                     player
     00005496  A$player$10528                     player
     00005497  A$player$10529                     player
     0000549A  A$player$10533                     player
     0000549A  C$player.c$126$4_0$126             player
     0000549D  A$player$10534                     player
     0000549F  A$player$10538                     player
     0000549F  C$player.c$127$4_0$126             player
     000054A2  A$player$10542                     player
ASxxxx Linker V03.00 + NoICE + sdld,  page 140.
Hexadecimal  [32-Bits]

Area                                    Addr        Size        Decimal Bytes (Attributes)
--------------------------------        ----        ----        ------- ----- ------------
_CODE                               00000200    00006F18 =       28440. bytes (REL,CON)

      Value  Global                              Global Defined In Module
      -----  --------------------------------   ------------------------
     000054A2  C$player.c$128$4_0$126             player
     000054A5  A$player$10543                     player
     000054A6  A$player$10544                     player
     000054A7  A$player$10545                     player
     000054A8  A$player$10546                     player
     000054AB  A$player$10547                     player
     000054AC  A$player$10548                     player
     000054AD  A$player$10549                     player
     000054AE  A$player$10550                     player
     000054B1  A$player$10551                     player
     000054B2  A$player$10552                     player
     000054B3  A$player$10553                     player
     000054B6  A$player$10558                     player
     000054B6  C$player.c$131$3_0$127             player
     000054B9  A$player$10559                     player
     000054BA  A$player$10560                     player
     000054BD  A$player$10561                     player
     000054BE  A$player$10562                     player
     000054BF  A$player$10563                     player
     000054C2  A$player$10564                     player
     000054C3  A$player$10565                     player
     000054C5  A$player$10569                     player
     000054C5  C$player.c$132$4_0$128             player
     000054C8  A$player$10570                     player
     000054CA  A$player$10574                     player
     000054CA  C$player.c$133$4_0$128             player
     000054CD  A$player$10575                     player
     000054D0  A$player$10579                     player
     000054D0  C$player.c$134$4_0$128             player
     000054D3  A$player$10580                     player
     000054D5  A$player$10584                     player
     000054D5  C$player.c$135$4_0$128             player
     000054D8  A$player$10585                     player
     000054DB  A$player$10586                     player
     000054DC  A$player$10587                     player
     000054DE  A$player$10588                     player
     000054E1  A$player$10593                     player
     000054E1  C$player.c$136$3_0$127             player
     000054E4  A$player$10594                     player
     000054E5  A$player$10595                     player
     000054E8  A$player$10596                     player
     000054E9  A$player$10597                     player
     000054EA  A$player$10598                     player
     000054ED  A$player$10599                     player
     000054EE  A$player$10600                     player
     000054F0  A$player$10604                     player
     000054F0  C$player.c$137$4_0$129             player
     000054F3  A$player$10605                     player
     000054F5  A$player$10609                     player
     000054F5  C$player.c$138$4_0$129             player
     000054F8  A$player$10610                     player
ASxxxx Linker V03.00 + NoICE + sdld,  page 141.
Hexadecimal  [32-Bits]

Area                                    Addr        Size        Decimal Bytes (Attributes)
--------------------------------        ----        ----        ------- ----- ------------
_CODE                               00000200    00006F18 =       28440. bytes (REL,CON)

      Value  Global                              Global Defined In Module
      -----  --------------------------------   ------------------------
     000054FB  A$player$10614                     player
     000054FB  C$player.c$139$4_0$129             player
     000054FE  A$player$10615                     player
     00005500  A$player$10619                     player
     00005500  C$player.c$140$4_0$129             player
     00005503  A$player$10620                     player
     00005506  A$player$10621                     player
     00005507  A$player$10622                     player
     00005509  A$player$10623                     player
     0000550C  A$player$10628                     player
     0000550C  C$player.c$141$3_0$127             player
     0000550F  A$player$10629                     player
     00005510  A$player$10630                     player
     00005513  A$player$10631                     player
     00005514  A$player$10632                     player
     00005515  A$player$10633                     player
     00005518  A$player$10634                     player
     00005519  A$player$10635                     player
     0000551B  A$player$10639                     player
     0000551B  C$player.c$142$4_0$130             player
     0000551E  A$player$10640                     player
     00005520  A$player$10644                     player
     00005520  C$player.c$143$4_0$130             player
     00005523  A$player$10645                     player
     00005526  A$player$10649                     player
     00005526  C$player.c$144$4_0$130             player
     00005529  A$player$10650                     player
     0000552B  A$player$10651                     player
     0000552E  A$player$10656                     player
     0000552E  C$player.c$145$3_0$127             player
     00005531  A$player$10657                     player
     00005532  A$player$10658                     player
     00005535  A$player$10659                     player
     00005536  A$player$10660                     player
     00005537  A$player$10661                     player
     0000553A  A$player$10662                     player
     0000553B  A$player$10663                     player
     0000553D  A$player$10667                     player
     00005540  A$player$10668                     player
     00005541  A$player$10672                     player
     00005541  C$player.c$132$1_0$109             player
     00005544  A$player$10676                     player
     00005544  C$player.c$146$4_0$131             player
     00005547  A$player$10677                     player
     00005548  A$player$10678                     player
     00005549  A$player$10679                     player
     0000554C  A$player$10680                     player
     0000554D  A$player$10681                     player
     0000554E  A$player$10682                     player
     00005550  A$player$10686                     player
     00005550  C$player.c$147$5_0$132             player
ASxxxx Linker V03.00 + NoICE + sdld,  page 142.
Hexadecimal  [32-Bits]

Area                                    Addr        Size        Decimal Bytes (Attributes)
--------------------------------        ----        ----        ------- ----- ------------
_CODE                               00000200    00006F18 =       28440. bytes (REL,CON)

      Value  Global                              Global Defined In Module
      -----  --------------------------------   ------------------------
     00005552  A$player$10690                     player
     00005552  C$player.c$148$5_0$132             player
     00005555  A$player$10691                     player
     00005556  A$player$10692                     player
     00005557  A$player$10693                     player
     00005558  A$player$10694                     player
     0000555B  A$player$10695                     player
     0000555C  A$player$10696                     player
     0000555D  A$player$10697                     player
     0000555E  A$player$10698                     player
     00005561  A$player$10699                     player
     00005562  A$player$10700                     player
     00005563  A$player$10701                     player
     00005565  A$player$10706                     player
     00005565  C$player.c$150$5_0$133             player
     00005567  A$player$10710                     player
     00005567  C$player.c$151$5_0$133             player
     0000556A  A$player$10711                     player
     0000556D  A$player$10715                     player
     0000556D  C$player.c$152$5_0$133             player
     00005570  A$player$10716                     player
     00005572  A$player$10717                     player
     00005574  A$player$10722                     player
     00005574  C$player.c$154$3_0$127             player
     00005577  A$player$10723                     player
     00005578  A$player$10724                     player
     0000557B  A$player$10725                     player
     0000557C  A$player$10726                     player
     0000557D  A$player$10727                     player
     00005580  A$player$10728                     player
     00005581  A$player$10729                     player
     00005583  A$player$10730                     player
     00005586  A$player$10731                     player
     00005587  A$player$10732                     player
     00005589  A$player$10736                     player
     00005589  C$player.c$155$4_0$134             player
     0000558C  A$player$10737                     player
     0000558E  A$player$10741                     player
     0000558E  C$player.c$156$4_0$134             player
     00005591  A$player$10742                     player
     00005592  A$player$10743                     player
     00005593  A$player$10744                     player
     00005594  A$player$10745                     player
     00005597  A$player$10746                     player
     00005598  A$player$10747                     player
     00005599  A$player$10748                     player
     0000559A  A$player$10749                     player
     0000559D  A$player$10750                     player
     0000559E  A$player$10751                     player
     0000559F  A$player$10755                     player
     0000559F  C$player.c$157$4_0$134             player
ASxxxx Linker V03.00 + NoICE + sdld,  page 143.
Hexadecimal  [32-Bits]

Area                                    Addr        Size        Decimal Bytes (Attributes)
--------------------------------        ----        ----        ------- ----- ------------
_CODE                               00000200    00006F18 =       28440. bytes (REL,CON)

      Value  Global                              Global Defined In Module
      -----  --------------------------------   ------------------------
     000055A2  A$player$10756                     player
     000055A4  A$player$10761                     player
     000055A4  C$player.c$158$3_0$127             player
     000055A7  A$player$10762                     player
     000055A8  A$player$10763                     player
     000055AB  A$player$10764                     player
     000055AC  A$player$10765                     player
     000055AD  A$player$10766                     player
     000055B0  A$player$10767                     player
     000055B1  A$player$10768                     player
     000055B3  A$player$10772                     player
     000055B3  C$player.c$159$4_0$135             player
     000055B6  A$player$10773                     player
     000055B8  A$player$10777                     player
     000055B8  C$player.c$160$4_0$135             player
     000055BB  A$player$10778                     player
     000055BE  A$player$10782                     player
     000055BE  C$player.c$161$4_0$135             player
     000055C1  A$player$10783                     player
     000055C3  A$player$10788                     player
     000055C5  A$player$10793                     player
     000055C5  C$player.c$165$1_0$109             player
     000055C5  XG$manage_player_iddle_status$0$   player
     000055C6  A$player$10803                     player
     000055C6  C$player.c$167$1_0$137             player
     000055C6  G$manage_player_walking_status$0   player
     000055C6  _manage_player_walking_status      player
     000055C8  A$player$10804                     player
     000055CC  A$player$10805                     player
     000055CE  A$player$10806                     player
     000055CF  A$player$10810                     player
     000055CF  C$player.c$168$1_0$137             player
     000055D2  A$player$10811                     player
     000055D3  A$player$10812                     player
     000055D6  A$player$10816                     player
     000055D6  C$player.c$169$2_0$138             player
     000055D9  A$player$10817                     player
     000055DA  A$player$10818                     player
     000055DD  A$player$10822                     player
     000055DD  C$player.c$170$3_0$139             player
     000055E0  A$player$10823                     player
     000055E1  A$player$10824                     player
     000055E4  A$player$10825                     player
     000055E5  A$player$10826                     player
     000055E6  A$player$10827                     player
     000055E9  A$player$10828                     player
     000055EA  A$player$10829                     player
     000055EC  A$player$10833                     player
     000055EC  C$player.c$171$4_0$140             player
     000055EF  A$player$10834                     player
     000055F1  A$player$10838                     player
ASxxxx Linker V03.00 + NoICE + sdld,  page 144.
Hexadecimal  [32-Bits]

Area                                    Addr        Size        Decimal Bytes (Attributes)
--------------------------------        ----        ----        ------- ----- ------------
_CODE                               00000200    00006F18 =       28440. bytes (REL,CON)

      Value  Global                              Global Defined In Module
      -----  --------------------------------   ------------------------
     000055F1  C$player.c$172$4_0$140             player
     000055F4  A$player$10839                     player
     000055F5  A$player$10840                     player
     000055F6  A$player$10841                     player
     000055F7  A$player$10842                     player
     000055FA  A$player$10843                     player
     000055FB  A$player$10844                     player
     000055FC  A$player$10845                     player
     000055FD  A$player$10846                     player
     00005600  A$player$10847                     player
     00005601  A$player$10848                     player
     00005602  A$player$10852                     player
     00005602  C$player.c$173$4_0$140             player
     00005605  A$player$10853                     player
     00005608  A$player$10854                     player
     0000560B  A$player$10859                     player
     0000560B  C$player.c$175$4_0$141             player
     0000560E  A$player$10860                     player
     0000560F  A$player$10861                     player
     00005610  A$player$10862                     player
     00005611  A$player$10863                     player
     00005612  A$player$10864                     player
     00005613  A$player$10865                     player
     00005616  A$player$10866                     player
     00005617  A$player$10867                     player
     00005619  A$player$10868                     player
     0000561B  A$player$10872                     player
     0000561B  C$player.c$176$5_0$142             player
     0000561E  A$player$10873                     player
     00005620  A$player$10877                     player
     00005620  C$player.c$177$5_0$142             player
     00005623  A$player$10878                     player
     00005625  A$player$10882                     player
     00005625  C$player.c$178$5_0$142             player
     00005628  A$player$10883                     player
     0000562B  A$player$10887                     player
     0000562B  C$player.c$179$5_0$142             player
     0000562E  A$player$10888                     player
     0000562F  A$player$10889                     player
     00005630  A$player$10890                     player
     00005631  A$player$10891                     player
     00005634  A$player$10892                     player
     00005635  A$player$10893                     player
     00005636  A$player$10894                     player
     00005637  A$player$10895                     player
     0000563A  A$player$10896                     player
     0000563B  A$player$10897                     player
     0000563C  A$player$10901                     player
     0000563C  C$player.c$180$5_0$142             player
     0000563F  A$player$10902                     player
     00005642  A$player$10907                     player
ASxxxx Linker V03.00 + NoICE + sdld,  page 145.
Hexadecimal  [32-Bits]

Area                                    Addr        Size        Decimal Bytes (Attributes)
--------------------------------        ----        ----        ------- ----- ------------
_CODE                               00000200    00006F18 =       28440. bytes (REL,CON)

      Value  Global                              Global Defined In Module
      -----  --------------------------------   ------------------------
     00005642  C$player.c$181$4_0$141             player
     00005645  A$player$10908                     player
     00005646  A$player$10909                     player
     00005647  A$player$10910                     player
     00005648  A$player$10911                     player
     00005649  A$player$10912                     player
     0000564A  A$player$10913                     player
     0000564D  A$player$10914                     player
     0000564E  A$player$10915                     player
     00005650  A$player$10916                     player
     00005653  A$player$10917                     player
     00005656  A$player$10918                     player
     00005657  A$player$10919                     player
     0000565A  A$player$10920                     player
     0000565B  A$player$10921                     player
     0000565C  A$player$10922                     player
     0000565F  A$player$10923                     player
     00005660  A$player$10924                     player
     00005663  A$player$10928                     player
     00005663  C$player.c$182$5_0$143             player
     00005666  A$player$10929                     player
     00005668  A$player$10933                     player
     00005668  C$player.c$183$5_0$143             player
     0000566B  A$player$10934                     player
     0000566D  A$player$10938                     player
     0000566D  C$player.c$184$5_0$143             player
     00005670  A$player$10939                     player
     00005673  A$player$10943                     player
     00005673  C$player.c$185$5_0$143             player
     00005676  A$player$10947                     player
     00005676  C$player.c$186$5_0$143             player
     00005679  A$player$10948                     player
     0000567A  A$player$10949                     player
     0000567B  A$player$10950                     player
     0000567C  A$player$10951                     player
     0000567F  A$player$10952                     player
     00005680  A$player$10953                     player
     00005681  A$player$10954                     player
     00005682  A$player$10955                     player
     00005685  A$player$10956                     player
     00005686  A$player$10957                     player
     00005687  A$player$10958                     player
     0000568A  A$player$10963                     player
     0000568D  A$player$10970                     player
     0000568D  C$player.c$178$1_0$137             player
     0000568D  C$player.c$190$3_0$144             player
     0000568E  A$player$10971                     player
     00005691  A$player$10972                     player
     00005692  A$player$10973                     player
     00005693  A$player$10974                     player
     00005696  A$player$10975                     player
ASxxxx Linker V03.00 + NoICE + sdld,  page 146.
Hexadecimal  [32-Bits]

Area                                    Addr        Size        Decimal Bytes (Attributes)
--------------------------------        ----        ----        ------- ----- ------------
_CODE                               00000200    00006F18 =       28440. bytes (REL,CON)

      Value  Global                              Global Defined In Module
      -----  --------------------------------   ------------------------
     00005697  A$player$10976                     player
     00005699  A$player$10980                     player
     00005699  C$player.c$191$4_0$145             player
     0000569C  A$player$10981                     player
     0000569D  A$player$10982                     player
     0000569E  A$player$10983                     player
     0000569F  A$player$10984                     player
     000056A0  A$player$10985                     player
     000056A1  A$player$10986                     player
     000056A4  A$player$10987                     player
     000056A5  A$player$10988                     player
     000056A7  A$player$10989                     player
     000056A9  A$player$10993                     player
     000056A9  C$player.c$192$5_0$146             player
     000056AC  A$player$10994                     player
     000056AD  A$player$10995                     player
     000056AE  A$player$10996                     player
     000056AF  A$player$10997                     player
     000056B2  A$player$10998                     player
     000056B3  A$player$10999                     player
     000056B4  A$player$11000                     player
     000056B5  A$player$11001                     player
     000056B8  A$player$11002                     player
     000056B9  A$player$11003                     player
     000056BA  A$player$11008                     player
     000056BA  C$player.c$194$4_0$145             player
     000056BD  A$player$11009                     player
     000056BE  A$player$11010                     player
     000056C0  A$player$11014                     player
     000056C0  C$player.c$195$5_0$147             player
     000056C3  A$player$11015                     player
     000056C4  A$player$11016                     player
     000056C5  A$player$11017                     player
     000056C6  A$player$11018                     player
     000056C7  A$player$11019                     player
     000056C8  A$player$11020                     player
     000056CB  A$player$11021                     player
     000056CC  A$player$11026                     player
     000056CC  C$player.c$197$4_0$145             player
     000056CF  A$player$11027                     player
     000056D1  A$player$11031                     player
     000056D1  C$player.c$198$4_0$145             player
     000056D4  A$player$11032                     player
     000056D7  A$player$11033                     player
     000056D8  A$player$11034                     player
     000056DA  A$player$11035                     player
     000056DC  A$player$11040                     player
     000056DF  A$player$11041                     player
     000056E0  A$player$11045                     player
     000056E3  A$player$11049                     player
     000056E4  A$player$11050                     player
ASxxxx Linker V03.00 + NoICE + sdld,  page 147.
Hexadecimal  [32-Bits]

Area                                    Addr        Size        Decimal Bytes (Attributes)
--------------------------------        ----        ----        ------- ----- ------------
_CODE                               00000200    00006F18 =       28440. bytes (REL,CON)

      Value  Global                              Global Defined In Module
      -----  --------------------------------   ------------------------
     000056E5  A$player$11051                     player
     000056E6  A$player$11052                     player
     000056E9  A$player$11056                     player
     000056E9  C$player.c$199$3_0$144             player
     000056EC  A$player$11057                     player
     000056ED  A$player$11058                     player
     000056EE  A$player$11059                     player
     000056F1  A$player$11060                     player
     000056F2  A$player$11061                     player
     000056F3  A$player$11062                     player
     000056F5  A$player$11066                     player
     000056F5  C$player.c$200$4_0$148             player
     000056F8  A$player$11067                     player
     000056F9  A$player$11068                     player
     000056FA  A$player$11069                     player
     000056FD  A$player$11070                     player
     000056FE  A$player$11071                     player
     00005700  A$player$11072                     player
     00005702  A$player$11076                     player
     00005702  C$player.c$201$5_0$149             player
     00005705  A$player$11077                     player
     00005706  A$player$11078                     player
     00005707  A$player$11079                     player
     00005708  A$player$11080                     player
     0000570B  A$player$11081                     player
     0000570C  A$player$11082                     player
     0000570D  A$player$11083                     player
     0000570E  A$player$11084                     player
     00005711  A$player$11085                     player
     00005712  A$player$11086                     player
     00005713  A$player$11091                     player
     00005713  C$player.c$203$4_0$148             player
     00005716  A$player$11092                     player
     00005717  A$player$11093                     player
     00005719  A$player$11097                     player
     00005719  C$player.c$204$5_0$150             player
     0000571C  A$player$11098                     player
     0000571D  A$player$11099                     player
     0000571E  A$player$11100                     player
     0000571F  A$player$11101                     player
     00005720  A$player$11102                     player
     00005721  A$player$11103                     player
     00005724  A$player$11104                     player
     00005725  A$player$11109                     player
     00005725  C$player.c$206$4_0$148             player
     00005728  A$player$11110                     player
     0000572A  A$player$11114                     player
     0000572A  C$player.c$207$4_0$148             player
     0000572D  A$player$11115                     player
     00005730  A$player$11116                     player
     00005731  A$player$11117                     player
ASxxxx Linker V03.00 + NoICE + sdld,  page 148.
Hexadecimal  [32-Bits]

Area                                    Addr        Size        Decimal Bytes (Attributes)
--------------------------------        ----        ----        ------- ----- ------------
_CODE                               00000200    00006F18 =       28440. bytes (REL,CON)

      Value  Global                              Global Defined In Module
      -----  --------------------------------   ------------------------
     00005733  A$player$11118                     player
     00005735  A$player$11123                     player
     00005735  C$player.c$209$4_0$151             player
     00005738  A$player$11124                     player
     00005739  A$player$11125                     player
     0000573A  A$player$11126                     player
     0000573D  A$player$11127                     player
     0000573E  A$player$11128                     player
     00005740  A$player$11129                     player
     00005742  A$player$11133                     player
     00005742  C$player.c$210$5_0$152             player
     00005745  A$player$11134                     player
     00005748  A$player$11139                     player
     00005748  C$player.c$213$3_0$144             player
     0000574B  A$player$11140                     player
     0000574C  A$player$11141                     player
     0000574F  A$player$11142                     player
     00005750  A$player$11143                     player
     00005751  A$player$11144                     player
     00005754  A$player$11145                     player
     00005755  A$player$11146                     player
     00005757  A$player$11150                     player
     00005757  C$player.c$214$4_0$153             player
     0000575A  A$player$11151                     player
     0000575B  A$player$11152                     player
     0000575C  A$player$11153                     player
     0000575D  A$player$11154                     player
     0000575E  A$player$11155                     player
     0000575F  A$player$11156                     player
     00005762  A$player$11157                     player
     00005763  A$player$11158                     player
     00005765  A$player$11159                     player
     00005767  A$player$11163                     player
     00005767  C$player.c$215$5_0$154             player
     0000576A  A$player$11164                     player
     0000576B  A$player$11165                     player
     0000576C  A$player$11166                     player
     0000576D  A$player$11167                     player
     00005770  A$player$11168                     player
     00005771  A$player$11169                     player
     00005772  A$player$11170                     player
     00005773  A$player$11171                     player
     00005776  A$player$11172                     player
     00005777  A$player$11173                     player
     00005778  A$player$11178                     player
     00005778  C$player.c$217$4_0$153             player
     0000577B  A$player$11179                     player
     0000577E  A$player$11183                     player
     0000577E  C$player.c$218$4_0$153             player
     00005781  A$player$11184                     player
     00005783  A$player$11185                     player
ASxxxx Linker V03.00 + NoICE + sdld,  page 149.
Hexadecimal  [32-Bits]

Area                                    Addr        Size        Decimal Bytes (Attributes)
--------------------------------        ----        ----        ------- ----- ------------
_CODE                               00000200    00006F18 =       28440. bytes (REL,CON)

      Value  Global                              Global Defined In Module
      -----  --------------------------------   ------------------------
     00005785  A$player$11190                     player
     00005788  A$player$11191                     player
     00005789  A$player$11195                     player
     00005789  C$player.c$172$1_0$137             player
     0000578C  A$player$11199                     player
     0000578C  C$player.c$200$1_0$137             player
     0000578D  A$player$11200                     player
     0000578E  A$player$11201                     player
     0000578F  A$player$11202                     player
     00005792  A$player$11206                     player
     00005792  C$player.c$219$3_0$144             player
     00005795  A$player$11207                     player
     00005796  A$player$11208                     player
     00005797  A$player$11209                     player
     0000579A  A$player$11210                     player
     0000579B  A$player$11211                     player
     0000579C  A$player$11212                     player
     0000579E  A$player$11216                     player
     0000579E  C$player.c$220$4_0$155             player
     000057A1  A$player$11217                     player
     000057A2  A$player$11218                     player
     000057A3  A$player$11219                     player
     000057A6  A$player$11220                     player
     000057A7  A$player$11221                     player
     000057A9  A$player$11222                     player
     000057AB  A$player$11226                     player
     000057AB  C$player.c$221$5_0$156             player
     000057AE  A$player$11227                     player
     000057AF  A$player$11228                     player
     000057B0  A$player$11229                     player
     000057B1  A$player$11230                     player
     000057B4  A$player$11231                     player
     000057B5  A$player$11232                     player
     000057B6  A$player$11233                     player
     000057B7  A$player$11234                     player
     000057BA  A$player$11235                     player
     000057BB  A$player$11236                     player
     000057BC  A$player$11241                     player
     000057BC  C$player.c$223$4_0$155             player
     000057BF  A$player$11242                     player
     000057C2  A$player$11246                     player
     000057C2  C$player.c$224$4_0$155             player
     000057C5  A$player$11247                     player
     000057C7  A$player$11248                     player
     000057C9  A$player$11253                     player
     000057C9  C$player.c$226$4_0$157             player
     000057CC  A$player$11254                     player
     000057CD  A$player$11255                     player
     000057CE  A$player$11256                     player
     000057D1  A$player$11257                     player
     000057D2  A$player$11258                     player
ASxxxx Linker V03.00 + NoICE + sdld,  page 150.
Hexadecimal  [32-Bits]

Area                                    Addr        Size        Decimal Bytes (Attributes)
--------------------------------        ----        ----        ------- ----- ------------
_CODE                               00000200    00006F18 =       28440. bytes (REL,CON)

      Value  Global                              Global Defined In Module
      -----  --------------------------------   ------------------------
     000057D4  A$player$11259                     player
     000057D6  A$player$11263                     player
     000057D6  C$player.c$227$5_0$158             player
     000057D9  A$player$11264                     player
     000057DC  A$player$11269                     player
     000057DC  C$player.c$231$3_0$144             player
     000057E0  A$player$11270                     player
     000057E1  A$player$11271                     player
     000057E2  A$player$11272                     player
     000057E4  A$player$11273                     player
     000057E7  A$player$11274                     player
     000057E8  A$player$11275                     player
     000057E9  A$player$11276                     player
     000057EB  A$player$11280                     player
     000057EB  C$player.c$232$4_0$159             player
     000057EE  A$player$11281                     player
     000057EF  A$player$11282                     player
     000057F0  A$player$11283                     player
     000057F1  A$player$11284                     player
     000057F4  A$player$11285                     player
     000057F5  A$player$11286                     player
     000057F6  A$player$11287                     player
     000057F7  A$player$11288                     player
     000057FA  A$player$11289                     player
     000057FB  A$player$11290                     player
     000057FC  A$player$11294                     player
     000057FC  C$player.c$233$4_0$159             player
     000057FF  A$player$11295                     player
     00005801  A$player$11300                     player
     00005801  C$player.c$235$3_0$144             player
     00005804  A$player$11301                     player
     00005805  A$player$11302                     player
     00005808  A$player$11303                     player
     00005809  A$player$11304                     player
     0000580A  A$player$11305                     player
     0000580D  A$player$11306                     player
     0000580E  A$player$11307                     player
     00005810  A$player$11311                     player
     00005810  C$player.c$236$4_0$160             player
     00005813  A$player$11312                     player
     00005815  A$player$11316                     player
     00005815  C$player.c$237$4_0$160             player
     00005818  A$player$11317                     player
     0000581B  A$player$11321                     player
     0000581B  C$player.c$238$4_0$160             player
     0000581E  A$player$11322                     player
     00005820  A$player$11327                     player
     00005820  C$player.c$240$3_0$144             player
     00005823  A$player$11328                     player
     00005824  A$player$11329                     player
     00005827  A$player$11330                     player
ASxxxx Linker V03.00 + NoICE + sdld,  page 151.
Hexadecimal  [32-Bits]

Area                                    Addr        Size        Decimal Bytes (Attributes)
--------------------------------        ----        ----        ------- ----- ------------
_CODE                               00000200    00006F18 =       28440. bytes (REL,CON)

      Value  Global                              Global Defined In Module
      -----  --------------------------------   ------------------------
     00005828  A$player$11331                     player
     00005829  A$player$11332                     player
     0000582C  A$player$11333                     player
     0000582D  A$player$11334                     player
     00005830  A$player$11335                     player
     00005833  A$player$11336                     player
     00005834  A$player$11337                     player
     00005837  A$player$11341                     player
     00005837  C$player.c$241$4_0$161             player
     0000583A  A$player$11342                     player
     0000583C  A$player$11346                     player
     0000583C  C$player.c$242$4_0$161             player
     0000583F  A$player$11347                     player
     00005840  A$player$11348                     player
     00005841  A$player$11349                     player
     00005842  A$player$11350                     player
     00005845  A$player$11351                     player
     00005846  A$player$11352                     player
     00005847  A$player$11353                     player
     00005848  A$player$11354                     player
     0000584B  A$player$11355                     player
     0000584C  A$player$11356                     player
     0000584D  A$player$11360                     player
     0000584D  C$player.c$243$4_0$161             player
     00005850  A$player$11361                     player
     00005853  A$player$11366                     player
     00005853  C$player.c$247$2_0$162             player
     00005856  A$player$11367                     player
     00005857  A$player$11368                     player
     0000585A  A$player$11372                     player
     0000585A  C$player.c$248$3_0$163             player
     0000585D  A$player$11373                     player
     0000585E  A$player$11374                     player
     00005861  A$player$11375                     player
     00005862  A$player$11376                     player
     00005863  A$player$11377                     player
     00005866  A$player$11378                     player
     00005867  A$player$11379                     player
     00005869  A$player$11383                     player
     00005869  C$player.c$249$4_0$164             player
     0000586C  A$player$11384                     player
     0000586E  A$player$11388                     player
     0000586E  C$player.c$250$4_0$164             player
     00005871  A$player$11389                     player
     00005872  A$player$11390                     player
     00005873  A$player$11391                     player
     00005874  A$player$11392                     player
     00005877  A$player$11393                     player
     00005878  A$player$11394                     player
     00005879  A$player$11395                     player
     0000587A  A$player$11396                     player
ASxxxx Linker V03.00 + NoICE + sdld,  page 152.
Hexadecimal  [32-Bits]

Area                                    Addr        Size        Decimal Bytes (Attributes)
--------------------------------        ----        ----        ------- ----- ------------
_CODE                               00000200    00006F18 =       28440. bytes (REL,CON)

      Value  Global                              Global Defined In Module
      -----  --------------------------------   ------------------------
     0000587D  A$player$11397                     player
     0000587E  A$player$11398                     player
     0000587F  A$player$11402                     player
     0000587F  C$player.c$251$4_0$164             player
     00005882  A$player$11403                     player
     00005885  A$player$11404                     player
     00005888  A$player$11409                     player
     00005888  C$player.c$253$4_0$165             player
     0000588B  A$player$11410                     player
     0000588C  A$player$11411                     player
     0000588D  A$player$11412                     player
     0000588E  A$player$11413                     player
     0000588F  A$player$11414                     player
     00005890  A$player$11415                     player
     00005893  A$player$11416                     player
     00005894  A$player$11417                     player
     00005896  A$player$11418                     player
     00005898  A$player$11422                     player
     00005898  C$player.c$254$5_0$166             player
     0000589B  A$player$11423                     player
     0000589D  A$player$11427                     player
     0000589D  C$player.c$255$5_0$166             player
     000058A0  A$player$11428                     player
     000058A2  A$player$11432                     player
     000058A2  C$player.c$256$5_0$166             player
     000058A5  A$player$11433                     player
     000058A8  A$player$11437                     player
     000058A8  C$player.c$257$5_0$166             player
     000058AB  A$player$11438                     player
     000058AC  A$player$11439                     player
     000058AD  A$player$11440                     player
     000058AE  A$player$11441                     player
     000058B1  A$player$11442                     player
     000058B2  A$player$11443                     player
     000058B3  A$player$11444                     player
     000058B4  A$player$11445                     player
     000058B7  A$player$11446                     player
     000058B8  A$player$11447                     player
     000058B9  A$player$11451                     player
     000058B9  C$player.c$258$5_0$166             player
     000058BC  A$player$11452                     player
     000058BF  A$player$11457                     player
     000058BF  C$player.c$259$4_0$165             player
     000058C2  A$player$11458                     player
     000058C3  A$player$11459                     player
     000058C4  A$player$11460                     player
     000058C5  A$player$11461                     player
     000058C6  A$player$11462                     player
     000058C7  A$player$11463                     player
     000058CA  A$player$11464                     player
     000058CB  A$player$11465                     player
ASxxxx Linker V03.00 + NoICE + sdld,  page 153.
Hexadecimal  [32-Bits]

Area                                    Addr        Size        Decimal Bytes (Attributes)
--------------------------------        ----        ----        ------- ----- ------------
_CODE                               00000200    00006F18 =       28440. bytes (REL,CON)

      Value  Global                              Global Defined In Module
      -----  --------------------------------   ------------------------
     000058CD  A$player$11466                     player
     000058D0  A$player$11467                     player
     000058D3  A$player$11468                     player
     000058D4  A$player$11469                     player
     000058D7  A$player$11470                     player
     000058D8  A$player$11471                     player
     000058D9  A$player$11472                     player
     000058DC  A$player$11473                     player
     000058DD  A$player$11474                     player
     000058E0  A$player$11478                     player
     000058E0  C$player.c$260$5_0$167             player
     000058E3  A$player$11479                     player
     000058E5  A$player$11483                     player
     000058E5  C$player.c$261$5_0$167             player
     000058E8  A$player$11484                     player
     000058EA  A$player$11488                     player
     000058EA  C$player.c$262$5_0$167             player
     000058ED  A$player$11489                     player
     000058F0  A$player$11493                     player
     000058F0  C$player.c$263$5_0$167             player
     000058F3  A$player$11497                     player
     000058F3  C$player.c$264$5_0$167             player
     000058F6  A$player$11498                     player
     000058F7  A$player$11499                     player
     000058F8  A$player$11500                     player
     000058F9  A$player$11501                     player
     000058FC  A$player$11502                     player
     000058FD  A$player$11503                     player
     000058FE  A$player$11504                     player
     000058FF  A$player$11505                     player
     00005902  A$player$11506                     player
     00005903  A$player$11507                     player
     00005904  A$player$11508                     player
     00005907  A$player$11513                     player
     0000590A  A$player$11520                     player
     0000590A  C$player.c$256$1_0$137             player
     0000590A  C$player.c$268$3_0$168             player
     0000590B  A$player$11521                     player
     0000590E  A$player$11522                     player
     0000590F  A$player$11523                     player
     00005910  A$player$11524                     player
     00005913  A$player$11525                     player
     00005914  A$player$11526                     player
     00005916  A$player$11530                     player
     00005916  C$player.c$269$4_0$169             player
     00005919  A$player$11531                     player
     0000591A  A$player$11532                     player
     0000591B  A$player$11533                     player
     0000591C  A$player$11534                     player
     0000591D  A$player$11535                     player
     0000591E  A$player$11536                     player
ASxxxx Linker V03.00 + NoICE + sdld,  page 154.
Hexadecimal  [32-Bits]

Area                                    Addr        Size        Decimal Bytes (Attributes)
--------------------------------        ----        ----        ------- ----- ------------
_CODE                               00000200    00006F18 =       28440. bytes (REL,CON)

      Value  Global                              Global Defined In Module
      -----  --------------------------------   ------------------------
     00005921  A$player$11537                     player
     00005922  A$player$11538                     player
     00005924  A$player$11539                     player
     00005926  A$player$11543                     player
     00005926  C$player.c$270$5_0$170             player
     00005929  A$player$11544                     player
     0000592A  A$player$11545                     player
     0000592B  A$player$11546                     player
     0000592C  A$player$11547                     player
     0000592F  A$player$11548                     player
     00005930  A$player$11549                     player
     00005931  A$player$11550                     player
     00005932  A$player$11551                     player
     00005935  A$player$11552                     player
     00005936  A$player$11553                     player
     00005937  A$player$11558                     player
     00005937  C$player.c$272$4_0$169             player
     0000593A  A$player$11559                     player
     0000593B  A$player$11560                     player
     0000593D  A$player$11564                     player
     0000593D  C$player.c$273$5_0$171             player
     00005940  A$player$11565                     player
     00005941  A$player$11566                     player
     00005942  A$player$11567                     player
     00005943  A$player$11568                     player
     00005944  A$player$11569                     player
     00005945  A$player$11570                     player
     00005948  A$player$11571                     player
     00005949  A$player$11576                     player
     00005949  C$player.c$275$4_0$169             player
     0000594C  A$player$11577                     player
     0000594E  A$player$11581                     player
     0000594E  C$player.c$276$4_0$169             player
     00005951  A$player$11582                     player
     00005954  A$player$11583                     player
     00005955  A$player$11584                     player
     00005957  A$player$11585                     player
     00005959  A$player$11590                     player
     0000595C  A$player$11591                     player
     0000595D  A$player$11595                     player
     00005960  A$player$11599                     player
     00005961  A$player$11600                     player
     00005962  A$player$11601                     player
     00005963  A$player$11602                     player
     00005966  A$player$11606                     player
     00005966  C$player.c$277$3_0$168             player
     00005969  A$player$11607                     player
     0000596A  A$player$11608                     player
     0000596B  A$player$11609                     player
     0000596E  A$player$11610                     player
     0000596F  A$player$11611                     player
ASxxxx Linker V03.00 + NoICE + sdld,  page 155.
Hexadecimal  [32-Bits]

Area                                    Addr        Size        Decimal Bytes (Attributes)
--------------------------------        ----        ----        ------- ----- ------------
_CODE                               00000200    00006F18 =       28440. bytes (REL,CON)

      Value  Global                              Global Defined In Module
      -----  --------------------------------   ------------------------
     00005970  A$player$11612                     player
     00005972  A$player$11616                     player
     00005972  C$player.c$278$4_0$172             player
     00005975  A$player$11617                     player
     00005976  A$player$11618                     player
     00005977  A$player$11619                     player
     0000597A  A$player$11620                     player
     0000597B  A$player$11621                     player
     0000597D  A$player$11622                     player
     0000597F  A$player$11626                     player
     0000597F  C$player.c$279$5_0$173             player
     00005982  A$player$11627                     player
     00005983  A$player$11628                     player
     00005984  A$player$11629                     player
     00005985  A$player$11630                     player
     00005988  A$player$11631                     player
     00005989  A$player$11632                     player
     0000598A  A$player$11633                     player
     0000598B  A$player$11634                     player
     0000598E  A$player$11635                     player
     0000598F  A$player$11636                     player
     00005990  A$player$11641                     player
     00005990  C$player.c$281$4_0$172             player
     00005993  A$player$11642                     player
     00005994  A$player$11643                     player
     00005996  A$player$11647                     player
     00005996  C$player.c$282$5_0$174             player
     00005999  A$player$11648                     player
     0000599A  A$player$11649                     player
     0000599B  A$player$11650                     player
     0000599C  A$player$11651                     player
     0000599D  A$player$11652                     player
     0000599E  A$player$11653                     player
     000059A1  A$player$11654                     player
     000059A2  A$player$11659                     player
     000059A2  C$player.c$284$4_0$172             player
     000059A5  A$player$11660                     player
     000059A7  A$player$11664                     player
     000059A7  C$player.c$285$4_0$172             player
     000059AA  A$player$11665                     player
     000059AD  A$player$11666                     player
     000059AE  A$player$11667                     player
     000059B0  A$player$11668                     player
     000059B2  A$player$11673                     player
     000059B2  C$player.c$287$4_0$175             player
     000059B5  A$player$11674                     player
     000059B6  A$player$11675                     player
     000059B7  A$player$11676                     player
     000059BA  A$player$11677                     player
     000059BB  A$player$11678                     player
     000059BD  A$player$11679                     player
ASxxxx Linker V03.00 + NoICE + sdld,  page 156.
Hexadecimal  [32-Bits]

Area                                    Addr        Size        Decimal Bytes (Attributes)
--------------------------------        ----        ----        ------- ----- ------------
_CODE                               00000200    00006F18 =       28440. bytes (REL,CON)

      Value  Global                              Global Defined In Module
      -----  --------------------------------   ------------------------
     000059BF  A$player$11683                     player
     000059BF  C$player.c$288$5_0$176             player
     000059C2  A$player$11684                     player
     000059C5  A$player$11689                     player
     000059C5  C$player.c$291$3_0$168             player
     000059C8  A$player$11690                     player
     000059C9  A$player$11691                     player
     000059CC  A$player$11692                     player
     000059CD  A$player$11693                     player
     000059CE  A$player$11694                     player
     000059D1  A$player$11695                     player
     000059D2  A$player$11696                     player
     000059D4  A$player$11700                     player
     000059D4  C$player.c$292$4_0$177             player
     000059D7  A$player$11701                     player
     000059D8  A$player$11702                     player
     000059D9  A$player$11703                     player
     000059DA  A$player$11704                     player
     000059DB  A$player$11705                     player
     000059DC  A$player$11706                     player
     000059DF  A$player$11707                     player
     000059E0  A$player$11708                     player
     000059E2  A$player$11709                     player
     000059E4  A$player$11713                     player
     000059E4  C$player.c$293$5_0$178             player
     000059E7  A$player$11714                     player
     000059E8  A$player$11715                     player
     000059E9  A$player$11716                     player
     000059EA  A$player$11717                     player
     000059ED  A$player$11718                     player
     000059EE  A$player$11719                     player
     000059EF  A$player$11720                     player
     000059F0  A$player$11721                     player
     000059F3  A$player$11722                     player
     000059F4  A$player$11723                     player
     000059F5  A$player$11728                     player
     000059F5  C$player.c$295$4_0$177             player
     000059F8  A$player$11729                     player
     000059FB  A$player$11733                     player
     000059FB  C$player.c$296$4_0$177             player
     000059FE  A$player$11734                     player
     00005A00  A$player$11735                     player
     00005A02  A$player$11740                     player
     00005A05  A$player$11741                     player
     00005A06  A$player$11745                     player
     00005A06  C$player.c$250$1_0$137             player
     00005A09  A$player$11749                     player
     00005A09  C$player.c$278$1_0$137             player
     00005A0A  A$player$11750                     player
     00005A0B  A$player$11751                     player
     00005A0C  A$player$11752                     player
ASxxxx Linker V03.00 + NoICE + sdld,  page 157.
Hexadecimal  [32-Bits]

Area                                    Addr        Size        Decimal Bytes (Attributes)
--------------------------------        ----        ----        ------- ----- ------------
_CODE                               00000200    00006F18 =       28440. bytes (REL,CON)

      Value  Global                              Global Defined In Module
      -----  --------------------------------   ------------------------
     00005A0F  A$player$11756                     player
     00005A0F  C$player.c$297$3_0$168             player
     00005A12  A$player$11757                     player
     00005A13  A$player$11758                     player
     00005A14  A$player$11759                     player
     00005A17  A$player$11760                     player
     00005A18  A$player$11761                     player
     00005A19  A$player$11762                     player
     00005A1B  A$player$11766                     player
     00005A1B  C$player.c$298$4_0$179             player
     00005A1E  A$player$11767                     player
     00005A1F  A$player$11768                     player
     00005A20  A$player$11769                     player
     00005A23  A$player$11770                     player
     00005A24  A$player$11771                     player
     00005A26  A$player$11772                     player
     00005A28  A$player$11776                     player
     00005A28  C$player.c$299$5_0$180             player
     00005A2B  A$player$11777                     player
     00005A2C  A$player$11778                     player
     00005A2D  A$player$11779                     player
     00005A2E  A$player$11780                     player
     00005A31  A$player$11781                     player
     00005A32  A$player$11782                     player
     00005A33  A$player$11783                     player
     00005A34  A$player$11784                     player
     00005A37  A$player$11785                     player
     00005A38  A$player$11786                     player
     00005A39  A$player$11791                     player
     00005A39  C$player.c$301$4_0$179             player
     00005A3C  A$player$11792                     player
     00005A3F  A$player$11796                     player
     00005A3F  C$player.c$302$4_0$179             player
     00005A42  A$player$11797                     player
     00005A44  A$player$11798                     player
     00005A46  A$player$11803                     player
     00005A46  C$player.c$304$4_0$181             player
     00005A49  A$player$11804                     player
     00005A4A  A$player$11805                     player
     00005A4B  A$player$11806                     player
     00005A4E  A$player$11807                     player
     00005A4F  A$player$11808                     player
     00005A51  A$player$11809                     player
     00005A53  A$player$11813                     player
     00005A53  C$player.c$305$5_0$182             player
     00005A56  A$player$11814                     player
     00005A59  A$player$11819                     player
     00005A59  C$player.c$308$3_0$168             player
     00005A5D  A$player$11820                     player
     00005A5E  A$player$11821                     player
     00005A5F  A$player$11822                     player
ASxxxx Linker V03.00 + NoICE + sdld,  page 158.
Hexadecimal  [32-Bits]

Area                                    Addr        Size        Decimal Bytes (Attributes)
--------------------------------        ----        ----        ------- ----- ------------
_CODE                               00000200    00006F18 =       28440. bytes (REL,CON)

      Value  Global                              Global Defined In Module
      -----  --------------------------------   ------------------------
     00005A61  A$player$11823                     player
     00005A64  A$player$11824                     player
     00005A65  A$player$11825                     player
     00005A66  A$player$11826                     player
     00005A68  A$player$11830                     player
     00005A68  C$player.c$309$4_0$183             player
     00005A6B  A$player$11831                     player
     00005A6C  A$player$11832                     player
     00005A6D  A$player$11833                     player
     00005A6E  A$player$11834                     player
     00005A71  A$player$11835                     player
     00005A72  A$player$11836                     player
     00005A73  A$player$11837                     player
     00005A74  A$player$11838                     player
     00005A77  A$player$11839                     player
     00005A78  A$player$11840                     player
     00005A79  A$player$11844                     player
     00005A79  C$player.c$310$4_0$183             player
     00005A7C  A$player$11845                     player
     00005A7E  A$player$11850                     player
     00005A7E  C$player.c$312$3_0$168             player
     00005A81  A$player$11851                     player
     00005A82  A$player$11852                     player
     00005A85  A$player$11853                     player
     00005A86  A$player$11854                     player
     00005A87  A$player$11855                     player
     00005A8A  A$player$11856                     player
     00005A8B  A$player$11857                     player
     00005A8D  A$player$11861                     player
     00005A8D  C$player.c$313$4_0$184             player
     00005A90  A$player$11862                     player
     00005A92  A$player$11866                     player
     00005A92  C$player.c$314$4_0$184             player
     00005A95  A$player$11867                     player
     00005A98  A$player$11871                     player
     00005A98  C$player.c$315$4_0$184             player
     00005A9B  A$player$11872                     player
     00005A9D  A$player$11877                     player
     00005A9D  C$player.c$317$3_0$168             player
     00005AA0  A$player$11878                     player
     00005AA1  A$player$11879                     player
     00005AA4  A$player$11880                     player
     00005AA5  A$player$11881                     player
     00005AA6  A$player$11882                     player
     00005AA9  A$player$11883                     player
     00005AAA  A$player$11884                     player
     00005AAC  A$player$11885                     player
     00005AAF  A$player$11886                     player
     00005AB0  A$player$11887                     player
     00005AB2  A$player$11891                     player
     00005AB2  C$player.c$318$4_0$185             player
ASxxxx Linker V03.00 + NoICE + sdld,  page 159.
Hexadecimal  [32-Bits]

Area                                    Addr        Size        Decimal Bytes (Attributes)
--------------------------------        ----        ----        ------- ----- ------------
_CODE                               00000200    00006F18 =       28440. bytes (REL,CON)

      Value  Global                              Global Defined In Module
      -----  --------------------------------   ------------------------
     00005AB5  A$player$11892                     player
     00005AB7  A$player$11896                     player
     00005AB7  C$player.c$319$4_0$185             player
     00005ABA  A$player$11897                     player
     00005ABB  A$player$11898                     player
     00005ABC  A$player$11899                     player
     00005ABD  A$player$11900                     player
     00005AC0  A$player$11901                     player
     00005AC1  A$player$11902                     player
     00005AC2  A$player$11903                     player
     00005AC3  A$player$11904                     player
     00005AC6  A$player$11905                     player
     00005AC7  A$player$11906                     player
     00005AC8  A$player$11910                     player
     00005AC8  C$player.c$320$4_0$185             player
     00005ACB  A$player$11915                     player
     00005ACC  A$player$11916                     player
     00005ACE  A$player$11921                     player
     00005ACE  C$player.c$324$1_0$137             player
     00005ACE  XG$manage_player_walking_status$   player
     00005ACF  A$player$11931                     player
     00005ACF  C$player.c$326$1_0$187             player
     00005ACF  G$manage_player_jumping_status$0   player
     00005ACF  _manage_player_jumping_status      player
     00005AD1  A$player$11932                     player
     00005AD5  A$player$11933                     player
     00005AD7  A$player$11937                     player
     00005AD7  C$player.c$327$1_0$187             player
     00005ADA  A$player$11938                     player
     00005ADB  A$player$11939                     player
     00005ADE  A$player$11943                     player
     00005ADE  C$player.c$328$2_0$188             player
     00005AE1  A$player$11944                     player
     00005AE2  A$player$11945                     player
     00005AE5  A$player$11946                     player
     00005AE6  A$player$11947                     player
     00005AE7  A$player$11948                     player
     00005AEA  A$player$11949                     player
     00005AEB  A$player$11950                     player
     00005AED  A$player$11954                     player
     00005AED  C$player.c$329$3_0$189             player
     00005AF0  A$player$11955                     player
     00005AF1  A$player$11956                     player
     00005AF3  A$player$11960                     player
     00005AF3  C$player.c$330$4_0$190             player
     00005AF6  A$player$11961                     player
     00005AF7  A$player$11962                     player
     00005AF8  A$player$11963                     player
     00005AF9  A$player$11964                     player
     00005AFA  A$player$11965                     player
     00005AFB  A$player$11966                     player
ASxxxx Linker V03.00 + NoICE + sdld,  page 160.
Hexadecimal  [32-Bits]

Area                                    Addr        Size        Decimal Bytes (Attributes)
--------------------------------        ----        ----        ------- ----- ------------
_CODE                               00000200    00006F18 =       28440. bytes (REL,CON)

      Value  Global                              Global Defined In Module
      -----  --------------------------------   ------------------------
     00005AFE  A$player$11967                     player
     00005AFF  A$player$11972                     player
     00005AFF  C$player.c$332$3_0$189             player
     00005B02  A$player$11973                     player
     00005B04  A$player$11977                     player
     00005B04  C$player.c$333$3_0$189             player
     00005B07  A$player$11978                     player
     00005B0A  A$player$11979                     player
     00005B0B  A$player$11980                     player
     00005B0D  A$player$11984                     player
     00005B0D  C$player.c$334$3_0$189             player
     00005B10  A$player$11985                     player
     00005B13  A$player$11986                     player
     00005B15  A$player$11991                     player
     00005B15  C$player.c$335$2_0$188             player
     00005B18  A$player$11992                     player
     00005B19  A$player$11993                     player
     00005B1C  A$player$11994                     player
     00005B1D  A$player$11995                     player
     00005B1E  A$player$11996                     player
     00005B21  A$player$11997                     player
     00005B22  A$player$11998                     player
     00005B24  A$player$12002                     player
     00005B24  C$player.c$336$3_0$191             player
     00005B27  A$player$12003                     player
     00005B28  A$player$12004                     player
     00005B2A  A$player$12008                     player
     00005B2A  C$player.c$337$4_0$192             player
     00005B2D  A$player$12009                     player
     00005B2E  A$player$12010                     player
     00005B2F  A$player$12011                     player
     00005B30  A$player$12012                     player
     00005B31  A$player$12013                     player
     00005B32  A$player$12014                     player
     00005B35  A$player$12015                     player
     00005B36  A$player$12020                     player
     00005B36  C$player.c$339$3_0$191             player
     00005B39  A$player$12021                     player
     00005B3B  A$player$12025                     player
     00005B3B  C$player.c$340$3_0$191             player
     00005B3E  A$player$12026                     player
     00005B41  A$player$12027                     player
     00005B42  A$player$12028                     player
     00005B44  A$player$12032                     player
     00005B44  C$player.c$341$3_0$191             player
     00005B47  A$player$12033                     player
     00005B4A  A$player$12034                     player
     00005B4C  A$player$12039                     player
     00005B4C  C$player.c$343$3_0$193             player
     00005B4F  A$player$12040                     player
     00005B50  A$player$12041                     player
ASxxxx Linker V03.00 + NoICE + sdld,  page 161.
Hexadecimal  [32-Bits]

Area                                    Addr        Size        Decimal Bytes (Attributes)
--------------------------------        ----        ----        ------- ----- ------------
_CODE                               00000200    00006F18 =       28440. bytes (REL,CON)

      Value  Global                              Global Defined In Module
      -----  --------------------------------   ------------------------
     00005B51  A$player$12042                     player
     00005B52  A$player$12043                     player
     00005B53  A$player$12044                     player
     00005B54  A$player$12045                     player
     00005B57  A$player$12046                     player
     00005B58  A$player$12047                     player
     00005B5A  A$player$12048                     player
     00005B5C  A$player$12052                     player
     00005B5C  C$player.c$344$4_0$194             player
     00005B5F  A$player$12053                     player
     00005B62  A$player$12058                     player
     00005B62  C$player.c$347$2_0$188             player
     00005B65  A$player$12059                     player
     00005B66  A$player$12060                     player
     00005B67  A$player$12061                     player
     00005B68  A$player$12062                     player
     00005B69  A$player$12063                     player
     00005B6A  A$player$12064                     player
     00005B6D  A$player$12065                     player
     00005B6E  A$player$12066                     player
     00005B70  A$player$12067                     player
     00005B72  A$player$12071                     player
     00005B72  C$player.c$348$3_0$195             player
     00005B75  A$player$12072                     player
     00005B76  A$player$12073                     player
     00005B77  A$player$12074                     player
     00005B78  A$player$12075                     player
     00005B7B  A$player$12076                     player
     00005B7C  A$player$12077                     player
     00005B7D  A$player$12078                     player
     00005B7E  A$player$12079                     player
     00005B81  A$player$12080                     player
     00005B82  A$player$12081                     player
     00005B83  A$player$12086                     player
     00005B86  A$player$12087                     player
     00005B87  A$player$12094                     player
     00005B87  C$player.c$351$1_0$187             player
     00005B87  C$player.c$356$1_0$187             player
     00005B8B  A$player$12098                     player
     00005B8B  C$player.c$350$2_0$188             player
     00005B8C  A$player$12099                     player
     00005B8E  A$player$12103                     player
     00005B8E  C$player.c$351$3_0$196             player
     00005B8F  A$player$12104                     player
     00005B91  A$player$12105                     player
     00005B92  A$player$12106                     player
     00005B93  A$player$12107                     player
     00005B95  A$player$12108                     player
     00005B96  A$player$12109                     player
     00005B9A  A$player$12110                     player
     00005B9C  A$player$12115                     player
ASxxxx Linker V03.00 + NoICE + sdld,  page 162.
Hexadecimal  [32-Bits]

Area                                    Addr        Size        Decimal Bytes (Attributes)
--------------------------------        ----        ----        ------- ----- ------------
_CODE                               00000200    00006F18 =       28440. bytes (REL,CON)

      Value  Global                              Global Defined In Module
      -----  --------------------------------   ------------------------
     00005B9C  C$player.c$353$3_0$197             player
     00005B9F  A$player$12116                     player
     00005BA0  A$player$12117                     player
     00005BA1  A$player$12118                     player
     00005BA5  A$player$12123                     player
     00005BA5  C$player.c$356$2_0$188             player
     00005BA8  A$player$12124                     player
     00005BA9  A$player$12125                     player
     00005BAA  A$player$12126                     player
     00005BAC  A$player$12130                     player
     00005BAC  C$player.c$357$3_0$198             player
     00005BAF  A$player$12131                     player
     00005BB1  A$player$12136                     player
     00005BB1  C$player.c$359$2_0$188             player
     00005BB4  A$player$12137                     player
     00005BB5  A$player$12138                     player
     00005BB7  A$player$12139                     player
     00005BB9  A$player$12143                     player
     00005BB9  C$player.c$360$3_0$199             player
     00005BBC  A$player$12144                     player
     00005BBD  A$player$12145                     player
     00005BBE  A$player$12146                     player
     00005BBF  A$player$12147                     player
     00005BC2  A$player$12148                     player
     00005BC3  A$player$12149                     player
     00005BC4  A$player$12150                     player
     00005BC5  A$player$12151                     player
     00005BC8  A$player$12152                     player
     00005BC9  A$player$12153                     player
     00005BCA  A$player$12157                     player
     00005BCA  C$player.c$361$3_0$199             player
     00005BCD  A$player$12158                     player
     00005BCF  A$player$12162                     player
     00005BCF  C$player.c$362$3_0$199             player
     00005BD2  A$player$12163                     player
     00005BD4  A$player$12167                     player
     00005BD4  C$player.c$363$3_0$199             player
     00005BD7  A$player$12168                     player
     00005BDA  A$player$12172                     player
     00005BDA  C$player.c$364$3_0$199             player
     00005BDB  A$player$12173                     player
     00005BDE  A$player$12178                     player
     00005BDE  C$player.c$366$2_0$188             player
     00005BE1  A$player$12179                     player
     00005BE2  A$player$12180                     player
     00005BE5  A$player$12181                     player
     00005BE6  A$player$12182                     player
     00005BE7  A$player$12183                     player
     00005BEA  A$player$12184                     player
     00005BEB  A$player$12185                     player
     00005BEE  A$player$12186                     player
ASxxxx Linker V03.00 + NoICE + sdld,  page 163.
Hexadecimal  [32-Bits]

Area                                    Addr        Size        Decimal Bytes (Attributes)
--------------------------------        ----        ----        ------- ----- ------------
_CODE                               00000200    00006F18 =       28440. bytes (REL,CON)

      Value  Global                              Global Defined In Module
      -----  --------------------------------   ------------------------
     00005BF1  A$player$12187                     player
     00005BF2  A$player$12188                     player
     00005BF3  A$player$12189                     player
     00005BF6  A$player$12193                     player
     00005BF6  C$player.c$367$3_0$200             player
     00005BF8  A$player$12197                     player
     00005BF8  C$player.c$368$3_0$200             player
     00005BFB  A$player$12198                     player
     00005BFC  A$player$12199                     player
     00005BFD  A$player$12200                     player
     00005BFE  A$player$12201                     player
     00005C01  A$player$12202                     player
     00005C02  A$player$12203                     player
     00005C03  A$player$12204                     player
     00005C04  A$player$12205                     player
     00005C07  A$player$12206                     player
     00005C08  A$player$12207                     player
     00005C09  A$player$12211                     player
     00005C09  C$player.c$369$3_0$200             player
     00005C0C  A$player$12212                     player
     00005C0F  A$player$12217                     player
     00005C0F  C$player.c$372$2_0$201             player
     00005C12  A$player$12218                     player
     00005C13  A$player$12219                     player
     00005C16  A$player$12220                     player
     00005C17  A$player$12221                     player
     00005C18  A$player$12222                     player
     00005C1B  A$player$12223                     player
     00005C1C  A$player$12224                     player
     00005C1E  A$player$12228                     player
     00005C1E  C$player.c$373$3_0$202             player
     00005C21  A$player$12229                     player
     00005C22  A$player$12230                     player
     00005C24  A$player$12234                     player
     00005C24  C$player.c$374$4_0$203             player
     00005C27  A$player$12235                     player
     00005C28  A$player$12236                     player
     00005C29  A$player$12237                     player
     00005C2A  A$player$12238                     player
     00005C2B  A$player$12239                     player
     00005C2C  A$player$12240                     player
     00005C2F  A$player$12241                     player
     00005C30  A$player$12246                     player
     00005C30  C$player.c$376$3_0$202             player
     00005C33  A$player$12247                     player
     00005C35  A$player$12251                     player
     00005C35  C$player.c$377$3_0$202             player
     00005C38  A$player$12252                     player
     00005C3B  A$player$12253                     player
     00005C3C  A$player$12254                     player
     00005C3E  A$player$12258                     player
ASxxxx Linker V03.00 + NoICE + sdld,  page 164.
Hexadecimal  [32-Bits]

Area                                    Addr        Size        Decimal Bytes (Attributes)
--------------------------------        ----        ----        ------- ----- ------------
_CODE                               00000200    00006F18 =       28440. bytes (REL,CON)

      Value  Global                              Global Defined In Module
      -----  --------------------------------   ------------------------
     00005C3E  C$player.c$378$3_0$202             player
     00005C41  A$player$12259                     player
     00005C44  A$player$12260                     player
     00005C46  A$player$12265                     player
     00005C46  C$player.c$379$2_0$201             player
     00005C49  A$player$12266                     player
     00005C4A  A$player$12267                     player
     00005C4D  A$player$12268                     player
     00005C4E  A$player$12269                     player
     00005C4F  A$player$12270                     player
     00005C52  A$player$12271                     player
     00005C53  A$player$12272                     player
     00005C55  A$player$12276                     player
     00005C55  C$player.c$380$3_0$204             player
     00005C58  A$player$12277                     player
     00005C59  A$player$12278                     player
     00005C5B  A$player$12282                     player
     00005C5B  C$player.c$381$4_0$205             player
     00005C5E  A$player$12283                     player
     00005C5F  A$player$12284                     player
     00005C60  A$player$12285                     player
     00005C61  A$player$12286                     player
     00005C62  A$player$12287                     player
     00005C63  A$player$12288                     player
     00005C66  A$player$12289                     player
     00005C67  A$player$12294                     player
     00005C67  C$player.c$383$3_0$204             player
     00005C6A  A$player$12295                     player
     00005C6C  A$player$12299                     player
     00005C6C  C$player.c$384$3_0$204             player
     00005C6F  A$player$12300                     player
     00005C72  A$player$12301                     player
     00005C73  A$player$12302                     player
     00005C75  A$player$12306                     player
     00005C75  C$player.c$385$3_0$204             player
     00005C78  A$player$12307                     player
     00005C7B  A$player$12308                     player
     00005C7D  A$player$12313                     player
     00005C7D  C$player.c$387$3_0$206             player
     00005C80  A$player$12314                     player
     00005C81  A$player$12315                     player
     00005C82  A$player$12316                     player
     00005C83  A$player$12317                     player
     00005C84  A$player$12318                     player
     00005C85  A$player$12319                     player
     00005C88  A$player$12320                     player
     00005C89  A$player$12321                     player
     00005C8B  A$player$12322                     player
     00005C8D  A$player$12326                     player
     00005C8D  C$player.c$388$4_0$207             player
     00005C90  A$player$12327                     player
ASxxxx Linker V03.00 + NoICE + sdld,  page 165.
Hexadecimal  [32-Bits]

Area                                    Addr        Size        Decimal Bytes (Attributes)
--------------------------------        ----        ----        ------- ----- ------------
_CODE                               00000200    00006F18 =       28440. bytes (REL,CON)

      Value  Global                              Global Defined In Module
      -----  --------------------------------   ------------------------
     00005C93  A$player$12332                     player
     00005C93  C$player.c$391$2_0$201             player
     00005C96  A$player$12333                     player
     00005C97  A$player$12334                     player
     00005C98  A$player$12335                     player
     00005C99  A$player$12336                     player
     00005C9A  A$player$12337                     player
     00005C9B  A$player$12338                     player
     00005C9E  A$player$12339                     player
     00005C9F  A$player$12340                     player
     00005CA1  A$player$12341                     player
     00005CA3  A$player$12345                     player
     00005CA3  C$player.c$392$3_0$208             player
     00005CA6  A$player$12346                     player
     00005CA7  A$player$12347                     player
     00005CA8  A$player$12348                     player
     00005CA9  A$player$12349                     player
     00005CAC  A$player$12350                     player
     00005CAD  A$player$12351                     player
     00005CAE  A$player$12352                     player
     00005CAF  A$player$12353                     player
     00005CB2  A$player$12354                     player
     00005CB3  A$player$12355                     player
     00005CB4  A$player$12360                     player
     00005CB7  A$player$12361                     player
     00005CB8  A$player$12368                     player
     00005CB8  C$player.c$395$1_0$187             player
     00005CB8  C$player.c$400$1_0$187             player
     00005CBC  A$player$12372                     player
     00005CBC  C$player.c$394$2_0$201             player
     00005CBD  A$player$12373                     player
     00005CBF  A$player$12377                     player
     00005CBF  C$player.c$395$3_0$209             player
     00005CC0  A$player$12378                     player
     00005CC2  A$player$12379                     player
     00005CC3  A$player$12380                     player
     00005CC4  A$player$12381                     player
     00005CC6  A$player$12382                     player
     00005CC7  A$player$12383                     player
     00005CCB  A$player$12384                     player
     00005CCD  A$player$12389                     player
     00005CCD  C$player.c$397$3_0$210             player
     00005CD0  A$player$12390                     player
     00005CD1  A$player$12391                     player
     00005CD2  A$player$12392                     player
     00005CD6  A$player$12397                     player
     00005CD6  C$player.c$400$2_0$201             player
     00005CD9  A$player$12398                     player
     00005CDA  A$player$12399                     player
     00005CDB  A$player$12400                     player
     00005CDD  A$player$12404                     player
ASxxxx Linker V03.00 + NoICE + sdld,  page 166.
Hexadecimal  [32-Bits]

Area                                    Addr        Size        Decimal Bytes (Attributes)
--------------------------------        ----        ----        ------- ----- ------------
_CODE                               00000200    00006F18 =       28440. bytes (REL,CON)

      Value  Global                              Global Defined In Module
      -----  --------------------------------   ------------------------
     00005CDD  C$player.c$401$3_0$211             player
     00005CE0  A$player$12405                     player
     00005CE2  A$player$12410                     player
     00005CE2  C$player.c$403$2_0$201             player
     00005CE5  A$player$12411                     player
     00005CE6  A$player$12412                     player
     00005CE8  A$player$12413                     player
     00005CEA  A$player$12417                     player
     00005CEA  C$player.c$404$3_0$212             player
     00005CED  A$player$12418                     player
     00005CEE  A$player$12419                     player
     00005CEF  A$player$12420                     player
     00005CF0  A$player$12421                     player
     00005CF3  A$player$12422                     player
     00005CF4  A$player$12423                     player
     00005CF5  A$player$12424                     player
     00005CF6  A$player$12425                     player
     00005CF9  A$player$12426                     player
     00005CFA  A$player$12427                     player
     00005CFB  A$player$12431                     player
     00005CFB  C$player.c$405$3_0$212             player
     00005CFE  A$player$12432                     player
     00005D00  A$player$12436                     player
     00005D00  C$player.c$406$3_0$212             player
     00005D03  A$player$12437                     player
     00005D05  A$player$12441                     player
     00005D05  C$player.c$407$3_0$212             player
     00005D08  A$player$12442                     player
     00005D0B  A$player$12446                     player
     00005D0B  C$player.c$408$3_0$212             player
     00005D0C  A$player$12447                     player
     00005D0F  A$player$12452                     player
     00005D0F  C$player.c$410$2_0$201             player
     00005D12  A$player$12453                     player
     00005D13  A$player$12454                     player
     00005D16  A$player$12455                     player
     00005D17  A$player$12456                     player
     00005D18  A$player$12457                     player
     00005D1B  A$player$12458                     player
     00005D1C  A$player$12459                     player
     00005D1E  A$player$12460                     player
     00005D21  A$player$12461                     player
     00005D22  A$player$12462                     player
     00005D23  A$player$12463                     player
     00005D25  A$player$12467                     player
     00005D25  C$player.c$411$3_0$213             player
     00005D27  A$player$12471                     player
     00005D27  C$player.c$412$3_0$213             player
     00005D2A  A$player$12472                     player
     00005D2B  A$player$12473                     player
     00005D2C  A$player$12474                     player
ASxxxx Linker V03.00 + NoICE + sdld,  page 167.
Hexadecimal  [32-Bits]

Area                                    Addr        Size        Decimal Bytes (Attributes)
--------------------------------        ----        ----        ------- ----- ------------
_CODE                               00000200    00006F18 =       28440. bytes (REL,CON)

      Value  Global                              Global Defined In Module
      -----  --------------------------------   ------------------------
     00005D2D  A$player$12475                     player
     00005D30  A$player$12476                     player
     00005D31  A$player$12477                     player
     00005D32  A$player$12478                     player
     00005D33  A$player$12479                     player
     00005D36  A$player$12480                     player
     00005D37  A$player$12481                     player
     00005D38  A$player$12485                     player
     00005D38  C$player.c$413$3_0$213             player
     00005D3B  A$player$12490                     player
     00005D3D  A$player$12495                     player
     00005D3D  C$player.c$416$1_0$187             player
     00005D3D  XG$manage_player_jumping_status$   player
     00005D3E  A$player$12505                     player
     00005D3E  C$player.c$418$1_0$215             player
     00005D3E  G$manage_player_crouched_status$   player
     00005D3E  _manage_player_crouched_status     player
     00005D40  A$player$12506                     player
     00005D44  A$player$12507                     player
     00005D46  A$player$12511                     player
     00005D46  C$player.c$419$1_0$215             player
     00005D49  A$player$12512                     player
     00005D4A  A$player$12513                     player
     00005D4D  A$player$12517                     player
     00005D4D  C$player.c$420$2_0$216             player
     00005D50  A$player$12518                     player
     00005D51  A$player$12519                     player
     00005D53  A$player$12523                     player
     00005D53  C$player.c$421$3_0$217             player
     00005D56  A$player$12524                     player
     00005D57  A$player$12525                     player
     00005D58  A$player$12526                     player
     00005D59  A$player$12527                     player
     00005D5A  A$player$12528                     player
     00005D5B  A$player$12529                     player
     00005D5E  A$player$12530                     player
     00005D5F  A$player$12531                     player
     00005D61  A$player$12532                     player
     00005D64  A$player$12536                     player
     00005D64  C$player.c$422$4_0$218             player
     00005D67  A$player$12537                     player
     00005D69  A$player$12541                     player
     00005D69  C$player.c$423$4_0$218             player
     00005D6C  A$player$12542                     player
     00005D6D  A$player$12543                     player
     00005D6E  A$player$12544                     player
     00005D6F  A$player$12545                     player
     00005D72  A$player$12546                     player
     00005D73  A$player$12547                     player
     00005D74  A$player$12548                     player
     00005D75  A$player$12549                     player
ASxxxx Linker V03.00 + NoICE + sdld,  page 168.
Hexadecimal  [32-Bits]

Area                                    Addr        Size        Decimal Bytes (Attributes)
--------------------------------        ----        ----        ------- ----- ------------
_CODE                               00000200    00006F18 =       28440. bytes (REL,CON)

      Value  Global                              Global Defined In Module
      -----  --------------------------------   ------------------------
     00005D78  A$player$12550                     player
     00005D79  A$player$12551                     player
     00005D7A  A$player$12555                     player
     00005D7A  C$player.c$424$4_0$218             player
     00005D7D  A$player$12556                     player
     00005D80  A$player$12560                     player
     00005D80  C$player.c$425$4_0$218             player
     00005D81  A$player$12561                     player
     00005D84  A$player$12562                     player
     00005D87  A$player$12567                     player
     00005D87  C$player.c$428$3_0$219             player
     00005D8A  A$player$12568                     player
     00005D8B  A$player$12569                     player
     00005D8E  A$player$12570                     player
     00005D8F  A$player$12571                     player
     00005D90  A$player$12572                     player
     00005D93  A$player$12573                     player
     00005D94  A$player$12574                     player
     00005D96  A$player$12578                     player
     00005D96  C$player.c$429$4_0$220             player
     00005D99  A$player$12579                     player
     00005D9A  A$player$12580                     player
     00005D9B  A$player$12581                     player
     00005D9C  A$player$12582                     player
     00005D9D  A$player$12583                     player
     00005D9E  A$player$12584                     player
     00005DA1  A$player$12585                     player
     00005DA2  A$player$12586                     player
     00005DA4  A$player$12587                     player
     00005DA7  A$player$12591                     player
     00005DA7  C$player.c$430$5_0$221             player
     00005DAA  A$player$12592                     player
     00005DAB  A$player$12593                     player
     00005DAC  A$player$12594                     player
     00005DAD  A$player$12595                     player
     00005DB0  A$player$12596                     player
     00005DB1  A$player$12597                     player
     00005DB2  A$player$12598                     player
     00005DB3  A$player$12599                     player
     00005DB6  A$player$12600                     player
     00005DB7  A$player$12601                     player
     00005DB8  A$player$12605                     player
     00005DB8  C$player.c$431$5_0$221             player
     00005DBB  A$player$12606                     player
     00005DBD  A$player$12607                     player
     00005DC0  A$player$12612                     player
     00005DC0  C$player.c$434$4_0$222             player
     00005DC3  A$player$12613                     player
     00005DC4  A$player$12614                     player
     00005DC7  A$player$12615                     player
     00005DC8  A$player$12616                     player
ASxxxx Linker V03.00 + NoICE + sdld,  page 169.
Hexadecimal  [32-Bits]

Area                                    Addr        Size        Decimal Bytes (Attributes)
--------------------------------        ----        ----        ------- ----- ------------
_CODE                               00000200    00006F18 =       28440. bytes (REL,CON)

      Value  Global                              Global Defined In Module
      -----  --------------------------------   ------------------------
     00005DC9  A$player$12617                     player
     00005DCC  A$player$12618                     player
     00005DCD  A$player$12619                     player
     00005DD0  A$player$12623                     player
     00005DD0  C$player.c$435$5_0$223             player
     00005DD3  A$player$12624                     player
     00005DD5  A$player$12628                     player
     00005DD5  C$player.c$436$5_0$223             player
     00005DD8  A$player$12629                     player
     00005DD9  A$player$12630                     player
     00005DDA  A$player$12631                     player
     00005DDB  A$player$12632                     player
     00005DDE  A$player$12633                     player
     00005DDF  A$player$12634                     player
     00005DE0  A$player$12635                     player
     00005DE1  A$player$12636                     player
     00005DE4  A$player$12637                     player
     00005DE5  A$player$12638                     player
     00005DE6  A$player$12642                     player
     00005DE6  C$player.c$437$5_0$223             player
     00005DE9  A$player$12643                     player
     00005DEC  A$player$12648                     player
     00005DEC  C$player.c$442$2_0$224             player
     00005DEF  A$player$12649                     player
     00005DF0  A$player$12650                     player
     00005DF1  A$player$12651                     player
     00005DF3  A$player$12655                     player
     00005DF3  C$player.c$443$3_0$225             player
     00005DF6  A$player$12656                     player
     00005DF7  A$player$12657                     player
     00005DF8  A$player$12658                     player
     00005DF9  A$player$12659                     player
     00005DFA  A$player$12660                     player
     00005DFB  A$player$12661                     player
     00005DFC  A$player$12662                     player
     00005DFF  A$player$12663                     player
     00005E00  A$player$12664                     player
     00005E01  A$player$12665                     player
     00005E03  A$player$12666                     player
     00005E06  A$player$12670                     player
     00005E06  C$player.c$444$4_0$226             player
     00005E07  A$player$12671                     player
     00005E08  A$player$12675                     player
     00005E08  C$player.c$445$4_0$226             player
     00005E0B  A$player$12676                     player
     00005E0C  A$player$12677                     player
     00005E0D  A$player$12678                     player
     00005E0E  A$player$12679                     player
     00005E11  A$player$12680                     player
     00005E12  A$player$12681                     player
     00005E13  A$player$12682                     player
ASxxxx Linker V03.00 + NoICE + sdld,  page 170.
Hexadecimal  [32-Bits]

Area                                    Addr        Size        Decimal Bytes (Attributes)
--------------------------------        ----        ----        ------- ----- ------------
_CODE                               00000200    00006F18 =       28440. bytes (REL,CON)

      Value  Global                              Global Defined In Module
      -----  --------------------------------   ------------------------
     00005E14  A$player$12683                     player
     00005E17  A$player$12684                     player
     00005E18  A$player$12685                     player
     00005E19  A$player$12689                     player
     00005E19  C$player.c$446$4_0$226             player
     00005E1C  A$player$12690                     player
     00005E1F  A$player$12694                     player
     00005E1F  C$player.c$447$4_0$226             player
     00005E20  A$player$12695                     player
     00005E23  A$player$12696                     player
     00005E25  A$player$12701                     player
     00005E25  C$player.c$450$3_0$227             player
     00005E26  A$player$12702                     player
     00005E29  A$player$12703                     player
     00005E2A  A$player$12704                     player
     00005E2B  A$player$12705                     player
     00005E2E  A$player$12706                     player
     00005E2F  A$player$12707                     player
     00005E30  A$player$12708                     player
     00005E33  A$player$12709                     player
     00005E34  A$player$12710                     player
     00005E36  A$player$12714                     player
     00005E36  C$player.c$451$4_0$228             player
     00005E39  A$player$12715                     player
     00005E3A  A$player$12716                     player
     00005E3B  A$player$12717                     player
     00005E3C  A$player$12718                     player
     00005E3D  A$player$12719                     player
     00005E3E  A$player$12720                     player
     00005E41  A$player$12721                     player
     00005E42  A$player$12722                     player
     00005E44  A$player$12723                     player
     00005E46  A$player$12727                     player
     00005E46  C$player.c$452$5_0$229             player
     00005E49  A$player$12728                     player
     00005E4A  A$player$12729                     player
     00005E4B  A$player$12730                     player
     00005E4C  A$player$12731                     player
     00005E4F  A$player$12732                     player
     00005E50  A$player$12733                     player
     00005E51  A$player$12734                     player
     00005E52  A$player$12735                     player
     00005E55  A$player$12736                     player
     00005E56  A$player$12737                     player
     00005E57  A$player$12741                     player
     00005E57  C$player.c$453$5_0$229             player
     00005E5A  A$player$12742                     player
     00005E5C  A$player$12743                     player
     00005E5E  A$player$12748                     player
     00005E5E  C$player.c$456$4_0$230             player
     00005E5F  A$player$12749                     player
ASxxxx Linker V03.00 + NoICE + sdld,  page 171.
Hexadecimal  [32-Bits]

Area                                    Addr        Size        Decimal Bytes (Attributes)
--------------------------------        ----        ----        ------- ----- ------------
_CODE                               00000200    00006F18 =       28440. bytes (REL,CON)

      Value  Global                              Global Defined In Module
      -----  --------------------------------   ------------------------
     00005E62  A$player$12750                     player
     00005E63  A$player$12751                     player
     00005E64  A$player$12752                     player
     00005E67  A$player$12753                     player
     00005E68  A$player$12754                     player
     00005E69  A$player$12755                     player
     00005E6C  A$player$12756                     player
     00005E6D  A$player$12757                     player
     00005E6F  A$player$12761                     player
     00005E6F  C$player.c$457$5_0$231             player
     00005E71  A$player$12762                     player
     00005E72  A$player$12766                     player
     00005E72  C$player.c$458$5_0$231             player
     00005E75  A$player$12767                     player
     00005E76  A$player$12768                     player
     00005E77  A$player$12769                     player
     00005E78  A$player$12770                     player
     00005E7B  A$player$12771                     player
     00005E7C  A$player$12772                     player
     00005E7D  A$player$12773                     player
     00005E7E  A$player$12774                     player
     00005E81  A$player$12775                     player
     00005E82  A$player$12776                     player
     00005E83  A$player$12780                     player
     00005E83  C$player.c$459$5_0$231             player
     00005E86  A$player$12785                     player
     00005E88  A$player$12790                     player
     00005E88  C$player.c$464$1_0$215             player
     00005E88  XG$manage_player_crouched_status   player
     00005E89  A$player$12800                     player
     00005E89  C$player.c$466$1_0$233             player
     00005E89  G$update_player_positions$0$0      player
     00005E89  _update_player_positions           player
     00005E8B  A$player$12801                     player
     00005E8F  A$player$12802                     player
     00005E91  A$player$12806                     player
     00005E91  C$player.c$469$1_0$233             player
     00005E94  A$player$12807                     player
     00005E95  A$player$12808                     player
     00005E97  A$player$12812                     player
     00005E97  C$player.c$470$2_0$234             player
     00005E9A  A$player$12813                     player
     00005E9B  A$player$12814                     player
     00005E9E  A$player$12815                     player
     00005E9F  A$player$12816                     player
     00005EA1  A$player$12817                     player
     00005EA2  A$player$12818                     player
     00005EA4  A$player$12820                     player
     00005EA5  A$player$12821                     player
     00005EA7  A$player$12822                     player
     00005EA8  A$player$12824                     player
ASxxxx Linker V03.00 + NoICE + sdld,  page 172.
Hexadecimal  [32-Bits]

Area                                    Addr        Size        Decimal Bytes (Attributes)
--------------------------------        ----        ----        ------- ----- ------------
_CODE                               00000200    00006F18 =       28440. bytes (REL,CON)

      Value  Global                              Global Defined In Module
      -----  --------------------------------   ------------------------
     00005EAA  A$player$12825                     player
     00005EAB  A$player$12826                     player
     00005EAE  A$player$12827                     player
     00005EAF  A$player$12828                     player
     00005EB0  A$player$12829                     player
     00005EB1  A$player$12830                     player
     00005EB2  A$player$12831                     player
     00005EB3  A$player$12832                     player
     00005EB5  A$player$12833                     player
     00005EB6  A$player$12834                     player
     00005EB7  A$player$12835                     player
     00005EB8  A$player$12836                     player
     00005EB9  A$player$12837                     player
     00005EBC  A$player$12838                     player
     00005EBD  A$player$12839                     player
     00005EBE  A$player$12840                     player
     00005EC0  A$player$12845                     player
     00005EC0  C$player.c$472$2_0$235             player
     00005EC3  A$player$12846                     player
     00005EC4  A$player$12847                     player
     00005EC7  A$player$12848                     player
     00005EC8  A$player$12849                     player
     00005ECA  A$player$12850                     player
     00005ECB  A$player$12851                     player
     00005ECD  A$player$12853                     player
     00005ECE  A$player$12854                     player
     00005ED0  A$player$12855                     player
     00005ED1  A$player$12857                     player
     00005ED3  A$player$12858                     player
     00005ED4  A$player$12859                     player
     00005ED7  A$player$12860                     player
     00005ED8  A$player$12861                     player
     00005EDB  A$player$12862                     player
     00005EDC  A$player$12863                     player
     00005EDE  A$player$12864                     player
     00005EDF  A$player$12865                     player
     00005EE1  A$player$12867                     player
     00005EE2  A$player$12868                     player
     00005EE4  A$player$12869                     player
     00005EE5  A$player$12871                     player
     00005EE7  A$player$12872                     player
     00005EE8  A$player$12873                     player
     00005EEB  A$player$12874                     player
     00005EEC  A$player$12875                     player
     00005EED  A$player$12876                     player
     00005EEE  A$player$12877                     player
     00005EEF  A$player$12878                     player
     00005EF0  A$player$12879                     player
     00005EF1  A$player$12880                     player
     00005EF2  A$player$12881                     player
     00005EF3  A$player$12882                     player
ASxxxx Linker V03.00 + NoICE + sdld,  page 173.
Hexadecimal  [32-Bits]

Area                                    Addr        Size        Decimal Bytes (Attributes)
--------------------------------        ----        ----        ------- ----- ------------
_CODE                               00000200    00006F18 =       28440. bytes (REL,CON)

      Value  Global                              Global Defined In Module
      -----  --------------------------------   ------------------------
     00005EF6  A$player$12883                     player
     00005EF7  A$player$12884                     player
     00005EF8  A$player$12889                     player
     00005EF8  C$player.c$475$1_0$233             player
     00005EFB  A$player$12890                     player
     00005EFE  A$player$12891                     player
     00005EFF  A$player$12892                     player
     00005F00  A$player$12893                     player
     00005F02  A$player$12894                     player
     00005F03  A$player$12895                     player
     00005F05  A$player$12899                     player
     00005F05  C$player.c$476$2_0$236             player
     00005F07  A$player$12900                     player
     00005F09  A$player$12905                     player
     00005F09  C$player.c$477$1_0$233             player
     00005F0A  A$player$12906                     player
     00005F0C  A$player$12907                     player
     00005F0E  A$player$12908                     player
     00005F11  A$player$12909                     player
     00005F13  A$player$12910                     player
     00005F15  A$player$12914                     player
     00005F15  C$player.c$478$2_0$237             player
     00005F18  A$player$12915                     player
     00005F1B  A$player$12916                     player
     00005F1C  A$player$12917                     player
     00005F1E  A$player$12922                     player
     00005F1E  C$player.c$480$1_0$233             player
     00005F21  A$player$12923                     player
     00005F22  A$player$12924                     player
     00005F23  A$player$12925                     player
     00005F24  A$player$12926                     player
     00005F25  A$player$12927                     player
     00005F26  A$player$12928                     player
     00005F28  A$player$12929                     player
     00005F2A  A$player$12933                     player
     00005F2A  C$player.c$481$2_0$238             player
     00005F2C  A$player$12934                     player
     00005F2E  A$player$12939                     player
     00005F2E  C$player.c$482$1_0$233             player
     00005F30  A$player$12940                     player
     00005F31  A$player$12941                     player
     00005F33  A$player$12945                     player
     00005F33  C$player.c$483$2_0$239             player
     00005F35  A$player$12950                     player
     00005F35  C$player.c$486$1_0$233             player
     00005F38  A$player$12951                     player
     00005F39  A$player$12952                     player
     00005F3C  A$player$12953                     player
     00005F3D  A$player$12954                     player
     00005F3F  A$player$12955                     player
     00005F40  A$player$12956                     player
ASxxxx Linker V03.00 + NoICE + sdld,  page 174.
Hexadecimal  [32-Bits]

Area                                    Addr        Size        Decimal Bytes (Attributes)
--------------------------------        ----        ----        ------- ----- ------------
_CODE                               00000200    00006F18 =       28440. bytes (REL,CON)

      Value  Global                              Global Defined In Module
      -----  --------------------------------   ------------------------
     00005F42  A$player$12958                     player
     00005F43  A$player$12959                     player
     00005F45  A$player$12960                     player
     00005F46  A$player$12962                     player
     00005F48  A$player$12963                     player
     00005F49  A$player$12964                     player
     00005F4C  A$player$12965                     player
     00005F4D  A$player$12966                     player
     00005F50  A$player$12967                     player
     00005F51  A$player$12968                     player
     00005F53  A$player$12969                     player
     00005F54  A$player$12970                     player
     00005F56  A$player$12972                     player
     00005F57  A$player$12973                     player
     00005F59  A$player$12974                     player
     00005F5A  A$player$12976                     player
     00005F5C  A$player$12977                     player
     00005F5D  A$player$12978                     player
     00005F60  A$player$12979                     player
     00005F61  A$player$12980                     player
     00005F62  A$player$12981                     player
     00005F65  A$player$12982                     player
     00005F66  A$player$12983                     player
     00005F67  A$player$12984                     player
     00005F68  A$player$12985                     player
     00005F69  A$player$12986                     player
     00005F6A  A$player$12987                     player
     00005F6B  A$player$12988                     player
     00005F6C  A$player$12989                     player
     00005F6F  A$player$12990                     player
     00005F70  A$player$12991                     player
     00005F71  A$player$12995                     player
     00005F71  C$player.c$488$1_0$233             player
     00005F75  A$player$12996                     player
     00005F76  A$player$12997                     player
     00005F77  A$player$12998                     player
     00005F78  A$player$12999                     player
     00005F79  A$player$13000                     player
     00005F7A  A$player$13001                     player
     00005F7B  A$player$13005                     player
     00005F7B  C$player.c$489$2_0$240             player
     00005F7D  A$player$13006                     player
     00005F7E  A$player$13007                     player
     00005F80  A$player$13008                     player
     00005F81  A$player$13009                     player
     00005F83  A$player$13014                     player
     00005F83  C$player.c$490$1_0$233             player
     00005F84  A$player$13015                     player
     00005F86  A$player$13016                     player
     00005F88  A$player$13017                     player
     00005F8B  A$player$13018                     player
ASxxxx Linker V03.00 + NoICE + sdld,  page 175.
Hexadecimal  [32-Bits]

Area                                    Addr        Size        Decimal Bytes (Attributes)
--------------------------------        ----        ----        ------- ----- ------------
_CODE                               00000200    00006F18 =       28440. bytes (REL,CON)

      Value  Global                              Global Defined In Module
      -----  --------------------------------   ------------------------
     00005F8D  A$player$13019                     player
     00005F8F  A$player$13023                     player
     00005F8F  C$player.c$491$2_0$241             player
     00005F91  A$player$13024                     player
     00005F92  A$player$13029                     player
     00005F92  C$player.c$493$1_0$233             player
     00005F95  A$player$13030                     player
     00005F96  A$player$13031                     player
     00005F97  A$player$13032                     player
     00005F98  A$player$13033                     player
     00005F99  A$player$13034                     player
     00005F9A  A$player$13035                     player
     00005F9C  A$player$13036                     player
     00005F9E  A$player$13040                     player
     00005F9E  C$player.c$494$2_0$242             player
     00005FA0  A$player$13041                     player
     00005FA2  A$player$13046                     player
     00005FA2  C$player.c$495$1_0$233             player
     00005FA4  A$player$13047                     player
     00005FA5  A$player$13048                     player
     00005FA7  A$player$13052                     player
     00005FA7  C$player.c$496$2_0$243             player
     00005FA9  A$player$13057                     player
     00005FAB  A$player$13062                     player
     00005FAB  C$player.c$498$1_0$233             player
     00005FAB  XG$update_player_positions$0$0     player
     00005FAC  _SMS_reserveSprite                 SMSlib_spriteAdv
     00005FCD  _SMS_updateSpritePosition          SMSlib_spriteAdv
     00006004  _SMS_updateSpriteImage             SMSlib_spriteAdv
     0000601E  _SMS_hideSprite                    SMSlib_spriteAdv
     00006030  _UNSAFE_SMS_loadaPLibcompressedT   SMSlib_aPLib
     0000618F  _free                              free
     00006252  _UNSAFE_SMS_copySpritestoSAT       SMSlib_UNSAFE
     00006299  _UNSAFE_SMS_VRAMmemcpy32           SMSlib_UNSAFE
     000062B9  _UNSAFE_SMS_VRAMmemcpy64           SMSlib_UNSAFE
     000062D9  _UNSAFE_SMS_VRAMmemcpy128          SMSlib_UNSAFE
     000062F9  _SMS_init                          SMSlib
     0000632B  _VDPReg_init                       SMSlib
     00006336  _SMS_VDPturnOnFeature              SMSlib
     0000634B  _SMS_VDPturnOffFeature             SMSlib
     00006363  _SMS_setBGScrollX                  SMSlib
     0000636D  _SMS_setBGScrollY                  SMSlib
     00006377  _SMS_setBackdropColor              SMSlib
     00006381  _SMS_useFirstHalfTilesforSprites   SMSlib
     00006397  _SMS_setSpriteMode                 SMSlib
     000063E5  _SMS_setBGPaletteColor             SMSlib
     000063F9  _SMS_setSpritePaletteColor         SMSlib
     0000640D  _SMS_loadBGPalette                 SMSlib
     00006422  _SMS_loadSpritePalette             SMSlib
     00006437  _SMS_setColor                      SMSlib
     0000643B  _SMS_waitForVBlank                 SMSlib
ASxxxx Linker V03.00 + NoICE + sdld,  page 176.
Hexadecimal  [32-Bits]

Area                                    Addr        Size        Decimal Bytes (Attributes)
--------------------------------        ----        ----        ------- ----- ------------
_CODE                               00000200    00006F18 =       28440. bytes (REL,CON)

      Value  Global                              Global Defined In Module
      -----  --------------------------------   ------------------------
     00006448  _SMS_getKeysStatus                 SMSlib
     0000644C  _SMS_getKeysPressed                SMSlib
     00006469  _SMS_getKeysHeld                   SMSlib
     0000647D  _SMS_getKeysReleased               SMSlib
     0000649A  _SMS_queryPauseRequested           SMSlib
     0000649F  _SMS_resetPauseRequest             SMSlib
     000064A5  _SMS_setLineInterruptHandler       SMSlib
     000064A9  _SMS_setLineCounter                SMSlib
     000064B3  _SMS_getVCount                     SMSlib
     000064B7  _SMS_getHCount                     SMSlib
     000064BB  _SMS_isr                           SMSlib
     000064F1  _SMS_nmi_isr                       SMSlib
     000064FA  _SMS_loadPSGaidencompressedTiles   SMSlib_PSGaiden
     000065D4  _SMS_load1bppTiles                 SMSlib_load1bppTiles
     00006646  _SMS_setClippingWindow             SMSlib_spriteClip
     00006669  _SMS_addSpriteClipping             SMSlib_spriteClip
     00006726  _SMS_VRAMmemset                    SMSlib_VRAMmemset
     00006749  _SMS_VRAMmemsetW                   SMSlib_VRAMmemset
     00006777  _SMS_loadBGPaletteHalfBrightness   SMSlib_paletteAdv
     0000678E  _SMS_zeroBGPalette                 SMSlib_paletteAdv
     000067A2  _SMS_loadSpritePaletteHalfBright   SMSlib_paletteAdv
     000067B9  _SMS_zeroSpritePalette             SMSlib_paletteAdv
     000067CD  _SMS_decompressZX7                 SMSlib_zx7
     0000682B  _SMS_configureTextRenderer         SMSlib_textrenderer
     0000682F  _putchar                           SMSlib_textrenderer
     00006841  _SMS_addThreeAdjoiningSprites      SMSlib_threesprites
     0000689A  _SMS_initSprites                   SMSlib_sprite
     000068A0  _SMS_addSprite                     SMSlib_sprite
     000068D3  _SMS_copySpritestoSAT              SMSlib_sprite
     00006909  _SMS_addTwoAdjoiningSprites        SMSlib_twosprites
     00006948  ___sdcc_heap_init                  malloc
     00006963  _malloc                            malloc
     00006A7A  _SMS_detectPaddle                  SMSlib_paddle
     00006AA0  _SMS_readPaddle                    SMSlib_paddle
     00006AFE  _SMS_VRAMmemcpy_brief              SMSlib_VRAMmemcpy_brief
     00006B0F  _UNSAFE_SMS_loadZX7compressedTil   SMSlib_UNSAFE_zx7
     00006B8F  ___sdcc_call_hl                    
     00006B90  _SMS_finalizeSprites               SMSlib_deprecated
     00006B91  _SMS_VRAMmemcpy                    SMSlib_VRAMmemcpy
     00006BAA  _SMS_loadSTMcompressedTileMapatA   SMSlib_STMcomp
     00006CD2  _SMS_loadTileMapArea               SMSlib_loadTileMapArea
     00006D52  _SMS_autoSetUpTextRenderer         SMSlib_autotext
     00006D8F  _devkitSMS_font__tiles__1bpp       SMSlib_autotext
     0000708F  __divsint                          
     00007098  __divschar                         
     0000709F  __div8                             
     000070A3  __div_signexte                     
     000070A7  __div16                            
     000070CD  __get_remainder                    
     000070D7  __divuint                          
     000070DF  __divuchar                         
ASxxxx Linker V03.00 + NoICE + sdld,  page 177.
Hexadecimal  [32-Bits]

Area                                    Addr        Size        Decimal Bytes (Attributes)
--------------------------------        ----        ----        ------- ----- ------------
_CODE                               00000200    00006F18 =       28440. bytes (REL,CON)

      Value  Global                              Global Defined In Module
      -----  --------------------------------   ------------------------
     000070E6  __divu8                            
     000070E9  __divu16                           

ASxxxx Linker V03.00 + NoICE + sdld,  page 178.
Hexadecimal  [32-Bits]

Area                                    Addr        Size        Decimal Bytes (Attributes)
--------------------------------        ----        ----        ------- ----- ------------
_HEADER0                            00000000    00000006 =           6. bytes (ABS,CON)

      Value  Global                              Global Defined In Module
      -----  --------------------------------   ------------------------
     00000006  _SMS_crt0_RST08                    crt0

ASxxxx Linker V03.00 + NoICE + sdld,  page 179.
Hexadecimal  [32-Bits]

Area                                    Addr        Size        Decimal Bytes (Attributes)
--------------------------------        ----        ----        ------- ----- ------------
_HEADER1                            00000000    00000009 =           9. bytes (ABS,CON)

      Value  Global                              Global Defined In Module
      -----  --------------------------------   ------------------------
     00000011  _SMS_crt0_RST18                    crt0

ASxxxx Linker V03.00 + NoICE + sdld,  page 180.
Hexadecimal  [32-Bits]

Area                                    Addr        Size        Decimal Bytes (Attributes)
--------------------------------        ----        ----        ------- ----- ------------
_HEADER2                            00000000    0000000A =          10. bytes (ABS,CON)

      Value  Global                              Global Defined In Module
      -----  --------------------------------   ------------------------
ASxxxx Linker V03.00 + NoICE + sdld,  page 181.
Hexadecimal  [32-Bits]

Area                                    Addr        Size        Decimal Bytes (Attributes)
--------------------------------        ----        ----        ------- ----- ------------
_HEADER3                            00000000    00000003 =           3. bytes (ABS,CON)

      Value  Global                              Global Defined In Module
      -----  --------------------------------   ------------------------
ASxxxx Linker V03.00 + NoICE + sdld,  page 182.
Hexadecimal  [32-Bits]

Area                                    Addr        Size        Decimal Bytes (Attributes)
--------------------------------        ----        ----        ------- ----- ------------
_HEADER4                            00000000    00000003 =           3. bytes (ABS,CON)

      Value  Global                              Global Defined In Module
      -----  --------------------------------   ------------------------
ASxxxx Linker V03.00 + NoICE + sdld,  page 183.
Hexadecimal  [32-Bits]

Area                                    Addr        Size        Decimal Bytes (Attributes)
--------------------------------        ----        ----        ------- ----- ------------
_HEADER5                            00000000    0000012A =         298. bytes (ABS,CON)

      Value  Global                              Global Defined In Module
      -----  --------------------------------   ------------------------
     00000099  _OUTI128                           crt0
     00000119  _OUTI64                            crt0
     00000159  _OUTI32                            crt0
     00000199  _outi_block                        crt0

ASxxxx Linker V03.00 + NoICE + sdld,  page 184.
Hexadecimal  [32-Bits]

Area                                    Addr        Size        Decimal Bytes (Attributes)
--------------------------------        ----        ----        ------- ----- ------------
_INITIALIZER                        00007118    0000000D =          13. bytes (REL,CON)

      Value  Global                              Global Defined In Module
      -----  --------------------------------   ------------------------
     00007118  Fspriteengine$__xinit_entityInde   spriteengine
     00007119  Fspriteengine$__xinit_entityVram   spriteengine
     0000711B  Fsoundengine$__xinit_current_mus   soundengine
     0000711C  Fsoundengine$__xinit_current_fx_   soundengine
     0000711D  Fmontylib$__xinit_rand_index$0_0   montylib

ASxxxx Linker V03.00 + NoICE + sdld,  page 185.
Hexadecimal  [32-Bits]

Area                                    Addr        Size        Decimal Bytes (Attributes)
--------------------------------        ----        ----        ------- ----- ------------
_GSINIT                             00007125    00000012 =          18. bytes (REL,CON)

      Value  Global                              Global Defined In Module
      -----  --------------------------------   ------------------------
     00007125  gsinit                             crt0

ASxxxx Linker V03.00 + NoICE + sdld,  page 186.
Hexadecimal  [32-Bits]

Area                                    Addr        Size        Decimal Bytes (Attributes)
--------------------------------        ----        ----        ------- ----- ------------
_GSFINAL                            00007137    00000001 =           1. bytes (REL,CON)

      Value  Global                              Global Defined In Module
      -----  --------------------------------   ------------------------
ASxxxx Linker V03.00 + NoICE + sdld,  page 187.
Hexadecimal  [32-Bits]

Area                                    Addr        Size        Decimal Bytes (Attributes)
--------------------------------        ----        ----        ------- ----- ------------
_DATA                               0000C000    00000250 =         592. bytes (REL,CON)

      Value  Global                              Global Defined In Module
      -----  --------------------------------   ------------------------
     0000C000  _PSGMusicStatus                    PSGlib
     0000C001  _PSGMusicStart                     PSGlib
     0000C003  _PSGMusicPointer                   PSGlib
     0000C005  _PSGMusicLoopPoint                 PSGlib
     0000C007  _PSGMusicSkipFrames                PSGlib
     0000C008  _PSGLoopFlag                       PSGlib
     0000C009  _PSGLoopCounter                    PSGlib
     0000C00A  _PSGMusicLastLatch                 PSGlib
     0000C00B  _PSGMusicVolumeAttenuation         PSGlib
     0000C00C  _PSGMusicSubstringLen              PSGlib
     0000C00D  _PSGMusicSubstringRetAddr          PSGlib
     0000C00F  _PSGChan0Volume                    PSGlib
     0000C010  _PSGChan1Volume                    PSGlib
     0000C011  _PSGChan2Volume                    PSGlib
     0000C012  _PSGChan3Volume                    PSGlib
     0000C013  _PSGChan2LowTone                   PSGlib
     0000C014  _PSGChan2HighTone                  PSGlib
     0000C015  _PSGChan3LowTone                   PSGlib
     0000C016  _PSGChannel2SFX                    PSGlib
     0000C017  _PSGChannel3SFX                    PSGlib
     0000C018  _PSGSFXChan2Volume                 PSGlib
     0000C019  _PSGSFXChan3Volume                 PSGlib
     0000C01A  _PSGSFXStatus                      PSGlib
     0000C01B  _PSGSFXStart                       PSGlib
     0000C01D  _PSGSFXPointer                     PSGlib
     0000C01F  _PSGSFXLoopPoint                   PSGlib
     0000C021  _PSGSFXSkipFrames                  PSGlib
     0000C022  _PSGSFXLoopFlag                    PSGlib
     0000C023  _PSGSFXSubstringLen                PSGlib
     0000C024  _PSGSFXSubstringRetAddr            PSGlib
     0000C026  G$GSL_RAM$0_0$0                    GSLib
     0000C026  _GSL_RAM                           GSLib
     0000C12D  G$entitylist$0_0$0                 spriteengine
     0000C12D  _entitylist                        spriteengine
     0000C137  G$pause$0_0$0                      montylib
     0000C137  _pause                             montylib
     0000C138  G$frame_cnt$0_0$0                  montylib
     0000C138  _frame_cnt                         montylib
     0000C13A  G$game_status$0_0$0                gamelogic
     0000C13A  _game_status                       gamelogic
     0000C13B  G$score$0_0$0                      gamelogic
     0000C13B  _score                             gamelogic
     0000C13D  G$scroll_enabled$0_0$0             gamelogic
     0000C13D  _scroll_enabled                    gamelogic
     0000C13E  G$scroll_x$0_0$0                   resources
     0000C13E  _scroll_x                          resources
     0000C140  G$scroll_y$0_0$0                   resources
     0000C140  _scroll_y                          resources
     0000C142  G$player1$0_0$0                    player
     0000C142  _player1                           player
ASxxxx Linker V03.00 + NoICE + sdld,  page 188.
Hexadecimal  [32-Bits]

Area                                    Addr        Size        Decimal Bytes (Attributes)
--------------------------------        ----        ----        ------- ----- ------------
_DATA                               0000C000    00000250 =         592. bytes (REL,CON)

      Value  Global                              Global Defined In Module
      -----  --------------------------------   ------------------------
     0000C14C  G$player2$0_0$0                    player
     0000C14C  _player2                           player
     0000C156  _VDPBlank                          SMSlib
     0000C157  _SMS_VDPFlags                      SMSlib
     0000C158  _PauseRequested                    SMSlib
     0000C159  _SMS_Port3EBIOSvalue               SMSlib
     0000C15A  _KeysStatus                        SMSlib
     0000C15C  _PreviousKeysStatus                SMSlib
     0000C15E  _SMS_theLineInterruptHandler       SMSlib
     0000C160  _decompBuffer                      SMSlib_PSGaiden
     0000C180  _clipWin_x0                        SMSlib_spriteClip
     0000C181  _clipWin_y0                        SMSlib_spriteClip
     0000C182  _SMS_TextRenderer_offset           SMSlib_textrenderer
     0000C184  _SpriteTableY                      SMSlib_sprite
     0000C1C4  _SpriteTableXN                     SMSlib_sprite
     0000C244  _SpriteNextFree                    SMSlib_sprite
     0000C245  ___sdcc_heap_free                  malloc
     0000C247  _STM_src                           SMSlib_STMcomp
     0000C249  _STM_dest                          SMSlib_STMcomp
     0000C24B  _STM_HH                            SMSlib_STMcomp
     0000C24C  _STM_oldHH                         SMSlib_STMcomp
     0000C24D  _STM_needRestore                   SMSlib_STMcomp
     0000C24E  _STM_ttw                           SMSlib_STMcomp
     0000C24F  _STM_width                         SMSlib_STMcomp

ASxxxx Linker V03.00 + NoICE + sdld,  page 189.
Hexadecimal  [32-Bits]

Area                                    Addr        Size        Decimal Bytes (Attributes)
--------------------------------        ----        ----        ------- ----- ------------
_INITIALIZED                        0000C250    0000000D =          13. bytes (REL,CON)

      Value  Global                              Global Defined In Module
      -----  --------------------------------   ------------------------
     0000C250  G$entityIndex$0_0$0                spriteengine
     0000C250  _entityIndex                       spriteengine
     0000C251  G$entityVramPosition$0_0$0         spriteengine
     0000C251  _entityVramPosition                spriteengine
     0000C253  G$current_music_bank$0_0$0         soundengine
     0000C253  _current_music_bank                soundengine
     0000C254  G$current_fx_bank$0_0$0            soundengine
     0000C254  _current_fx_bank                   soundengine
     0000C255  G$rand_index$0_0$0                 montylib
     0000C255  _rand_index                        montylib
     0000C256  _VDPReg                            SMSlib
     0000C258  _spritesHeight                     SMSlib
     0000C259  _spritesWidth                      SMSlib
     0000C25A  _spritesTileOffset                 SMSlib
     0000C25B  _clipWin_x1                        SMSlib_spriteClip
     0000C25C  _clipWin_y1                        SMSlib_spriteClip

ASxxxx Linker V03.00 + NoICE + sdld,  page 190.
Hexadecimal  [32-Bits]

Area                                    Addr        Size        Decimal Bytes (Attributes)
--------------------------------        ----        ----        ------- ----- ------------
_HEAP                               0000C25D    000003FF =        1023. bytes (REL,CON)

      Value  Global                              Global Defined In Module
      -----  --------------------------------   ------------------------
     0000C25D  ___sdcc_heap                       

ASxxxx Linker V03.00 + NoICE + sdld,  page 191.
Hexadecimal  [32-Bits]

Area                                    Addr        Size        Decimal Bytes (Attributes)
--------------------------------        ----        ----        ------- ----- ------------
_BANK2                              00008000    00003F25 =       16165. bytes (REL,CON)

      Value  Global                              Global Defined In Module
      -----  --------------------------------   ------------------------
     00008000  G$gatopresentaciontiles_psgcompr   bank2
     00008000  _gatopresentaciontiles_psgcompr    bank2
     00008EBB  G$gatopresentaciontilemap_bin$0_   bank2
     00008EBB  _gatopresentaciontilemap_bin       bank2
     000094BB  G$gatopresentacionpalette_bin$0_   bank2
     000094BB  _gatopresentacionpalette_bin       bank2
     000094C7  G$presentation_psg$0_0$0           bank2
     000094C7  _presentation_psg                  bank2
     0000A18A  G$level1_metatiles_bin$0_0$0       bank2
     0000A18A  _level1_metatiles_bin              bank2
     0000A542  G$level1_palette_bin$0_0$0         bank2
     0000A542  _level1_palette_bin                bank2
     0000A54F  G$level1_scrolltable_bin$0_0$0     bank2
     0000A54F  _level1_scrolltable_bin            bank2
     0000AB5C  G$level1_tiles_bin$0_0$0           bank2
     0000AB5C  _level1_tiles_bin                  bank2
     0000BC5C  G$levelbackgroundtiles_psgcompr$   bank2
     0000BC5C  _levelbackgroundtiles_psgcompr     bank2
     0000BE16  G$playeranimation1frame1_bin$0_0   bank2
     0000BE16  _playeranimation1frame1_bin        bank2
     0000BF16  G$levelbackgroundpalette_bin$0_0   bank2
     0000BF16  _levelbackgroundpalette_bin        bank2

ASxxxx Linker V03.00 + NoICE + sdld,  page 192.
Hexadecimal  [32-Bits]

Area                                    Addr        Size        Decimal Bytes (Attributes)
--------------------------------        ----        ----        ------- ----- ------------
_BANK3                              00008000    00003F06 =       16134. bytes (REL,CON)

      Value  Global                              Global Defined In Module
      -----  --------------------------------   ------------------------
     00008000  G$player_palette_bin$0_0$0         bank3
     00008000  _player_palette_bin                bank3
     0000800D  G$playeranimation0frame0_bin$0_0   bank3
     0000800D  _playeranimation0frame0_bin        bank3
     0000810D  G$playeranimation0frame0mirrored   bank3
     0000810D  _playeranimation0frame0mirrored_   bank3
     0000820D  G$playeranimation1frame0_bin$0_0   bank3
     0000820D  _playeranimation1frame0_bin        bank3
     0000830D  G$playeranimation1frame0mirrored   bank3
     0000830D  _playeranimation1frame0mirrored_   bank3
     0000840D  G$playeranimation2frame0_bin$0_0   bank3
     0000840D  _playeranimation2frame0_bin        bank3
     0000850D  G$playeranimation2frame0mirrored   bank3
     0000850D  _playeranimation2frame0mirrored_   bank3
     0000860D  G$playeranimation2frame1_bin$0_0   bank3
     0000860D  _playeranimation2frame1_bin        bank3
     0000870D  G$playeranimation2frame1mirrored   bank3
     0000870D  _playeranimation2frame1mirrored_   bank3
     0000880D  G$playeranimation2frame2_bin$0_0   bank3
     0000880D  _playeranimation2frame2_bin        bank3
     0000890D  G$playeranimation2frame2mirrored   bank3
     0000890D  _playeranimation2frame2mirrored_   bank3
     00008A0D  G$playeranimation2frame3_bin$0_0   bank3
     00008A0D  _playeranimation2frame3_bin        bank3
     00008B0D  G$playeranimation2frame3mirrored   bank3
     00008B0D  _playeranimation2frame3mirrored_   bank3
     00008C0D  G$playeranimation3frame0_bin$0_0   bank3
     00008C0D  _playeranimation3frame0_bin        bank3
     00008D4D  G$playeranimation3frame0mirrored   bank3
     00008D4D  _playeranimation3frame0mirrored_   bank3
     00008E8D  G$playeranimation3frame1_bin$0_0   bank3
     00008E8D  _playeranimation3frame1_bin        bank3
     0000902D  G$playeranimation3frame1mirrored   bank3
     0000902D  _playeranimation3frame1mirrored_   bank3
     000091CD  G$playeranimation3frame2_bin$0_0   bank3
     000091CD  _playeranimation3frame2_bin        bank3
     0000932D  G$playeranimation3frame2mirrored   bank3
     0000932D  _playeranimation3frame2mirrored_   bank3
     0000948D  G$playeranimation4frame0_bin$0_0   bank3
     0000948D  _playeranimation4frame0_bin        bank3
     0000954D  G$playeranimation4frame0mirrored   bank3
     0000954D  _playeranimation4frame0mirrored_   bank3
     0000960D  G$playeranimation5frame0_bin$0_0   bank3
     0000960D  _playeranimation5frame0_bin        bank3
     0000972D  G$playeranimation5frame0mirrored   bank3
     0000972D  _playeranimation5frame0mirrored_   bank3
     0000984D  G$playeranimation6frame0_bin$0_0   bank3
     0000984D  _playeranimation6frame0_bin        bank3
     0000990D  G$playeranimation6frame0mirrored   bank3
     0000990D  _playeranimation6frame0mirrored_   bank3
ASxxxx Linker V03.00 + NoICE + sdld,  page 193.
Hexadecimal  [32-Bits]

Area                                    Addr        Size        Decimal Bytes (Attributes)
--------------------------------        ----        ----        ------- ----- ------------
_BANK3                              00008000    00003F06 =       16134. bytes (REL,CON)

      Value  Global                              Global Defined In Module
      -----  --------------------------------   ------------------------
     000099CD  G$playeranimation7frame0_bin$0_0   bank3
     000099CD  _playeranimation7frame0_bin        bank3
     00009AED  G$playeranimation7frame0mirrored   bank3
     00009AED  _playeranimation7frame0mirrored_   bank3
     00009C0D  G$playeranimation8frame0_bin$0_0   bank3
     00009C0D  _playeranimation8frame0_bin        bank3
     00009CCD  G$playeranimation8frame0mirrored   bank3
     00009CCD  _playeranimation8frame0mirrored_   bank3
     00009D8D  G$playeranimation9frame0_bin$0_0   bank3
     00009D8D  _playeranimation9frame0_bin        bank3
     00009E8D  G$playeranimation9frame0mirrored   bank3
     00009E8D  _playeranimation9frame0mirrored_   bank3
     00009F8D  G$playeranimation9frame1_bin$0_0   bank3
     00009F8D  _playeranimation9frame1_bin        bank3
     0000A02D  G$playeranimation9frame1mirrored   bank3
     0000A02D  _playeranimation9frame1mirrored_   bank3
     0000A0CD  G$logo1985tiles_bin$0_0$0          bank3
     0000A0CD  _logo1985tiles_bin                 bank3
     0000AD8D  G$logo1985tilemap_bin$0_0$0        bank3
     0000AD8D  _logo1985tilemap_bin               bank3
     0000B38D  G$logo1985palette_bin$0_0$0        bank3
     0000B38D  _logo1985palette_bin               bank3
     0000B392  G$logo1985music_psg$0_0$0          bank3
     0000B392  _logo1985music_psg                 bank3
     0000B45B  G$fnaclogotiles_psgcompr$0_0$0     bank3
     0000B45B  _fnaclogotiles_psgcompr            bank3
     0000B8F6  G$fnaclogotilemap_bin$0_0$0        bank3
     0000B8F6  _fnaclogotilemap_bin               bank3
     0000BEF6  G$fnaclogopalette_bin$0_0$0        bank3
     0000BEF6  _fnaclogopalette_bin               bank3

ASxxxx Linker V03.00 + NoICE + sdld,  page 194.
Hexadecimal  [32-Bits]

Area                                    Addr        Size        Decimal Bytes (Attributes)
--------------------------------        ----        ----        ------- ----- ------------
_BANK4                              00008000    00002C81 =       11393. bytes (REL,CON)

      Value  Global                              Global Defined In Module
      -----  --------------------------------   ------------------------
     00008000  G$level1music_psg$0_0$0            bank4
     00008000  _level1music_psg                   bank4
     0000926F  G$punch1_psg$0_0$0                 bank4
     0000926F  _punch1_psg                        bank4
     0000927F  G$punch2_psg$0_0$0                 bank4
     0000927F  _punch2_psg                        bank4
     0000928F  G$enemyanimation0frame0_bin$0_0$   bank4
     0000928F  _enemyanimation0frame0_bin         bank4
     0000938F  G$enemyanimation0frame0mirrored_   bank4
     0000938F  _enemyanimation0frame0mirrored_b   bank4
     0000948F  G$enemyanimation1frame0_bin$0_0$   bank4
     0000948F  _enemyanimation1frame0_bin         bank4
     0000958F  G$enemyanimation1frame0mirrored_   bank4
     0000958F  _enemyanimation1frame0mirrored_b   bank4
     0000968F  G$enemyanimation1frame1_bin$0_0$   bank4
     0000968F  _enemyanimation1frame1_bin         bank4
     0000978F  G$enemyanimation1frame1mirrored_   bank4
     0000978F  _enemyanimation1frame1mirrored_b   bank4
     0000988F  G$enemyanimation1frame2_bin$0_0$   bank4
     0000988F  _enemyanimation1frame2_bin         bank4
     0000998F  G$enemyanimation1frame2mirrored_   bank4
     0000998F  _enemyanimation1frame2mirrored_b   bank4
     00009A8F  G$enemyanimation1frame3_bin$0_0$   bank4
     00009A8F  _enemyanimation1frame3_bin         bank4
     00009B8F  G$enemyanimation1frame3mirrored_   bank4
     00009B8F  _enemyanimation1frame3mirrored_b   bank4
     00009C8F  G$levelbackgroundtilemap_bin$0_0   bank4
     00009C8F  _levelbackgroundtilemap_bin        bank4
     0000A28F  G$systemfont_psgcompr$0_0$0        bank4
     0000A28F  _systemfont_psgcompr               bank4
     0000A781  G$playeranimation1frame1mirrored   bank4
     0000A781  _playeranimation1frame1mirrored_   bank4
     0000A881  G$playeranimation1frame2_bin$0_0   bank4
     0000A881  _playeranimation1frame2_bin        bank4
     0000A981  G$playeranimation1frame2mirrored   bank4
     0000A981  _playeranimation1frame2mirrored_   bank4
     0000AA81  G$playeranimation1frame3_bin$0_0   bank4
     0000AA81  _playeranimation1frame3_bin        bank4
     0000AB81  G$playeranimation1frame3mirrored   bank4
     0000AB81  _playeranimation1frame3mirrored_   bank4

ASxxxx Linker V03.00 + NoICE + sdld,  page 195.
Hexadecimal  [32-Bits]

Area                                    Addr        Size        Decimal Bytes (Attributes)
--------------------------------        ----        ----        ------- ----- ------------
_CABS0                              00000000    00000010 =          16. bytes (ABS,CON)

      Value  Global                              Global Defined In Module
      -----  --------------------------------   ------------------------
     00007FF0  G$__SMS__SEGA_signature$0_0$0      _sms_manager
     00007FF0  ___SMS__SEGA_signature             _sms_manager

ASxxxx Linker V03.00 + NoICE + sdld,  page 196.
Hexadecimal  [32-Bits]

Area                                    Addr        Size        Decimal Bytes (Attributes)
--------------------------------        ----        ----        ------- ----- ------------
_CABS1                              00000000    00000011 =          17. bytes (ABS,CON)

      Value  Global                              Global Defined In Module
      -----  --------------------------------   ------------------------
     00007FCF  G$__SMS__SDSC_author$0_0$0         _sms_manager
     00007FCF  ___SMS__SDSC_author                _sms_manager

ASxxxx Linker V03.00 + NoICE + sdld,  page 197.
Hexadecimal  [32-Bits]

Area                                    Addr        Size        Decimal Bytes (Attributes)
--------------------------------        ----        ----        ------- ----- ------------
_CABS2                              00000000    00000009 =           9. bytes (ABS,CON)

      Value  Global                              Global Defined In Module
      -----  --------------------------------   ------------------------
     00007FC6  G$__SMS__SDSC_name$0_0$0           _sms_manager
     00007FC6  ___SMS__SDSC_name                  _sms_manager

ASxxxx Linker V03.00 + NoICE + sdld,  page 198.
Hexadecimal  [32-Bits]

Area                                    Addr        Size        Decimal Bytes (Attributes)
--------------------------------        ----        ----        ------- ----- ------------
_CABS3                              00000000    00000019 =          25. bytes (ABS,CON)

      Value  Global                              Global Defined In Module
      -----  --------------------------------   ------------------------
     00007FAD  G$__SMS__SDSC_descr$0_0$0          _sms_manager
     00007FAD  ___SMS__SDSC_descr                 _sms_manager

ASxxxx Linker V03.00 + NoICE + sdld,  page 199.
Hexadecimal  [32-Bits]

Area                                    Addr        Size        Decimal Bytes (Attributes)
--------------------------------        ----        ----        ------- ----- ------------
_CABS4                              00000000    00000010 =          16. bytes (ABS,CON)

      Value  Global                              Global Defined In Module
      -----  --------------------------------   ------------------------
     00007FE0  G$__SMS__SDSC_signature$0_0$0      _sms_manager
     00007FE0  ___SMS__SDSC_signature             _sms_manager

ASxxxx Linker V03.00 + NoICE + sdld,  page 200.
Hexadecimal  [32-Bits]

Area                                    Addr        Size        Decimal Bytes (Attributes)
--------------------------------        ----        ----        ------- ----- ------------
_HEAP_END                           0000AC81    00000001 =           1. bytes (REL,CON)

      Value  Global                              Global Defined In Module
      -----  --------------------------------   ------------------------
     0000AC81  ___sdcc_heap_end                   

ASxxxx Linker V03.00 + NoICE + sdld,  page 201.

Files Linked                              [ module(s) ]

../crt0/crt0_sms.rel                      [ crt0 ]
main.rel                                  [ main ]
../lib/PSGLib.rel                         [ PSGlib ]
../lib/GSLib.rel                          [ GSLib ]
banks/bank2.rel                           [ bank2 ]
banks/bank3.rel                           [ bank3 ]
banks/bank4.rel                           [ bank4 ]
devkit/_sms_manager.rel                   [ _sms_manager ]
devkit/_snd_manager.rel                   [ _snd_manager ]
devkit/_gsl_manager.rel                   [ _gsl_manager ]
engine/spriteengine.rel                   [ spriteengine ]
engine/soundengine.rel                    [ soundengine ]
object/montylib.rel                       [ montylib ]
object/gamelogic.rel                      [ gamelogic ]
object/resources.rel                      [ resources ]
object/player.rel                         [ player ]


Libraries Linked                          [ object file ]

../lib/SMSlib.lib                         [ SMSlib_spriteAdv.rel ]
../lib/SMSlib.lib                         [ SMSlib_aPLib.rel ]
C:\Program Files\SDCC\bin\..\lib\z80/z80.lib
                                          [ free.rel ]
../lib/SMSlib.lib                         [ SMSlib_UNSAFE.rel ]
../lib/SMSlib.lib                         [ SMSlib.rel ]
../lib/SMSlib.lib                         [ SMSlib_PSGaiden.rel ]
../lib/SMSlib.lib                         [ SMSlib_load1bppTiles.rel ]
../lib/SMSlib.lib                         [ SMSlib_spriteClip.rel ]
../lib/SMSlib.lib                         [ SMSlib_VRAMmemset.rel ]
../lib/SMSlib.lib                         [ SMSlib_paletteAdv.rel ]
../lib/SMSlib.lib                         [ SMSlib_zx7.rel ]
../lib/SMSlib.lib                         [ SMSlib_textrenderer.rel ]
../lib/SMSlib.lib                         [ SMSlib_threesprites.rel ]
../lib/SMSlib.lib                         [ SMSlib_sprite.rel ]
../lib/SMSlib.lib                         [ SMSlib_twosprites.rel ]
C:\Program Files\SDCC\bin\..\lib\z80/z80.lib
                                          [ malloc.rel ]
../lib/SMSlib.lib                         [ SMSlib_paddle.rel ]
../lib/SMSlib.lib                         [ SMSlib_VRAMmemcpy_brief.rel ]
../lib/SMSlib.lib                         [ SMSlib_UNSAFE_zx7.rel ]
C:\Program Files\SDCC\bin\..\lib\z80/z80.lib
                                          [ __sdcc_call_hl.rel ]
../lib/SMSlib.lib                         [ SMSlib_deprecated.rel ]
../lib/SMSlib.lib                         [ SMSlib_VRAMmemcpy.rel ]
../lib/SMSlib.lib                         [ SMSlib_STMcomp.rel ]
../lib/SMSlib.lib                         [ SMSlib_loadTileMapArea.rel ]
C:\Program Files\SDCC\bin\..\lib\z80/z80.lib
                                          [ heap.rel ]
../lib/SMSlib.lib                         [ SMSlib_autotext.rel ]
C:\Program Files\SDCC\bin\..\lib\z80/z80.lib
                                          [ divsigned.rel ]
C:\Program Files\SDCC\bin\..\lib\z80/z80.lib
                                          [ divunsigned.rel ]

ASxxxx Linker V03.00 + NoICE + sdld,  page 202.

User Base Address Definitions

_CODE = 0x0200
_DATA = 0xc000
_BANK2=0x8000
_BANK3=0x8000
_BANK4=0x8000

