ASxxxx Linker V03.00 + NoICE + sdld,  page 1.
Hexadecimal  [32-Bits]

Area                                    Addr        Size        Decimal Bytes (Attributes)
--------------------------------        ----        ----        ------- ----- ------------
.  .ABS.                            00000000    00000000 =           0. bytes (ABS,CON)

      Value  Global                              Global Defined In Module
      -----  --------------------------------   ------------------------
     00000000  .__.ABS.                           
     00000000  l__BSEG                         
     00000000  l__BSS                          
     00000000  l__CABS                         
     00000000  l__DABS                         
     00000000  l__HEADER                       
     00000000  l__HEAP                         
     00000000  l__HOME                         
     00000000  s__CABS                         
     00000000  s__CABS0                        
     00000000  s__DABS                         
     00000000  s__HEADER                       
     00000000  s__HEADER0                      
     00000000  s__HEADER1                      
     00000000  s__HEADER2                      
     00000000  s__HEADER3                      
     00000000  s__HEADER4                      
     00000001  l__GSFINAL                      
     00000005  l__INITIALIZED                  
     00000005  l__INITIALIZER                  
     00000008  l__HEADER0                      
     00000009  l__HEADER1                      
     0000000F  l__GSINIT                       
     00000010  l__CABS0                        
     00000018  l__HEADER2                      
     0000002B  l__HEADER3                      
     00000104  l__HEADER4                      
     0000017C  l__DATA                         
     00000200  s__CODE                         
     00000E36  l__CODE                         
     00001036  s__HOME                         
     00001036  s__INITIALIZER                  
     0000103B  s__GSINIT                       
     0000104A  s__GSFINAL                      
     00008000  G$SMS_SRAM$0_0$0                   main
     00008000  _SMS_SRAM                          SMSlib_sprite
     0000C000  s__DATA                         
     0000C17C  s__INITIALIZED                  
     0000C181  s__BSEG                         
     0000C181  s__BSS                          
     0000C181  s__HEAP                         
     0000FFFC  G$SRAM_bank_to_be_mapped_on_slot   main
     0000FFFC  _SRAM_bank_to_be_mapped_on_slot2   SMSlib_sprite
     0000FFFF  G$ROM_bank_to_be_mapped_on_slot2   main
     0000FFFF  _ROM_bank_to_be_mapped_on_slot2    SMSlib_sprite
ASxxxx Linker V03.00 + NoICE + sdld,  page 2.
Hexadecimal  [32-Bits]

Area                                    Addr        Size        Decimal Bytes (Attributes)
--------------------------------        ----        ----        ------- ----- ------------
_CODE                               00000200    00000E36 =        3638. bytes (REL,CON)

      Value  Global                              Global Defined In Module
      -----  --------------------------------   ------------------------
     00000200  A$main$76                          main
     00000200  C$main.c$7$0_0$82                  main
     00000200  C$main.c$9$1_0$82                  main
     00000200  G$main$0$0                         main
     00000200  _main                              main
     00000203  A$main$77                          main
     00000204  A$main$78                          main
     00000205  A$main$79                          main
     00000207  A$main$83                          main
     00000207  C$main.c$10$1_0$82                 main
     00000209  A$main$84                          main
     0000020C  A$main$89                          main
     0000020C  C$main.c$12$1_0$82                 main
     0000020F  A$main$90                          main
     00000212  A$main$95                          main
     00000212  C$main.c$15$3_0$84                 main
     00000215  A$main$99                          main
     00000215  C$main.c$16$3_0$84                 main
     00000218  A$main$103                         main
     00000218  C$main.c$18$3_1$85                 main
     0000021B  A$main$104                         main
     0000021C  A$main$108                         main
     0000021C  C$main.c$20$3_1$85                 main
     0000021E  A$main$109                         main
     00000220  A$main$113                         main
     00000220  C$main.c$21$4_1$86                 main
     00000223  A$main$114                         main
     00000224  A$main$115                         main
     00000225  A$main$116                         main
     00000227  A$main$120                         main
     00000227  C$main.c$22$4_1$86                 main
     0000022A  A$main$121                         main
     0000022C  A$main$126                         main
     0000022C  C$main.c$24$4_1$86                 main
     0000022F  A$main$127                         main
     00000231  A$main$132                         main
     00000231  C$main.c$25$3_1$85                 main
     00000233  A$main$133                         main
     00000235  A$main$137                         main
     00000235  C$main.c$26$4_1$87                 main
     00000238  A$main$138                         main
     00000239  A$main$139                         main
     0000023A  A$main$140                         main
     0000023C  A$main$144                         main
     0000023C  C$main.c$27$4_1$87                 main
     0000023F  A$main$145                         main
     00000241  A$main$150                         main
     00000241  C$main.c$29$4_1$87                 main
     00000244  A$main$151                         main
     00000247  A$main$152                         main
ASxxxx Linker V03.00 + NoICE + sdld,  page 3.
Hexadecimal  [32-Bits]

Area                                    Addr        Size        Decimal Bytes (Attributes)
--------------------------------        ----        ----        ------- ----- ------------
_CODE                               00000200    00000E36 =        3638. bytes (REL,CON)

      Value  Global                              Global Defined In Module
      -----  --------------------------------   ------------------------
     00000249  A$main$157                         main
     00000249  C$main.c$30$3_1$85                 main
     0000024B  A$main$158                         main
     0000024D  A$main$162                         main
     0000024D  C$main.c$31$4_1$88                 main
     00000250  A$main$163                         main
     00000251  A$main$164                         main
     00000252  A$main$165                         main
     00000254  A$main$169                         main
     00000254  C$main.c$32$4_1$88                 main
     00000256  A$main$170                         main
     00000259  A$main$171                         main
     0000025B  A$main$176                         main
     0000025B  C$main.c$33$3_1$85                 main
     0000025C  A$main$177                         main
     0000025E  A$main$181                         main
     0000025E  C$main.c$34$4_1$89                 main
     00000261  A$main$182                         main
     00000262  A$main$183                         main
     00000263  A$main$184                         main
     00000265  A$main$188                         main
     00000265  C$main.c$35$4_1$89                 main
     00000268  A$main$196                         main
     00000268  C$main.c$38$2_0$82                 main
     00000268  XG$main$0$0                        main
     0000026A  _example_mbm                       mbm
     00000500  _sfx_example_bin                   mbm
     0000051A  _MBMPlay                           MBMlib
     0000066D  _MBMCancelLoop                     MBMlib
     00000673  _MBMPlayNoRepeat                   MBMlib
     00000679  _MBMResume                         MBMlib
     00000683  _MBMStop                           MBMlib
     000006CC  _MBMGetStatus                      MBMlib
     000006D4  _MBMFreqencyLUT                    MBMlib
     00000794  _MBMDrumReg                        MBMlib
     0000079D  _MBMModVal                         MBMlib
     000007B1  _MBMFadeOut                        MBMlib
     000007B9  _MBMFrame                          MBMlib
     00000C8A  _SMS_GetFMAudioCapabilities        MBMlib
     00000CD5  _SMS_EnableAudio                   MBMlib
     00000CE5  _MBMSFXPlay                        MBMlib
     00000D0B  _MBMSFXPlayLoop                    MBMlib
     00000D14  _MBMSFXCancelLoop                  MBMlib
     00000D1A  _MBMSFXStop                        MBMlib
     00000D62  _MBMSFXGetStatus                   MBMlib
     00000D6A  _MBMSFXFrame                       MBMlib
     00000DC5  _SMS_init                          SMSlib
     00000DF7  _VDPReg_init                       SMSlib
     00000E02  _SMS_VDPturnOnFeature              SMSlib
     00000E17  _SMS_VDPturnOffFeature             SMSlib
     00000E2F  _SMS_setBGScrollX                  SMSlib
ASxxxx Linker V03.00 + NoICE + sdld,  page 4.
Hexadecimal  [32-Bits]

Area                                    Addr        Size        Decimal Bytes (Attributes)
--------------------------------        ----        ----        ------- ----- ------------
_CODE                               00000200    00000E36 =        3638. bytes (REL,CON)

      Value  Global                              Global Defined In Module
      -----  --------------------------------   ------------------------
     00000E39  _SMS_setBGScrollY                  SMSlib
     00000E43  _SMS_setBackdropColor              SMSlib
     00000E4D  _SMS_useFirstHalfTilesforSprites   SMSlib
     00000E63  _SMS_setSpriteMode                 SMSlib
     00000EB1  _SMS_setBGPaletteColor             SMSlib
     00000EC5  _SMS_setSpritePaletteColor         SMSlib
     00000ED9  _SMS_loadBGPalette                 SMSlib
     00000EEE  _SMS_loadSpritePalette             SMSlib
     00000F03  _SMS_setColor                      SMSlib
     00000F07  _SMS_waitForVBlank                 SMSlib
     00000F14  _SMS_getKeysStatus                 SMSlib
     00000F18  _SMS_getKeysPressed                SMSlib
     00000F35  _SMS_getKeysHeld                   SMSlib
     00000F49  _SMS_getKeysReleased               SMSlib
     00000F66  _SMS_queryPauseRequested           SMSlib
     00000F6B  _SMS_resetPauseRequest             SMSlib
     00000F71  _SMS_setLineInterruptHandler       SMSlib
     00000F75  _SMS_setLineCounter                SMSlib
     00000F7F  _SMS_getVCount                     SMSlib
     00000F83  _SMS_getHCount                     SMSlib
     00000F87  _SMS_isr                           SMSlib
     00000FBD  _SMS_nmi_isr                       SMSlib
     00000FC6  _SMS_initSprites                   SMSlib_sprite
     00000FCC  _SMS_addSprite                     SMSlib_sprite
     00000FFF  _SMS_copySpritestoSAT              SMSlib_sprite
     00001035  ___sdcc_call_hl                    

ASxxxx Linker V03.00 + NoICE + sdld,  page 5.
Hexadecimal  [32-Bits]

Area                                    Addr        Size        Decimal Bytes (Attributes)
--------------------------------        ----        ----        ------- ----- ------------
_HEADER0                            00000000    00000008 =           8. bytes (ABS,CON)

      Value  Global                              Global Defined In Module
      -----  --------------------------------   ------------------------
ASxxxx Linker V03.00 + NoICE + sdld,  page 6.
Hexadecimal  [32-Bits]

Area                                    Addr        Size        Decimal Bytes (Attributes)
--------------------------------        ----        ----        ------- ----- ------------
_HEADER1                            00000000    00000009 =           9. bytes (ABS,CON)

      Value  Global                              Global Defined In Module
      -----  --------------------------------   ------------------------
     00000008  _SMS_crt0_RST08                    crt0

ASxxxx Linker V03.00 + NoICE + sdld,  page 7.
Hexadecimal  [32-Bits]

Area                                    Addr        Size        Decimal Bytes (Attributes)
--------------------------------        ----        ----        ------- ----- ------------
_HEADER2                            00000000    00000018 =          24. bytes (ABS,CON)

      Value  Global                              Global Defined In Module
      -----  --------------------------------   ------------------------
     00000018  _SMS_crt0_RST18                    crt0

ASxxxx Linker V03.00 + NoICE + sdld,  page 8.
Hexadecimal  [32-Bits]

Area                                    Addr        Size        Decimal Bytes (Attributes)
--------------------------------        ----        ----        ------- ----- ------------
_HEADER3                            00000000    0000002B =          43. bytes (ABS,CON)

      Value  Global                              Global Defined In Module
      -----  --------------------------------   ------------------------
ASxxxx Linker V03.00 + NoICE + sdld,  page 9.
Hexadecimal  [32-Bits]

Area                                    Addr        Size        Decimal Bytes (Attributes)
--------------------------------        ----        ----        ------- ----- ------------
_HEADER4                            00000000    00000104 =         260. bytes (ABS,CON)

      Value  Global                              Global Defined In Module
      -----  --------------------------------   ------------------------
     00000069  _OUTI128                           crt0
     000000E9  _OUTI64                            crt0
     00000129  _OUTI32                            crt0
     00000169  _outi_block                        crt0

ASxxxx Linker V03.00 + NoICE + sdld,  page 10.
Hexadecimal  [32-Bits]

Area                                    Addr        Size        Decimal Bytes (Attributes)
--------------------------------        ----        ----        ------- ----- ------------
_INITIALIZER                        00001036    00000005 =           5. bytes (REL,CON)

      Value  Global                              Global Defined In Module
      -----  --------------------------------   ------------------------
ASxxxx Linker V03.00 + NoICE + sdld,  page 11.
Hexadecimal  [32-Bits]

Area                                    Addr        Size        Decimal Bytes (Attributes)
--------------------------------        ----        ----        ------- ----- ------------
_GSINIT                             0000103B    0000000F =          15. bytes (REL,CON)

      Value  Global                              Global Defined In Module
      -----  --------------------------------   ------------------------
     0000103B  gsinit                             crt0

ASxxxx Linker V03.00 + NoICE + sdld,  page 12.
Hexadecimal  [32-Bits]

Area                                    Addr        Size        Decimal Bytes (Attributes)
--------------------------------        ----        ----        ------- ----- ------------
_GSFINAL                            0000104A    00000001 =           1. bytes (REL,CON)

      Value  Global                              Global Defined In Module
      -----  --------------------------------   ------------------------
ASxxxx Linker V03.00 + NoICE + sdld,  page 13.
Hexadecimal  [32-Bits]

Area                                    Addr        Size        Decimal Bytes (Attributes)
--------------------------------        ----        ----        ------- ----- ------------
_DATA                               0000C000    0000017C =         380. bytes (REL,CON)

      Value  Global                              Global Defined In Module
      -----  --------------------------------   ------------------------
     0000C000  _MBMStatus                         MBMlib
     0000C001  _MBMStart                          MBMlib
     0000C003  _MBMPosition                       MBMlib
     0000C004  _MBMStep                           MBMlib
     0000C005  _MBMStatusByte                     MBMlib
     0000C008  _MBMStepBuffer                     MBMlib
     0000C015  _MBMFrequency                      MBMlib
     0000C016  _MBMTransposeValue                 MBMlib
     0000C017  _MBMSpeed                          MBMlib
     0000C018  _MBMSpeedCounter                   MBMlib
     0000C019  _MBMPatternAddress                 MBMlib
     0000C01B  _MBMPatternPointer                 MBMlib
     0000C01D  _MBMPAT                            MBMlib
     0000C01F  _MBMFading                         MBMlib
     0000C020  _MBMFadeCounter                    MBMlib
     0000C021  _MBMChannelBuffer                  MBMlib
     0000C09F  _MBMIVListAddr                     MBMlib
     0000C0A1  _MBMDrumBlockAddr                  MBMlib
     0000C0A3  _MBMSongLength                     MBMlib
     0000C0A4  _MBMChannelInfo                    MBMlib
     0000C0A5  _MBMLoopPoint                      MBMlib
     0000C0A6  _MBMLastCustInstr                  MBMlib
     0000C0A7  _MBMSFXStatus                      MBMlib
     0000C0A8  _MBMSFXStart                       MBMlib
     0000C0AA  _MBMSFXPointer                     MBMlib
     0000C0AC  _MBMSFXLoopPoint                   MBMlib
     0000C0AE  _MBMSFXSkipFrames                  MBMlib
     0000C0AF  _MBMSFXLoopFlag                    MBMlib
     0000C0B0  _MBMSFXDelayIVR                    MBMlib
     0000C0B1  _VDPBlank                          SMSlib
     0000C0B2  _SMS_VDPFlags                      SMSlib
     0000C0B3  _PauseRequested                    SMSlib
     0000C0B4  _SMS_Port3EBIOSvalue               SMSlib
     0000C0B5  _KeysStatus                        SMSlib
     0000C0B7  _PreviousKeysStatus                SMSlib
     0000C0B9  _SMS_theLineInterruptHandler       SMSlib
     0000C0BB  _SpriteTableY                      SMSlib_sprite
     0000C0FB  _SpriteTableXN                     SMSlib_sprite
     0000C17B  _SpriteNextFree                    SMSlib_sprite
ASxxxx Linker V03.00 + NoICE + sdld,  page 14.
Hexadecimal  [32-Bits]

Area                                    Addr        Size        Decimal Bytes (Attributes)
--------------------------------        ----        ----        ------- ----- ------------
_INITIALIZED                        0000C17C    00000005 =           5. bytes (REL,CON)

      Value  Global                              Global Defined In Module
      -----  --------------------------------   ------------------------
     0000C17C  _VDPReg                            SMSlib
     0000C17E  _spritesHeight                     SMSlib
     0000C17F  _spritesWidth                      SMSlib
     0000C180  _spritesTileOffset                 SMSlib

ASxxxx Linker V03.00 + NoICE + sdld,  page 15.
Hexadecimal  [32-Bits]

Area                                    Addr        Size        Decimal Bytes (Attributes)
--------------------------------        ----        ----        ------- ----- ------------
_CABS0                              00000000    00000010 =          16. bytes (ABS,CON)

      Value  Global                              Global Defined In Module
      -----  --------------------------------   ------------------------
     00003FF0  G$__SMS__SEGA_signature$0_0$0      main
     00003FF0  ___SMS__SEGA_signature             main

ASxxxx Linker V03.00 + NoICE + sdld,  page 16.

Files Linked                              [ module(s) ]

crt0_sms.rel                              [ crt0 ]
main.rel                                  [ main ]
mbm.rel                                   [ mbm ]
MBMlib.rel                                [ MBMlib ]


Libraries Linked                          [ object file ]

SMSlib.lib                                [ SMSlib.rel ]
SMSlib.lib                                [ SMSlib_sprite.rel ]
C:\Program Files\SDCC\bin\..\lib\z80/z80.lib
                                          [ __sdcc_call_hl.rel ]

ASxxxx Linker V03.00 + NoICE + sdld,  page 17.

User Base Address Definitions

_CODE = 0x0200
_DATA = 0xc000

