ASxxxx Linker V03.00 + NoICE + sdld,  page 1.
Hexadecimal  [32-Bits]

Area                                    Addr        Size        Decimal Bytes (Attributes)
--------------------------------        ----        ----        ------- ----- ------------
.  .ABS.                            00000000    00000000 =           0. bytes (ABS,CON)

      Value  Global                              Global Defined In Module
      -----  --------------------------------   ------------------------
     00000000  .__.ABS.                           
     00000000  _SMS_autoSetUpTextRenderer      
     00000000  _putchar                        
     00000000  l__BSEG                         
     00000000  l__BSS                          
     00000000  l__CABS                         
     00000000  l__DABS                         
     00000000  l__HEADER                       
     00000000  l__HEAP                         
     00000000  l__HOME                         
     00000000  s__CABS                         
     00000000  s__CABS0                        
     00000000  s__CABS1                        
     00000000  s__CABS2                        
     00000000  s__CABS3                        
     00000000  s__CABS4                        
     00000000  s__DABS                         
     00000000  s__HEADER                       
     00000000  s__HEADER0                      
     00000000  s__HEADER1                      
     00000000  s__HEADER2                      
     00000000  s__HEADER3                      
     00000000  s__HEADER4                      
     00000000  s__HEADER5                      
     00000001  l__GSFINAL                      
     00000003  l__HEADER3                      
     00000003  l__HEADER4                      
     00000006  l__HEADER0                      
     00000009  l__HEADER1                      
     0000000A  l__HEADER2                      
     00000018  l__CABS2                        
     00000020  l__CABS0                        
     00000020  l__CABS4                        
     00000022  l__CABS1                        
     0000003B  l__GSINIT                       
     0000003F  G$port3F$0$0                       inlib
     0000006E  l__CABS3                        
     000000BE  G$VDPDataPort$0$0                  main
     000000DC  G$portDC$0$0                       inlib
     000000DD  G$portDD$0$0                       inlib
     0000012A  l__HEADER5                      
     00000200  s__CODE                         
     00000481  l__INITIALIZED                  
     00000481  l__INITIALIZER                  
     00000C7A  l__DATA                         
     00008000  G$SMS_SRAM$0$0                     util
     00008000  _SMS_SRAM                          SMSlib_loadTileMap
     000082A2  l__CODE                         
     000084A2  s__HOME                         
     000084A2  s__INITIALIZER                  
ASxxxx Linker V03.00 + NoICE + sdld,  page 2.
Hexadecimal  [32-Bits]

Area                                    Addr        Size        Decimal Bytes (Attributes)
--------------------------------        ----        ----        ------- ----- ------------
.  .ABS.                            00000000    00000000 =           0. bytes (ABS,CON)

      Value  Global                              Global Defined In Module
      -----  --------------------------------   ------------------------
     00008923  s__GSINIT                       
     0000895E  s__GSFINAL                      
     0000C000  s__DATA                         
     0000CC7A  s__INITIALIZED                  
     0000D0FB  s__BSEG                         
     0000D0FB  s__BSS                          
     0000D0FB  s__HEAP                         
     0000FFFC  G$SRAM_bank_to_be_mapped_on_slot   util
     0000FFFC  _SRAM_bank_to_be_mapped_on_slot2   SMSlib_loadTileMap
     0000FFFF  G$ROM_bank_to_be_mapped_on_slot2   util
     0000FFFF  _ROM_bank_to_be_mapped_on_slot2    SMSlib_loadTileMap

ASxxxx Linker V03.00 + NoICE + sdld,  page 3.
Hexadecimal  [32-Bits]

Area                                    Addr        Size        Decimal Bytes (Attributes)
--------------------------------        ----        ----        ------- ----- ------------
_CODE                               00000200    000082A2 =       33442. bytes (REL,CON)

      Value  Global                              Global Defined In Module
      -----  --------------------------------   ------------------------
     00000200  __clock                            crt0
     00000204  _exit                              crt0
     00002150  _PSGStop                           PSGlib
     00002177  _PSGResume                         PSGlib
     000021C3  _PSGPlay                           PSGlib
     000021F0  _PSGCancelLoop                     PSGlib
     000021F6  _PSGPlayNoRepeat                   PSGlib
     00002205  _PSGGetStatus                      PSGlib
     0000220D  _PSGSilenceChannels                PSGlib
     0000221E  _PSGRestoreVolumes                 PSGlib
     0000231D  _PSGSetMusicVolumeAttenuation      PSGlib
     0000240C  _PSGSFXStop                        PSGlib
     000024D6  _PSGSFXPlay                        PSGlib
     00002523  _PSGSFXCancelLoop                  PSGlib
     00002529  _PSGSFXGetStatus                   PSGlib
     00002531  _PSGSFXPlayLoop                    PSGlib
     00002552  _PSGFrame                          PSGlib
     0000266B  _PSGSFXFrame                       PSGlib
     000026F1  G$main_tilemap$0$0                 data
     000026F1  _main_tilemap                      data
     00002CF1  G$main_pal$0$0                     data
     00002CF1  _main_pal                          data
     00002D01  G$main_tiles$0$0                   data
     00002D01  _main_tiles                        data
     00003501  G$promenade_psgc$0$0               data
     00003501  _promenade_psgc                    data
     000040A9  G$sprites_pal$0$0                  data
     000040A9  _sprites_pal                       data
     000040B9  G$sprites_tiles$0$0                data
     000040B9  _sprites_tiles                     data
     000041B9  G$bank2$0$0                        data_bank2
     000041B9  _bank2                             data_bank2
     000041BB  G$bank3$0$0                        data_bank3
     000041BB  _bank3                             data_bank3
     000041BD  A$flash$68                         flash
     000041BD  C$flash.c$287$0$0                  flash
     000041BD  G$flash_erase64kSector$0$0         flash
     000041BD  _flash_erase64kSector              flash
     000041BF  A$flash$69                         flash
     000041C3  A$flash$70                         flash
     000041C5  A$flash$71                         flash
     000041C8  A$flash$72                         flash
     000041C9  A$flash$73                         flash
     000041CA  A$flash$77                         flash
     000041CA  C$flash.c$293$1$92                 flash
     000041CD  A$flash$78                         flash
     000041CE  A$flash$79                         flash
     000041CF  A$flash$80                         flash
     000041D0  A$flash$81                         flash
     000041D1  A$flash$82                         flash
ASxxxx Linker V03.00 + NoICE + sdld,  page 4.
Hexadecimal  [32-Bits]

Area                                    Addr        Size        Decimal Bytes (Attributes)
--------------------------------        ----        ----        ------- ----- ------------
_CODE                               00000200    000082A2 =       33442. bytes (REL,CON)

      Value  Global                              Global Defined In Module
      -----  --------------------------------   ------------------------
     000041D2  A$flash$83                         flash
     000041D3  A$flash$84                         flash
     000041D6  A$flash$85                         flash
     000041D9  A$flash$86                         flash
     000041DB  A$flash$87                         flash
     000041DC  A$flash$94                         flash
     000041DC  C$flash.c$294$1$92                 flash
     000041DC  C$flash.c$297$1$92                 flash
     000041DF  A$flash$95                         flash
     000041E0  A$flash$96                         flash
     000041E1  A$flash$97                         flash
     000041E2  A$flash$98                         flash
     000041E3  A$flash$99                         flash
     000041E4  A$flash$100                        flash
     000041E5  A$flash$101                        flash
     000041E6  A$flash$102                        flash
     000041E9  A$flash$103                        flash
     000041EB  A$flash$104                        flash
     000041ED  A$flash$109                        flash
     000041ED  C$flash.c$298$1$92                 flash
     000041ED  XG$flash_erase64kSector$0$0        flash
     000041EE  Fflash$ll_readSiliconID$0$0        flash
     0000420A  Fflash$ll_sector_erase$0$0         flash
     00004247  Fflash$ll_program_byte$0$0         flash
     00004283  Fflash$ll_read_byte$0$0            flash
     000042A2  A$flash$307                        flash
     000042A2  C$flash.c$310$1$92                 flash
     000042A2  G$flash_readSiliconID$0$0          flash
     000042A2  _flash_readSiliconID               flash
     000042A4  A$flash$308                        flash
     000042A8  A$flash$309                        flash
     000042AA  A$flash$310                        flash
     000042AD  A$flash$311                        flash
     000042AE  A$flash$312                        flash
     000042AF  A$flash$316                        flash
     000042AF  C$flash.c$316$1$94                 flash
     000042B2  A$flash$317                        flash
     000042B3  A$flash$318                        flash
     000042B4  A$flash$319                        flash
     000042B5  A$flash$320                        flash
     000042B8  A$flash$321                        flash
     000042B9  A$flash$322                        flash
     000042BA  A$flash$323                        flash
     000042BB  A$flash$324                        flash
     000042BE  A$flash$325                        flash
     000042C0  A$flash$326                        flash
     000042C1  A$flash$333                        flash
     000042C1  C$flash.c$317$1$94                 flash
     000042C1  C$flash.c$319$1$94                 flash
     000042C4  A$flash$334                        flash
     000042C6  A$flash$335                        flash
ASxxxx Linker V03.00 + NoICE + sdld,  page 5.
Hexadecimal  [32-Bits]

Area                                    Addr        Size        Decimal Bytes (Attributes)
--------------------------------        ----        ----        ------- ----- ------------
_CODE                               00000200    000082A2 =       33442. bytes (REL,CON)

      Value  Global                              Global Defined In Module
      -----  --------------------------------   ------------------------
     000042C8  A$flash$340                        flash
     000042C8  C$flash.c$320$1$94                 flash
     000042C8  XG$flash_readSiliconID$0$0         flash
     000042C9  A$flash$350                        flash
     000042C9  C$flash.c$329$1$94                 flash
     000042C9  G$flash_programByte$0$0            flash
     000042C9  _flash_programByte                 flash
     000042CB  A$flash$351                        flash
     000042CF  A$flash$352                        flash
     000042D1  A$flash$353                        flash
     000042D4  A$flash$354                        flash
     000042D5  A$flash$355                        flash
     000042D6  A$flash$359                        flash
     000042D6  C$flash.c$335$1$96                 flash
     000042D9  A$flash$360                        flash
     000042DA  A$flash$361                        flash
     000042DB  A$flash$362                        flash
     000042DC  A$flash$363                        flash
     000042DD  A$flash$364                        flash
     000042DE  A$flash$365                        flash
     000042DF  A$flash$366                        flash
     000042E2  A$flash$367                        flash
     000042E5  A$flash$368                        flash
     000042E7  A$flash$369                        flash
     000042E8  A$flash$376                        flash
     000042E8  C$flash.c$336$1$96                 flash
     000042E8  C$flash.c$339$1$96                 flash
     000042EB  A$flash$377                        flash
     000042EC  A$flash$378                        flash
     000042ED  A$flash$379                        flash
     000042EE  A$flash$383                        flash
     000042EE  C$flash.c$340$1$96                 flash
     000042F1  A$flash$384                        flash
     000042F2  A$flash$385                        flash
     000042F3  A$flash$386                        flash
     000042F5  A$flash$387                        flash
     000042F6  A$flash$388                        flash
     000042F8  A$flash$389                        flash
     000042F9  A$flash$390                        flash
     000042FA  A$flash$394                        flash
     000042FA  C$flash.c$343$1$96                 flash
     000042FD  A$flash$395                        flash
     000042FF  A$flash$399                        flash
     000042FF  C$flash.c$344$1$96                 flash
     00004302  A$flash$400                        flash
     00004304  A$flash$401                        flash
     00004307  A$flash$405                        flash
     00004307  C$flash.c$347$1$96                 flash
     00004308  A$flash$406                        flash
     00004309  A$flash$407                        flash
     0000430C  A$flash$408                        flash
ASxxxx Linker V03.00 + NoICE + sdld,  page 6.
Hexadecimal  [32-Bits]

Area                                    Addr        Size        Decimal Bytes (Attributes)
--------------------------------        ----        ----        ------- ----- ------------
_CODE                               00000200    000082A2 =       33442. bytes (REL,CON)

      Value  Global                              Global Defined In Module
      -----  --------------------------------   ------------------------
     0000430F  A$flash$409                        flash
     00004310  A$flash$410                        flash
     00004313  A$flash$411                        flash
     00004314  A$flash$412                        flash
     00004315  A$flash$413                        flash
     00004316  A$flash$414                        flash
     00004317  A$flash$415                        flash
     0000431A  A$flash$416                        flash
     0000431C  A$flash$417                        flash
     0000431E  A$flash$422                        flash
     0000431E  C$flash.c$348$1$96                 flash
     0000431E  XG$flash_programByte$0$0           flash
     0000431F  A$flash$435                        flash
     0000431F  C$flash.c$356$1$96                 flash
     0000431F  C$flash.c$358$1$98                 flash
     0000431F  G$flash_isKnownId$0$0              flash
     0000431F  _flash_isKnownId                   flash
     00004322  A$flash$439                        flash
     00004322  C$flash.c$360$1$98                 flash
     00004323  A$flash$440                        flash
     00004325  A$flash$441                        flash
     00004327  A$flash$442                        flash
     00004328  A$flash$443                        flash
     0000432A  A$flash$444                        flash
     0000432C  A$flash$448                        flash
     0000432C  C$flash.c$362$2$99                 flash
     0000432E  A$flash$449                        flash
     0000432F  A$flash$454                        flash
     0000432F  C$flash.c$365$1$98                 flash
     00004331  A$flash$459                        flash
     00004331  C$flash.c$366$1$98                 flash
     00004331  XG$flash_isKnownId$0$0             flash
     00004332  A$flash$469                        flash
     00004332  C$flash.c$369$1$98                 flash
     00004332  G$flash_programBytes$0$0           flash
     00004332  _flash_programBytes                flash
     00004334  A$flash$470                        flash
     00004338  A$flash$471                        flash
     0000433A  A$flash$472                        flash
     0000433B  A$flash$473                        flash
     0000433C  A$flash$477                        flash
     0000433C  C$flash.c$371$1$101                flash
     0000433F  A$flash$478                        flash
     00004342  A$flash$479                        flash
     00004345  A$flash$480                        flash
     00004348  A$flash$481                        flash
     0000434B  A$flash$482                        flash
     0000434E  A$flash$483                        flash
     00004351  A$flash$484                        flash
     00004354  A$flash$486                        flash
     00004355  A$flash$487                        flash
ASxxxx Linker V03.00 + NoICE + sdld,  page 7.
Hexadecimal  [32-Bits]

Area                                    Addr        Size        Decimal Bytes (Attributes)
--------------------------------        ----        ----        ------- ----- ------------
_CODE                               00000200    000082A2 =       33442. bytes (REL,CON)

      Value  Global                              Global Defined In Module
      -----  --------------------------------   ------------------------
     00004356  A$flash$488                        flash
     00004357  A$flash$489                        flash
     00004358  A$flash$490                        flash
     00004359  A$flash$491                        flash
     0000435B  A$flash$495                        flash
     0000435B  C$flash.c$373$2$102                flash
     0000435C  A$flash$496                        flash
     0000435F  A$flash$497                        flash
     00004360  A$flash$498                        flash
     00004361  A$flash$499                        flash
     00004364  A$flash$500                        flash
     00004367  A$flash$501                        flash
     00004368  A$flash$502                        flash
     0000436B  A$flash$503                        flash
     0000436E  A$flash$504                        flash
     0000436F  A$flash$505                        flash
     00004372  A$flash$506                        flash
     00004373  A$flash$507                        flash
     00004374  A$flash$508                        flash
     00004375  A$flash$509                        flash
     00004376  A$flash$513                        flash
     00004376  C$flash.c$374$2$102                flash
     00004377  A$flash$517                        flash
     00004377  C$flash.c$375$2$102                flash
     0000437A  A$flash$518                        flash
     0000437C  A$flash$519                        flash
     0000437F  A$flash$520                        flash
     00004381  A$flash$522                        flash
     00004383  A$flash$523                        flash
     00004385  A$flash$528                        flash
     00004385  C$flash.c$377$1$101                flash
     00004385  XG$flash_programBytes$0$0          flash
     00004386  A$flash$538                        flash
     00004386  C$flash.c$385$1$101                flash
     00004386  G$flash_readByte$0$0               flash
     00004386  _flash_readByte                    flash
     00004388  A$flash$539                        flash
     0000438C  A$flash$540                        flash
     0000438E  A$flash$541                        flash
     00004391  A$flash$542                        flash
     00004392  A$flash$543                        flash
     00004393  A$flash$547                        flash
     00004393  C$flash.c$392$1$104                flash
     00004396  A$flash$548                        flash
     00004397  A$flash$549                        flash
     00004398  A$flash$550                        flash
     00004399  A$flash$551                        flash
     0000439A  A$flash$552                        flash
     0000439B  A$flash$553                        flash
     0000439C  A$flash$554                        flash
     0000439F  A$flash$555                        flash
ASxxxx Linker V03.00 + NoICE + sdld,  page 8.
Hexadecimal  [32-Bits]

Area                                    Addr        Size        Decimal Bytes (Attributes)
--------------------------------        ----        ----        ------- ----- ------------
_CODE                               00000200    000082A2 =       33442. bytes (REL,CON)

      Value  Global                              Global Defined In Module
      -----  --------------------------------   ------------------------
     000043A2  A$flash$556                        flash
     000043A4  A$flash$557                        flash
     000043A5  A$flash$564                        flash
     000043A5  C$flash.c$393$1$104                flash
     000043A5  C$flash.c$396$1$104                flash
     000043A8  A$flash$565                        flash
     000043A9  A$flash$566                        flash
     000043AA  A$flash$567                        flash
     000043AB  A$flash$571                        flash
     000043AB  C$flash.c$397$1$104                flash
     000043AE  A$flash$572                        flash
     000043AF  A$flash$573                        flash
     000043B0  A$flash$574                        flash
     000043B2  A$flash$575                        flash
     000043B3  A$flash$576                        flash
     000043B5  A$flash$577                        flash
     000043B6  A$flash$578                        flash
     000043B7  A$flash$582                        flash
     000043B7  C$flash.c$400$1$104                flash
     000043BA  A$flash$583                        flash
     000043BC  A$flash$587                        flash
     000043BC  C$flash.c$401$1$104                flash
     000043BF  A$flash$588                        flash
     000043C1  A$flash$589                        flash
     000043C4  A$flash$593                        flash
     000043C4  C$flash.c$403$1$104                flash
     000043C5  A$flash$594                        flash
     000043C6  A$flash$595                        flash
     000043C9  A$flash$596                        flash
     000043CC  A$flash$597                        flash
     000043CD  A$flash$598                        flash
     000043CE  A$flash$599                        flash
     000043CF  A$flash$600                        flash
     000043D2  A$flash$601                        flash
     000043D4  A$flash$602                        flash
     000043D6  A$flash$607                        flash
     000043D6  C$flash.c$404$1$104                flash
     000043D6  XG$flash_readByte$0$0              flash
     000043D7  A$flash$617                        flash
     000043D7  C$flash.c$411$1$104                flash
     000043D7  G$flash_readBytes$0$0              flash
     000043D7  _flash_readBytes                   flash
     000043D9  A$flash$618                        flash
     000043DD  A$flash$619                        flash
     000043DF  A$flash$620                        flash
     000043E0  A$flash$624                        flash
     000043E0  C$flash.c$413$1$106                flash
     000043E3  A$flash$625                        flash
     000043E6  A$flash$626                        flash
     000043E9  A$flash$627                        flash
     000043EC  A$flash$628                        flash
ASxxxx Linker V03.00 + NoICE + sdld,  page 9.
Hexadecimal  [32-Bits]

Area                                    Addr        Size        Decimal Bytes (Attributes)
--------------------------------        ----        ----        ------- ----- ------------
_CODE                               00000200    000082A2 =       33442. bytes (REL,CON)

      Value  Global                              Global Defined In Module
      -----  --------------------------------   ------------------------
     000043EF  A$flash$629                        flash
     000043F2  A$flash$630                        flash
     000043F5  A$flash$631                        flash
     000043F8  A$flash$633                        flash
     000043F9  A$flash$634                        flash
     000043FA  A$flash$635                        flash
     000043FD  A$flash$636                        flash
     000043FF  A$flash$637                        flash
     00004402  A$flash$638                        flash
     00004405  A$flash$639                        flash
     00004407  A$flash$640                        flash
     0000440A  A$flash$641                        flash
     0000440B  A$flash$642                        flash
     0000440C  A$flash$643                        flash
     0000440E  A$flash$647                        flash
     0000440E  C$flash.c$415$2$107                flash
     0000440F  A$flash$648                        flash
     00004410  A$flash$649                        flash
     00004411  A$flash$650                        flash
     00004414  A$flash$651                        flash
     00004415  A$flash$652                        flash
     00004416  A$flash$653                        flash
     00004419  A$flash$654                        flash
     0000441A  A$flash$655                        flash
     0000441B  A$flash$656                        flash
     0000441C  A$flash$657                        flash
     0000441D  A$flash$658                        flash
     0000441E  A$flash$659                        flash
     0000441F  A$flash$663                        flash
     0000441F  C$flash.c$416$2$107                flash
     00004420  A$flash$667                        flash
     00004420  C$flash.c$417$2$107                flash
     00004421  A$flash$668                        flash
     00004423  A$flash$670                        flash
     00004425  A$flash$671                        flash
     00004427  A$flash$676                        flash
     00004427  C$flash.c$419$1$106                flash
     00004427  XG$flash_readBytes$0$0             flash
     00004428  A$flash$686                        flash
     00004428  C$flash.c$426$1$106                flash
     00004428  G$flash_compareBytes$0$0           flash
     00004428  _flash_compareBytes                flash
     0000442A  A$flash$687                        flash
     0000442E  A$flash$688                        flash
     00004430  A$flash$689                        flash
     00004431  A$flash$690                        flash
     00004432  A$flash$694                        flash
     00004432  C$flash.c$430$1$109                flash
     00004435  A$flash$695                        flash
     00004438  A$flash$696                        flash
     0000443B  A$flash$697                        flash
ASxxxx Linker V03.00 + NoICE + sdld,  page 10.
Hexadecimal  [32-Bits]

Area                                    Addr        Size        Decimal Bytes (Attributes)
--------------------------------        ----        ----        ------- ----- ------------
_CODE                               00000200    000082A2 =       33442. bytes (REL,CON)

      Value  Global                              Global Defined In Module
      -----  --------------------------------   ------------------------
     0000443E  A$flash$698                        flash
     00004441  A$flash$699                        flash
     00004444  A$flash$700                        flash
     00004447  A$flash$701                        flash
     0000444A  A$flash$703                        flash
     0000444B  A$flash$704                        flash
     0000444C  A$flash$705                        flash
     0000444D  A$flash$706                        flash
     0000444E  A$flash$707                        flash
     0000444F  A$flash$708                        flash
     00004451  A$flash$712                        flash
     00004451  C$flash.c$432$2$110                flash
     00004452  A$flash$713                        flash
     00004453  A$flash$714                        flash
     00004454  A$flash$715                        flash
     00004457  A$flash$716                        flash
     00004458  A$flash$717                        flash
     00004459  A$flash$718                        flash
     0000445C  A$flash$719                        flash
     0000445D  A$flash$720                        flash
     0000445E  A$flash$721                        flash
     0000445F  A$flash$722                        flash
     00004460  A$flash$723                        flash
     00004463  A$flash$727                        flash
     00004463  C$flash.c$433$2$110                flash
     00004466  A$flash$728                        flash
     00004469  A$flash$729                        flash
     0000446A  A$flash$730                        flash
     0000446D  A$flash$731                        flash
     00004470  A$flash$732                        flash
     00004473  A$flash$733                        flash
     00004475  A$flash$737                        flash
     00004475  C$flash.c$435$3$111                flash
     00004477  A$flash$738                        flash
     00004479  A$flash$743                        flash
     00004479  C$flash.c$437$2$110                flash
     0000447A  A$flash$747                        flash
     0000447A  C$flash.c$438$2$110                flash
     0000447D  A$flash$748                        flash
     0000447F  A$flash$749                        flash
     00004482  A$flash$750                        flash
     00004484  A$flash$755                        flash
     00004484  C$flash.c$441$1$109                flash
     00004486  A$flash$757                        flash
     00004488  A$flash$758                        flash
     0000448A  A$flash$763                        flash
     0000448A  C$flash.c$442$1$109                flash
     0000448A  XG$flash_compareBytes$0$0          flash
     0000448B  A$inlib$88                         inlib
     0000448B  C$inlib.c$27$0$0                   inlib
     0000448B  C$inlib.c$31$1$59                  inlib
ASxxxx Linker V03.00 + NoICE + sdld,  page 11.
Hexadecimal  [32-Bits]

Area                                    Addr        Size        Decimal Bytes (Attributes)
--------------------------------        ----        ----        ------- ----- ------------
_CODE                               00000200    000082A2 =       33442. bytes (REL,CON)

      Value  Global                              Global Defined In Module
      -----  --------------------------------   ------------------------
     0000448B  G$SMS_detectPaddleA$0$0            inlib
     0000448B  _SMS_detectPaddleA                 inlib
     0000448D  A$inlib$89                         inlib
     0000448F  A$inlib$91                         inlib
     00004490  A$inlib$92                         inlib
     00004492  A$inlib$96                         inlib
     00004492  C$inlib.c$33$3$61                  inlib
     00004494  A$inlib$97                         inlib
     00004496  A$inlib$98                         inlib
     00004498  A$inlib$102                        inlib
     00004498  C$inlib.c$35$4$62                  inlib
     00004499  A$inlib$107                        inlib
     00004499  C$inlib.c$31$2$60                  inlib
     0000449A  A$inlib$108                        inlib
     0000449C  A$inlib$113                        inlib
     0000449C  C$inlib.c$38$1$59                  inlib
     0000449D  A$inlib$114                        inlib
     0000449F  A$inlib$115                        inlib
     000044A1  A$inlib$119                        inlib
     000044A1  C$inlib.c$40$2$63                  inlib
     000044A3  A$inlib$120                        inlib
     000044A4  A$inlib$125                        inlib
     000044A4  C$inlib.c$42$1$59                  inlib
     000044A6  A$inlib$126                        inlib
     000044A7  A$inlib$127                        inlib
     000044A9  A$inlib$131                        inlib
     000044A9  C$inlib.c$44$2$64                  inlib
     000044AB  A$inlib$132                        inlib
     000044AC  A$inlib$137                        inlib
     000044AC  C$inlib.c$47$1$59                  inlib
     000044AE  A$inlib$142                        inlib
     000044AE  C$inlib.c$48$1$59                  inlib
     000044AE  XG$SMS_detectPaddleA$0$0           inlib
     000044AF  A$inlib$155                        inlib
     000044AF  C$inlib.c$50$1$59                  inlib
     000044AF  C$inlib.c$54$1$66                  inlib
     000044AF  G$SMS_detectPaddleB$0$0            inlib
     000044AF  _SMS_detectPaddleB                 inlib
     000044B1  A$inlib$156                        inlib
     000044B3  A$inlib$158                        inlib
     000044B4  A$inlib$159                        inlib
     000044B6  A$inlib$163                        inlib
     000044B6  C$inlib.c$56$3$68                  inlib
     000044B8  A$inlib$164                        inlib
     000044BA  A$inlib$165                        inlib
     000044BC  A$inlib$169                        inlib
     000044BC  C$inlib.c$58$4$69                  inlib
     000044BD  A$inlib$174                        inlib
     000044BD  C$inlib.c$54$2$67                  inlib
     000044BE  A$inlib$175                        inlib
     000044C0  A$inlib$180                        inlib
ASxxxx Linker V03.00 + NoICE + sdld,  page 12.
Hexadecimal  [32-Bits]

Area                                    Addr        Size        Decimal Bytes (Attributes)
--------------------------------        ----        ----        ------- ----- ------------
_CODE                               00000200    000082A2 =       33442. bytes (REL,CON)

      Value  Global                              Global Defined In Module
      -----  --------------------------------   ------------------------
     000044C0  C$inlib.c$61$1$66                  inlib
     000044C1  A$inlib$181                        inlib
     000044C3  A$inlib$182                        inlib
     000044C5  A$inlib$186                        inlib
     000044C5  C$inlib.c$63$2$70                  inlib
     000044C7  A$inlib$187                        inlib
     000044C8  A$inlib$192                        inlib
     000044C8  C$inlib.c$65$1$66                  inlib
     000044CA  A$inlib$193                        inlib
     000044CB  A$inlib$194                        inlib
     000044CD  A$inlib$198                        inlib
     000044CD  C$inlib.c$67$2$71                  inlib
     000044CF  A$inlib$199                        inlib
     000044D0  A$inlib$204                        inlib
     000044D0  C$inlib.c$70$1$66                  inlib
     000044D2  A$inlib$209                        inlib
     000044D2  C$inlib.c$71$1$66                  inlib
     000044D2  XG$SMS_detectPaddleB$0$0           inlib
     000044D3  A$inlib$219                        inlib
     000044D3  C$inlib.c$73$1$66                  inlib
     000044D3  G$SMS_paddleReadA$0$0              inlib
     000044D3  _SMS_paddleReadA                   inlib
     000044D4  A$inlib$223                        inlib
     000044D4  C$inlib.c$88$1$73                  inlib
     000044D7  A$inlib$228                        inlib
     000044D7  C$inlib.c$90$2$74                  inlib
     000044D9  A$inlib$229                        inlib
     000044DD  A$inlib$230                        inlib
     000044DF  A$inlib$231                        inlib
     000044E2  A$inlib$235                        inlib
     000044E2  C$inlib.c$91$2$74                  inlib
     000044E3  A$inlib$239                        inlib
     000044E3  C$inlib.c$92$2$74                  inlib
     000044E4  A$inlib$240                        inlib
     000044E5  A$inlib$241                        inlib
     000044E7  A$inlib$245                        inlib
     000044E7  C$inlib.c$94$3$75                  inlib
     000044EA  A$inlib$246                        inlib
     000044EC  A$inlib$251                        inlib
     000044EC  C$inlib.c$96$1$73                  inlib
     000044EF  A$inlib$252                        inlib
     000044F0  A$inlib$253                        inlib
     000044F1  A$inlib$254                        inlib
     000044F3  A$inlib$255                        inlib
     000044F5  A$inlib$263                        inlib
     000044F5  C$inlib.c$101$2$76                 inlib
     000044F5  C$inlib.c$99$1$73                  inlib
     000044F7  A$inlib$264                        inlib
     000044F8  A$inlib$268                        inlib
     000044F8  C$inlib.c$102$2$76                 inlib
     000044F9  A$inlib$272                        inlib
ASxxxx Linker V03.00 + NoICE + sdld,  page 13.
Hexadecimal  [32-Bits]

Area                                    Addr        Size        Decimal Bytes (Attributes)
--------------------------------        ----        ----        ------- ----- ------------
_CODE                               00000200    000082A2 =       33442. bytes (REL,CON)

      Value  Global                              Global Defined In Module
      -----  --------------------------------   ------------------------
     000044F9  C$inlib.c$103$2$76                 inlib
     000044FA  A$inlib$273                        inlib
     000044FB  A$inlib$274                        inlib
     000044FD  A$inlib$278                        inlib
     000044FD  C$inlib.c$105$3$77                 inlib
     00004500  A$inlib$279                        inlib
     00004502  A$inlib$284                        inlib
     00004502  C$inlib.c$107$1$73                 inlib
     00004504  A$inlib$285                        inlib
     00004506  A$inlib$289                        inlib
     00004506  C$inlib.c$109$1$73                 inlib
     00004507  A$inlib$290                        inlib
     00004509  A$inlib$291                        inlib
     0000450A  A$inlib$299                        inlib
     0000450A  C$inlib.c$112$1$73                 inlib
     0000450A  C$inlib.c$114$2$78                 inlib
     0000450C  A$inlib$300                        inlib
     0000450D  A$inlib$304                        inlib
     0000450D  C$inlib.c$115$2$78                 inlib
     0000450E  A$inlib$308                        inlib
     0000450E  C$inlib.c$116$2$78                 inlib
     0000450F  A$inlib$309                        inlib
     00004510  A$inlib$310                        inlib
     00004512  A$inlib$314                        inlib
     00004512  C$inlib.c$118$3$79                 inlib
     00004515  A$inlib$315                        inlib
     00004517  A$inlib$320                        inlib
     00004517  C$inlib.c$120$1$73                 inlib
     00004519  A$inlib$321                        inlib
     0000451B  A$inlib$325                        inlib
     0000451B  C$inlib.c$122$1$73                 inlib
     0000451C  A$inlib$326                        inlib
     0000451D  A$inlib$327                        inlib
     0000451E  A$inlib$328                        inlib
     0000451F  A$inlib$329                        inlib
     00004520  A$inlib$330                        inlib
     00004522  A$inlib$331                        inlib
     00004523  A$inlib$332                        inlib
     00004524  A$inlib$336                        inlib
     00004524  C$inlib.c$124$1$73                 inlib
     00004526  A$inlib$338                        inlib
     00004527  A$inlib$343                        inlib
     00004527  C$inlib.c$125$1$73                 inlib
     00004527  XG$SMS_paddleReadA$0$0             inlib
     00004528  A$inlib$356                        inlib
     00004528  C$inlib.c$127$1$73                 inlib
     00004528  C$inlib.c$130$1$73                 inlib
     00004528  G$SMS_paddleReadB$0$0              inlib
     00004528  _SMS_paddleReadB                   inlib
     0000452B  A$inlib$360                        inlib
     0000452B  C$inlib.c$133$1$81                 inlib
ASxxxx Linker V03.00 + NoICE + sdld,  page 14.
Hexadecimal  [32-Bits]

Area                                    Addr        Size        Decimal Bytes (Attributes)
--------------------------------        ----        ----        ------- ----- ------------
_CODE                               00000200    000082A2 =       33442. bytes (REL,CON)

      Value  Global                              Global Defined In Module
      -----  --------------------------------   ------------------------
     0000452E  A$inlib$362                        inlib
     00004530  A$inlib$363                        inlib
     00004532  A$inlib$364                        inlib
     00004534  A$inlib$368                        inlib
     00004534  C$inlib.c$135$2$82                 inlib
     00004535  A$inlib$369                        inlib
     00004536  A$inlib$373                        inlib
     00004536  C$inlib.c$136$2$82                 inlib
     00004537  A$inlib$374                        inlib
     00004538  A$inlib$375                        inlib
     00004539  A$inlib$376                        inlib
     0000453B  A$inlib$380                        inlib
     0000453B  C$inlib.c$138$3$83                 inlib
     0000453E  A$inlib$381                        inlib
     0000453F  A$inlib$386                        inlib
     0000453F  C$inlib.c$143$1$81                 inlib
     00004540  A$inlib$387                        inlib
     00004541  A$inlib$389                        inlib
     00004543  A$inlib$390                        inlib
     00004545  A$inlib$391                        inlib
     00004547  A$inlib$395                        inlib
     00004547  C$inlib.c$145$2$84                 inlib
     00004548  A$inlib$396                        inlib
     00004549  A$inlib$400                        inlib
     00004549  C$inlib.c$146$2$84                 inlib
     0000454A  A$inlib$401                        inlib
     0000454B  A$inlib$402                        inlib
     0000454C  A$inlib$403                        inlib
     0000454E  A$inlib$407                        inlib
     0000454E  C$inlib.c$148$3$85                 inlib
     00004551  A$inlib$408                        inlib
     00004552  A$inlib$413                        inlib
     00004552  C$inlib.c$151$1$81                 inlib
     00004554  A$inlib$414                        inlib
     00004555  A$inlib$415                        inlib
     00004556  A$inlib$416                        inlib
     00004558  A$inlib$417                        inlib
     00004559  A$inlib$418                        inlib
     0000455B  A$inlib$419                        inlib
     0000455D  A$inlib$420                        inlib
     0000455E  A$inlib$421                        inlib
     0000455F  A$inlib$422                        inlib
     00004560  A$inlib$423                        inlib
     00004561  A$inlib$428                        inlib
     00004561  C$inlib.c$155$1$81                 inlib
     00004563  A$inlib$429                        inlib
     00004565  A$inlib$430                        inlib
     00004567  A$inlib$434                        inlib
     00004567  C$inlib.c$157$2$86                 inlib
     00004568  A$inlib$438                        inlib
     00004568  C$inlib.c$158$2$86                 inlib
ASxxxx Linker V03.00 + NoICE + sdld,  page 15.
Hexadecimal  [32-Bits]

Area                                    Addr        Size        Decimal Bytes (Attributes)
--------------------------------        ----        ----        ------- ----- ------------
_CODE                               00000200    000082A2 =       33442. bytes (REL,CON)

      Value  Global                              Global Defined In Module
      -----  --------------------------------   ------------------------
     00004569  A$inlib$439                        inlib
     0000456A  A$inlib$440                        inlib
     0000456C  A$inlib$444                        inlib
     0000456C  C$inlib.c$160$3$87                 inlib
     0000456F  A$inlib$445                        inlib
     00004570  A$inlib$450                        inlib
     00004570  C$inlib.c$164$1$81                 inlib
     00004572  A$inlib$451                        inlib
     00004573  A$inlib$452                        inlib
     00004574  A$inlib$453                        inlib
     00004576  A$inlib$454                        inlib
     00004577  A$inlib$455                        inlib
     00004579  A$inlib$456                        inlib
     0000457B  A$inlib$457                        inlib
     0000457C  A$inlib$458                        inlib
     0000457D  A$inlib$459                        inlib
     0000457E  A$inlib$463                        inlib
     0000457E  C$inlib.c$165$1$81                 inlib
     0000457F  A$inlib$464                        inlib
     00004580  A$inlib$465                        inlib
     00004581  A$inlib$466                        inlib
     00004582  A$inlib$467                        inlib
     00004584  A$inlib$468                        inlib
     00004585  A$inlib$469                        inlib
     00004586  A$inlib$473                        inlib
     00004586  C$inlib.c$167$1$81                 inlib
     00004588  A$inlib$478                        inlib
     00004588  C$inlib.c$168$1$81                 inlib
     00004588  XG$SMS_paddleReadB$0$0             inlib
     00004589  A$inlib$491                        inlib
     00004589  C$inlib.c$170$1$81                 inlib
     00004589  C$inlib.c$172$1$89                 inlib
     00004589  Finlib$SMS_paddle_meka_workaroun   inlib
     0000458B  A$inlib$492                        inlib
     0000458D  A$inlib$497                        inlib
     0000458D  C$inlib.c$173$1$89                 inlib
     0000458D  XFinlib$SMS_paddle_meka_workarou   inlib
     0000458E  A$inlib$510                        inlib
     0000458E  C$inlib.c$175$1$89                 inlib
     0000458E  C$inlib.c$177$1$91                 inlib
     0000458E  Finlib$SMS_paddle_undo_meka_work   inlib
     00004590  A$inlib$511                        inlib
     00004592  A$inlib$516                        inlib
     00004592  C$inlib.c$178$1$91                 inlib
     00004592  XFinlib$SMS_paddle_undo_meka_wor   inlib
     00004593  A$inlib$529                        inlib
     00004593  C$inlib.c$180$1$91                 inlib
     00004593  C$inlib.c$183$1$92                 inlib
     00004593  Finlib$TH_TR_outputmode$0$0        inlib
     00004595  A$inlib$530                        inlib
     00004597  A$inlib$535                        inlib
ASxxxx Linker V03.00 + NoICE + sdld,  page 16.
Hexadecimal  [32-Bits]

Area                                    Addr        Size        Decimal Bytes (Attributes)
--------------------------------        ----        ----        ------- ----- ------------
_CODE                               00000200    000082A2 =       33442. bytes (REL,CON)

      Value  Global                              Global Defined In Module
      -----  --------------------------------   ------------------------
     00004597  C$inlib.c$184$1$92                 inlib
     00004597  XFinlib$TH_TR_outputmode$0$0       inlib
     00004598  A$inlib$545                        inlib
     00004598  C$inlib.c$194$1$92                 inlib
     00004598  Finlib$_delayN$0$0                 inlib
     00004599  A$inlib$549                        inlib
     00004599  C$inlib.c$196$1$92                 inlib
     0000459C  A$inlib$550                        inlib
     0000459D  A$inlib$551                        inlib
     0000459E  A$inlib$552                        inlib
     000045A2  A$inlib$553                        inlib
     000045A4  A$inlib$554                        inlib
     000045A7  A$inlib$555                        inlib
     000045AA  A$inlib$556                        inlib
     000045AB  A$inlib$557                        inlib
     000045AC  A$inlib$558                        inlib
     000045B0  A$inlib$559                        inlib
     000045B2  A$inlib$560                        inlib
     000045B5  A$inlib$565                        inlib
     000045B5  C$inlib.c$198$1$94                 inlib
     000045B6  A$inlib$566                        inlib
     000045B7  A$inlib$567                        inlib
     000045B8  A$inlib$568                        inlib
     000045B9  A$inlib$569                        inlib
     000045BA  A$inlib$570                        inlib
     000045BB  A$inlib$571                        inlib
     000045BC  A$inlib$572                        inlib
     000045BD  A$inlib$573                        inlib
     000045BF  A$inlib$577                        inlib
     000045BF  C$inlib.c$201$2$95                 inlib
     000045C0  A$inlib$578                        inlib
     000045C2  A$inlib$580                        inlib
     000045C3  A$inlib$585                        inlib
     000045C3  C$inlib.c$203$1$94                 inlib
     000045C3  XFinlib$_delayN$0$0                inlib
     000045C4  A$inlib$595                        inlib
     000045C4  C$inlib.c$205$1$94                 inlib
     000045C4  Finlib$sportsPad_read$0$0          inlib
     000045C5  A$inlib$599                        inlib
     000045C5  C$inlib.c$211$1$97                 inlib
     000045C7  A$inlib$600                        inlib
     000045C9  A$inlib$604                        inlib
     000045C9  C$inlib.c$212$1$97                 inlib
     000045CC  A$inlib$605                        inlib
     000045CD  A$inlib$606                        inlib
     000045D0  A$inlib$607                        inlib
     000045D1  A$inlib$611                        inlib
     000045D1  C$inlib.c$213$1$97                 inlib
     000045D3  A$inlib$612                        inlib
     000045D5  A$inlib$613                        inlib
     000045D6  A$inlib$614                        inlib
ASxxxx Linker V03.00 + NoICE + sdld,  page 17.
Hexadecimal  [32-Bits]

Area                                    Addr        Size        Decimal Bytes (Attributes)
--------------------------------        ----        ----        ------- ----- ------------
_CODE                               00000200    000082A2 =       33442. bytes (REL,CON)

      Value  Global                              Global Defined In Module
      -----  --------------------------------   ------------------------
     000045D7  A$inlib$615                        inlib
     000045D8  A$inlib$616                        inlib
     000045D9  A$inlib$617                        inlib
     000045DB  A$inlib$618                        inlib
     000045DC  A$inlib$622                        inlib
     000045DC  C$inlib.c$215$1$97                 inlib
     000045DE  A$inlib$623                        inlib
     000045E0  A$inlib$627                        inlib
     000045E0  C$inlib.c$216$1$97                 inlib
     000045E1  A$inlib$628                        inlib
     000045E4  A$inlib$629                        inlib
     000045E5  A$inlib$630                        inlib
     000045E8  A$inlib$631                        inlib
     000045E9  A$inlib$632                        inlib
     000045EA  A$inlib$636                        inlib
     000045EA  C$inlib.c$217$1$97                 inlib
     000045EC  A$inlib$637                        inlib
     000045EE  A$inlib$638                        inlib
     000045EF  A$inlib$639                        inlib
     000045F0  A$inlib$640                        inlib
     000045F1  A$inlib$641                        inlib
     000045F2  A$inlib$645                        inlib
     000045F2  C$inlib.c$219$1$97                 inlib
     000045F5  A$inlib$646                        inlib
     000045F6  A$inlib$647                        inlib
     000045F7  A$inlib$648                        inlib
     000045F8  A$inlib$649                        inlib
     000045F9  A$inlib$650                        inlib
     000045FC  A$inlib$651                        inlib
     000045FD  A$inlib$652                        inlib
     000045FE  A$inlib$653                        inlib
     000045FF  A$inlib$657                        inlib
     000045FF  C$inlib.c$221$1$97                 inlib
     00004601  A$inlib$658                        inlib
     00004603  A$inlib$662                        inlib
     00004603  C$inlib.c$222$1$97                 inlib
     00004604  A$inlib$663                        inlib
     00004607  A$inlib$664                        inlib
     00004608  A$inlib$665                        inlib
     0000460B  A$inlib$666                        inlib
     0000460C  A$inlib$667                        inlib
     0000460D  A$inlib$671                        inlib
     0000460D  C$inlib.c$223$1$97                 inlib
     0000460F  A$inlib$672                        inlib
     00004611  A$inlib$673                        inlib
     00004612  A$inlib$674                        inlib
     00004613  A$inlib$675                        inlib
     00004614  A$inlib$676                        inlib
     00004615  A$inlib$677                        inlib
     00004617  A$inlib$678                        inlib
     00004618  A$inlib$682                        inlib
ASxxxx Linker V03.00 + NoICE + sdld,  page 18.
Hexadecimal  [32-Bits]

Area                                    Addr        Size        Decimal Bytes (Attributes)
--------------------------------        ----        ----        ------- ----- ------------
_CODE                               00000200    000082A2 =       33442. bytes (REL,CON)

      Value  Global                              Global Defined In Module
      -----  --------------------------------   ------------------------
     00004618  C$inlib.c$225$1$97                 inlib
     0000461A  A$inlib$683                        inlib
     0000461C  A$inlib$687                        inlib
     0000461C  C$inlib.c$226$1$97                 inlib
     0000461D  A$inlib$688                        inlib
     0000461E  A$inlib$689                        inlib
     00004621  A$inlib$690                        inlib
     00004622  A$inlib$691                        inlib
     00004625  A$inlib$692                        inlib
     00004626  A$inlib$693                        inlib
     00004627  A$inlib$694                        inlib
     00004628  A$inlib$698                        inlib
     00004628  C$inlib.c$227$1$97                 inlib
     0000462A  A$inlib$699                        inlib
     0000462C  A$inlib$700                        inlib
     0000462D  A$inlib$701                        inlib
     0000462E  A$inlib$705                        inlib
     0000462E  C$inlib.c$229$1$97                 inlib
     0000462F  A$inlib$706                        inlib
     00004630  A$inlib$707                        inlib
     00004631  A$inlib$708                        inlib
     00004632  A$inlib$713                        inlib
     00004632  C$inlib.c$230$1$97                 inlib
     00004632  XFinlib$sportsPad_read$0$0         inlib
     00004633  A$inlib$723                        inlib
     00004633  C$inlib.c$232$1$97                 inlib
     00004633  Finlib$detectSportsPad$0$0         inlib
     00004635  A$inlib$724                        inlib
     00004639  A$inlib$725                        inlib
     0000463B  A$inlib$726                        inlib
     0000463C  A$inlib$727                        inlib
     0000463D  A$inlib$731                        inlib
     0000463D  C$inlib.c$238$1$98                 inlib
     0000463F  A$inlib$732                        inlib
     00004641  A$inlib$736                        inlib
     00004641  C$inlib.c$240$3$100                inlib
     00004644  A$inlib$737                        inlib
     00004645  A$inlib$738                        inlib
     00004646  A$inlib$739                        inlib
     00004647  A$inlib$740                        inlib
     0000464B  A$inlib$745                        inlib
     0000464B  C$inlib.c$243$3$100                inlib
     0000464C  A$inlib$746                        inlib
     0000464F  A$inlib$747                        inlib
     00004652  A$inlib$748                        inlib
     00004653  A$inlib$752                        inlib
     00004653  C$inlib.c$246$3$100                inlib
     00004654  A$inlib$753                        inlib
     00004655  A$inlib$754                        inlib
     00004656  A$inlib$755                        inlib
     00004657  A$inlib$756                        inlib
ASxxxx Linker V03.00 + NoICE + sdld,  page 19.
Hexadecimal  [32-Bits]

Area                                    Addr        Size        Decimal Bytes (Attributes)
--------------------------------        ----        ----        ------- ----- ------------
_CODE                               00000200    000082A2 =       33442. bytes (REL,CON)

      Value  Global                              Global Defined In Module
      -----  --------------------------------   ------------------------
     0000465A  A$inlib$757                        inlib
     0000465B  A$inlib$758                        inlib
     0000465C  A$inlib$762                        inlib
     0000465C  C$inlib.c$250$1$98                 inlib
     0000465E  A$inlib$767                        inlib
     0000465E  C$inlib.c$252$5$102                inlib
     0000465F  A$inlib$768                        inlib
     00004661  A$inlib$769                        inlib
     00004662  A$inlib$770                        inlib
     00004663  A$inlib$771                        inlib
     00004664  A$inlib$772                        inlib
     00004666  A$inlib$773                        inlib
     00004667  A$inlib$774                        inlib
     00004668  A$inlib$775                        inlib
     00004669  A$inlib$776                        inlib
     0000466A  A$inlib$777                        inlib
     0000466B  A$inlib$778                        inlib
     0000466C  A$inlib$779                        inlib
     0000466E  A$inlib$783                        inlib
     0000466E  C$inlib.c$254$6$103                inlib
     0000466F  A$inlib$784                        inlib
     00004671  A$inlib$785                        inlib
     00004672  A$inlib$786                        inlib
     00004674  A$inlib$791                        inlib
     00004674  C$inlib.c$250$4$101                inlib
     00004675  A$inlib$792                        inlib
     00004676  A$inlib$793                        inlib
     00004678  A$inlib$794                        inlib
     0000467A  A$inlib$798                        inlib
     0000467A  C$inlib.c$240$2$99                 inlib
     0000467D  A$inlib$799                        inlib
     00004680  A$inlib$800                        inlib
     00004682  A$inlib$801                        inlib
     00004684  A$inlib$805                        inlib
     00004684  C$inlib.c$259$1$98                 inlib
     00004686  A$inlib$807                        inlib
     00004688  A$inlib$808                        inlib
     0000468A  A$inlib$813                        inlib
     0000468A  C$inlib.c$260$1$98                 inlib
     0000468A  XFinlib$detectSportsPad$0$0        inlib
     0000468B  A$inlib$826                        inlib
     0000468B  C$inlib.c$262$1$98                 inlib
     0000468B  C$inlib.c$266$1$104                inlib
     0000468B  Finlib$detectMouse$0$0             inlib
     0000468D  A$inlib$827                        inlib
     0000468F  A$inlib$831                        inlib
     0000468F  C$inlib.c$270$1$104                inlib
     00004691  A$inlib$832                        inlib
     00004693  A$inlib$836                        inlib
     00004693  C$inlib.c$272$1$104                inlib
     00004696  A$inlib$838                        inlib
ASxxxx Linker V03.00 + NoICE + sdld,  page 20.
Hexadecimal  [32-Bits]

Area                                    Addr        Size        Decimal Bytes (Attributes)
--------------------------------        ----        ----        ------- ----- ------------
_CODE                               00000200    000082A2 =       33442. bytes (REL,CON)

      Value  Global                              Global Defined In Module
      -----  --------------------------------   ------------------------
     00004698  A$inlib$839                        inlib
     0000469A  A$inlib$840                        inlib
     0000469C  A$inlib$844                        inlib
     0000469C  C$inlib.c$274$2$105                inlib
     0000469D  A$inlib$848                        inlib
     0000469D  C$inlib.c$275$2$105                inlib
     0000469E  A$inlib$849                        inlib
     0000469F  A$inlib$850                        inlib
     000046A1  A$inlib$854                        inlib
     000046A1  C$inlib.c$277$3$106                inlib
     000046A3  A$inlib$855                        inlib
     000046A5  A$inlib$859                        inlib
     000046A5  C$inlib.c$278$3$106                inlib
     000046A7  A$inlib$860                        inlib
     000046A8  A$inlib$865                        inlib
     000046A8  C$inlib.c$282$1$104                inlib
     000046AA  A$inlib$866                        inlib
     000046AC  A$inlib$870                        inlib
     000046AC  C$inlib.c$284$1$104                inlib
     000046AF  A$inlib$872                        inlib
     000046B1  A$inlib$873                        inlib
     000046B3  A$inlib$874                        inlib
     000046B5  A$inlib$878                        inlib
     000046B5  C$inlib.c$286$2$107                inlib
     000046B6  A$inlib$882                        inlib
     000046B6  C$inlib.c$287$2$107                inlib
     000046B7  A$inlib$883                        inlib
     000046B8  A$inlib$884                        inlib
     000046BA  A$inlib$888                        inlib
     000046BA  C$inlib.c$289$3$108                inlib
     000046BC  A$inlib$889                        inlib
     000046BE  A$inlib$893                        inlib
     000046BE  C$inlib.c$290$3$108                inlib
     000046C0  A$inlib$894                        inlib
     000046C1  A$inlib$899                        inlib
     000046C1  C$inlib.c$294$1$104                inlib
     000046C3  A$inlib$900                        inlib
     000046C5  A$inlib$904                        inlib
     000046C5  C$inlib.c$296$1$104                inlib
     000046C7  A$inlib$909                        inlib
     000046C7  C$inlib.c$297$1$104                inlib
     000046C7  XFinlib$detectMouse$0$0            inlib
     000046C8  A$inlib$922                        inlib
     000046C8  C$inlib.c$299$1$104                inlib
     000046C8  C$inlib.c$303$1$109                inlib
     000046C8  Finlib$detectGraphics2$0$0         inlib
     000046CB  A$inlib$926                        inlib
     000046CB  C$inlib.c$305$1$109                inlib
     000046CD  A$inlib$927                        inlib
     000046CF  A$inlib$928                        inlib
     000046D0  A$inlib$932                        inlib
ASxxxx Linker V03.00 + NoICE + sdld,  page 21.
Hexadecimal  [32-Bits]

Area                                    Addr        Size        Decimal Bytes (Attributes)
--------------------------------        ----        ----        ------- ----- ------------
_CODE                               00000200    000082A2 =       33442. bytes (REL,CON)

      Value  Global                              Global Defined In Module
      -----  --------------------------------   ------------------------
     000046D0  C$inlib.c$307$1$109                inlib
     000046D2  A$inlib$933                        inlib
     000046D4  A$inlib$937                        inlib
     000046D4  C$inlib.c$309$1$109                inlib
     000046D5  A$inlib$938                        inlib
     000046D6  A$inlib$939                        inlib
     000046D8  A$inlib$940                        inlib
     000046DA  A$inlib$941                        inlib
     000046DC  A$inlib$943                        inlib
     000046DD  A$inlib$945                        inlib
     000046DE  A$inlib$950                        inlib
     000046DE  C$inlib.c$310$1$109                inlib
     000046DE  XFinlib$detectGraphics2$0$0        inlib
     000046DF  A$inlib$960                        inlib
     000046DF  C$inlib.c$312$1$109                inlib
     000046DF  Finlib$readGraphics2$0$0           inlib
     000046E1  A$inlib$961                        inlib
     000046E5  A$inlib$962                        inlib
     000046E7  A$inlib$963                        inlib
     000046EA  A$inlib$964                        inlib
     000046EB  A$inlib$965                        inlib
     000046EC  A$inlib$969                        inlib
     000046EC  C$inlib.c$316$1$109                inlib
     000046EF  A$inlib$970                        inlib
     000046F0  A$inlib$971                        inlib
     000046F1  A$inlib$972                        inlib
     000046F2  A$inlib$973                        inlib
     000046F3  A$inlib$974                        inlib
     000046F4  A$inlib$975                        inlib
     000046F7  A$inlib$976                        inlib
     000046F8  A$inlib$977                        inlib
     000046FB  A$inlib$978                        inlib
     000046FE  A$inlib$979                        inlib
     00004700  A$inlib$980                        inlib
     00004703  A$inlib$981                        inlib
     00004704  A$inlib$982                        inlib
     00004707  A$inlib$983                        inlib
     0000470A  A$inlib$984                        inlib
     0000470C  A$inlib$988                        inlib
     0000470C  C$inlib.c$320$1$111                inlib
     0000470E  A$inlib$989                        inlib
     00004710  A$inlib$990                        inlib
     00004712  A$inlib$991                        inlib
     00004714  A$inlib$992                        inlib
     00004715  A$inlib$993                        inlib
     00004716  A$inlib$997                        inlib
     00004716  C$inlib.c$323$1$111                inlib
     00004718  A$inlib$998                        inlib
     0000471A  A$inlib$1002                       inlib
     0000471A  C$inlib.c$324$1$111                inlib
     0000471B  A$inlib$1003                       inlib
ASxxxx Linker V03.00 + NoICE + sdld,  page 22.
Hexadecimal  [32-Bits]

Area                                    Addr        Size        Decimal Bytes (Attributes)
--------------------------------        ----        ----        ------- ----- ------------
_CODE                               00000200    000082A2 =       33442. bytes (REL,CON)

      Value  Global                              Global Defined In Module
      -----  --------------------------------   ------------------------
     0000471C  A$inlib$1004                       inlib
     0000471F  A$inlib$1005                       inlib
     00004720  A$inlib$1006                       inlib
     00004723  A$inlib$1007                       inlib
     00004724  A$inlib$1008                       inlib
     00004725  A$inlib$1009                       inlib
     00004726  A$inlib$1013                       inlib
     00004726  C$inlib.c$325$1$111                inlib
     00004728  A$inlib$1014                       inlib
     0000472A  A$inlib$1015                       inlib
     0000472D  A$inlib$1019                       inlib
     0000472D  C$inlib.c$327$1$111                inlib
     0000472E  A$inlib$1020                       inlib
     0000472F  A$inlib$1021                       inlib
     00004731  A$inlib$1025                       inlib
     00004731  C$inlib.c$330$1$111                inlib
     00004733  A$inlib$1030                       inlib
     00004733  C$inlib.c$333$4$114                inlib
     00004735  A$inlib$1031                       inlib
     00004737  A$inlib$1035                       inlib
     00004737  C$inlib.c$334$4$114                inlib
     00004738  A$inlib$1036                       inlib
     00004739  A$inlib$1037                       inlib
     0000473C  A$inlib$1038                       inlib
     0000473D  A$inlib$1039                       inlib
     00004740  A$inlib$1040                       inlib
     00004741  A$inlib$1041                       inlib
     00004742  A$inlib$1042                       inlib
     00004743  A$inlib$1046                       inlib
     00004743  C$inlib.c$335$4$114                inlib
     00004745  A$inlib$1047                       inlib
     00004747  A$inlib$1051                       inlib
     00004747  C$inlib.c$336$4$114                inlib
     00004748  A$inlib$1052                       inlib
     00004749  A$inlib$1053                       inlib
     0000474A  A$inlib$1054                       inlib
     0000474B  A$inlib$1055                       inlib
     0000474D  A$inlib$1056                       inlib
     0000474E  A$inlib$1060                       inlib
     0000474E  C$inlib.c$339$4$114                inlib
     00004750  A$inlib$1061                       inlib
     00004752  A$inlib$1065                       inlib
     00004752  C$inlib.c$340$4$114                inlib
     00004753  A$inlib$1066                       inlib
     00004754  A$inlib$1067                       inlib
     00004757  A$inlib$1068                       inlib
     00004758  A$inlib$1069                       inlib
     0000475B  A$inlib$1070                       inlib
     0000475C  A$inlib$1071                       inlib
     0000475D  A$inlib$1072                       inlib
     0000475E  A$inlib$1076                       inlib
ASxxxx Linker V03.00 + NoICE + sdld,  page 23.
Hexadecimal  [32-Bits]

Area                                    Addr        Size        Decimal Bytes (Attributes)
--------------------------------        ----        ----        ------- ----- ------------
_CODE                               00000200    000082A2 =       33442. bytes (REL,CON)

      Value  Global                              Global Defined In Module
      -----  --------------------------------   ------------------------
     0000475E  C$inlib.c$341$4$114                inlib
     00004760  A$inlib$1077                       inlib
     00004762  A$inlib$1078                       inlib
     00004763  A$inlib$1079                       inlib
     00004764  A$inlib$1083                       inlib
     00004764  C$inlib.c$344$4$114                inlib
     00004765  A$inlib$1084                       inlib
     00004767  A$inlib$1085                       inlib
     00004768  A$inlib$1086                       inlib
     00004769  A$inlib$1090                       inlib
     00004769  C$inlib.c$330$3$113                inlib
     0000476A  A$inlib$1091                       inlib
     0000476B  A$inlib$1092                       inlib
     0000476D  A$inlib$1093                       inlib
     0000476F  A$inlib$1098                       inlib
     0000476F  C$inlib.c$348$1$111                inlib
     00004772  A$inlib$1099                       inlib
     00004775  A$inlib$1100                       inlib
     00004777  A$inlib$1101                       inlib
     00004778  A$inlib$1105                       inlib
     00004778  C$inlib.c$349$1$111                inlib
     00004779  A$inlib$1106                       inlib
     0000477A  A$inlib$1107                       inlib
     0000477B  A$inlib$1108                       inlib
     0000477E  A$inlib$1109                       inlib
     00004780  A$inlib$1110                       inlib
     00004781  A$inlib$1114                       inlib
     00004781  C$inlib.c$350$1$111                inlib
     00004782  A$inlib$1115                       inlib
     00004784  A$inlib$1116                       inlib
     00004786  A$inlib$1117                       inlib
     00004788  A$inlib$1118                       inlib
     00004789  A$inlib$1119                       inlib
     0000478C  A$inlib$1123                       inlib
     0000478C  C$inlib.c$351$1$111                inlib
     0000478D  A$inlib$1124                       inlib
     0000478E  A$inlib$1125                       inlib
     0000478F  A$inlib$1126                       inlib
     00004790  A$inlib$1127                       inlib
     00004791  A$inlib$1128                       inlib
     00004794  A$inlib$1129                       inlib
     00004797  A$inlib$1130                       inlib
     00004798  A$inlib$1131                       inlib
     00004799  A$inlib$1135                       inlib
     00004799  C$inlib.c$352$1$111                inlib
     0000479A  A$inlib$1136                       inlib
     0000479B  A$inlib$1137                       inlib
     0000479C  A$inlib$1138                       inlib
     0000479D  A$inlib$1139                       inlib
     000047A0  A$inlib$1140                       inlib
     000047A3  A$inlib$1141                       inlib
ASxxxx Linker V03.00 + NoICE + sdld,  page 24.
Hexadecimal  [32-Bits]

Area                                    Addr        Size        Decimal Bytes (Attributes)
--------------------------------        ----        ----        ------- ----- ------------
_CODE                               00000200    000082A2 =       33442. bytes (REL,CON)

      Value  Global                              Global Defined In Module
      -----  --------------------------------   ------------------------
     000047A4  A$inlib$1142                       inlib
     000047A5  A$inlib$1146                       inlib
     000047A5  C$inlib.c$354$1$111                inlib
     000047A7  A$inlib$1147                       inlib
     000047A9  A$inlib$1148                       inlib
     000047AB  A$inlib$1149                       inlib
     000047AD  A$inlib$1154                       inlib
     000047AD  C$inlib.c$355$1$111                inlib
     000047AD  XFinlib$readGraphics2$0$0          inlib
     000047AE  A$inlib$1167                       inlib
     000047AE  C$inlib.c$357$1$111                inlib
     000047AE  C$inlib.c$362$1$116                inlib
     000047AE  Finlib$readMouse$0$0               inlib
     000047B0  A$inlib$1168                       inlib
     000047B2  A$inlib$1172                       inlib
     000047B2  C$inlib.c$364$1$116                inlib
     000047B4  A$inlib$1177                       inlib
     000047B4  C$inlib.c$368$3$118                inlib
     000047B6  A$inlib$1178                       inlib
     000047B8  A$inlib$1183                       inlib
     000047B8  C$inlib.c$369$3$118                inlib
     000047BA  A$inlib$1184                       inlib
     000047BC  A$inlib$1185                       inlib
     000047BE  A$inlib$1189                       inlib
     000047BE  C$inlib.c$372$3$118                inlib
     000047C0  A$inlib$1190                       inlib
     000047C2  A$inlib$1194                       inlib
     000047C2  C$inlib.c$373$3$118                inlib
     000047C3  A$inlib$1195                       inlib
     000047C4  A$inlib$1196                       inlib
     000047C5  A$inlib$1197                       inlib
     000047C6  A$inlib$1198                       inlib
     000047C8  A$inlib$1199                       inlib
     000047C9  A$inlib$1203                       inlib
     000047C9  C$inlib.c$376$3$118                inlib
     000047CB  A$inlib$1204                       inlib
     000047CD  A$inlib$1209                       inlib
     000047CD  C$inlib.c$377$3$118                inlib
     000047CF  A$inlib$1210                       inlib
     000047D1  A$inlib$1211                       inlib
     000047D3  A$inlib$1215                       inlib
     000047D3  C$inlib.c$380$3$118                inlib
     000047D5  A$inlib$1216                       inlib
     000047D7  A$inlib$1217                       inlib
     000047D8  A$inlib$1218                       inlib
     000047D9  A$inlib$1222                       inlib
     000047D9  C$inlib.c$383$3$118                inlib
     000047DD  A$inlib$1223                       inlib
     000047DF  A$inlib$1224                       inlib
     000047E2  A$inlib$1225                       inlib
     000047E3  A$inlib$1226                       inlib
ASxxxx Linker V03.00 + NoICE + sdld,  page 25.
Hexadecimal  [32-Bits]

Area                                    Addr        Size        Decimal Bytes (Attributes)
--------------------------------        ----        ----        ------- ----- ------------
_CODE                               00000200    000082A2 =       33442. bytes (REL,CON)

      Value  Global                              Global Defined In Module
      -----  --------------------------------   ------------------------
     000047E4  A$inlib$1227                       inlib
     000047E7  A$inlib$1228                       inlib
     000047E9  A$inlib$1229                       inlib
     000047EA  A$inlib$1230                       inlib
     000047EB  A$inlib$1231                       inlib
     000047EC  A$inlib$1235                       inlib
     000047EC  C$inlib.c$364$2$117                inlib
     000047ED  A$inlib$1236                       inlib
     000047EE  A$inlib$1237                       inlib
     000047F0  A$inlib$1238                       inlib
     000047F2  A$inlib$1242                       inlib
     000047F2  C$inlib.c$386$1$116                inlib
     000047F4  A$inlib$1243                       inlib
     000047F6  A$inlib$1248                       inlib
     000047F6  C$inlib.c$387$1$116                inlib
     000047F6  XFinlib$readMouse$0$0              inlib
     000047F7  A$inlib$1261                       inlib
     000047F7  C$inlib.c$389$1$116                inlib
     000047F7  C$inlib.c$392$1$121                inlib
     000047F7  G$inlib_init$0$0                   inlib
     000047F7  _inlib_init                        inlib
     000047FA  A$inlib$1262                       inlib
     000047FC  A$inlib$1266                       inlib
     000047FC  C$inlib.c$393$1$121                inlib
     000047FF  A$inlib$1267                       inlib
     00004801  A$inlib$1271                       inlib
     00004801  C$inlib.c$395$1$121                inlib
     00004804  A$inlib$1275                       inlib
     00004804  C$inlib.c$398$1$121                inlib
     00004807  A$inlib$1279                       inlib
     00004807  C$inlib.c$399$1$121                inlib
     0000480A  A$inlib$1280                       inlib
     0000480B  A$inlib$1281                       inlib
     0000480C  A$inlib$1282                       inlib
     0000480E  A$inlib$1286                       inlib
     0000480E  C$inlib.c$401$2$122                inlib
     00004811  A$inlib$1287                       inlib
     00004813  A$inlib$1292                       inlib
     00004813  C$inlib.c$403$1$121                inlib
     00004816  A$inlib$1293                       inlib
     00004817  A$inlib$1294                       inlib
     00004818  A$inlib$1295                       inlib
     0000481A  A$inlib$1299                       inlib
     0000481A  C$inlib.c$405$2$123                inlib
     0000481D  A$inlib$1300                       inlib
     0000481F  A$inlib$1305                       inlib
     0000481F  C$inlib.c$407$1$121                inlib
     00004822  A$inlib$1306                       inlib
     00004823  A$inlib$1307                       inlib
     00004825  A$inlib$1311                       inlib
     00004825  C$inlib.c$408$1$121                inlib
ASxxxx Linker V03.00 + NoICE + sdld,  page 26.
Hexadecimal  [32-Bits]

Area                                    Addr        Size        Decimal Bytes (Attributes)
--------------------------------        ----        ----        ------- ----- ------------
_CODE                               00000200    000082A2 =       33442. bytes (REL,CON)

      Value  Global                              Global Defined In Module
      -----  --------------------------------   ------------------------
     00004828  A$inlib$1312                       inlib
     00004829  A$inlib$1313                       inlib
     0000482B  A$inlib$1317                       inlib
     0000482B  C$inlib.c$410$2$124                inlib
     0000482E  A$inlib$1322                       inlib
     0000482E  C$inlib.c$412$1$121                inlib
     00004831  A$inlib$1326                       inlib
     00004831  C$inlib.c$414$1$121                inlib
     00004834  A$inlib$1327                       inlib
     00004835  A$inlib$1328                       inlib
     00004836  A$inlib$1329                       inlib
     00004837  A$inlib$1333                       inlib
     00004837  C$inlib.c$416$2$125                inlib
     0000483A  A$inlib$1334                       inlib
     0000483C  A$inlib$1339                       inlib
     0000483C  C$inlib.c$418$1$121                inlib
     0000483C  XG$inlib_init$0$0                  inlib
     0000483D  A$inlib$1349                       inlib
     0000483D  C$inlib.c$420$1$121                inlib
     0000483D  G$readLightPhaser1$0$0             inlib
     0000483D  _readLightPhaser1                  inlib
     0000483F  A$inlib$1350                       inlib
     00004843  A$inlib$1351                       inlib
     00004845  A$inlib$1352                       inlib
     00004846  A$inlib$1356                       inlib
     00004846  C$inlib.c$423$1$121                inlib
     00004849  A$inlib$1360                       inlib
     00004849  C$inlib.c$426$1$121                inlib
     0000484D  A$inlib$1364                       inlib
     0000484D  C$inlib.c$428$1$126                inlib
     0000484E  A$inlib$1365                       inlib
     00004851  A$inlib$1366                       inlib
     00004852  A$inlib$1370                       inlib
     00004852  C$inlib.c$429$1$126                inlib
     00004854  A$inlib$1371                       inlib
     00004856  A$inlib$1372                       inlib
     00004858  A$inlib$1373                       inlib
     0000485A  A$inlib$1374                       inlib
     0000485C  A$inlib$1376                       inlib
     0000485E  A$inlib$1378                       inlib
     0000485F  A$inlib$1382                       inlib
     0000485F  C$inlib.c$431$1$126                inlib
     00004860  A$inlib$1383                       inlib
     00004862  A$inlib$1391                       inlib
     00004862  C$inlib.c$435$2$127                inlib
     00004862  C$inlib.c$437$3$128                inlib
     00004863  A$inlib$1392                       inlib
     00004864  A$inlib$1393                       inlib
     00004867  A$inlib$1394                       inlib
     00004868  A$inlib$1395                       inlib
     00004869  A$inlib$1399                       inlib
ASxxxx Linker V03.00 + NoICE + sdld,  page 27.
Hexadecimal  [32-Bits]

Area                                    Addr        Size        Decimal Bytes (Attributes)
--------------------------------        ----        ----        ------- ----- ------------
_CODE                               00000200    000082A2 =       33442. bytes (REL,CON)

      Value  Global                              Global Defined In Module
      -----  --------------------------------   ------------------------
     00004869  C$inlib.c$438$2$127                inlib
     0000486B  A$inlib$1400                       inlib
     0000486C  A$inlib$1401                       inlib
     0000486E  A$inlib$1409                       inlib
     0000486E  C$inlib.c$441$2$127                inlib
     0000486E  C$inlib.c$443$3$129                inlib
     0000486F  A$inlib$1410                       inlib
     00004870  A$inlib$1411                       inlib
     00004873  A$inlib$1412                       inlib
     00004874  A$inlib$1413                       inlib
     00004875  A$inlib$1414                       inlib
     00004876  A$inlib$1418                       inlib
     00004876  C$inlib.c$445$3$129                inlib
     00004878  A$inlib$1419                       inlib
     0000487A  A$inlib$1420                       inlib
     0000487C  A$inlib$1424                       inlib
     0000487C  C$inlib.c$450$4$130                inlib
     0000487F  A$inlib$1425                       inlib
     00004880  A$inlib$1426                       inlib
     00004882  A$inlib$1430                       inlib
     00004882  C$inlib.c$452$5$131                inlib
     00004883  A$inlib$1431                       inlib
     00004886  A$inlib$1432                       inlib
     00004887  A$inlib$1433                       inlib
     00004888  A$inlib$1437                       inlib
     00004888  C$inlib.c$453$5$131                inlib
     00004889  A$inlib$1441                       inlib
     00004889  C$inlib.c$454$5$131                inlib
     0000488D  A$inlib$1442                       inlib
     0000488F  A$inlib$1447                       inlib
     0000488F  C$inlib.c$458$5$132                inlib
     00004890  A$inlib$1448                       inlib
     00004891  A$inlib$1449                       inlib
     00004894  A$inlib$1450                       inlib
     00004895  A$inlib$1451                       inlib
     00004896  A$inlib$1452                       inlib
     00004897  A$inlib$1453                       inlib
     00004898  A$inlib$1454                       inlib
     0000489A  A$inlib$1458                       inlib
     0000489A  C$inlib.c$460$6$133                inlib
     0000489B  A$inlib$1459                       inlib
     0000489C  A$inlib$1460                       inlib
     0000489F  A$inlib$1461                       inlib
     000048A0  A$inlib$1462                       inlib
     000048A1  A$inlib$1463                       inlib
     000048A2  A$inlib$1468                       inlib
     000048A2  C$inlib.c$462$5$132                inlib
     000048A3  A$inlib$1469                       inlib
     000048A4  A$inlib$1470                       inlib
     000048A6  A$inlib$1474                       inlib
     000048A6  C$inlib.c$464$6$134                inlib
ASxxxx Linker V03.00 + NoICE + sdld,  page 28.
Hexadecimal  [32-Bits]

Area                                    Addr        Size        Decimal Bytes (Attributes)
--------------------------------        ----        ----        ------- ----- ------------
_CODE                               00000200    000082A2 =       33442. bytes (REL,CON)

      Value  Global                              Global Defined In Module
      -----  --------------------------------   ------------------------
     000048A7  A$inlib$1479                       inlib
     000048A7  C$inlib.c$469$2$127                inlib
     000048A8  A$inlib$1480                       inlib
     000048AA  A$inlib$1481                       inlib
     000048AC  A$inlib$1486                       inlib
     000048AC  C$inlib.c$473$1$126                inlib
     000048AE  A$inlib$1487                       inlib
     000048AF  A$inlib$1488                       inlib
     000048B1  A$inlib$1492                       inlib
     000048B1  C$inlib.c$475$2$135                inlib
     000048B4  A$inlib$1493                       inlib
     000048B6  A$inlib$1494                       inlib
     000048B8  A$inlib$1499                       inlib
     000048B8  C$inlib.c$479$2$136                inlib
     000048BB  A$inlib$1500                       inlib
     000048BD  A$inlib$1501                       inlib
     000048BE  A$inlib$1506                       inlib
     000048BE  C$inlib.c$481$1$126                inlib
     000048C1  A$inlib$1507                       inlib
     000048C2  A$inlib$1511                       inlib
     000048C2  C$inlib.c$482$1$126                inlib
     000048C5  A$inlib$1512                       inlib
     000048C6  A$inlib$1513                       inlib
     000048C7  A$inlib$1514                       inlib
     000048C9  A$inlib$1519                       inlib
     000048C9  C$inlib.c$483$1$126                inlib
     000048C9  XG$readLightPhaser1$0$0            inlib
     000048CA  A$inlib$1529                       inlib
     000048CA  C$inlib.c$485$1$126                inlib
     000048CA  G$inlib_poll$0$0                   inlib
     000048CA  _inlib_poll                        inlib
     000048CC  A$inlib$1530                       inlib
     000048D0  A$inlib$1531                       inlib
     000048D2  A$inlib$1532                       inlib
     000048D3  A$inlib$1533                       inlib
     000048D4  A$inlib$1534                       inlib
     000048D5  A$inlib$1538                       inlib
     000048D5  C$inlib.c$490$1$137                inlib
     000048D8  A$inlib$1539                       inlib
     000048DB  A$inlib$1540                       inlib
     000048DD  A$inlib$1541                       inlib
     000048DF  A$inlib$1545                       inlib
     000048DF  C$inlib.c$492$2$138                inlib
     000048E2  A$inlib$1549                       inlib
     000048E2  C$inlib.c$493$2$138                inlib
     000048E5  A$inlib$1554                       inlib
     000048E5  C$inlib.c$496$1$137                inlib
     000048E8  A$inlib$1555                       inlib
     000048EA  A$inlib$1556                       inlib
     000048EC  A$inlib$1560                       inlib
     000048EC  C$inlib.c$498$2$139                inlib
ASxxxx Linker V03.00 + NoICE + sdld,  page 29.
Hexadecimal  [32-Bits]

Area                                    Addr        Size        Decimal Bytes (Attributes)
--------------------------------        ----        ----        ------- ----- ------------
_CODE                               00000200    000082A2 =       33442. bytes (REL,CON)

      Value  Global                              Global Defined In Module
      -----  --------------------------------   ------------------------
     000048EF  A$inlib$1561                       inlib
     000048F0  A$inlib$1562                       inlib
     000048F3  A$inlib$1563                       inlib
     000048F4  A$inlib$1567                       inlib
     000048F4  C$inlib.c$499$2$139                inlib
     000048F7  A$inlib$1572                       inlib
     000048F7  C$inlib.c$502$1$137                inlib
     000048FA  A$inlib$1573                       inlib
     000048FC  A$inlib$1574                       inlib
     000048FE  A$inlib$1578                       inlib
     000048FE  C$inlib.c$504$2$140                inlib
     00004901  A$inlib$1579                       inlib
     00004902  A$inlib$1580                       inlib
     00004903  A$inlib$1581                       inlib
     00004904  A$inlib$1582                       inlib
     00004905  A$inlib$1583                       inlib
     00004906  A$inlib$1584                       inlib
     00004907  A$inlib$1585                       inlib
     0000490A  A$inlib$1586                       inlib
     0000490B  A$inlib$1587                       inlib
     0000490C  A$inlib$1591                       inlib
     0000490C  C$inlib.c$505$2$140                inlib
     0000490F  A$inlib$1592                       inlib
     00004910  A$inlib$1593                       inlib
     00004911  A$inlib$1594                       inlib
     00004912  A$inlib$1595                       inlib
     00004913  A$inlib$1596                       inlib
     00004915  A$inlib$1597                       inlib
     00004916  A$inlib$1601                       inlib
     00004916  C$inlib.c$508$2$140                inlib
     00004919  A$inlib$1602                       inlib
     0000491A  A$inlib$1603                       inlib
     0000491B  A$inlib$1604                       inlib
     0000491C  A$inlib$1605                       inlib
     0000491D  A$inlib$1606                       inlib
     0000491E  A$inlib$1607                       inlib
     0000491F  A$inlib$1611                       inlib
     0000491F  C$inlib.c$509$2$140                inlib
     00004922  A$inlib$1612                       inlib
     00004923  A$inlib$1613                       inlib
     00004924  A$inlib$1614                       inlib
     00004925  A$inlib$1615                       inlib
     00004926  A$inlib$1616                       inlib
     00004927  A$inlib$1617                       inlib
     00004928  A$inlib$1621                       inlib
     00004928  C$inlib.c$510$2$140                inlib
     0000492B  A$inlib$1626                       inlib
     0000492B  C$inlib.c$513$1$137                inlib
     0000492E  A$inlib$1627                       inlib
     0000492F  A$inlib$1628                       inlib
     00004931  A$inlib$1632                       inlib
ASxxxx Linker V03.00 + NoICE + sdld,  page 30.
Hexadecimal  [32-Bits]

Area                                    Addr        Size        Decimal Bytes (Attributes)
--------------------------------        ----        ----        ------- ----- ------------
_CODE                               00000200    000082A2 =       33442. bytes (REL,CON)

      Value  Global                              Global Defined In Module
      -----  --------------------------------   ------------------------
     00004931  C$inlib.c$515$2$141                inlib
     00004934  A$inlib$1633                       inlib
     00004936  A$inlib$1634                       inlib
     00004938  A$inlib$1635                       inlib
     0000493A  A$inlib$1636                       inlib
     0000493C  A$inlib$1638                       inlib
     0000493E  A$inlib$1643                       inlib
     0000493E  C$inlib.c$516$2$141                inlib
     00004941  A$inlib$1644                       inlib
     00004942  A$inlib$1645                       inlib
     00004943  A$inlib$1646                       inlib
     00004944  A$inlib$1647                       inlib
     00004945  A$inlib$1648                       inlib
     00004946  A$inlib$1649                       inlib
     00004949  A$inlib$1653                       inlib
     00004949  C$inlib.c$517$2$141                inlib
     0000494A  A$inlib$1654                       inlib
     0000494B  A$inlib$1658                       inlib
     0000494B  C$inlib.c$518$2$141                inlib
     0000494E  A$inlib$1659                       inlib
     00004951  A$inlib$1660                       inlib
     00004952  A$inlib$1661                       inlib
     00004954  A$inlib$1666                       inlib
     00004954  C$inlib.c$520$1$137                inlib
     00004957  A$inlib$1667                       inlib
     00004959  A$inlib$1668                       inlib
     0000495B  A$inlib$1672                       inlib
     0000495B  C$inlib.c$522$2$142                inlib
     0000495E  A$inlib$1673                       inlib
     00004960  A$inlib$1674                       inlib
     00004962  A$inlib$1675                       inlib
     00004964  A$inlib$1676                       inlib
     00004966  A$inlib$1677                       inlib
     00004968  A$inlib$1678                       inlib
     0000496A  A$inlib$1679                       inlib
     0000496C  A$inlib$1680                       inlib
     0000496E  A$inlib$1681                       inlib
     0000496F  A$inlib$1682                       inlib
     00004971  A$inlib$1683                       inlib
     00004972  A$inlib$1687                       inlib
     00004972  C$inlib.c$523$2$142                inlib
     00004975  A$inlib$1688                       inlib
     00004976  A$inlib$1689                       inlib
     00004977  A$inlib$1690                       inlib
     00004978  A$inlib$1691                       inlib
     00004979  A$inlib$1692                       inlib
     0000497A  A$inlib$1693                       inlib
     0000497B  A$inlib$1694                       inlib
     0000497E  A$inlib$1695                       inlib
     0000497F  A$inlib$1696                       inlib
     00004980  A$inlib$1697                       inlib
ASxxxx Linker V03.00 + NoICE + sdld,  page 31.
Hexadecimal  [32-Bits]

Area                                    Addr        Size        Decimal Bytes (Attributes)
--------------------------------        ----        ----        ------- ----- ------------
_CODE                               00000200    000082A2 =       33442. bytes (REL,CON)

      Value  Global                              Global Defined In Module
      -----  --------------------------------   ------------------------
     00004981  A$inlib$1701                       inlib
     00004981  C$inlib.c$524$2$142                inlib
     00004984  A$inlib$1702                       inlib
     00004985  A$inlib$1703                       inlib
     00004986  A$inlib$1704                       inlib
     00004987  A$inlib$1705                       inlib
     00004988  A$inlib$1706                       inlib
     0000498B  A$inlib$1710                       inlib
     0000498B  C$inlib.c$525$2$142                inlib
     0000498E  A$inlib$1711                       inlib
     0000498F  A$inlib$1715                       inlib
     0000498F  C$inlib.c$526$2$142                inlib
     00004992  A$inlib$1716                       inlib
     00004993  A$inlib$1717                       inlib
     00004994  A$inlib$1721                       inlib
     00004994  C$inlib.c$527$2$142                inlib
     00004997  A$inlib$1722                       inlib
     00004998  A$inlib$1723                       inlib
     00004999  A$inlib$1724                       inlib
     0000499A  A$inlib$1725                       inlib
     0000499B  A$inlib$1726                       inlib
     0000499D  A$inlib$1731                       inlib
     0000499D  C$inlib.c$531$2$143                inlib
     000049A0  A$inlib$1732                       inlib
     000049A1  A$inlib$1736                       inlib
     000049A1  C$inlib.c$532$2$143                inlib
     000049A4  A$inlib$1737                       inlib
     000049A5  A$inlib$1738                       inlib
     000049A6  A$inlib$1739                       inlib
     000049A7  A$inlib$1740                       inlib
     000049A8  A$inlib$1741                       inlib
     000049A9  A$inlib$1742                       inlib
     000049AC  A$inlib$1746                       inlib
     000049AC  C$inlib.c$533$2$143                inlib
     000049AD  A$inlib$1747                       inlib
     000049AE  A$inlib$1752                       inlib
     000049AE  C$inlib.c$536$1$137                inlib
     000049B1  A$inlib$1753                       inlib
     000049B2  A$inlib$1754                       inlib
     000049B4  A$inlib$1758                       inlib
     000049B4  C$inlib.c$538$2$144                inlib
     000049B7  A$inlib$1759                       inlib
     000049B9  A$inlib$1760                       inlib
     000049BB  A$inlib$1761                       inlib
     000049BD  A$inlib$1762                       inlib
     000049BF  A$inlib$1764                       inlib
     000049C1  A$inlib$1769                       inlib
     000049C1  C$inlib.c$539$2$144                inlib
     000049C4  A$inlib$1770                       inlib
     000049C5  A$inlib$1771                       inlib
     000049C6  A$inlib$1772                       inlib
ASxxxx Linker V03.00 + NoICE + sdld,  page 32.
Hexadecimal  [32-Bits]

Area                                    Addr        Size        Decimal Bytes (Attributes)
--------------------------------        ----        ----        ------- ----- ------------
_CODE                               00000200    000082A2 =       33442. bytes (REL,CON)

      Value  Global                              Global Defined In Module
      -----  --------------------------------   ------------------------
     000049C7  A$inlib$1773                       inlib
     000049C8  A$inlib$1774                       inlib
     000049C9  A$inlib$1775                       inlib
     000049CC  A$inlib$1779                       inlib
     000049CC  C$inlib.c$540$2$144                inlib
     000049CD  A$inlib$1780                       inlib
     000049CE  A$inlib$1784                       inlib
     000049CE  C$inlib.c$541$2$144                inlib
     000049D1  A$inlib$1785                       inlib
     000049D4  A$inlib$1786                       inlib
     000049D5  A$inlib$1787                       inlib
     000049D7  A$inlib$1792                       inlib
     000049D7  C$inlib.c$545$2$145                inlib
     000049DA  A$inlib$1793                       inlib
     000049DB  A$inlib$1794                       inlib
     000049DD  A$inlib$1795                       inlib
     000049DF  A$inlib$1796                       inlib
     000049E1  A$inlib$1797                       inlib
     000049E3  A$inlib$1798                       inlib
     000049E5  A$inlib$1799                       inlib
     000049E7  A$inlib$1800                       inlib
     000049E9  A$inlib$1801                       inlib
     000049EB  A$inlib$1802                       inlib
     000049ED  A$inlib$1803                       inlib
     000049EF  A$inlib$1804                       inlib
     000049F1  A$inlib$1805                       inlib
     000049F3  A$inlib$1809                       inlib
     000049F3  C$inlib.c$546$2$145                inlib
     000049F6  A$inlib$1810                       inlib
     000049F7  A$inlib$1811                       inlib
     000049F8  A$inlib$1812                       inlib
     000049F9  A$inlib$1813                       inlib
     000049FA  A$inlib$1814                       inlib
     000049FB  A$inlib$1815                       inlib
     000049FE  A$inlib$1819                       inlib
     000049FE  C$inlib.c$547$2$145                inlib
     000049FF  A$inlib$1820                       inlib
     00004A00  A$inlib$1826                       inlib
     00004A00  C$inlib.c$550$1$137                inlib
     00004A02  A$inlib$1827                       inlib
     00004A04  A$inlib$1832                       inlib
     00004A04  C$inlib.c$551$1$137                inlib
     00004A04  XG$inlib_poll$0$0                  inlib
     00004A05  A$knob$52                          knob
     00004A05  C$knob.c$71$0$0                    knob
     00004A05  G$addRotatedXY$0$0                 knob
     00004A05  _addRotatedXY                      knob
     00004A07  A$knob$53                          knob
     00004A0B  A$knob$54                          knob
     00004A0D  A$knob$58                          knob
     00004A0D  C$knob.c$75$1$3                    knob
ASxxxx Linker V03.00 + NoICE + sdld,  page 33.
Hexadecimal  [32-Bits]

Area                                    Addr        Size        Decimal Bytes (Attributes)
--------------------------------        ----        ----        ------- ----- ------------
_CODE                               00000200    000082A2 =       33442. bytes (REL,CON)

      Value  Global                              Global Defined In Module
      -----  --------------------------------   ------------------------
     00004A10  A$knob$59                          knob
     00004A12  A$knob$60                          knob
     00004A13  A$knob$61                          knob
     00004A14  A$knob$65                          knob
     00004A14  C$knob.c$76$1$3                    knob
     00004A17  A$knob$66                          knob
     00004A1A  A$knob$67                          knob
     00004A1B  A$knob$68                          knob
     00004A1C  A$knob$69                          knob
     00004A1D  A$knob$70                          knob
     00004A1F  A$knob$71                          knob
     00004A20  A$knob$72                          knob
     00004A22  A$knob$73                          knob
     00004A24  A$knob$74                          knob
     00004A25  A$knob$75                          knob
     00004A26  A$knob$76                          knob
     00004A27  A$knob$77                          knob
     00004A28  A$knob$78                          knob
     00004A29  A$knob$82                          knob
     00004A29  C$knob.c$77$1$3                    knob
     00004A2C  A$knob$83                          knob
     00004A2F  A$knob$84                          knob
     00004A30  A$knob$85                          knob
     00004A31  A$knob$86                          knob
     00004A32  A$knob$87                          knob
     00004A34  A$knob$88                          knob
     00004A35  A$knob$89                          knob
     00004A36  A$knob$90                          knob
     00004A38  A$knob$91                          knob
     00004A3A  A$knob$92                          knob
     00004A3B  A$knob$93                          knob
     00004A3C  A$knob$94                          knob
     00004A3D  A$knob$95                          knob
     00004A3E  A$knob$96                          knob
     00004A3F  A$knob$97                          knob
     00004A41  A$knob$102                         knob
     00004A41  C$knob.c$78$1$3                    knob
     00004A41  XG$addRotatedXY$0$0                knob
     00004A42  Fknob$knobsteps$0$0                knob
     00004AC2  A$main$175                         main
     00004AC2  C$main.c$42$0$0                    main
     00004AC2  G$setupSprite$0$0                  main
     00004AC2  _setupSprite                       main
     00004AC4  A$main$176                         main
     00004AC8  A$main$177                         main
     00004ACA  A$main$181                         main
     00004ACA  C$main.c$44$1$136                  main
     00004ACD  A$main$182                         main
     00004AD0  A$main$183                         main
     00004AD2  A$main$184                         main
     00004AD3  A$main$185                         main
ASxxxx Linker V03.00 + NoICE + sdld,  page 34.
Hexadecimal  [32-Bits]

Area                                    Addr        Size        Decimal Bytes (Attributes)
--------------------------------        ----        ----        ------- ----- ------------
_CODE                               00000200    000082A2 =       33442. bytes (REL,CON)

      Value  Global                              Global Defined In Module
      -----  --------------------------------   ------------------------
     00004AD6  A$main$186                         main
     00004AD7  A$main$190                         main
     00004AD7  C$main.c$45$1$136                  main
     00004ADA  A$main$191                         main
     00004ADD  A$main$192                         main
     00004ADF  A$main$193                         main
     00004AE0  A$main$194                         main
     00004AE3  A$main$195                         main
     00004AE4  A$main$199                         main
     00004AE4  C$main.c$46$1$136                  main
     00004AE7  A$main$200                         main
     00004AE9  A$main$201                         main
     00004AEA  A$main$202                         main
     00004AEC  A$main$203                         main
     00004AEE  A$main$204                         main
     00004AEF  A$main$205                         main
     00004AF0  A$main$206                         main
     00004AF3  A$main$207                         main
     00004AF6  A$main$208                         main
     00004AF7  A$main$209                         main
     00004AFA  A$main$210                         main
     00004AFB  A$main$211                         main
     00004AFC  A$main$212                         main
     00004AFF  A$main$213                         main
     00004B00  A$main$214                         main
     00004B01  A$main$215                         main
     00004B02  A$main$216                         main
     00004B03  A$main$217                         main
     00004B04  A$main$218                         main
     00004B06  A$main$223                         main
     00004B06  C$main.c$47$1$136                  main
     00004B06  XG$setupSprite$0$0                 main
     00004B07  A$main$233                         main
     00004B07  C$main.c$55$1$136                  main
     00004B07  G$tempMoveSprite$0$0               main
     00004B07  _tempMoveSprite                    main
     00004B09  A$main$234                         main
     00004B0D  A$main$235                         main
     00004B0F  A$main$239                         main
     00004B0F  C$main.c$57$1$138                  main
     00004B12  A$main$240                         main
     00004B15  A$main$241                         main
     00004B17  A$main$242                         main
     00004B18  A$main$243                         main
     00004B19  A$main$244                         main
     00004B1C  A$main$245                         main
     00004B1D  A$main$246                         main
     00004B20  A$main$247                         main
     00004B23  A$main$248                         main
     00004B25  A$main$249                         main
     00004B26  A$main$250                         main
ASxxxx Linker V03.00 + NoICE + sdld,  page 35.
Hexadecimal  [32-Bits]

Area                                    Addr        Size        Decimal Bytes (Attributes)
--------------------------------        ----        ----        ------- ----- ------------
_CODE                               00000200    000082A2 =       33442. bytes (REL,CON)

      Value  Global                              Global Defined In Module
      -----  --------------------------------   ------------------------
     00004B27  A$main$251                         main
     00004B28  A$main$252                         main
     00004B2B  A$main$253                         main
     00004B2C  A$main$254                         main
     00004B2E  A$main$255                         main
     00004B31  A$main$256                         main
     00004B32  A$main$257                         main
     00004B34  A$main$258                         main
     00004B36  A$main$259                         main
     00004B37  A$main$260                         main
     00004B38  A$main$261                         main
     00004B39  A$main$262                         main
     00004B3A  A$main$263                         main
     00004B3B  A$main$264                         main
     00004B3C  A$main$265                         main
     00004B3F  A$main$266                         main
     00004B40  A$main$267                         main
     00004B41  A$main$268                         main
     00004B43  A$main$273                         main
     00004B43  C$main.c$58$1$138                  main
     00004B43  XG$tempMoveSprite$0$0              main
     00004B44  A$main$286                         main
     00004B44  C$main.c$62$1$138                  main
     00004B44  C$main.c$64$1$139                  main
     00004B44  G$vsync_keycheck$0$0               main
     00004B44  _vsync_keycheck                    main
     00004B47  A$main$290                         main
     00004B47  C$main.c$65$1$139                  main
     00004B4A  A$main$294                         main
     00004B4A  C$main.c$66$1$139                  main
     00004B4D  A$main$298                         main
     00004B4D  C$main.c$67$1$139                  main
     00004B50  A$main$302                         main
     00004B50  C$main.c$68$1$139                  main
     00004B53  A$main$306                         main
     00004B53  C$main.c$72$1$139                  main
     00004B56  A$main$307                         main
     00004B57  A$main$308                         main
     00004B58  A$main$312                         main
     00004B58  C$main.c$74$2$140                  main
     00004B5B  A$main$313                         main
     00004B5D  A$main$318                         main
     00004B5D  C$main.c$76$1$139                  main
     00004B5D  XG$vsync_keycheck$0$0              main
     00004B5E  A$main$328                         main
     00004B5E  C$main.c$92$1$139                  main
     00004B5E  Fmain$blitTile$0$0                 main
     00004B60  A$main$329                         main
     00004B64  A$main$330                         main
     00004B66  A$main$331                         main
     00004B67  A$main$335                         main
ASxxxx Linker V03.00 + NoICE + sdld,  page 36.
Hexadecimal  [32-Bits]

Area                                    Addr        Size        Decimal Bytes (Attributes)
--------------------------------        ----        ----        ------- ----- ------------
_CODE                               00000200    000082A2 =       33442. bytes (REL,CON)

      Value  Global                              Global Defined In Module
      -----  --------------------------------   ------------------------
     00004B67  C$main.c$98$1$142                  main
     00004B68  A$main$339                         main
     00004B68  C$main.c$100$1$142                 main
     00004B6B  A$main$340                         main
     00004B6E  A$main$341                         main
     00004B6F  A$main$342                         main
     00004B70  A$main$343                         main
     00004B71  A$main$344                         main
     00004B72  A$main$345                         main
     00004B73  A$main$346                         main
     00004B75  A$main$347                         main
     00004B76  A$main$351                         main
     00004B76  C$main.c$102$1$142                 main
     00004B79  A$main$352                         main
     00004B7C  A$main$353                         main
     00004B80  A$main$355                         main
     00004B83  A$main$356                         main
     00004B85  A$main$357                         main
     00004B86  A$main$358                         main
     00004B87  A$main$359                         main
     00004B88  A$main$360                         main
     00004B8B  A$main$361                         main
     00004B8D  A$main$362                         main
     00004B8E  A$main$363                         main
     00004B8F  A$main$364                         main
     00004B90  A$main$365                         main
     00004B91  A$main$366                         main
     00004B94  A$main$367                         main
     00004B96  A$main$369                         main
     00004B99  A$main$373                         main
     00004B99  C$main.c$104$3$144                 main
     00004B9A  A$main$374                         main
     00004B9B  A$main$375                         main
     00004B9C  A$main$379                         main
     00004B9C  C$main.c$105$3$144                 main
     00004B9D  A$main$380                         main
     00004B9F  A$main$384                         main
     00004B9F  C$main.c$106$3$144                 main
     00004BA0  A$main$385                         main
     00004BA1  A$main$386                         main
     00004BA2  A$main$387                         main
     00004BA3  A$main$388                         main
     00004BA4  A$main$392                         main
     00004BA4  C$main.c$107$3$144                 main
     00004BA5  A$main$393                         main
     00004BA7  A$main$397                         main
     00004BA7  C$main.c$108$3$144                 main
     00004BA8  A$main$398                         main
     00004BA9  A$main$399                         main
     00004BAA  A$main$400                         main
     00004BAB  A$main$401                         main
ASxxxx Linker V03.00 + NoICE + sdld,  page 37.
Hexadecimal  [32-Bits]

Area                                    Addr        Size        Decimal Bytes (Attributes)
--------------------------------        ----        ----        ------- ----- ------------
_CODE                               00000200    000082A2 =       33442. bytes (REL,CON)

      Value  Global                              Global Defined In Module
      -----  --------------------------------   ------------------------
     00004BAC  A$main$405                         main
     00004BAC  C$main.c$109$3$144                 main
     00004BAD  A$main$406                         main
     00004BAF  A$main$410                         main
     00004BAF  C$main.c$110$3$144                 main
     00004BB0  A$main$411                         main
     00004BB1  A$main$412                         main
     00004BB2  A$main$413                         main
     00004BB3  A$main$414                         main
     00004BB4  A$main$418                         main
     00004BB4  C$main.c$111$3$144                 main
     00004BB5  A$main$419                         main
     00004BB7  A$main$423                         main
     00004BB7  C$main.c$112$3$144                 main
     00004BB8  A$main$424                         main
     00004BB9  A$main$425                         main
     00004BBA  A$main$426                         main
     00004BBB  A$main$427                         main
     00004BBC  A$main$431                         main
     00004BBC  C$main.c$102$2$143                 main
     00004BBF  A$main$432                         main
     00004BC1  A$main$437                         main
     00004BC1  C$main.c$117$1$142                 main
     00004BC2  A$main$438                         main
     00004BC3  A$main$439                         main
     00004BC5  A$main$444                         main
     00004BC5  C$main.c$118$1$142                 main
     00004BC5  XFmain$blitTile$0$0                main
     00004BC6  A$main$454                         main
     00004BC6  C$main.c$120$1$142                 main
     00004BC6  Fmain$syncDisplay$0$0              main
     00004BC8  A$main$455                         main
     00004BCC  A$main$456                         main
     00004BCE  A$main$457                         main
     00004BCF  A$main$461                         main
     00004BD2  A$main$466                         main
     00004BD2  C$main.c$128$3$148                 main
     00004BD3  A$main$467                         main
     00004BD4  A$main$468                         main
     00004BD5  A$main$469                         main
     00004BD6  A$main$470                         main
     00004BD7  A$main$471                         main
     00004BD8  A$main$472                         main
     00004BD9  A$main$473                         main
     00004BDA  A$main$474                         main
     00004BDD  A$main$475                         main
     00004BDE  A$main$476                         main
     00004BDF  A$main$480                         main
     00004BDF  C$main.c$127$3$148                 main
     00004BE0  A$main$481                         main
     00004BE1  A$main$482                         main
ASxxxx Linker V03.00 + NoICE + sdld,  page 38.
Hexadecimal  [32-Bits]

Area                                    Addr        Size        Decimal Bytes (Attributes)
--------------------------------        ----        ----        ------- ----- ------------
_CODE                               00000200    000082A2 =       33442. bytes (REL,CON)

      Value  Global                              Global Defined In Module
      -----  --------------------------------   ------------------------
     00004BE2  A$main$483                         main
     00004BE3  A$main$484                         main
     00004BE4  A$main$485                         main
     00004BE5  A$main$486                         main
     00004BE6  A$main$487                         main
     00004BE7  A$main$488                         main
     00004BE8  A$main$489                         main
     00004BE9  A$main$490                         main
     00004BEA  A$main$491                         main
     00004BEE  A$main$492                         main
     00004BF0  A$main$493                         main
     00004BF1  A$main$494                         main
     00004BF3  A$main$495                         main
     00004BF4  A$main$496                         main
     00004BF5  A$main$497                         main
     00004BF8  A$main$498                         main
     00004BFB  A$main$499                         main
     00004BFC  A$main$500                         main
     00004BFE  A$main$501                         main
     00004C01  A$main$502                         main
     00004C02  A$main$503                         main
     00004C03  A$main$504                         main
     00004C04  A$main$505                         main
     00004C05  A$main$509                         main
     00004C05  C$main.c$124$2$147                 main
     00004C06  A$main$510                         main
     00004C07  A$main$511                         main
     00004C09  A$main$512                         main
     00004C0A  A$main$513                         main
     00004C0B  A$main$514                         main
     00004C0C  A$main$515                         main
     00004C0D  A$main$516                         main
     00004C0F  A$main$517                         main
     00004C11  A$main$518                         main
     00004C13  A$main$519                         main
     00004C15  A$main$524                         main
     00004C15  C$main.c$131$2$147                 main
     00004C15  XFmain$syncDisplay$0$0             main
     00004C16  A$main$534                         main
     00004C16  C$main.c$133$2$147                 main
     00004C16  Fmain$clearDisplay$0$0             main
     00004C18  A$main$535                         main
     00004C1C  A$main$536                         main
     00004C1E  A$main$537                         main
     00004C21  A$main$538                         main
     00004C22  A$main$539                         main
     00004C23  A$main$543                         main
     00004C23  C$main.c$140$1$150                 main
     00004C26  A$main$544                         main
     00004C27  A$main$545                         main
     00004C29  A$main$549                         main
ASxxxx Linker V03.00 + NoICE + sdld,  page 39.
Hexadecimal  [32-Bits]

Area                                    Addr        Size        Decimal Bytes (Attributes)
--------------------------------        ----        ----        ------- ----- ------------
_CODE                               00000200    000082A2 =       33442. bytes (REL,CON)

      Value  Global                              Global Defined In Module
      -----  --------------------------------   ------------------------
     00004C29  C$main.c$142$2$151                 main
     00004C2C  A$main$550                         main
     00004C2E  A$main$551                         main
     00004C2F  A$main$552                         main
     00004C30  A$main$553                         main
     00004C31  A$main$554                         main
     00004C34  A$main$555                         main
     00004C36  A$main$556                         main
     00004C39  A$main$561                         main
     00004C39  C$main.c$146$1$150                 main
     00004C3D  A$main$562                         main
     00004C41  A$main$567                         main
     00004C41  C$main.c$148$4$154                 main
     00004C44  A$main$568                         main
     00004C46  A$main$569                         main
     00004C47  A$main$570                         main
     00004C49  A$main$571                         main
     00004C4C  A$main$572                         main
     00004C4D  A$main$573                         main
     00004C4E  A$main$574                         main
     00004C51  A$main$575                         main
     00004C52  A$main$576                         main
     00004C53  A$main$577                         main
     00004C57  A$main$578                         main
     00004C5A  A$main$579                         main
     00004C5B  A$main$580                         main
     00004C5C  A$main$581                         main
     00004C5F  A$main$582                         main
     00004C60  A$main$583                         main
     00004C61  A$main$584                         main
     00004C62  A$main$585                         main
     00004C66  A$main$586                         main
     00004C69  A$main$587                         main
     00004C6A  A$main$591                         main
     00004C6A  C$main.c$151$4$154                 main
     00004C6D  A$main$592                         main
     00004C6E  A$main$593                         main
     00004C70  A$main$594                         main
     00004C74  A$main$595                         main
     00004C76  A$main$599                         main
     00004C76  C$main.c$153$5$155                 main
     00004C79  A$main$603                         main
     00004C79  C$main.c$154$5$155                 main
     00004C7C  A$main$607                         main
     00004C7C  C$main.c$155$5$155                 main
     00004C7F  A$main$612                         main
     00004C7F  C$main.c$146$3$153                 main
     00004C82  A$main$613                         main
     00004C84  A$main$614                         main
     00004C87  A$main$615                         main
     00004C8A  A$main$616                         main
ASxxxx Linker V03.00 + NoICE + sdld,  page 40.
Hexadecimal  [32-Bits]

Area                                    Addr        Size        Decimal Bytes (Attributes)
--------------------------------        ----        ----        ------- ----- ------------
_CODE                               00000200    000082A2 =       33442. bytes (REL,CON)

      Value  Global                              Global Defined In Module
      -----  --------------------------------   ------------------------
     00004C8C  A$main$617                         main
     00004C8F  A$main$618                         main
     00004C92  A$main$619                         main
     00004C94  A$main$620                         main
     00004C97  A$main$621                         main
     00004C98  A$main$622                         main
     00004C99  A$main$623                         main
     00004C9A  A$main$624                         main
     00004C9C  A$main$625                         main
     00004C9E  A$main$629                         main
     00004C9E  C$main.c$158$2$152                 main
     00004CA2  A$main$630                         main
     00004CA5  A$main$631                         main
     00004CA7  A$main$632                         main
     00004CAA  A$main$636                         main
     00004CAA  C$main.c$160$1$150                 main
     00004CAE  A$main$637                         main
     00004CB2  A$main$642                         main
     00004CB2  C$main.c$162$4$157                 main
     00004CB5  A$main$643                         main
     00004CB6  A$main$644                         main
     00004CB8  A$main$645                         main
     00004CB9  A$main$646                         main
     00004CBA  A$main$647                         main
     00004CBB  A$main$648                         main
     00004CBD  A$main$649                         main
     00004CBE  A$main$650                         main
     00004CC0  A$main$651                         main
     00004CC3  A$main$652                         main
     00004CC4  A$main$653                         main
     00004CC5  A$main$654                         main
     00004CC8  A$main$655                         main
     00004CC9  A$main$656                         main
     00004CCA  A$main$657                         main
     00004CCE  A$main$658                         main
     00004CD1  A$main$659                         main
     00004CD2  A$main$660                         main
     00004CD3  A$main$661                         main
     00004CD6  A$main$662                         main
     00004CD7  A$main$663                         main
     00004CD8  A$main$664                         main
     00004CD9  A$main$665                         main
     00004CDD  A$main$666                         main
     00004CE0  A$main$667                         main
     00004CE1  A$main$671                         main
     00004CE1  C$main.c$165$4$157                 main
     00004CE4  A$main$672                         main
     00004CE5  A$main$673                         main
     00004CE7  A$main$674                         main
     00004CEB  A$main$675                         main
     00004CED  A$main$679                         main
ASxxxx Linker V03.00 + NoICE + sdld,  page 41.
Hexadecimal  [32-Bits]

Area                                    Addr        Size        Decimal Bytes (Attributes)
--------------------------------        ----        ----        ------- ----- ------------
_CODE                               00000200    000082A2 =       33442. bytes (REL,CON)

      Value  Global                              Global Defined In Module
      -----  --------------------------------   ------------------------
     00004CED  C$main.c$167$5$158                 main
     00004CF0  A$main$683                         main
     00004CF0  C$main.c$168$5$158                 main
     00004CF3  A$main$687                         main
     00004CF3  C$main.c$169$5$158                 main
     00004CF6  A$main$692                         main
     00004CF6  C$main.c$160$3$156                 main
     00004CF9  A$main$693                         main
     00004CFB  A$main$694                         main
     00004CFE  A$main$695                         main
     00004D01  A$main$696                         main
     00004D03  A$main$697                         main
     00004D06  A$main$698                         main
     00004D09  A$main$699                         main
     00004D0B  A$main$700                         main
     00004D0E  A$main$701                         main
     00004D0F  A$main$702                         main
     00004D10  A$main$703                         main
     00004D11  A$main$704                         main
     00004D13  A$main$705                         main
     00004D15  A$main$709                         main
     00004D15  C$main.c$172$2$152                 main
     00004D18  A$main$710                         main
     00004D19  A$main$715                         main
     00004D19  C$main.c$175$1$150                 main
     00004D1D  A$main$716                         main
     00004D21  A$main$721                         main
     00004D21  C$main.c$177$3$160                 main
     00004D24  A$main$725                         main
     00004D24  C$main.c$178$3$160                 main
     00004D27  A$main$729                         main
     00004D27  C$main.c$179$3$160                 main
     00004D2A  A$main$733                         main
     00004D2A  C$main.c$180$3$160                 main
     00004D2D  A$main$737                         main
     00004D2D  C$main.c$183$3$160                 main
     00004D30  A$main$738                         main
     00004D33  A$main$739                         main
     00004D34  A$main$740                         main
     00004D35  A$main$741                         main
     00004D36  A$main$742                         main
     00004D37  A$main$743                         main
     00004D38  A$main$744                         main
     00004D39  A$main$745                         main
     00004D3A  A$main$746                         main
     00004D3B  A$main$747                         main
     00004D3E  A$main$748                         main
     00004D3F  A$main$749                         main
     00004D42  A$main$750                         main
     00004D45  A$main$754                         main
     00004D45  C$main.c$182$3$160                 main
ASxxxx Linker V03.00 + NoICE + sdld,  page 42.
Hexadecimal  [32-Bits]

Area                                    Addr        Size        Decimal Bytes (Attributes)
--------------------------------        ----        ----        ------- ----- ------------
_CODE                               00000200    000082A2 =       33442. bytes (REL,CON)

      Value  Global                              Global Defined In Module
      -----  --------------------------------   ------------------------
     00004D48  A$main$755                         main
     00004D4B  A$main$756                         main
     00004D4C  A$main$757                         main
     00004D4D  A$main$758                         main
     00004D4E  A$main$759                         main
     00004D4F  A$main$760                         main
     00004D50  A$main$761                         main
     00004D51  A$main$762                         main
     00004D52  A$main$763                         main
     00004D53  A$main$764                         main
     00004D54  A$main$765                         main
     00004D55  A$main$766                         main
     00004D56  A$main$767                         main
     00004D57  A$main$768                         main
     00004D5B  A$main$769                         main
     00004D5D  A$main$770                         main
     00004D5E  A$main$771                         main
     00004D60  A$main$772                         main
     00004D61  A$main$773                         main
     00004D62  A$main$774                         main
     00004D65  A$main$775                         main
     00004D68  A$main$776                         main
     00004D69  A$main$777                         main
     00004D6B  A$main$778                         main
     00004D6E  A$main$779                         main
     00004D6F  A$main$780                         main
     00004D70  A$main$781                         main
     00004D71  A$main$782                         main
     00004D74  A$main$783                         main
     00004D77  A$main$784                         main
     00004D7A  A$main$785                         main
     00004D7D  A$main$786                         main
     00004D7E  A$main$790                         main
     00004D7E  C$main.c$192$3$160                 main
     00004D81  A$main$791                         main
     00004D82  A$main$792                         main
     00004D83  A$main$793                         main
     00004D84  A$main$797                         main
     00004D84  C$main.c$191$3$160                 main
     00004D87  A$main$798                         main
     00004D88  A$main$799                         main
     00004D89  A$main$800                         main
     00004D8A  A$main$801                         main
     00004D8B  A$main$802                         main
     00004D8C  A$main$803                         main
     00004D90  A$main$804                         main
     00004D92  A$main$805                         main
     00004D94  A$main$806                         main
     00004D95  A$main$807                         main
     00004D96  A$main$808                         main
     00004D97  A$main$809                         main
ASxxxx Linker V03.00 + NoICE + sdld,  page 43.
Hexadecimal  [32-Bits]

Area                                    Addr        Size        Decimal Bytes (Attributes)
--------------------------------        ----        ----        ------- ----- ------------
_CODE                               00000200    000082A2 =       33442. bytes (REL,CON)

      Value  Global                              Global Defined In Module
      -----  --------------------------------   ------------------------
     00004D99  A$main$810                         main
     00004D9C  A$main$811                         main
     00004D9D  A$main$812                         main
     00004D9E  A$main$813                         main
     00004D9F  A$main$817                         main
     00004D9F  C$main.c$195$3$160                 main
     00004DA2  A$main$818                         main
     00004DA4  A$main$819                         main
     00004DA5  A$main$820                         main
     00004DA7  A$main$821                         main
     00004DA8  A$main$822                         main
     00004DA9  A$main$823                         main
     00004DAA  A$main$827                         main
     00004DAA  C$main.c$196$3$160                 main
     00004DAD  A$main$828                         main
     00004DB0  A$main$832                         main
     00004DB0  C$main.c$197$3$160                 main
     00004DB3  A$main$833                         main
     00004DB5  A$main$834                         main
     00004DB6  A$main$835                         main
     00004DB8  A$main$836                         main
     00004DB9  A$main$837                         main
     00004DBA  A$main$838                         main
     00004DBD  A$main$839                         main
     00004DC0  A$main$843                         main
     00004DC0  C$main.c$198$3$160                 main
     00004DC3  A$main$844                         main
     00004DC6  A$main$848                         main
     00004DC6  C$main.c$200$1$150                 main
     00004DC9  A$main$853                         main
     00004DC9  C$main.c$202$5$162                 main
     00004DCC  A$main$854                         main
     00004DCD  A$main$855                         main
     00004DCE  A$main$856                         main
     00004DCF  A$main$857                         main
     00004DD2  A$main$858                         main
     00004DD3  A$main$859                         main
     00004DD4  A$main$860                         main
     00004DD5  A$main$861                         main
     00004DD6  A$main$862                         main
     00004DD7  A$main$863                         main
     00004DD8  A$main$864                         main
     00004DDB  A$main$865                         main
     00004DDC  A$main$866                         main
     00004DDD  A$main$867                         main
     00004DDE  A$main$871                         main
     00004DDE  C$main.c$200$4$161                 main
     00004DDF  A$main$872                         main
     00004DE0  A$main$873                         main
     00004DE2  A$main$874                         main
     00004DE3  A$main$875                         main
ASxxxx Linker V03.00 + NoICE + sdld,  page 44.
Hexadecimal  [32-Bits]

Area                                    Addr        Size        Decimal Bytes (Attributes)
--------------------------------        ----        ----        ------- ----- ------------
_CODE                               00000200    000082A2 =       33442. bytes (REL,CON)

      Value  Global                              Global Defined In Module
      -----  --------------------------------   ------------------------
     00004DE4  A$main$876                         main
     00004DE5  A$main$877                         main
     00004DE6  A$main$878                         main
     00004DE8  A$main$879                         main
     00004DEA  A$main$883                         main
     00004DEA  C$main.c$175$2$159                 main
     00004DED  A$main$884                         main
     00004DEF  A$main$885                         main
     00004DF2  A$main$887                         main
     00004DF5  A$main$888                         main
     00004DF7  A$main$889                         main
     00004DFA  A$main$890                         main
     00004DFB  A$main$891                         main
     00004DFC  A$main$892                         main
     00004DFD  A$main$893                         main
     00004DFF  A$main$894                         main
     00004E02  A$main$898                         main
     00004E02  C$main.c$206$1$150                 main
     00004E05  A$main$903                         main
     00004E05  C$main.c$208$3$164                 main
     00004E06  A$main$904                         main
     00004E07  A$main$905                         main
     00004E0A  A$main$906                         main
     00004E0B  A$main$907                         main
     00004E0C  A$main$908                         main
     00004E0D  A$main$909                         main
     00004E10  A$main$910                         main
     00004E11  A$main$911                         main
     00004E12  A$main$912                         main
     00004E13  A$main$916                         main
     00004E13  C$main.c$206$2$163                 main
     00004E14  A$main$917                         main
     00004E15  A$main$918                         main
     00004E17  A$main$919                         main
     00004E18  A$main$920                         main
     00004E19  A$main$921                         main
     00004E1A  A$main$922                         main
     00004E1B  A$main$923                         main
     00004E1D  A$main$924                         main
     00004E1F  A$main$928                         main
     00004E1F  C$main.c$211$1$150                 main
     00004E21  A$main$929                         main
     00004E24  A$main$933                         main
     00004E24  C$main.c$212$1$150                 main
     00004E26  A$main$934                         main
     00004E29  A$main$935                         main
     00004E2B  A$main$936                         main
     00004E2D  A$main$941                         main
     00004E2D  C$main.c$213$1$150                 main
     00004E2D  XFmain$clearDisplay$0$0            main
     00004E2E  A$main$951                         main
ASxxxx Linker V03.00 + NoICE + sdld,  page 45.
Hexadecimal  [32-Bits]

Area                                    Addr        Size        Decimal Bytes (Attributes)
--------------------------------        ----        ----        ------- ----- ------------
_CODE                               00000200    000082A2 =       33442. bytes (REL,CON)

      Value  Global                              Global Defined In Module
      -----  --------------------------------   ------------------------
     00004E2E  C$main.c$215$1$150                 main
     00004E2E  Fmain$setupTilemap$0$0             main
     00004E30  A$main$952                         main
     00004E34  A$main$953                         main
     00004E36  A$main$954                         main
     00004E37  A$main$958                         main
     00004E37  C$main.c$218$1$150                 main
     00004E3A  A$main$962                         main
     00004E3A  C$main.c$220$1$165                 main
     00004E3B  A$main$963                         main
     00004E3E  A$main$964                         main
     00004E3F  A$main$965                         main
     00004E42  A$main$966                         main
     00004E43  A$main$967                         main
     00004E46  A$main$968                         main
     00004E47  A$main$969                         main
     00004E4A  A$main$970                         main
     00004E4D  A$main$971                         main
     00004E4E  A$main$972                         main
     00004E4F  A$main$973                         main
     00004E50  A$main$977                         main
     00004E53  A$main$982                         main
     00004E53  C$main.c$224$3$167                 main
     00004E56  A$main$983                         main
     00004E57  A$main$984                         main
     00004E58  A$main$985                         main
     00004E59  A$main$986                         main
     00004E5A  A$main$987                         main
     00004E5B  A$main$988                         main
     00004E5C  A$main$989                         main
     00004E5D  A$main$990                         main
     00004E5F  A$main$991                         main
     00004E60  A$main$992                         main
     00004E62  A$main$993                         main
     00004E63  A$main$994                         main
     00004E64  A$main$995                         main
     00004E65  A$main$996                         main
     00004E66  A$main$1000                        main
     00004E66  C$main.c$225$2$170                 main
     00004E69  A$main$1005                        main
     00004E69  C$main.c$227$5$169                 main
     00004E6A  A$main$1006                        main
     00004E6B  A$main$1007                        main
     00004E6C  A$main$1008                        main
     00004E6D  A$main$1009                        main
     00004E6E  A$main$1010                        main
     00004E71  A$main$1011                        main
     00004E74  A$main$1012                        main
     00004E75  A$main$1013                        main
     00004E76  A$main$1017                        main
     00004E76  C$main.c$225$4$168                 main
ASxxxx Linker V03.00 + NoICE + sdld,  page 46.
Hexadecimal  [32-Bits]

Area                                    Addr        Size        Decimal Bytes (Attributes)
--------------------------------        ----        ----        ------- ----- ------------
_CODE                               00000200    000082A2 =       33442. bytes (REL,CON)

      Value  Global                              Global Defined In Module
      -----  --------------------------------   ------------------------
     00004E77  A$main$1018                        main
     00004E78  A$main$1019                        main
     00004E7A  A$main$1020                        main
     00004E7B  A$main$1021                        main
     00004E7C  A$main$1022                        main
     00004E7D  A$main$1023                        main
     00004E7E  A$main$1024                        main
     00004E80  A$main$1025                        main
     00004E82  A$main$1029                        main
     00004E82  C$main.c$222$2$170                 main
     00004E83  A$main$1030                        main
     00004E84  A$main$1031                        main
     00004E86  A$main$1032                        main
     00004E87  A$main$1033                        main
     00004E88  A$main$1034                        main
     00004E89  A$main$1035                        main
     00004E8A  A$main$1036                        main
     00004E8C  A$main$1037                        main
     00004E8E  A$main$1041                        main
     00004E91  A$main$1046                        main
     00004E91  C$main.c$235$3$171                 main
     00004E92  A$main$1047                        main
     00004E93  A$main$1048                        main
     00004E94  A$main$1049                        main
     00004E95  A$main$1050                        main
     00004E96  A$main$1051                        main
     00004E97  A$main$1052                        main
     00004E98  A$main$1053                        main
     00004E99  A$main$1054                        main
     00004E9A  A$main$1055                        main
     00004E9C  A$main$1056                        main
     00004E9D  A$main$1057                        main
     00004E9E  A$main$1061                        main
     00004E9E  C$main.c$236$2$170                 main
     00004EA1  A$main$1066                        main
     00004EA1  C$main.c$238$5$173                 main
     00004EA4  A$main$1067                        main
     00004EA5  A$main$1071                        main
     00004EA5  C$main.c$236$4$172                 main
     00004EA6  A$main$1072                        main
     00004EA7  A$main$1073                        main
     00004EA9  A$main$1074                        main
     00004EAA  A$main$1075                        main
     00004EAB  A$main$1076                        main
     00004EAC  A$main$1077                        main
     00004EAD  A$main$1078                        main
     00004EAF  A$main$1079                        main
     00004EB1  A$main$1083                        main
     00004EB1  C$main.c$233$2$170                 main
     00004EB2  A$main$1084                        main
     00004EB3  A$main$1085                        main
ASxxxx Linker V03.00 + NoICE + sdld,  page 47.
Hexadecimal  [32-Bits]

Area                                    Addr        Size        Decimal Bytes (Attributes)
--------------------------------        ----        ----        ------- ----- ------------
_CODE                               00000200    000082A2 =       33442. bytes (REL,CON)

      Value  Global                              Global Defined In Module
      -----  --------------------------------   ------------------------
     00004EB5  A$main$1086                        main
     00004EB6  A$main$1087                        main
     00004EB7  A$main$1088                        main
     00004EB8  A$main$1089                        main
     00004EB9  A$main$1090                        main
     00004EBB  A$main$1091                        main
     00004EBD  A$main$1092                        main
     00004EBF  A$main$1093                        main
     00004EC1  A$main$1098                        main
     00004EC1  C$main.c$241$2$170                 main
     00004EC1  XFmain$setupTilemap$0$0            main
     00004EC2  A$main$1108                        main
     00004EC2  C$main.c$243$2$170                 main
     00004EC2  Fmain$putPixel$0$0                 main
     00004EC4  A$main$1109                        main
     00004EC8  A$main$1110                        main
     00004ECA  A$main$1111                        main
     00004ECB  A$main$1112                        main
     00004ECC  A$main$1116                        main
     00004ECC  C$main.c$249$1$175                 main
     00004ECF  A$main$1117                        main
     00004ED2  A$main$1118                        main
     00004ED4  A$main$1119                        main
     00004ED6  A$main$1120                        main
     00004ED8  A$main$1121                        main
     00004EDA  A$main$1122                        main
     00004EDC  A$main$1123                        main
     00004EDE  A$main$1124                        main
     00004EE1  A$main$1125                        main
     00004EE4  A$main$1126                        main
     00004EE6  A$main$1127                        main
     00004EE8  A$main$1128                        main
     00004EEA  A$main$1129                        main
     00004EEC  A$main$1130                        main
     00004EEE  A$main$1131                        main
     00004EF0  A$main$1132                        main
     00004EF1  A$main$1133                        main
     00004EF2  A$main$1134                        main
     00004EF3  A$main$1135                        main
     00004EF4  A$main$1136                        main
     00004EF5  A$main$1137                        main
     00004EF6  A$main$1138                        main
     00004EF7  A$main$1139                        main
     00004EF8  A$main$1140                        main
     00004EF9  A$main$1144                        main
     00004EF9  C$main.c$251$1$175                 main
     00004EFC  A$main$1145                        main
     00004EFE  A$main$1146                        main
     00004EFF  A$main$1147                        main
     00004F03  A$main$1148                        main
     00004F04  A$main$1149                        main
ASxxxx Linker V03.00 + NoICE + sdld,  page 48.
Hexadecimal  [32-Bits]

Area                                    Addr        Size        Decimal Bytes (Attributes)
--------------------------------        ----        ----        ------- ----- ------------
_CODE                               00000200    000082A2 =       33442. bytes (REL,CON)

      Value  Global                              Global Defined In Module
      -----  --------------------------------   ------------------------
     00004F06  A$main$1151                        main
     00004F0A  A$main$1153                        main
     00004F0C  A$main$1157                        main
     00004F0C  C$main.c$252$1$175                 main
     00004F0D  A$main$1158                        main
     00004F0E  A$main$1159                        main
     00004F10  A$main$1160                        main
     00004F12  A$main$1161                        main
     00004F14  A$main$1162                        main
     00004F16  A$main$1163                        main
     00004F18  A$main$1164                        main
     00004F1A  A$main$1165                        main
     00004F1D  A$main$1166                        main
     00004F1F  A$main$1167                        main
     00004F20  A$main$1168                        main
     00004F22  A$main$1169                        main
     00004F23  A$main$1170                        main
     00004F26  A$main$1171                        main
     00004F29  A$main$1172                        main
     00004F2D  A$main$1173                        main
     00004F2E  A$main$1174                        main
     00004F31  A$main$1175                        main
     00004F34  A$main$1176                        main
     00004F36  A$main$1177                        main
     00004F37  A$main$1178                        main
     00004F3A  A$main$1179                        main
     00004F3D  A$main$1180                        main
     00004F40  A$main$1184                        main
     00004F40  C$main.c$254$1$175                 main
     00004F43  A$main$1185                        main
     00004F44  A$main$1186                        main
     00004F48  A$main$1187                        main
     00004F4A  A$main$1188                        main
     00004F4C  A$main$1189                        main
     00004F4D  A$main$1190                        main
     00004F4E  A$main$1191                        main
     00004F4F  A$main$1192                        main
     00004F51  A$main$1193                        main
     00004F54  A$main$1194                        main
     00004F56  A$main$1195                        main
     00004F58  A$main$1200                        main
     00004F58  C$main.c$255$1$175                 main
     00004F58  XFmain$putPixel$0$0                main
     00004F59  A$main$1210                        main
     00004F59  C$main.c$257$1$175                 main
     00004F59  Fmain$drawLine$0$0                 main
     00004F5B  A$main$1211                        main
     00004F5F  A$main$1212                        main
     00004F61  A$main$1213                        main
     00004F64  A$main$1214                        main
     00004F65  A$main$1215                        main
ASxxxx Linker V03.00 + NoICE + sdld,  page 49.
Hexadecimal  [32-Bits]

Area                                    Addr        Size        Decimal Bytes (Attributes)
--------------------------------        ----        ----        ------- ----- ------------
_CODE                               00000200    000082A2 =       33442. bytes (REL,CON)

      Value  Global                              Global Defined In Module
      -----  --------------------------------   ------------------------
     00004F66  A$main$1219                        main
     00004F66  C$main.c$259$1$177                 main
     00004F69  A$main$1220                        main
     00004F6C  A$main$1221                        main
     00004F6D  A$main$1222                        main
     00004F70  A$main$1223                        main
     00004F73  A$main$1224                        main
     00004F74  A$main$1225                        main
     00004F75  A$main$1226                        main
     00004F78  A$main$1227                        main
     00004F79  A$main$1228                        main
     00004F7A  A$main$1229                        main
     00004F7B  A$main$1233                        main
     00004F7B  C$main.c$260$1$177                 main
     00004F7E  A$main$1234                        main
     00004F81  A$main$1235                        main
     00004F82  A$main$1236                        main
     00004F85  A$main$1237                        main
     00004F88  A$main$1238                        main
     00004F89  A$main$1239                        main
     00004F8A  A$main$1240                        main
     00004F8D  A$main$1241                        main
     00004F8E  A$main$1242                        main
     00004F8F  A$main$1243                        main
     00004F90  A$main$1244                        main
     00004F91  A$main$1245                        main
     00004F93  A$main$1246                        main
     00004F94  A$main$1247                        main
     00004F97  A$main$1248                        main
     00004F9A  A$main$1252                        main
     00004F9A  C$main.c$261$1$177                 main
     00004F9D  A$main$1253                        main
     00004FA0  A$main$1254                        main
     00004FA3  A$main$1255                        main
     00004FA6  A$main$1256                        main
     00004FA9  A$main$1257                        main
     00004FAB  A$main$1259                        main
     00004FAE  A$main$1260                        main
     00004FB0  A$main$1261                        main
     00004FB2  A$main$1263                        main
     00004FB4  A$main$1265                        main
     00004FB7  A$main$1269                        main
     00004FB7  C$main.c$262$1$177                 main
     00004FBA  A$main$1270                        main
     00004FBD  A$main$1271                        main
     00004FC0  A$main$1272                        main
     00004FC3  A$main$1273                        main
     00004FC6  A$main$1274                        main
     00004FC8  A$main$1276                        main
     00004FCB  A$main$1277                        main
     00004FCD  A$main$1278                        main
ASxxxx Linker V03.00 + NoICE + sdld,  page 50.
Hexadecimal  [32-Bits]

Area                                    Addr        Size        Decimal Bytes (Attributes)
--------------------------------        ----        ----        ------- ----- ------------
_CODE                               00000200    000082A2 =       33442. bytes (REL,CON)

      Value  Global                              Global Defined In Module
      -----  --------------------------------   ------------------------
     00004FCF  A$main$1280                        main
     00004FD1  A$main$1282                        main
     00004FD4  A$main$1286                        main
     00004FD4  C$main.c$263$1$177                 main
     00004FD7  A$main$1287                        main
     00004FDA  A$main$1288                        main
     00004FDB  A$main$1289                        main
     00004FDE  A$main$1290                        main
     00004FE1  A$main$1294                        main
     00004FE1  C$main.c$268$1$177                 main
     00004FE4  A$main$1295                        main
     00004FE7  A$main$1296                        main
     00004FE9  A$main$1297                        main
     00004FEB  A$main$1298                        main
     00004FED  A$main$1299                        main
     00004FEF  A$main$1300                        main
     00004FF1  A$main$1301                        main
     00004FF3  A$main$1302                        main
     00004FF6  A$main$1303                        main
     00004FF9  A$main$1304                        main
     00004FFB  A$main$1305                        main
     00004FFD  A$main$1306                        main
     00004FFF  A$main$1307                        main
     00005001  A$main$1308                        main
     00005003  A$main$1309                        main
     00005005  A$main$1310                        main
     00005006  A$main$1311                        main
     00005007  A$main$1312                        main
     00005008  A$main$1313                        main
     00005009  A$main$1314                        main
     0000500A  A$main$1315                        main
     0000500B  A$main$1316                        main
     0000500C  A$main$1317                        main
     0000500D  A$main$1318                        main
     0000500E  A$main$1319                        main
     0000500F  A$main$1320                        main
     00005012  A$main$1321                        main
     00005015  A$main$1329                        main
     00005015  C$main.c$270$1$177                 main
     00005015  C$main.c$273$2$178                 main
     00005018  A$main$1330                        main
     0000501B  A$main$1331                        main
     0000501D  A$main$1332                        main
     0000501F  A$main$1333                        main
     00005021  A$main$1334                        main
     00005023  A$main$1335                        main
     00005025  A$main$1336                        main
     00005027  A$main$1337                        main
     0000502A  A$main$1338                        main
     0000502D  A$main$1339                        main
     0000502F  A$main$1340                        main
ASxxxx Linker V03.00 + NoICE + sdld,  page 51.
Hexadecimal  [32-Bits]

Area                                    Addr        Size        Decimal Bytes (Attributes)
--------------------------------        ----        ----        ------- ----- ------------
_CODE                               00000200    000082A2 =       33442. bytes (REL,CON)

      Value  Global                              Global Defined In Module
      -----  --------------------------------   ------------------------
     00005031  A$main$1341                        main
     00005033  A$main$1342                        main
     00005035  A$main$1343                        main
     00005037  A$main$1344                        main
     00005039  A$main$1345                        main
     0000503A  A$main$1346                        main
     0000503B  A$main$1347                        main
     0000503C  A$main$1348                        main
     0000503D  A$main$1349                        main
     0000503E  A$main$1350                        main
     0000503F  A$main$1351                        main
     00005040  A$main$1352                        main
     00005041  A$main$1353                        main
     00005042  A$main$1354                        main
     00005043  A$main$1355                        main
     00005044  A$main$1356                        main
     00005045  A$main$1360                        main
     00005045  C$main.c$274$2$178                 main
     00005048  A$main$1361                        main
     00005049  A$main$1362                        main
     0000504B  A$main$1363                        main
     0000504E  A$main$1364                        main
     0000504F  A$main$1365                        main
     00005051  A$main$1370                        main
     00005051  C$main.c$276$3$179                 main
     00005054  A$main$1371                        main
     00005056  A$main$1372                        main
     00005059  A$main$1373                        main
     0000505C  A$main$1374                        main
     0000505E  A$main$1375                        main
     00005061  A$main$1376                        main
     00005064  A$main$1377                        main
     00005067  A$main$1378                        main
     0000506A  A$main$1379                        main
     0000506D  A$main$1380                        main
     0000506F  A$main$1381                        main
     00005071  A$main$1383                        main
     00005075  A$main$1384                        main
     00005079  A$main$1386                        main
     0000507A  A$main$1387                        main
     0000507C  A$main$1388                        main
     0000507D  A$main$1389                        main
     00005080  A$main$1390                        main
     00005083  A$main$1391                        main
     00005084  A$main$1392                        main
     00005086  A$main$1393                        main
     00005087  A$main$1394                        main
     00005088  A$main$1395                        main
     0000508C  A$main$1396                        main
     0000508E  A$main$1397                        main
     0000508F  A$main$1398                        main
ASxxxx Linker V03.00 + NoICE + sdld,  page 52.
Hexadecimal  [32-Bits]

Area                                    Addr        Size        Decimal Bytes (Attributes)
--------------------------------        ----        ----        ------- ----- ------------
_CODE                               00000200    000082A2 =       33442. bytes (REL,CON)

      Value  Global                              Global Defined In Module
      -----  --------------------------------   ------------------------
     00005091  A$main$1399                        main
     00005092  A$main$1400                        main
     00005093  A$main$1401                        main
     00005096  A$main$1402                        main
     00005099  A$main$1403                        main
     0000509A  A$main$1404                        main
     0000509C  A$main$1405                        main
     0000509F  A$main$1406                        main
     000050A0  A$main$1407                        main
     000050A1  A$main$1408                        main
     000050A2  A$main$1409                        main
     000050A3  A$main$1410                        main
     000050A4  A$main$1415                        main
     000050A4  C$main.c$278$2$178                 main
     000050A7  A$main$1416                        main
     000050AA  A$main$1420                        main
     000050AA  C$main.c$280$1$177                 main
     000050AD  A$main$1421                        main
     000050AF  A$main$1422                        main
     000050B3  A$main$1423                        main
     000050B4  A$main$1424                        main
     000050B6  A$main$1426                        main
     000050BA  A$main$1428                        main
     000050BB  A$main$1429                        main
     000050BD  A$main$1433                        main
     000050BD  C$main.c$281$2$178                 main
     000050C0  A$main$1434                        main
     000050C3  A$main$1435                        main
     000050C5  A$main$1436                        main
     000050C7  A$main$1438                        main
     000050CB  A$main$1439                        main
     000050CF  A$main$1441                        main
     000050D0  A$main$1442                        main
     000050D2  A$main$1443                        main
     000050D5  A$main$1444                        main
     000050D7  A$main$1445                        main
     000050D8  A$main$1446                        main
     000050DA  A$main$1447                        main
     000050DB  A$main$1448                        main
     000050DD  A$main$1449                        main
     000050DE  A$main$1450                        main
     000050E1  A$main$1451                        main
     000050E4  A$main$1452                        main
     000050E6  A$main$1453                        main
     000050EA  A$main$1454                        main
     000050EC  A$main$1455                        main
     000050ED  A$main$1456                        main
     000050F0  A$main$1457                        main
     000050F3  A$main$1458                        main
     000050F6  A$main$1462                        main
     000050F6  C$main.c$283$2$178                 main
ASxxxx Linker V03.00 + NoICE + sdld,  page 53.
Hexadecimal  [32-Bits]

Area                                    Addr        Size        Decimal Bytes (Attributes)
--------------------------------        ----        ----        ------- ----- ------------
_CODE                               00000200    000082A2 =       33442. bytes (REL,CON)

      Value  Global                              Global Defined In Module
      -----  --------------------------------   ------------------------
     000050F9  A$main$1463                        main
     000050FC  A$main$1464                        main
     000050FE  A$main$1465                        main
     00005101  A$main$1466                        main
     00005104  A$main$1467                        main
     00005106  A$main$1468                        main
     00005109  A$main$1469                        main
     0000510C  A$main$1470                        main
     0000510E  A$main$1471                        main
     00005111  A$main$1472                        main
     00005114  A$main$1473                        main
     00005116  A$main$1482                        main
     00005116  C$main.c$284$2$178                 main
     00005116  C$main.c$285$2$178                 main
     00005119  A$main$1483                        main
     0000511C  A$main$1484                        main
     0000511D  A$main$1488                        main
     0000511D  C$main.c$286$2$178                 main
     0000511E  A$main$1489                        main
     00005121  A$main$1490                        main
     00005122  A$main$1491                        main
     00005125  A$main$1492                        main
     00005128  A$main$1493                        main
     0000512A  A$main$1495                        main
     0000512D  A$main$1499                        main
     0000512D  C$main.c$288$3$180                 main
     00005130  A$main$1500                        main
     00005133  A$main$1501                        main
     00005136  A$main$1502                        main
     00005139  A$main$1503                        main
     0000513C  A$main$1504                        main
     0000513F  A$main$1508                        main
     0000513F  C$main.c$289$3$180                 main
     00005142  A$main$1509                        main
     00005145  A$main$1510                        main
     00005146  A$main$1511                        main
     00005147  A$main$1512                        main
     00005148  A$main$1513                        main
     0000514B  A$main$1514                        main
     0000514C  A$main$1515                        main
     0000514F  A$main$1516                        main
     00005152  A$main$1517                        main
     00005153  A$main$1518                        main
     00005156  A$main$1523                        main
     00005156  C$main.c$291$2$178                 main
     00005157  A$main$1524                        main
     00005158  A$main$1525                        main
     00005159  A$main$1526                        main
     0000515A  A$main$1527                        main
     0000515D  A$main$1528                        main
     0000515F  A$main$1530                        main
ASxxxx Linker V03.00 + NoICE + sdld,  page 54.
Hexadecimal  [32-Bits]

Area                                    Addr        Size        Decimal Bytes (Attributes)
--------------------------------        ----        ----        ------- ----- ------------
_CODE                               00000200    000082A2 =       33442. bytes (REL,CON)

      Value  Global                              Global Defined In Module
      -----  --------------------------------   ------------------------
     00005162  A$main$1534                        main
     00005162  C$main.c$293$3$181                 main
     00005165  A$main$1535                        main
     00005166  A$main$1536                        main
     00005169  A$main$1537                        main
     0000516C  A$main$1538                        main
     0000516D  A$main$1539                        main
     00005170  A$main$1543                        main
     00005170  C$main.c$294$3$181                 main
     00005173  A$main$1544                        main
     00005176  A$main$1545                        main
     00005177  A$main$1546                        main
     00005178  A$main$1547                        main
     00005179  A$main$1548                        main
     0000517C  A$main$1549                        main
     0000517D  A$main$1550                        main
     00005180  A$main$1551                        main
     00005183  A$main$1552                        main
     00005184  A$main$1553                        main
     00005187  A$main$1554                        main
     0000518A  A$main$1559                        main
     0000518A  C$main.c$298$1$177                 main
     0000518D  A$main$1560                        main
     0000518E  A$main$1561                        main
     00005192  A$main$1562                        main
     00005195  A$main$1563                        main
     00005198  A$main$1564                        main
     0000519A  A$main$1565                        main
     0000519C  A$main$1566                        main
     0000519D  A$main$1567                        main
     0000519E  A$main$1568                        main
     0000519F  A$main$1569                        main
     000051A1  A$main$1570                        main
     000051A4  A$main$1571                        main
     000051A6  A$main$1572                        main
     000051A8  A$main$1577                        main
     000051A8  C$main.c$299$1$177                 main
     000051A8  XFmain$drawLine$0$0                main
     000051A9  A$main$1587                        main
     000051A9  C$main.c$301$1$177                 main
     000051A9  Fmain$drawLineSync$0$0             main
     000051AB  A$main$1588                        main
     000051AF  A$main$1589                        main
     000051B1  A$main$1590                        main
     000051B4  A$main$1591                        main
     000051B5  A$main$1592                        main
     000051B6  A$main$1596                        main
     000051B6  C$main.c$303$1$183                 main
     000051B9  A$main$1597                        main
     000051BC  A$main$1598                        main
     000051BD  A$main$1599                        main
ASxxxx Linker V03.00 + NoICE + sdld,  page 55.
Hexadecimal  [32-Bits]

Area                                    Addr        Size        Decimal Bytes (Attributes)
--------------------------------        ----        ----        ------- ----- ------------
_CODE                               00000200    000082A2 =       33442. bytes (REL,CON)

      Value  Global                              Global Defined In Module
      -----  --------------------------------   ------------------------
     000051C0  A$main$1600                        main
     000051C3  A$main$1601                        main
     000051C4  A$main$1602                        main
     000051C5  A$main$1603                        main
     000051C8  A$main$1604                        main
     000051C9  A$main$1605                        main
     000051CA  A$main$1606                        main
     000051CB  A$main$1610                        main
     000051CB  C$main.c$304$1$183                 main
     000051CE  A$main$1611                        main
     000051D1  A$main$1612                        main
     000051D2  A$main$1613                        main
     000051D5  A$main$1614                        main
     000051D8  A$main$1615                        main
     000051D9  A$main$1616                        main
     000051DA  A$main$1617                        main
     000051DD  A$main$1618                        main
     000051DE  A$main$1619                        main
     000051DF  A$main$1620                        main
     000051E0  A$main$1621                        main
     000051E1  A$main$1622                        main
     000051E3  A$main$1623                        main
     000051E4  A$main$1624                        main
     000051E7  A$main$1625                        main
     000051EA  A$main$1629                        main
     000051EA  C$main.c$305$1$183                 main
     000051ED  A$main$1630                        main
     000051F0  A$main$1631                        main
     000051F3  A$main$1632                        main
     000051F6  A$main$1633                        main
     000051F9  A$main$1634                        main
     000051FB  A$main$1636                        main
     000051FE  A$main$1637                        main
     00005200  A$main$1638                        main
     00005202  A$main$1640                        main
     00005204  A$main$1642                        main
     00005207  A$main$1646                        main
     00005207  C$main.c$306$1$183                 main
     0000520A  A$main$1647                        main
     0000520D  A$main$1648                        main
     00005210  A$main$1649                        main
     00005213  A$main$1650                        main
     00005216  A$main$1651                        main
     00005218  A$main$1653                        main
     0000521B  A$main$1654                        main
     0000521D  A$main$1655                        main
     0000521F  A$main$1657                        main
     00005221  A$main$1659                        main
     00005224  A$main$1663                        main
     00005224  C$main.c$307$1$183                 main
     00005227  A$main$1664                        main
ASxxxx Linker V03.00 + NoICE + sdld,  page 56.
Hexadecimal  [32-Bits]

Area                                    Addr        Size        Decimal Bytes (Attributes)
--------------------------------        ----        ----        ------- ----- ------------
_CODE                               00000200    000082A2 =       33442. bytes (REL,CON)

      Value  Global                              Global Defined In Module
      -----  --------------------------------   ------------------------
     0000522A  A$main$1665                        main
     0000522B  A$main$1666                        main
     0000522E  A$main$1667                        main
     00005231  A$main$1671                        main
     00005231  C$main.c$312$1$183                 main
     00005234  A$main$1672                        main
     00005237  A$main$1673                        main
     00005239  A$main$1674                        main
     0000523B  A$main$1675                        main
     0000523D  A$main$1676                        main
     0000523F  A$main$1677                        main
     00005241  A$main$1678                        main
     00005243  A$main$1679                        main
     00005246  A$main$1680                        main
     00005249  A$main$1681                        main
     0000524B  A$main$1682                        main
     0000524D  A$main$1683                        main
     0000524F  A$main$1684                        main
     00005251  A$main$1685                        main
     00005253  A$main$1686                        main
     00005255  A$main$1687                        main
     00005256  A$main$1688                        main
     00005257  A$main$1689                        main
     00005258  A$main$1690                        main
     00005259  A$main$1691                        main
     0000525A  A$main$1692                        main
     0000525B  A$main$1693                        main
     0000525C  A$main$1694                        main
     0000525D  A$main$1695                        main
     0000525E  A$main$1696                        main
     0000525F  A$main$1697                        main
     00005262  A$main$1698                        main
     00005265  A$main$1706                        main
     00005265  C$main.c$314$1$183                 main
     00005265  C$main.c$317$2$184                 main
     00005268  A$main$1707                        main
     0000526B  A$main$1708                        main
     0000526D  A$main$1709                        main
     0000526F  A$main$1710                        main
     00005271  A$main$1711                        main
     00005273  A$main$1712                        main
     00005275  A$main$1713                        main
     00005277  A$main$1714                        main
     0000527A  A$main$1715                        main
     0000527D  A$main$1716                        main
     0000527F  A$main$1717                        main
     00005281  A$main$1718                        main
     00005283  A$main$1719                        main
     00005285  A$main$1720                        main
     00005287  A$main$1721                        main
     00005289  A$main$1722                        main
ASxxxx Linker V03.00 + NoICE + sdld,  page 57.
Hexadecimal  [32-Bits]

Area                                    Addr        Size        Decimal Bytes (Attributes)
--------------------------------        ----        ----        ------- ----- ------------
_CODE                               00000200    000082A2 =       33442. bytes (REL,CON)

      Value  Global                              Global Defined In Module
      -----  --------------------------------   ------------------------
     0000528A  A$main$1723                        main
     0000528B  A$main$1724                        main
     0000528C  A$main$1725                        main
     0000528D  A$main$1726                        main
     0000528E  A$main$1727                        main
     0000528F  A$main$1728                        main
     00005290  A$main$1729                        main
     00005291  A$main$1730                        main
     00005292  A$main$1731                        main
     00005293  A$main$1732                        main
     00005294  A$main$1733                        main
     00005295  A$main$1737                        main
     00005295  C$main.c$318$2$184                 main
     00005298  A$main$1738                        main
     00005299  A$main$1739                        main
     0000529B  A$main$1740                        main
     0000529E  A$main$1741                        main
     0000529F  A$main$1742                        main
     000052A1  A$main$1747                        main
     000052A1  C$main.c$320$3$185                 main
     000052A4  A$main$1748                        main
     000052A6  A$main$1749                        main
     000052A9  A$main$1750                        main
     000052AC  A$main$1751                        main
     000052AE  A$main$1752                        main
     000052B1  A$main$1753                        main
     000052B4  A$main$1754                        main
     000052B7  A$main$1755                        main
     000052BA  A$main$1756                        main
     000052BD  A$main$1757                        main
     000052BF  A$main$1758                        main
     000052C1  A$main$1760                        main
     000052C5  A$main$1761                        main
     000052C9  A$main$1763                        main
     000052CA  A$main$1764                        main
     000052CC  A$main$1765                        main
     000052CD  A$main$1766                        main
     000052D0  A$main$1767                        main
     000052D3  A$main$1768                        main
     000052D4  A$main$1769                        main
     000052D6  A$main$1770                        main
     000052D7  A$main$1771                        main
     000052D8  A$main$1772                        main
     000052DC  A$main$1773                        main
     000052DE  A$main$1774                        main
     000052DF  A$main$1775                        main
     000052E1  A$main$1776                        main
     000052E2  A$main$1777                        main
     000052E3  A$main$1778                        main
     000052E6  A$main$1779                        main
     000052E9  A$main$1780                        main
ASxxxx Linker V03.00 + NoICE + sdld,  page 58.
Hexadecimal  [32-Bits]

Area                                    Addr        Size        Decimal Bytes (Attributes)
--------------------------------        ----        ----        ------- ----- ------------
_CODE                               00000200    000082A2 =       33442. bytes (REL,CON)

      Value  Global                              Global Defined In Module
      -----  --------------------------------   ------------------------
     000052EA  A$main$1781                        main
     000052EC  A$main$1782                        main
     000052EF  A$main$1783                        main
     000052F0  A$main$1784                        main
     000052F1  A$main$1785                        main
     000052F2  A$main$1786                        main
     000052F5  A$main$1787                        main
     000052F6  A$main$1788                        main
     000052F7  A$main$1793                        main
     000052F7  C$main.c$324$2$184                 main
     000052FA  A$main$1794                        main
     000052FD  A$main$1798                        main
     000052FD  C$main.c$326$1$183                 main
     00005300  A$main$1799                        main
     00005302  A$main$1800                        main
     00005306  A$main$1801                        main
     00005307  A$main$1802                        main
     00005309  A$main$1804                        main
     0000530D  A$main$1806                        main
     0000530E  A$main$1807                        main
     00005310  A$main$1811                        main
     00005310  C$main.c$327$2$184                 main
     00005313  A$main$1812                        main
     00005316  A$main$1813                        main
     00005318  A$main$1814                        main
     0000531A  A$main$1816                        main
     0000531E  A$main$1817                        main
     00005322  A$main$1819                        main
     00005323  A$main$1820                        main
     00005325  A$main$1821                        main
     00005328  A$main$1822                        main
     0000532A  A$main$1823                        main
     0000532B  A$main$1824                        main
     0000532D  A$main$1825                        main
     0000532E  A$main$1826                        main
     00005330  A$main$1827                        main
     00005331  A$main$1828                        main
     00005334  A$main$1829                        main
     00005337  A$main$1830                        main
     00005339  A$main$1831                        main
     0000533D  A$main$1832                        main
     0000533F  A$main$1833                        main
     00005340  A$main$1834                        main
     00005343  A$main$1835                        main
     00005346  A$main$1836                        main
     00005349  A$main$1840                        main
     00005349  C$main.c$329$2$184                 main
     0000534C  A$main$1841                        main
     0000534F  A$main$1842                        main
     00005351  A$main$1843                        main
     00005354  A$main$1844                        main
ASxxxx Linker V03.00 + NoICE + sdld,  page 59.
Hexadecimal  [32-Bits]

Area                                    Addr        Size        Decimal Bytes (Attributes)
--------------------------------        ----        ----        ------- ----- ------------
_CODE                               00000200    000082A2 =       33442. bytes (REL,CON)

      Value  Global                              Global Defined In Module
      -----  --------------------------------   ------------------------
     00005357  A$main$1845                        main
     00005359  A$main$1846                        main
     0000535C  A$main$1847                        main
     0000535F  A$main$1848                        main
     00005361  A$main$1849                        main
     00005364  A$main$1850                        main
     00005367  A$main$1851                        main
     00005369  A$main$1860                        main
     00005369  C$main.c$330$2$184                 main
     00005369  C$main.c$331$2$184                 main
     0000536C  A$main$1861                        main
     0000536F  A$main$1862                        main
     00005370  A$main$1866                        main
     00005370  C$main.c$332$2$184                 main
     00005371  A$main$1867                        main
     00005374  A$main$1868                        main
     00005375  A$main$1869                        main
     00005378  A$main$1870                        main
     0000537B  A$main$1871                        main
     0000537D  A$main$1873                        main
     00005380  A$main$1877                        main
     00005380  C$main.c$334$3$186                 main
     00005383  A$main$1878                        main
     00005386  A$main$1879                        main
     00005389  A$main$1880                        main
     0000538C  A$main$1881                        main
     0000538F  A$main$1882                        main
     00005392  A$main$1886                        main
     00005392  C$main.c$335$3$186                 main
     00005395  A$main$1887                        main
     00005398  A$main$1888                        main
     00005399  A$main$1889                        main
     0000539A  A$main$1890                        main
     0000539B  A$main$1891                        main
     0000539E  A$main$1892                        main
     0000539F  A$main$1893                        main
     000053A2  A$main$1894                        main
     000053A5  A$main$1895                        main
     000053A6  A$main$1896                        main
     000053A9  A$main$1901                        main
     000053A9  C$main.c$337$2$184                 main
     000053AA  A$main$1902                        main
     000053AB  A$main$1903                        main
     000053AC  A$main$1904                        main
     000053AD  A$main$1905                        main
     000053B0  A$main$1906                        main
     000053B2  A$main$1908                        main
     000053B5  A$main$1912                        main
     000053B5  C$main.c$339$3$187                 main
     000053B8  A$main$1913                        main
     000053B9  A$main$1914                        main
ASxxxx Linker V03.00 + NoICE + sdld,  page 60.
Hexadecimal  [32-Bits]

Area                                    Addr        Size        Decimal Bytes (Attributes)
--------------------------------        ----        ----        ------- ----- ------------
_CODE                               00000200    000082A2 =       33442. bytes (REL,CON)

      Value  Global                              Global Defined In Module
      -----  --------------------------------   ------------------------
     000053BC  A$main$1915                        main
     000053BF  A$main$1916                        main
     000053C0  A$main$1917                        main
     000053C3  A$main$1921                        main
     000053C3  C$main.c$340$3$187                 main
     000053C6  A$main$1922                        main
     000053C9  A$main$1923                        main
     000053CA  A$main$1924                        main
     000053CB  A$main$1925                        main
     000053CC  A$main$1926                        main
     000053CF  A$main$1927                        main
     000053D0  A$main$1928                        main
     000053D3  A$main$1929                        main
     000053D6  A$main$1930                        main
     000053D7  A$main$1931                        main
     000053DA  A$main$1932                        main
     000053DD  A$main$1937                        main
     000053DD  C$main.c$344$1$183                 main
     000053E0  A$main$1938                        main
     000053E1  A$main$1939                        main
     000053E5  A$main$1940                        main
     000053E8  A$main$1941                        main
     000053EB  A$main$1942                        main
     000053ED  A$main$1943                        main
     000053EF  A$main$1944                        main
     000053F0  A$main$1945                        main
     000053F1  A$main$1946                        main
     000053F2  A$main$1947                        main
     000053F4  A$main$1948                        main
     000053F7  A$main$1949                        main
     000053F8  A$main$1950                        main
     000053F9  A$main$1951                        main
     000053FA  A$main$1955                        main
     000053FA  C$main.c$345$1$183                 main
     000053FD  A$main$1956                        main
     000053FF  A$main$1957                        main
     00005401  A$main$1962                        main
     00005401  C$main.c$346$1$183                 main
     00005401  XFmain$drawLineSync$0$0            main
     00005402  A$main$1972                        main
     00005402  C$main.c$348$1$183                 main
     00005402  G$updateDisplay$0$0                main
     00005402  _updateDisplay                     main
     00005404  A$main$1973                        main
     00005408  A$main$1974                        main
     0000540A  A$main$1978                        main
     0000540A  C$main.c$353$1$189                 main
     0000540D  A$main$1979                        main
     0000540E  A$main$1980                        main
     00005410  A$main$1984                        main
     00005410  C$main.c$355$2$190                 main
ASxxxx Linker V03.00 + NoICE + sdld,  page 61.
Hexadecimal  [32-Bits]

Area                                    Addr        Size        Decimal Bytes (Attributes)
--------------------------------        ----        ----        ------- ----- ------------
_CODE                               00000200    000082A2 =       33442. bytes (REL,CON)

      Value  Global                              Global Defined In Module
      -----  --------------------------------   ------------------------
     00005413  A$main$1985                        main
     00005414  A$main$1986                        main
     00005415  A$main$1987                        main
     00005416  A$main$1988                        main
     00005419  A$main$1989                        main
     0000541A  A$main$1990                        main
     0000541C  A$main$1995                        main
     0000541C  C$main.c$359$2$191                 main
     0000541F  A$main$1996                        main
     00005421  A$main$1997                        main
     00005422  A$main$1998                        main
     00005425  A$main$1999                        main
     00005427  A$main$2000                        main
     00005428  A$main$2001                        main
     0000542B  A$main$2002                        main
     0000542C  A$main$2003                        main
     0000542D  A$main$2004                        main
     0000542E  A$main$2005                        main
     0000542F  A$main$2006                        main
     00005430  A$main$2007                        main
     00005433  A$main$2008                        main
     00005434  A$main$2009                        main
     00005435  A$main$2014                        main
     00005435  C$main.c$362$1$189                 main
     00005438  A$main$2015                        main
     00005439  A$main$2016                        main
     0000543B  A$main$2020                        main
     0000543B  C$main.c$364$2$192                 main
     0000543E  A$main$2021                        main
     00005441  A$main$2022                        main
     00005442  A$main$2023                        main
     00005445  A$main$2024                        main
     00005448  A$main$2025                        main
     00005449  A$main$2026                        main
     0000544C  A$main$2027                        main
     0000544D  A$main$2028                        main
     0000544E  A$main$2032                        main
     0000544E  C$main.c$367$2$192                 main
     00005451  A$main$2033                        main
     00005452  A$main$2034                        main
     00005454  A$main$2035                        main
     00005457  A$main$2036                        main
     00005458  A$main$2037                        main
     0000545A  A$main$2042                        main
     0000545A  C$main.c$369$3$193                 main
     0000545D  A$main$2043                        main
     0000545E  A$main$2044                        main
     00005460  A$main$2048                        main
     00005460  C$main.c$371$4$194                 main
     00005463  A$main$2049                        main
     00005466  A$main$2050                        main
ASxxxx Linker V03.00 + NoICE + sdld,  page 62.
Hexadecimal  [32-Bits]

Area                                    Addr        Size        Decimal Bytes (Attributes)
--------------------------------        ----        ----        ------- ----- ------------
_CODE                               00000200    000082A2 =       33442. bytes (REL,CON)

      Value  Global                              Global Defined In Module
      -----  --------------------------------   ------------------------
     00005467  A$main$2051                        main
     0000546A  A$main$2052                        main
     0000546D  A$main$2053                        main
     0000546E  A$main$2054                        main
     00005471  A$main$2055                        main
     00005474  A$main$2056                        main
     00005475  A$main$2057                        main
     00005478  A$main$2058                        main
     0000547B  A$main$2059                        main
     0000547C  A$main$2060                        main
     0000547F  A$main$2061                        main
     00005482  A$main$2062                        main
     00005483  A$main$2063                        main
     00005484  A$main$2064                        main
     00005486  A$main$2069                        main
     00005486  C$main.c$375$4$195                 main
     00005489  A$main$2070                        main
     0000548C  A$main$2071                        main
     0000548D  A$main$2072                        main
     00005490  A$main$2073                        main
     00005493  A$main$2074                        main
     00005494  A$main$2075                        main
     00005497  A$main$2076                        main
     0000549A  A$main$2077                        main
     0000549B  A$main$2078                        main
     0000549E  A$main$2079                        main
     000054A1  A$main$2080                        main
     000054A2  A$main$2081                        main
     000054A5  A$main$2082                        main
     000054A8  A$main$2083                        main
     000054A9  A$main$2084                        main
     000054AA  A$main$2089                        main
     000054AA  C$main.c$381$1$189                 main
     000054AD  A$main$2090                        main
     000054AF  A$main$2094                        main
     000054AF  C$main.c$382$1$189                 main
     000054B2  A$main$2095                        main
     000054B4  A$main$2099                        main
     000054B4  C$main.c$383$1$189                 main
     000054B5  A$main$2100                        main
     000054B6  A$main$2101                        main
     000054B9  A$main$2102                        main
     000054BA  A$main$2103                        main
     000054BB  A$main$2104                        main
     000054BE  A$main$2105                        main
     000054BF  A$main$2106                        main
     000054C0  A$main$2107                        main
     000054C1  A$main$2108                        main
     000054C4  A$main$2109                        main
     000054C5  A$main$2110                        main
     000054C6  A$main$2111                        main
ASxxxx Linker V03.00 + NoICE + sdld,  page 63.
Hexadecimal  [32-Bits]

Area                                    Addr        Size        Decimal Bytes (Attributes)
--------------------------------        ----        ----        ------- ----- ------------
_CODE                               00000200    000082A2 =       33442. bytes (REL,CON)

      Value  Global                              Global Defined In Module
      -----  --------------------------------   ------------------------
     000054C7  A$main$2112                        main
     000054C8  A$main$2116                        main
     000054C8  C$main.c$384$1$189                 main
     000054C9  A$main$2117                        main
     000054CC  A$main$2118                        main
     000054CD  A$main$2119                        main
     000054D0  A$main$2120                        main
     000054D1  A$main$2121                        main
     000054D2  A$main$2122                        main
     000054D3  A$main$2123                        main
     000054D4  A$main$2124                        main
     000054D5  A$main$2125                        main
     000054D6  A$main$2126                        main
     000054D7  A$main$2127                        main
     000054D8  A$main$2128                        main
     000054D9  A$main$2129                        main
     000054DC  A$main$2130                        main
     000054DD  A$main$2131                        main
     000054DE  A$main$2135                        main
     000054DE  C$main.c$386$1$189                 main
     000054E1  A$main$2136                        main
     000054E3  A$main$2140                        main
     000054E3  C$main.c$387$1$189                 main
     000054E6  A$main$2141                        main
     000054E8  A$main$2145                        main
     000054E8  C$main.c$388$1$189                 main
     000054EB  A$main$2146                        main
     000054EE  A$main$2147                        main
     000054EF  A$main$2148                        main
     000054F0  A$main$2149                        main
     000054F1  A$main$2150                        main
     000054F2  A$main$2151                        main
     000054F5  A$main$2152                        main
     000054F6  A$main$2153                        main
     000054F7  A$main$2154                        main
     000054F8  A$main$2158                        main
     000054F8  C$main.c$389$1$189                 main
     000054FB  A$main$2159                        main
     000054FC  A$main$2160                        main
     000054FF  A$main$2161                        main
     00005500  A$main$2162                        main
     00005503  A$main$2163                        main
     00005504  A$main$2164                        main
     00005505  A$main$2165                        main
     00005506  A$main$2166                        main
     00005507  A$main$2167                        main
     00005508  A$main$2168                        main
     00005509  A$main$2169                        main
     0000550A  A$main$2170                        main
     0000550B  A$main$2171                        main
     0000550C  A$main$2172                        main
ASxxxx Linker V03.00 + NoICE + sdld,  page 64.
Hexadecimal  [32-Bits]

Area                                    Addr        Size        Decimal Bytes (Attributes)
--------------------------------        ----        ----        ------- ----- ------------
_CODE                               00000200    000082A2 =       33442. bytes (REL,CON)

      Value  Global                              Global Defined In Module
      -----  --------------------------------   ------------------------
     0000550F  A$main$2173                        main
     00005510  A$main$2174                        main
     00005511  A$main$2175                        main
     00005513  A$main$2180                        main
     00005513  C$main.c$390$1$189                 main
     00005513  XG$updateDisplay$0$0               main
     00005514  A$main$2190                        main
     00005514  C$main.c$411$1$189                 main
     00005514  G$stepIt$0$0                       main
     00005514  _stepIt                            main
     00005516  A$main$2191                        main
     0000551A  A$main$2192                        main
     0000551C  A$main$2193                        main
     0000551D  A$main$2197                        main
     0000551D  C$main.c$413$1$198                 main
     00005520  A$main$2198                        main
     00005523  A$main$2199                        main
     00005524  A$main$2200                        main
     00005525  A$main$2201                        main
     00005526  A$main$2202                        main
     00005527  A$main$2203                        main
     00005528  A$main$2204                        main
     0000552B  A$main$2205                        main
     0000552E  A$main$2206                        main
     00005531  A$main$2207                        main
     00005534  A$main$2208                        main
     00005535  A$main$2209                        main
     00005536  A$main$2210                        main
     00005537  A$main$2211                        main
     00005538  A$main$2212                        main
     00005539  A$main$2213                        main
     0000553A  A$main$2214                        main
     0000553B  A$main$2215                        main
     0000553C  A$main$2216                        main
     0000553D  A$main$2217                        main
     0000553E  A$main$2218                        main
     0000553F  A$main$2219                        main
     00005540  A$main$2220                        main
     00005541  A$main$2224                        main
     00005541  C$main.c$414$1$198                 main
     00005543  A$main$2225                        main
     00005545  A$main$2229                        main
     00005545  C$main.c$416$2$199                 main
     00005546  A$main$2230                        main
     00005547  A$main$2231                        main
     00005548  A$main$2232                        main
     00005549  A$main$2233                        main
     0000554A  A$main$2234                        main
     0000554B  A$main$2235                        main
     0000554C  A$main$2236                        main
     0000554D  A$main$2237                        main
ASxxxx Linker V03.00 + NoICE + sdld,  page 65.
Hexadecimal  [32-Bits]

Area                                    Addr        Size        Decimal Bytes (Attributes)
--------------------------------        ----        ----        ------- ----- ------------
_CODE                               00000200    000082A2 =       33442. bytes (REL,CON)

      Value  Global                              Global Defined In Module
      -----  --------------------------------   ------------------------
     0000554F  A$main$2238                        main
     00005550  A$main$2239                        main
     00005551  A$main$2240                        main
     00005552  A$main$2241                        main
     00005553  A$main$2242                        main
     00005554  A$main$2243                        main
     00005555  A$main$2244                        main
     00005556  A$main$2248                        main
     00005556  C$main.c$417$2$199                 main
     00005557  A$main$2249                        main
     00005558  A$main$2250                        main
     00005559  A$main$2251                        main
     0000555A  A$main$2252                        main
     0000555B  A$main$2253                        main
     0000555C  A$main$2254                        main
     0000555D  A$main$2255                        main
     0000555E  A$main$2256                        main
     00005560  A$main$2257                        main
     00005561  A$main$2258                        main
     00005562  A$main$2259                        main
     00005563  A$main$2260                        main
     00005564  A$main$2261                        main
     00005565  A$main$2262                        main
     00005566  A$main$2263                        main
     00005567  A$main$2268                        main
     00005567  C$main.c$419$1$198                 main
     00005568  A$main$2269                        main
     00005569  A$main$2270                        main
     0000556A  A$main$2271                        main
     0000556B  A$main$2272                        main
     0000556C  A$main$2273                        main
     0000556D  A$main$2274                        main
     00005570  A$main$2275                        main
     00005571  A$main$2276                        main
     00005574  A$main$2277                        main
     00005577  A$main$2278                        main
     00005579  A$main$2280                        main
     0000557C  A$main$2284                        main
     0000557C  C$main.c$421$2$200                 main
     0000557D  A$main$2285                        main
     0000557E  A$main$2286                        main
     0000557F  A$main$2287                        main
     00005580  A$main$2288                        main
     00005581  A$main$2289                        main
     00005582  A$main$2290                        main
     00005583  A$main$2291                        main
     00005584  A$main$2292                        main
     00005586  A$main$2293                        main
     00005587  A$main$2294                        main
     00005588  A$main$2295                        main
     00005589  A$main$2296                        main
ASxxxx Linker V03.00 + NoICE + sdld,  page 66.
Hexadecimal  [32-Bits]

Area                                    Addr        Size        Decimal Bytes (Attributes)
--------------------------------        ----        ----        ------- ----- ------------
_CODE                               00000200    000082A2 =       33442. bytes (REL,CON)

      Value  Global                              Global Defined In Module
      -----  --------------------------------   ------------------------
     0000558A  A$main$2297                        main
     0000558B  A$main$2298                        main
     0000558C  A$main$2299                        main
     0000558D  A$main$2303                        main
     0000558D  C$main.c$422$2$200                 main
     0000558E  A$main$2304                        main
     0000558F  A$main$2305                        main
     00005590  A$main$2306                        main
     00005591  A$main$2307                        main
     00005592  A$main$2308                        main
     00005593  A$main$2309                        main
     00005596  A$main$2310                        main
     00005597  A$main$2311                        main
     00005598  A$main$2312                        main
     0000559B  A$main$2313                        main
     0000559C  A$main$2314                        main
     0000559F  A$main$2315                        main
     000055A0  A$main$2316                        main
     000055A1  A$main$2317                        main
     000055A4  A$main$2318                        main
     000055A5  A$main$2319                        main
     000055A6  A$main$2320                        main
     000055A7  A$main$2321                        main
     000055A8  A$main$2322                        main
     000055A9  A$main$2323                        main
     000055AA  A$main$2324                        main
     000055AB  A$main$2325                        main
     000055AC  A$main$2327                        main
     000055AE  A$main$2328                        main
     000055B0  A$main$2333                        main
     000055B0  C$main.c$424$1$198                 main
     000055B0  XG$stepIt$0$0                      main
     000055B1  A$main$2343                        main
     000055B1  C$main.c$426$1$198                 main
     000055B1  G$effect2$0$0                      main
     000055B1  _effect2                           main
     000055B3  A$main$2344                        main
     000055B7  A$main$2345                        main
     000055B9  A$main$2346                        main
     000055BC  A$main$2347                        main
     000055BD  A$main$2348                        main
     000055BE  A$main$2352                        main
     000055BE  C$main.c$434$1$202                 main
     000055C1  A$main$2356                        main
     000055C1  C$main.c$435$1$202                 main
     000055C5  A$main$2357                        main
     000055C9  A$main$2361                        main
     000055CC  A$main$2363                        main
     000055CD  A$main$2364                        main
     000055CF  A$main$2365                        main
     000055D2  A$main$2366                        main
ASxxxx Linker V03.00 + NoICE + sdld,  page 67.
Hexadecimal  [32-Bits]

Area                                    Addr        Size        Decimal Bytes (Attributes)
--------------------------------        ----        ----        ------- ----- ------------
_CODE                               00000200    000082A2 =       33442. bytes (REL,CON)

      Value  Global                              Global Defined In Module
      -----  --------------------------------   ------------------------
     000055D5  A$main$2367                        main
     000055D6  A$main$2368                        main
     000055D9  A$main$2372                        main
     000055D9  C$main.c$440$3$204                 main
     000055DA  A$main$2373                        main
     000055DB  A$main$2374                        main
     000055DD  A$main$2375                        main
     000055DF  A$main$2376                        main
     000055E2  A$main$2377                        main
     000055E3  A$main$2378                        main
     000055E4  A$main$2379                        main
     000055E7  A$main$2380                        main
     000055E8  A$main$2381                        main
     000055E9  A$main$2382                        main
     000055EC  A$main$2383                        main
     000055ED  A$main$2384                        main
     000055EE  A$main$2385                        main
     000055EF  A$main$2386                        main
     000055F0  A$main$2387                        main
     000055F2  A$main$2388                        main
     000055F4  A$main$2389                        main
     000055F5  A$main$2390                        main
     000055F7  A$main$2391                        main
     000055F8  A$main$2392                        main
     000055F9  A$main$2393                        main
     000055FA  A$main$2394                        main
     000055FC  A$main$2395                        main
     000055FF  A$main$2396                        main
     00005600  A$main$2397                        main
     00005602  A$main$2398                        main
     00005605  A$main$2399                        main
     00005608  A$main$2400                        main
     00005609  A$main$2401                        main
     0000560A  A$main$2402                        main
     0000560B  A$main$2403                        main
     0000560E  A$main$2404                        main
     0000560F  A$main$2405                        main
     00005610  A$main$2406                        main
     00005611  A$main$2407                        main
     00005612  A$main$2408                        main
     00005613  A$main$2409                        main
     00005616  A$main$2410                        main
     00005617  A$main$2411                        main
     00005618  A$main$2412                        main
     00005619  A$main$2413                        main
     0000561A  A$main$2414                        main
     0000561C  A$main$2415                        main
     0000561E  A$main$2416                        main
     00005620  A$main$2417                        main
     00005621  A$main$2418                        main
     00005623  A$main$2419                        main
ASxxxx Linker V03.00 + NoICE + sdld,  page 68.
Hexadecimal  [32-Bits]

Area                                    Addr        Size        Decimal Bytes (Attributes)
--------------------------------        ----        ----        ------- ----- ------------
_CODE                               00000200    000082A2 =       33442. bytes (REL,CON)

      Value  Global                              Global Defined In Module
      -----  --------------------------------   ------------------------
     00005624  A$main$2420                        main
     00005625  A$main$2421                        main
     00005628  A$main$2422                        main
     00005629  A$main$2423                        main
     0000562A  A$main$2424                        main
     0000562D  A$main$2425                        main
     0000562E  A$main$2426                        main
     00005631  A$main$2427                        main
     00005634  A$main$2431                        main
     00005634  C$main.c$441$3$204                 main
     00005637  A$main$2432                        main
     0000563A  A$main$2433                        main
     0000563B  A$main$2434                        main
     0000563C  A$main$2435                        main
     0000563D  A$main$2436                        main
     0000563E  A$main$2437                        main
     0000563F  A$main$2438                        main
     00005642  A$main$2439                        main
     00005643  A$main$2440                        main
     00005644  A$main$2441                        main
     00005645  A$main$2442                        main
     00005646  A$main$2443                        main
     00005647  A$main$2444                        main
     00005649  A$main$2445                        main
     0000564A  A$main$2446                        main
     0000564C  A$main$2447                        main
     0000564E  A$main$2448                        main
     00005650  A$main$2449                        main
     00005651  A$main$2450                        main
     00005653  A$main$2451                        main
     00005654  A$main$2452                        main
     00005655  A$main$2453                        main
     00005656  A$main$2454                        main
     00005658  A$main$2455                        main
     0000565B  A$main$2456                        main
     0000565C  A$main$2457                        main
     0000565E  A$main$2458                        main
     00005661  A$main$2459                        main
     00005662  A$main$2460                        main
     00005665  A$main$2461                        main
     00005666  A$main$2462                        main
     00005667  A$main$2463                        main
     00005668  A$main$2464                        main
     00005669  A$main$2465                        main
     0000566A  A$main$2466                        main
     0000566B  A$main$2467                        main
     0000566C  A$main$2468                        main
     0000566D  A$main$2469                        main
     0000566E  A$main$2470                        main
     0000566F  A$main$2471                        main
     00005672  A$main$2472                        main
ASxxxx Linker V03.00 + NoICE + sdld,  page 69.
Hexadecimal  [32-Bits]

Area                                    Addr        Size        Decimal Bytes (Attributes)
--------------------------------        ----        ----        ------- ----- ------------
_CODE                               00000200    000082A2 =       33442. bytes (REL,CON)

      Value  Global                              Global Defined In Module
      -----  --------------------------------   ------------------------
     00005673  A$main$2473                        main
     00005674  A$main$2474                        main
     00005675  A$main$2475                        main
     00005676  A$main$2476                        main
     00005678  A$main$2477                        main
     0000567A  A$main$2478                        main
     0000567C  A$main$2479                        main
     0000567E  A$main$2480                        main
     0000567F  A$main$2481                        main
     00005681  A$main$2482                        main
     00005682  A$main$2483                        main
     00005683  A$main$2484                        main
     00005686  A$main$2485                        main
     00005687  A$main$2486                        main
     00005688  A$main$2487                        main
     0000568B  A$main$2488                        main
     0000568C  A$main$2489                        main
     0000568D  A$main$2490                        main
     0000568E  A$main$2491                        main
     0000568F  A$main$2492                        main
     00005690  A$main$2496                        main
     00005690  C$main.c$443$3$204                 main
     00005691  A$main$2497                        main
     00005692  A$main$2498                        main
     00005694  A$main$2502                        main
     00005694  C$main.c$445$4$205                 main
     00005695  A$main$2503                        main
     00005697  A$main$2504                        main
     00005698  A$main$2505                        main
     00005699  A$main$2506                        main
     0000569C  A$main$2507                        main
     0000569F  A$main$2508                        main
     000056A0  A$main$2509                        main
     000056A3  A$main$2510                        main
     000056A6  A$main$2511                        main
     000056A7  A$main$2512                        main
     000056AA  A$main$2513                        main
     000056AD  A$main$2514                        main
     000056AE  A$main$2515                        main
     000056AF  A$main$2516                        main
     000056B2  A$main$2517                        main
     000056B5  A$main$2518                        main
     000056B6  A$main$2519                        main
     000056B7  A$main$2520                        main
     000056B8  A$main$2525                        main
     000056B8  C$main.c$448$3$204                 main
     000056BB  A$main$2526                        main
     000056BE  A$main$2530                        main
     000056BE  C$main.c$449$3$204                 main
     000056C1  A$main$2531                        main
     000056C4  A$main$2532                        main
ASxxxx Linker V03.00 + NoICE + sdld,  page 70.
Hexadecimal  [32-Bits]

Area                                    Addr        Size        Decimal Bytes (Attributes)
--------------------------------        ----        ----        ------- ----- ------------
_CODE                               00000200    000082A2 =       33442. bytes (REL,CON)

      Value  Global                              Global Defined In Module
      -----  --------------------------------   ------------------------
     000056C7  A$main$2533                        main
     000056CA  A$main$2537                        main
     000056CA  C$main.c$437$2$203                 main
     000056CB  A$main$2538                        main
     000056CE  A$main$2540                        main
     000056D0  A$main$2541                        main
     000056D2  A$main$2546                        main
     000056D2  C$main.c$451$2$203                 main
     000056D2  XG$effect2$0$0                     main
     000056D3  A$main$2556                        main
     000056D3  C$main.c$453$2$203                 main
     000056D3  G$effect3$0$0                      main
     000056D3  _effect3                           main
     000056D5  A$main$2557                        main
     000056D9  A$main$2558                        main
     000056DB  A$main$2559                        main
     000056DE  A$main$2560                        main
     000056DF  A$main$2561                        main
     000056E0  A$main$2565                        main
     000056E0  C$main.c$461$1$207                 main
     000056E3  A$main$2569                        main
     000056E3  C$main.c$462$1$207                 main
     000056E7  A$main$2570                        main
     000056EB  A$main$2574                        main
     000056EE  A$main$2576                        main
     000056EF  A$main$2577                        main
     000056F1  A$main$2578                        main
     000056F4  A$main$2579                        main
     000056F7  A$main$2580                        main
     000056F8  A$main$2581                        main
     000056FB  A$main$2585                        main
     000056FB  C$main.c$467$3$209                 main
     000056FE  A$main$2586                        main
     000056FF  A$main$2587                        main
     00005700  A$main$2588                        main
     00005703  A$main$2589                        main
     00005704  A$main$2590                        main
     00005705  A$main$2591                        main
     00005708  A$main$2592                        main
     00005709  A$main$2593                        main
     0000570A  A$main$2594                        main
     0000570B  A$main$2595                        main
     0000570C  A$main$2596                        main
     0000570E  A$main$2597                        main
     00005710  A$main$2598                        main
     00005712  A$main$2599                        main
     00005715  A$main$2600                        main
     00005717  A$main$2601                        main
     00005718  A$main$2602                        main
     0000571B  A$main$2603                        main
     0000571C  A$main$2604                        main
ASxxxx Linker V03.00 + NoICE + sdld,  page 71.
Hexadecimal  [32-Bits]

Area                                    Addr        Size        Decimal Bytes (Attributes)
--------------------------------        ----        ----        ------- ----- ------------
_CODE                               00000200    000082A2 =       33442. bytes (REL,CON)

      Value  Global                              Global Defined In Module
      -----  --------------------------------   ------------------------
     0000571F  A$main$2605                        main
     00005720  A$main$2606                        main
     00005721  A$main$2607                        main
     00005722  A$main$2608                        main
     00005723  A$main$2609                        main
     00005726  A$main$2610                        main
     00005727  A$main$2611                        main
     00005728  A$main$2612                        main
     0000572A  A$main$2613                        main
     0000572C  A$main$2614                        main
     0000572F  A$main$2615                        main
     00005730  A$main$2616                        main
     00005733  A$main$2617                        main
     00005734  A$main$2618                        main
     00005735  A$main$2619                        main
     00005738  A$main$2620                        main
     00005739  A$main$2621                        main
     0000573A  A$main$2622                        main
     0000573D  A$main$2623                        main
     0000573E  A$main$2624                        main
     0000573F  A$main$2625                        main
     00005740  A$main$2626                        main
     00005741  A$main$2627                        main
     00005743  A$main$2628                        main
     00005745  A$main$2629                        main
     00005746  A$main$2630                        main
     00005748  A$main$2631                        main
     00005749  A$main$2632                        main
     0000574A  A$main$2633                        main
     0000574D  A$main$2634                        main
     0000574E  A$main$2635                        main
     0000574F  A$main$2636                        main
     00005752  A$main$2637                        main
     00005753  A$main$2638                        main
     00005754  A$main$2639                        main
     00005755  A$main$2640                        main
     00005757  A$main$2641                        main
     0000575A  A$main$2642                        main
     0000575B  A$main$2643                        main
     0000575D  A$main$2644                        main
     00005760  A$main$2648                        main
     00005760  C$main.c$468$3$209                 main
     00005761  A$main$2649                        main
     00005762  A$main$2650                        main
     00005765  A$main$2651                        main
     00005766  A$main$2652                        main
     00005767  A$main$2653                        main
     0000576A  A$main$2654                        main
     0000576B  A$main$2655                        main
     0000576C  A$main$2656                        main
     0000576D  A$main$2657                        main
ASxxxx Linker V03.00 + NoICE + sdld,  page 72.
Hexadecimal  [32-Bits]

Area                                    Addr        Size        Decimal Bytes (Attributes)
--------------------------------        ----        ----        ------- ----- ------------
_CODE                               00000200    000082A2 =       33442. bytes (REL,CON)

      Value  Global                              Global Defined In Module
      -----  --------------------------------   ------------------------
     0000576E  A$main$2658                        main
     00005770  A$main$2659                        main
     00005772  A$main$2660                        main
     00005774  A$main$2661                        main
     00005777  A$main$2662                        main
     00005779  A$main$2663                        main
     0000577A  A$main$2664                        main
     0000577D  A$main$2665                        main
     0000577E  A$main$2666                        main
     0000577F  A$main$2667                        main
     00005782  A$main$2668                        main
     00005783  A$main$2669                        main
     00005784  A$main$2670                        main
     00005787  A$main$2671                        main
     00005788  A$main$2672                        main
     00005789  A$main$2673                        main
     0000578A  A$main$2674                        main
     0000578B  A$main$2675                        main
     0000578D  A$main$2676                        main
     0000578F  A$main$2677                        main
     00005790  A$main$2678                        main
     00005792  A$main$2679                        main
     00005793  A$main$2680                        main
     00005794  A$main$2681                        main
     00005797  A$main$2682                        main
     00005798  A$main$2683                        main
     00005799  A$main$2684                        main
     0000579C  A$main$2685                        main
     0000579D  A$main$2686                        main
     0000579E  A$main$2687                        main
     0000579F  A$main$2688                        main
     000057A1  A$main$2689                        main
     000057A4  A$main$2690                        main
     000057A5  A$main$2691                        main
     000057A7  A$main$2692                        main
     000057AA  A$main$2696                        main
     000057AA  C$main.c$470$3$209                 main
     000057AB  A$main$2697                        main
     000057AC  A$main$2698                        main
     000057AE  A$main$2702                        main
     000057AE  C$main.c$472$4$210                 main
     000057AF  A$main$2703                        main
     000057B1  A$main$2704                        main
     000057B2  A$main$2705                        main
     000057B3  A$main$2706                        main
     000057B6  A$main$2707                        main
     000057B9  A$main$2708                        main
     000057BA  A$main$2709                        main
     000057BD  A$main$2710                        main
     000057C0  A$main$2711                        main
     000057C1  A$main$2712                        main
ASxxxx Linker V03.00 + NoICE + sdld,  page 73.
Hexadecimal  [32-Bits]

Area                                    Addr        Size        Decimal Bytes (Attributes)
--------------------------------        ----        ----        ------- ----- ------------
_CODE                               00000200    000082A2 =       33442. bytes (REL,CON)

      Value  Global                              Global Defined In Module
      -----  --------------------------------   ------------------------
     000057C4  A$main$2713                        main
     000057C7  A$main$2714                        main
     000057C8  A$main$2715                        main
     000057C9  A$main$2716                        main
     000057CC  A$main$2717                        main
     000057CF  A$main$2718                        main
     000057D0  A$main$2719                        main
     000057D1  A$main$2720                        main
     000057D2  A$main$2725                        main
     000057D2  C$main.c$475$3$209                 main
     000057D3  A$main$2726                        main
     000057D4  A$main$2730                        main
     000057D4  C$main.c$476$3$209                 main
     000057D7  A$main$2731                        main
     000057DA  A$main$2732                        main
     000057DD  A$main$2733                        main
     000057E0  A$main$2737                        main
     000057E0  C$main.c$464$2$208                 main
     000057E1  A$main$2738                        main
     000057E4  A$main$2740                        main
     000057E6  A$main$2741                        main
     000057E8  A$main$2746                        main
     000057E8  C$main.c$478$2$208                 main
     000057E8  XG$effect3$0$0                     main
     000057E9  A$main$2756                        main
     000057E9  C$main.c$480$2$208                 main
     000057E9  G$effect4$0$0                      main
     000057E9  _effect4                           main
     000057EB  A$main$2757                        main
     000057EF  A$main$2758                        main
     000057F1  A$main$2759                        main
     000057F4  A$main$2760                        main
     000057F5  A$main$2761                        main
     000057F6  A$main$2765                        main
     000057F6  C$main.c$488$1$212                 main
     000057FA  A$main$2766                        main
     000057FE  A$main$2770                        main
     000057FE  C$main.c$489$1$212                 main
     00005802  A$main$2771                        main
     00005806  A$main$2775                        main
     00005809  A$main$2780                        main
     00005809  C$main.c$494$2$213                 main
     0000580A  A$main$2781                        main
     0000580B  A$main$2782                        main
     0000580C  A$main$2783                        main
     0000580D  A$main$2784                        main
     0000580E  A$main$2785                        main
     00005810  A$main$2786                        main
     00005811  A$main$2787                        main
     00005812  A$main$2788                        main
     00005813  A$main$2789                        main
ASxxxx Linker V03.00 + NoICE + sdld,  page 74.
Hexadecimal  [32-Bits]

Area                                    Addr        Size        Decimal Bytes (Attributes)
--------------------------------        ----        ----        ------- ----- ------------
_CODE                               00000200    000082A2 =       33442. bytes (REL,CON)

      Value  Global                              Global Defined In Module
      -----  --------------------------------   ------------------------
     00005814  A$main$2790                        main
     00005815  A$main$2791                        main
     00005816  A$main$2792                        main
     00005817  A$main$2793                        main
     0000581A  A$main$2794                        main
     0000581B  A$main$2795                        main
     0000581C  A$main$2796                        main
     0000581D  A$main$2797                        main
     0000581E  A$main$2798                        main
     00005820  A$main$2799                        main
     00005822  A$main$2800                        main
     00005823  A$main$2801                        main
     00005825  A$main$2802                        main
     00005826  A$main$2803                        main
     00005827  A$main$2804                        main
     00005828  A$main$2805                        main
     0000582A  A$main$2806                        main
     0000582D  A$main$2807                        main
     0000582E  A$main$2808                        main
     00005830  A$main$2809                        main
     00005833  A$main$2813                        main
     00005833  C$main.c$495$3$214                 main
     00005834  A$main$2814                        main
     00005835  A$main$2815                        main
     00005836  A$main$2816                        main
     00005837  A$main$2817                        main
     00005838  A$main$2818                        main
     00005839  A$main$2819                        main
     0000583A  A$main$2820                        main
     0000583B  A$main$2821                        main
     0000583C  A$main$2822                        main
     0000583F  A$main$2823                        main
     00005840  A$main$2824                        main
     00005841  A$main$2825                        main
     00005842  A$main$2826                        main
     00005844  A$main$2827                        main
     00005846  A$main$2828                        main
     00005847  A$main$2829                        main
     00005849  A$main$2830                        main
     0000584A  A$main$2831                        main
     0000584B  A$main$2832                        main
     0000584E  A$main$2833                        main
     0000584F  A$main$2837                        main
     0000584F  C$main.c$497$3$214                 main
     00005850  A$main$2838                        main
     00005851  A$main$2839                        main
     00005853  A$main$2843                        main
     00005853  C$main.c$499$4$215                 main
     00005854  A$main$2844                        main
     00005855  A$main$2845                        main
     00005856  A$main$2846                        main
ASxxxx Linker V03.00 + NoICE + sdld,  page 75.
Hexadecimal  [32-Bits]

Area                                    Addr        Size        Decimal Bytes (Attributes)
--------------------------------        ----        ----        ------- ----- ------------
_CODE                               00000200    000082A2 =       33442. bytes (REL,CON)

      Value  Global                              Global Defined In Module
      -----  --------------------------------   ------------------------
     00005859  A$main$2847                        main
     0000585C  A$main$2848                        main
     0000585D  A$main$2849                        main
     00005860  A$main$2850                        main
     00005863  A$main$2851                        main
     00005864  A$main$2852                        main
     00005867  A$main$2853                        main
     0000586A  A$main$2854                        main
     0000586B  A$main$2855                        main
     0000586E  A$main$2856                        main
     00005871  A$main$2857                        main
     00005872  A$main$2858                        main
     00005873  A$main$2859                        main
     00005874  A$main$2860                        main
     00005875  A$main$2865                        main
     00005875  C$main.c$502$3$214                 main
     00005878  A$main$2866                        main
     0000587B  A$main$2867                        main
     0000587E  A$main$2868                        main
     00005881  A$main$2872                        main
     00005881  C$main.c$503$3$214                 main
     00005884  A$main$2873                        main
     00005887  A$main$2877                        main
     00005887  C$main.c$491$2$213                 main
     00005888  A$main$2878                        main
     00005889  A$main$2879                        main
     0000588B  A$main$2880                        main
     0000588E  A$main$2881                        main
     00005890  A$main$2882                        main
     00005892  A$main$2887                        main
     00005892  C$main.c$505$2$213                 main
     00005892  XG$effect4$0$0                     main
     00005893  A$main$2897                        main
     00005893  C$main.c$507$2$213                 main
     00005893  G$effect1$0$0                      main
     00005893  _effect1                           main
     00005895  A$main$2898                        main
     00005899  A$main$2899                        main
     0000589B  A$main$2900                        main
     0000589E  A$main$2901                        main
     0000589F  A$main$2902                        main
     000058A0  A$main$2906                        main
     000058A0  C$main.c$509$1$213                 main
     000058A4  A$main$2907                        main
     000058A8  A$main$2908                        main
     000058AC  A$main$2909                        main
     000058B0  A$main$2910                        main
     000058B3  A$main$2911                        main
     000058B4  A$main$2912                        main
     000058B8  A$main$2913                        main
     000058BC  A$main$2917                        main
ASxxxx Linker V03.00 + NoICE + sdld,  page 76.
Hexadecimal  [32-Bits]

Area                                    Addr        Size        Decimal Bytes (Attributes)
--------------------------------        ----        ----        ------- ----- ------------
_CODE                               00000200    000082A2 =       33442. bytes (REL,CON)

      Value  Global                              Global Defined In Module
      -----  --------------------------------   ------------------------
     000058BC  C$main.c$510$1$213                 main
     000058C0  A$main$2918                        main
     000058C4  A$main$2919                        main
     000058C8  A$main$2920                        main
     000058CC  A$main$2921                        main
     000058D0  A$main$2922                        main
     000058D4  A$main$2923                        main
     000058D8  A$main$2924                        main
     000058DC  A$main$2928                        main
     000058E0  A$main$2929                        main
     000058E4  A$main$2934                        main
     000058E4  C$main.c$516$3$219                 main
     000058E7  A$main$2935                        main
     000058E8  A$main$2936                        main
     000058E9  A$main$2937                        main
     000058EA  A$main$2938                        main
     000058ED  A$main$2939                        main
     000058EE  A$main$2940                        main
     000058F1  A$main$2941                        main
     000058F2  A$main$2942                        main
     000058F3  A$main$2943                        main
     000058F4  A$main$2944                        main
     000058F7  A$main$2945                        main
     000058FA  A$main$2946                        main
     000058FB  A$main$2947                        main
     000058FC  A$main$2951                        main
     000058FC  C$main.c$517$3$219                 main
     000058FF  A$main$2952                        main
     00005900  A$main$2953                        main
     00005901  A$main$2954                        main
     00005902  A$main$2955                        main
     00005905  A$main$2956                        main
     00005906  A$main$2957                        main
     00005909  A$main$2958                        main
     0000590A  A$main$2959                        main
     0000590B  A$main$2960                        main
     0000590C  A$main$2961                        main
     0000590F  A$main$2962                        main
     00005912  A$main$2963                        main
     00005913  A$main$2964                        main
     00005914  A$main$2968                        main
     00005914  C$main.c$518$3$219                 main
     00005917  A$main$2969                        main
     00005918  A$main$2970                        main
     00005919  A$main$2971                        main
     0000591A  A$main$2972                        main
     0000591D  A$main$2973                        main
     0000591E  A$main$2974                        main
     00005921  A$main$2975                        main
     00005922  A$main$2976                        main
     00005923  A$main$2977                        main
ASxxxx Linker V03.00 + NoICE + sdld,  page 77.
Hexadecimal  [32-Bits]

Area                                    Addr        Size        Decimal Bytes (Attributes)
--------------------------------        ----        ----        ------- ----- ------------
_CODE                               00000200    000082A2 =       33442. bytes (REL,CON)

      Value  Global                              Global Defined In Module
      -----  --------------------------------   ------------------------
     00005924  A$main$2978                        main
     00005927  A$main$2979                        main
     0000592A  A$main$2980                        main
     0000592B  A$main$2981                        main
     0000592C  A$main$2985                        main
     0000592C  C$main.c$519$3$219                 main
     0000592F  A$main$2986                        main
     00005930  A$main$2987                        main
     00005931  A$main$2988                        main
     00005932  A$main$2989                        main
     00005935  A$main$2990                        main
     00005936  A$main$2991                        main
     00005939  A$main$2992                        main
     0000593A  A$main$2993                        main
     0000593B  A$main$2994                        main
     0000593C  A$main$2995                        main
     0000593F  A$main$2996                        main
     00005942  A$main$2997                        main
     00005943  A$main$2998                        main
     00005944  A$main$3002                        main
     00005944  C$main.c$521$3$219                 main
     00005947  A$main$3003                        main
     0000594A  A$main$3004                        main
     0000594B  A$main$3005                        main
     0000594C  A$main$3006                        main
     0000594D  A$main$3007                        main
     0000594E  A$main$3008                        main
     00005951  A$main$3009                        main
     00005954  A$main$3010                        main
     00005955  A$main$3011                        main
     00005958  A$main$3012                        main
     0000595B  A$main$3013                        main
     0000595C  A$main$3014                        main
     0000595F  A$main$3015                        main
     00005962  A$main$3016                        main
     00005963  A$main$3017                        main
     00005964  A$main$3021                        main
     00005964  C$main.c$513$2$218                 main
     00005967  A$main$3022                        main
     00005969  A$main$3023                        main
     0000596C  A$main$3025                        main
     0000596F  A$main$3026                        main
     00005971  A$main$3027                        main
     00005974  A$main$3028                        main
     00005975  A$main$3029                        main
     00005976  A$main$3030                        main
     00005977  A$main$3031                        main
     00005979  A$main$3032                        main
     0000597C  A$main$3033                        main
     0000597E  A$main$3034                        main
     00005980  A$main$3039                        main
ASxxxx Linker V03.00 + NoICE + sdld,  page 78.
Hexadecimal  [32-Bits]

Area                                    Addr        Size        Decimal Bytes (Attributes)
--------------------------------        ----        ----        ------- ----- ------------
_CODE                               00000200    000082A2 =       33442. bytes (REL,CON)

      Value  Global                              Global Defined In Module
      -----  --------------------------------   ------------------------
     00005980  C$main.c$523$2$218                 main
     00005980  XG$effect1$0$0                     main
     00005981  A$main$3052                        main
     00005981  C$main.c$574$2$218                 main
     00005981  C$main.c$580$1$221                 main
     00005981  G$runScript$0$0                    main
     00005981  _runScript                         main
     00005984  A$main$3056                        main
     00005984  C$main.c$582$1$221                 main
     00005987  A$main$3057                        main
     00005989  A$main$3061                        main
     00005989  C$main.c$583$1$221                 main
     0000598C  A$main$3066                        main
     0000598F  A$main$3067                        main
     00005990  A$main$3068                        main
     00005993  A$main$3072                        main
     00005993  C$main.c$586$3$223                 main
     00005994  A$main$3073                        main
     00005997  A$main$3074                        main
     00005998  A$main$3078                        main
     00005998  C$main.c$588$3$223                 main
     00005999  A$main$3079                        main
     0000599A  A$main$3080                        main
     0000599D  A$main$3081                        main
     0000599E  A$main$3082                        main
     0000599F  A$main$3083                        main
     000059A0  A$main$3084                        main
     000059A1  A$main$3085                        main
     000059A2  A$main$3086                        main
     000059A5  A$main$3087                        main
     000059A6  A$main$3088                        main
     000059A7  A$main$3089                        main
     000059A8  A$main$3090                        main
     000059A9  A$main$3091                        main
     000059AA  A$main$3092                        main
     000059AD  A$main$3096                        main
     000059AD  C$main.c$590$4$224                 main
     000059AE  A$main$3097                        main
     000059AF  A$main$3098                        main
     000059B0  A$main$3099                        main
     000059B1  A$main$3100                        main
     000059B2  A$main$3101                        main
     000059B4  A$main$3102                        main
     000059B7  A$main$3106                        main
     000059B7  C$main.c$593$5$225                 main
     000059B8  A$main$3107                        main
     000059BA  A$main$3108                        main
     000059BC  A$main$3109                        main
     000059BE  A$main$3110                        main
     000059C0  A$main$3111                        main
     000059C2  A$main$3112                        main
ASxxxx Linker V03.00 + NoICE + sdld,  page 79.
Hexadecimal  [32-Bits]

Area                                    Addr        Size        Decimal Bytes (Attributes)
--------------------------------        ----        ----        ------- ----- ------------
_CODE                               00000200    000082A2 =       33442. bytes (REL,CON)

      Value  Global                              Global Defined In Module
      -----  --------------------------------   ------------------------
     000059C4  A$main$3113                        main
     000059C6  A$main$3114                        main
     000059C9  A$main$3122                        main
     000059C9  C$main.c$595$6$226                 main
     000059C9  C$main.c$596$6$226                 main
     000059CA  A$main$3123                        main
     000059CB  A$main$3124                        main
     000059CE  A$main$3125                        main
     000059CF  A$main$3126                        main
     000059D0  A$main$3127                        main
     000059D1  A$main$3128                        main
     000059D2  A$main$3129                        main
     000059D5  A$main$3130                        main
     000059D6  A$main$3134                        main
     000059D6  C$main.c$597$6$226                 main
     000059D7  A$main$3135                        main
     000059D8  A$main$3136                        main
     000059DB  A$main$3137                        main
     000059DC  A$main$3138                        main
     000059DD  A$main$3139                        main
     000059DE  A$main$3140                        main
     000059DF  A$main$3141                        main
     000059E2  A$main$3142                        main
     000059E3  A$main$3146                        main
     000059E3  C$main.c$599$6$226                 main
     000059E6  A$main$3147                        main
     000059E8  A$main$3151                        main
     000059E8  C$main.c$600$6$226                 main
     000059EB  A$main$3152                        main
     000059ED  A$main$3156                        main
     000059ED  C$main.c$601$6$226                 main
     000059EE  A$main$3157                        main
     000059EF  A$main$3158                        main
     000059F2  A$main$3159                        main
     000059F3  A$main$3160                        main
     000059F4  A$main$3161                        main
     000059F5  A$main$3162                        main
     000059F6  A$main$3163                        main
     000059F7  A$main$3164                        main
     000059F8  A$main$3165                        main
     000059F9  A$main$3166                        main
     000059FA  A$main$3167                        main
     000059FB  A$main$3168                        main
     000059FC  A$main$3169                        main
     000059FD  A$main$3170                        main
     000059FE  A$main$3171                        main
     000059FF  A$main$3172                        main
     00005A00  A$main$3173                        main
     00005A01  A$main$3174                        main
     00005A02  A$main$3175                        main
     00005A03  A$main$3176                        main
ASxxxx Linker V03.00 + NoICE + sdld,  page 80.
Hexadecimal  [32-Bits]

Area                                    Addr        Size        Decimal Bytes (Attributes)
--------------------------------        ----        ----        ------- ----- ------------
_CODE                               00000200    000082A2 =       33442. bytes (REL,CON)

      Value  Global                              Global Defined In Module
      -----  --------------------------------   ------------------------
     00005A04  A$main$3177                        main
     00005A07  A$main$3178                        main
     00005A08  A$main$3179                        main
     00005A09  A$main$3180                        main
     00005A0A  A$main$3184                        main
     00005A0A  C$main.c$602$6$226                 main
     00005A0D  A$main$3185                        main
     00005A0F  A$main$3189                        main
     00005A0F  C$main.c$603$6$226                 main
     00005A12  A$main$3190                        main
     00005A14  A$main$3194                        main
     00005A14  C$main.c$604$6$226                 main
     00005A16  A$main$3202                        main
     00005A16  C$main.c$606$6$226                 main
     00005A16  C$main.c$607$6$226                 main
     00005A17  A$main$3203                        main
     00005A18  A$main$3204                        main
     00005A19  A$main$3205                        main
     00005A1A  A$main$3206                        main
     00005A1D  A$main$3207                        main
     00005A1E  A$main$3208                        main
     00005A1F  A$main$3212                        main
     00005A1F  C$main.c$608$6$226                 main
     00005A21  A$main$3220                        main
     00005A21  C$main.c$610$6$226                 main
     00005A21  C$main.c$611$6$226                 main
     00005A22  A$main$3221                        main
     00005A24  A$main$3222                        main
     00005A25  A$main$3223                        main
     00005A26  A$main$3224                        main
     00005A29  A$main$3225                        main
     00005A2A  A$main$3226                        main
     00005A2B  A$main$3230                        main
     00005A2B  C$main.c$612$6$226                 main
     00005A2D  A$main$3238                        main
     00005A2D  C$main.c$614$6$226                 main
     00005A2D  C$main.c$615$6$226                 main
     00005A30  A$main$3239                        main
     00005A32  A$main$3243                        main
     00005A32  C$main.c$616$6$226                 main
     00005A35  A$main$3244                        main
     00005A37  A$main$3248                        main
     00005A37  C$main.c$617$6$226                 main
     00005A38  A$main$3249                        main
     00005A3A  A$main$3250                        main
     00005A3D  A$main$3251                        main
     00005A40  A$main$3252                        main
     00005A41  A$main$3253                        main
     00005A42  A$main$3254                        main
     00005A44  A$main$3258                        main
     00005A44  C$main.c$619$7$227                 main
ASxxxx Linker V03.00 + NoICE + sdld,  page 81.
Hexadecimal  [32-Bits]

Area                                    Addr        Size        Decimal Bytes (Attributes)
--------------------------------        ----        ----        ------- ----- ------------
_CODE                               00000200    000082A2 =       33442. bytes (REL,CON)

      Value  Global                              Global Defined In Module
      -----  --------------------------------   ------------------------
     00005A45  A$main$3259                        main
     00005A46  A$main$3260                        main
     00005A49  A$main$3261                        main
     00005A4A  A$main$3262                        main
     00005A4B  A$main$3267                        main
     00005A4B  C$main.c$621$6$226                 main
     00005A4E  A$main$3268                        main
     00005A50  A$main$3272                        main
     00005A50  C$main.c$622$6$226                 main
     00005A53  A$main$3273                        main
     00005A55  A$main$3281                        main
     00005A55  C$main.c$624$5$225                 main
     00005A55  C$main.c$625$5$225                 main
     00005A58  A$main$3282                        main
     00005A59  A$main$3283                        main
     00005A5A  A$main$3284                        main
     00005A5B  A$main$3285                        main
     00005A5D  A$main$3290                        main
     00005A5D  C$main.c$629$5$228                 main
     00005A5F  A$main$3291                        main
     00005A60  A$main$3292                        main
     00005A61  A$main$3293                        main
     00005A64  A$main$3294                        main
     00005A65  A$main$3298                        main
     00005A65  C$main.c$631$5$228                 main
     00005A66  A$main$3303                        main
     00005A66  C$main.c$584$2$222                 main
     00005A6A  A$main$3304                        main
     00005A6D  A$main$3305                        main
     00005A70  A$main$3306                        main
     00005A73  A$main$3307                        main
     00005A76  A$main$3312                        main
     00005A76  C$main.c$636$1$221                 main
     00005A78  A$main$3313                        main
     00005A79  A$main$3314                        main
     00005A7A  A$main$3315                        main
     00005A7D  A$main$3316                        main
     00005A7E  A$main$3324                        main
     00005A7E  C$main.c$637$1$221                 main
     00005A7E  C$main.c$638$1$221                 main
     00005A7E  XG$runScript$0$0                   main
     00005A7F  A$main$3334                        main
     00005A7F  C$main.c$640$1$221                 main
     00005A7F  Fmain$inputDiag_printDevice$0$0    main
     00005A81  A$main$3335                        main
     00005A85  A$main$3336                        main
     00005A87  A$main$3337                        main
     00005A8A  A$main$3338                        main
     00005A8B  A$main$3339                        main
     00005A8C  A$main$3343                        main
     00005A8C  C$main.c$644$1$230                 main
ASxxxx Linker V03.00 + NoICE + sdld,  page 82.
Hexadecimal  [32-Bits]

Area                                    Addr        Size        Decimal Bytes (Attributes)
--------------------------------        ----        ----        ------- ----- ------------
_CODE                               00000200    000082A2 =       33442. bytes (REL,CON)

      Value  Global                              Global Defined In Module
      -----  --------------------------------   ------------------------
     00005A8F  A$main$3344                        main
     00005A91  A$main$3345                        main
     00005A92  A$main$3346                        main
     00005A93  A$main$3347                        main
     00005A94  A$main$3348                        main
     00005A95  A$main$3349                        main
     00005A97  A$main$3350                        main
     00005A98  A$main$3351                        main
     00005A99  A$main$3355                        main
     00005A99  C$main.c$645$1$230                 main
     00005A9A  A$main$3356                        main
     00005A9D  A$main$3357                        main
     00005AA0  A$main$3358                        main
     00005AA1  A$main$3359                        main
     00005AA4  A$main$3360                        main
     00005AA5  A$main$3361                        main
     00005AA6  A$main$3365                        main
     00005AA6  C$main.c$647$1$230                 main
     00005AA7  A$main$3366                        main
     00005AA9  A$main$3367                        main
     00005AAA  A$main$3368                        main
     00005AAB  A$main$3369                        main
     00005AAD  A$main$3370                        main
     00005AAE  A$main$3371                        main
     00005AAF  A$main$3375                        main
     00005AB2  A$main$3376                        main
     00005AB5  A$main$3377                        main
     00005AB6  A$main$3378                        main
     00005AB9  A$main$3379                        main
     00005ABB  A$main$3380                        main
     00005ABE  A$main$3381                        main
     00005AC0  A$main$3385                        main
     00005AC0  C$main.c$655$1$230                 main
     00005AC1  A$main$3386                        main
     00005AC3  A$main$3387                        main
     00005AC6  A$main$3388                        main
     00005AC7  A$main$3389                        main
     00005AC9  A$main$3390                        main
     00005ACC  A$main$3394                        main
     00005ACC  C$main.c$656$1$230                 main
     00005ACF  A$main$3395                        main
     00005AD0  A$main$3396                        main
     00005AD1  A$main$3400                        main
     00005AD1  C$main.c$648$1$230                 main
     00005AD2  A$main$3401                        main
     00005AD5  A$main$3402                        main
     00005AD7  A$main$3403                        main
     00005ADA  A$main$3404                        main
     00005ADB  A$main$3405                        main
     00005ADC  A$main$3406                        main
     00005ADD  A$main$3407                        main
ASxxxx Linker V03.00 + NoICE + sdld,  page 83.
Hexadecimal  [32-Bits]

Area                                    Addr        Size        Decimal Bytes (Attributes)
--------------------------------        ----        ----        ------- ----- ------------
_CODE                               00000200    000082A2 =       33442. bytes (REL,CON)

      Value  Global                              Global Defined In Module
      -----  --------------------------------   ------------------------
     00005ADE  A$main$3408                        main
     00005ADF  A$main$3410                        main
     00005AE2  A$main$3411                        main
     00005AE5  A$main$3412                        main
     00005AE8  A$main$3413                        main
     00005AEB  A$main$3414                        main
     00005AEE  A$main$3415                        main
     00005AF1  A$main$3423                        main
     00005AF1  C$main.c$650$2$231                 main
     00005AF1  C$main.c$651$2$231                 main
     00005AF4  A$main$3424                        main
     00005AF5  A$main$3425                        main
     00005AF8  A$main$3426                        main
     00005AF9  A$main$3430                        main
     00005AF9  C$main.c$652$2$231                 main
     00005AFC  A$main$3438                        main
     00005AFC  C$main.c$653$2$231                 main
     00005AFC  C$main.c$654$2$231                 main
     00005AFF  A$main$3439                        main
     00005B00  A$main$3440                        main
     00005B03  A$main$3441                        main
     00005B04  A$main$3445                        main
     00005B04  C$main.c$655$2$231                 main
     00005B07  A$main$3446                        main
     00005B0A  A$main$3447                        main
     00005B0B  A$main$3451                        main
     00005B0B  C$main.c$656$2$231                 main
     00005B0C  A$main$3452                        main
     00005B0D  A$main$3453                        main
     00005B0E  A$main$3454                        main
     00005B10  A$main$3455                        main
     00005B11  A$main$3456                        main
     00005B14  A$main$3457                        main
     00005B15  A$main$3458                        main
     00005B18  A$main$3459                        main
     00005B19  A$main$3460                        main
     00005B1A  A$main$3464                        main
     00005B1A  C$main.c$657$2$231                 main
     00005B1D  A$main$3472                        main
     00005B1D  C$main.c$658$2$231                 main
     00005B1D  C$main.c$659$2$231                 main
     00005B1E  A$main$3473                        main
     00005B1F  A$main$3474                        main
     00005B22  A$main$3475                        main
     00005B23  A$main$3476                        main
     00005B26  A$main$3477                        main
     00005B27  A$main$3478                        main
     00005B28  A$main$3479                        main
     00005B2B  A$main$3480                        main
     00005B2E  A$main$3481                        main
     00005B2F  A$main$3482                        main
ASxxxx Linker V03.00 + NoICE + sdld,  page 84.
Hexadecimal  [32-Bits]

Area                                    Addr        Size        Decimal Bytes (Attributes)
--------------------------------        ----        ----        ------- ----- ------------
_CODE                               00000200    000082A2 =       33442. bytes (REL,CON)

      Value  Global                              Global Defined In Module
      -----  --------------------------------   ------------------------
     00005B30  A$main$3486                        main
     00005B30  C$main.c$661$2$231                 main
     00005B31  A$main$3487                        main
     00005B32  A$main$3488                        main
     00005B33  A$main$3489                        main
     00005B36  A$main$3490                        main
     00005B3A  A$main$3491                        main
     00005B3B  A$main$3492                        main
     00005B3C  A$main$3493                        main
     00005B3F  A$main$3494                        main
     00005B42  A$main$3495                        main
     00005B43  A$main$3496                        main
     00005B46  A$main$3497                        main
     00005B47  A$main$3498                        main
     00005B4A  A$main$3499                        main
     00005B4B  A$main$3500                        main
     00005B4C  A$main$3501                        main
     00005B4D  A$main$3502                        main
     00005B4E  A$main$3506                        main
     00005B4E  C$main.c$662$2$231                 main
     00005B4F  A$main$3507                        main
     00005B51  A$main$3508                        main
     00005B52  A$main$3509                        main
     00005B53  A$main$3510                        main
     00005B54  A$main$3511                        main
     00005B55  A$main$3515                        main
     00005B55  C$main.c$663$2$231                 main
     00005B56  A$main$3516                        main
     00005B57  A$main$3517                        main
     00005B58  A$main$3518                        main
     00005B59  A$main$3519                        main
     00005B5A  A$main$3520                        main
     00005B5C  A$main$3521                        main
     00005B5D  A$main$3522                        main
     00005B60  A$main$3523                        main
     00005B61  A$main$3524                        main
     00005B64  A$main$3525                        main
     00005B65  A$main$3526                        main
     00005B66  A$main$3530                        main
     00005B66  C$main.c$664$2$231                 main
     00005B69  A$main$3538                        main
     00005B69  C$main.c$665$2$231                 main
     00005B69  C$main.c$666$2$231                 main
     00005B6A  A$main$3539                        main
     00005B6B  A$main$3540                        main
     00005B6E  A$main$3541                        main
     00005B6F  A$main$3542                        main
     00005B72  A$main$3543                        main
     00005B73  A$main$3544                        main
     00005B74  A$main$3545                        main
     00005B77  A$main$3546                        main
ASxxxx Linker V03.00 + NoICE + sdld,  page 85.
Hexadecimal  [32-Bits]

Area                                    Addr        Size        Decimal Bytes (Attributes)
--------------------------------        ----        ----        ------- ----- ------------
_CODE                               00000200    000082A2 =       33442. bytes (REL,CON)

      Value  Global                              Global Defined In Module
      -----  --------------------------------   ------------------------
     00005B7A  A$main$3547                        main
     00005B7B  A$main$3548                        main
     00005B7C  A$main$3552                        main
     00005B7C  C$main.c$668$2$231                 main
     00005B7D  A$main$3553                        main
     00005B7E  A$main$3554                        main
     00005B7F  A$main$3555                        main
     00005B82  A$main$3556                        main
     00005B86  A$main$3557                        main
     00005B87  A$main$3558                        main
     00005B88  A$main$3559                        main
     00005B8B  A$main$3560                        main
     00005B8E  A$main$3561                        main
     00005B8F  A$main$3562                        main
     00005B92  A$main$3563                        main
     00005B93  A$main$3564                        main
     00005B96  A$main$3565                        main
     00005B97  A$main$3566                        main
     00005B98  A$main$3567                        main
     00005B99  A$main$3568                        main
     00005B9A  A$main$3572                        main
     00005B9A  C$main.c$669$2$231                 main
     00005B9B  A$main$3573                        main
     00005B9C  A$main$3574                        main
     00005B9E  A$main$3575                        main
     00005B9F  A$main$3576                        main
     00005BA0  A$main$3577                        main
     00005BA1  A$main$3578                        main
     00005BA2  A$main$3582                        main
     00005BA2  C$main.c$670$2$231                 main
     00005BA3  A$main$3583                        main
     00005BA4  A$main$3584                        main
     00005BA5  A$main$3585                        main
     00005BA6  A$main$3586                        main
     00005BA7  A$main$3587                        main
     00005BA8  A$main$3588                        main
     00005BAB  A$main$3589                        main
     00005BAC  A$main$3590                        main
     00005BAD  A$main$3591                        main
     00005BB0  A$main$3592                        main
     00005BB1  A$main$3593                        main
     00005BB2  A$main$3594                        main
     00005BB5  A$main$3595                        main
     00005BB8  A$main$3596                        main
     00005BB9  A$main$3597                        main
     00005BBC  A$main$3598                        main
     00005BBD  A$main$3599                        main
     00005BC0  A$main$3600                        main
     00005BC1  A$main$3601                        main
     00005BC2  A$main$3602                        main
     00005BC3  A$main$3603                        main
ASxxxx Linker V03.00 + NoICE + sdld,  page 86.
Hexadecimal  [32-Bits]

Area                                    Addr        Size        Decimal Bytes (Attributes)
--------------------------------        ----        ----        ------- ----- ------------
_CODE                               00000200    000082A2 =       33442. bytes (REL,CON)

      Value  Global                              Global Defined In Module
      -----  --------------------------------   ------------------------
     00005BC4  A$main$3607                        main
     00005BC4  C$main.c$671$2$231                 main
     00005BC5  A$main$3608                        main
     00005BC7  A$main$3609                        main
     00005BC8  A$main$3610                        main
     00005BC9  A$main$3611                        main
     00005BCB  A$main$3612                        main
     00005BCC  A$main$3613                        main
     00005BCD  A$main$3614                        main
     00005BCE  A$main$3615                        main
     00005BD0  A$main$3616                        main
     00005BD3  A$main$3617                        main
     00005BD4  A$main$3618                        main
     00005BD5  A$main$3619                        main
     00005BD6  A$main$3620                        main
     00005BD7  A$main$3621                        main
     00005BD8  A$main$3622                        main
     00005BDB  A$main$3623                        main
     00005BDC  A$main$3624                        main
     00005BDF  A$main$3625                        main
     00005BE0  A$main$3626                        main
     00005BE1  A$main$3630                        main
     00005BE1  C$main.c$673$2$231                 main
     00005BE4  A$main$3638                        main
     00005BE4  C$main.c$674$2$231                 main
     00005BE4  C$main.c$675$2$231                 main
     00005BE5  A$main$3639                        main
     00005BE6  A$main$3640                        main
     00005BE9  A$main$3641                        main
     00005BEA  A$main$3642                        main
     00005BED  A$main$3643                        main
     00005BEE  A$main$3644                        main
     00005BEF  A$main$3645                        main
     00005BF2  A$main$3646                        main
     00005BF5  A$main$3647                        main
     00005BF6  A$main$3648                        main
     00005BF7  A$main$3652                        main
     00005BF7  C$main.c$677$2$231                 main
     00005BF8  A$main$3653                        main
     00005BF9  A$main$3654                        main
     00005BFA  A$main$3655                        main
     00005BFD  A$main$3656                        main
     00005C01  A$main$3657                        main
     00005C02  A$main$3658                        main
     00005C03  A$main$3659                        main
     00005C06  A$main$3660                        main
     00005C09  A$main$3661                        main
     00005C0A  A$main$3662                        main
     00005C0D  A$main$3663                        main
     00005C0E  A$main$3664                        main
     00005C11  A$main$3665                        main
ASxxxx Linker V03.00 + NoICE + sdld,  page 87.
Hexadecimal  [32-Bits]

Area                                    Addr        Size        Decimal Bytes (Attributes)
--------------------------------        ----        ----        ------- ----- ------------
_CODE                               00000200    000082A2 =       33442. bytes (REL,CON)

      Value  Global                              Global Defined In Module
      -----  --------------------------------   ------------------------
     00005C12  A$main$3666                        main
     00005C13  A$main$3667                        main
     00005C14  A$main$3668                        main
     00005C15  A$main$3672                        main
     00005C15  C$main.c$678$2$231                 main
     00005C16  A$main$3673                        main
     00005C17  A$main$3674                        main
     00005C19  A$main$3675                        main
     00005C1A  A$main$3676                        main
     00005C1B  A$main$3677                        main
     00005C1C  A$main$3678                        main
     00005C1D  A$main$3682                        main
     00005C1D  C$main.c$679$2$231                 main
     00005C1E  A$main$3683                        main
     00005C1F  A$main$3684                        main
     00005C20  A$main$3685                        main
     00005C21  A$main$3686                        main
     00005C22  A$main$3687                        main
     00005C23  A$main$3688                        main
     00005C26  A$main$3689                        main
     00005C2A  A$main$3690                        main
     00005C2B  A$main$3691                        main
     00005C2C  A$main$3692                        main
     00005C2F  A$main$3693                        main
     00005C32  A$main$3694                        main
     00005C33  A$main$3695                        main
     00005C36  A$main$3696                        main
     00005C37  A$main$3697                        main
     00005C3A  A$main$3698                        main
     00005C3B  A$main$3699                        main
     00005C3C  A$main$3700                        main
     00005C3D  A$main$3701                        main
     00005C3E  A$main$3705                        main
     00005C3E  C$main.c$680$2$231                 main
     00005C3F  A$main$3706                        main
     00005C41  A$main$3707                        main
     00005C42  A$main$3708                        main
     00005C43  A$main$3709                        main
     00005C45  A$main$3710                        main
     00005C46  A$main$3711                        main
     00005C47  A$main$3712                        main
     00005C48  A$main$3713                        main
     00005C49  A$main$3717                        main
     00005C49  C$main.c$681$2$231                 main
     00005C4A  A$main$3718                        main
     00005C4C  A$main$3719                        main
     00005C4F  A$main$3720                        main
     00005C52  A$main$3721                        main
     00005C56  A$main$3722                        main
     00005C57  A$main$3723                        main
     00005C58  A$main$3724                        main
ASxxxx Linker V03.00 + NoICE + sdld,  page 88.
Hexadecimal  [32-Bits]

Area                                    Addr        Size        Decimal Bytes (Attributes)
--------------------------------        ----        ----        ------- ----- ------------
_CODE                               00000200    000082A2 =       33442. bytes (REL,CON)

      Value  Global                              Global Defined In Module
      -----  --------------------------------   ------------------------
     00005C5B  A$main$3725                        main
     00005C5E  A$main$3726                        main
     00005C5F  A$main$3727                        main
     00005C62  A$main$3728                        main
     00005C63  A$main$3729                        main
     00005C66  A$main$3730                        main
     00005C67  A$main$3731                        main
     00005C68  A$main$3732                        main
     00005C69  A$main$3733                        main
     00005C6A  A$main$3737                        main
     00005C6A  C$main.c$682$2$231                 main
     00005C6B  A$main$3738                        main
     00005C6D  A$main$3739                        main
     00005C6E  A$main$3740                        main
     00005C6F  A$main$3741                        main
     00005C71  A$main$3742                        main
     00005C72  A$main$3743                        main
     00005C73  A$main$3744                        main
     00005C74  A$main$3748                        main
     00005C74  C$main.c$683$2$231                 main
     00005C75  A$main$3749                        main
     00005C76  A$main$3750                        main
     00005C77  A$main$3751                        main
     00005C78  A$main$3752                        main
     00005C7A  A$main$3753                        main
     00005C7B  A$main$3754                        main
     00005C7E  A$main$3755                        main
     00005C7F  A$main$3756                        main
     00005C82  A$main$3757                        main
     00005C83  A$main$3758                        main
     00005C84  A$main$3762                        main
     00005C84  C$main.c$684$2$231                 main
     00005C87  A$main$3770                        main
     00005C87  C$main.c$685$2$231                 main
     00005C87  C$main.c$686$2$231                 main
     00005C88  A$main$3771                        main
     00005C89  A$main$3772                        main
     00005C8C  A$main$3773                        main
     00005C8D  A$main$3774                        main
     00005C90  A$main$3775                        main
     00005C91  A$main$3776                        main
     00005C92  A$main$3777                        main
     00005C95  A$main$3778                        main
     00005C98  A$main$3779                        main
     00005C99  A$main$3780                        main
     00005C9A  A$main$3784                        main
     00005C9A  C$main.c$688$2$231                 main
     00005C9B  A$main$3785                        main
     00005C9C  A$main$3786                        main
     00005C9D  A$main$3787                        main
     00005CA0  A$main$3788                        main
ASxxxx Linker V03.00 + NoICE + sdld,  page 89.
Hexadecimal  [32-Bits]

Area                                    Addr        Size        Decimal Bytes (Attributes)
--------------------------------        ----        ----        ------- ----- ------------
_CODE                               00000200    000082A2 =       33442. bytes (REL,CON)

      Value  Global                              Global Defined In Module
      -----  --------------------------------   ------------------------
     00005CA4  A$main$3789                        main
     00005CA5  A$main$3790                        main
     00005CA6  A$main$3791                        main
     00005CA9  A$main$3792                        main
     00005CAC  A$main$3793                        main
     00005CAD  A$main$3794                        main
     00005CB0  A$main$3795                        main
     00005CB1  A$main$3796                        main
     00005CB4  A$main$3797                        main
     00005CB5  A$main$3798                        main
     00005CB6  A$main$3799                        main
     00005CB7  A$main$3800                        main
     00005CB8  A$main$3804                        main
     00005CB8  C$main.c$689$2$231                 main
     00005CB9  A$main$3805                        main
     00005CBA  A$main$3806                        main
     00005CBC  A$main$3807                        main
     00005CBD  A$main$3808                        main
     00005CBE  A$main$3809                        main
     00005CBF  A$main$3810                        main
     00005CC0  A$main$3814                        main
     00005CC0  C$main.c$690$2$231                 main
     00005CC1  A$main$3815                        main
     00005CC2  A$main$3816                        main
     00005CC3  A$main$3817                        main
     00005CC4  A$main$3818                        main
     00005CC5  A$main$3819                        main
     00005CC6  A$main$3820                        main
     00005CC9  A$main$3821                        main
     00005CCA  A$main$3822                        main
     00005CCB  A$main$3823                        main
     00005CCE  A$main$3824                        main
     00005CCF  A$main$3825                        main
     00005CD0  A$main$3826                        main
     00005CD3  A$main$3827                        main
     00005CD6  A$main$3828                        main
     00005CD7  A$main$3829                        main
     00005CDA  A$main$3830                        main
     00005CDB  A$main$3831                        main
     00005CDE  A$main$3832                        main
     00005CDF  A$main$3833                        main
     00005CE0  A$main$3834                        main
     00005CE1  A$main$3835                        main
     00005CE2  A$main$3839                        main
     00005CE2  C$main.c$691$2$231                 main
     00005CE3  A$main$3840                        main
     00005CE5  A$main$3841                        main
     00005CE6  A$main$3842                        main
     00005CE7  A$main$3843                        main
     00005CE9  A$main$3844                        main
     00005CEA  A$main$3845                        main
ASxxxx Linker V03.00 + NoICE + sdld,  page 90.
Hexadecimal  [32-Bits]

Area                                    Addr        Size        Decimal Bytes (Attributes)
--------------------------------        ----        ----        ------- ----- ------------
_CODE                               00000200    000082A2 =       33442. bytes (REL,CON)

      Value  Global                              Global Defined In Module
      -----  --------------------------------   ------------------------
     00005CEB  A$main$3846                        main
     00005CEC  A$main$3847                        main
     00005CEE  A$main$3848                        main
     00005CF1  A$main$3849                        main
     00005CF2  A$main$3850                        main
     00005CF3  A$main$3851                        main
     00005CF4  A$main$3852                        main
     00005CF5  A$main$3853                        main
     00005CF6  A$main$3854                        main
     00005CF9  A$main$3855                        main
     00005CFA  A$main$3856                        main
     00005CFD  A$main$3857                        main
     00005CFE  A$main$3858                        main
     00005CFF  A$main$3862                        main
     00005CFF  C$main.c$693$2$231                 main
     00005D01  A$main$3870                        main
     00005D01  C$main.c$694$2$231                 main
     00005D01  C$main.c$695$2$231                 main
     00005D02  A$main$3871                        main
     00005D03  A$main$3872                        main
     00005D06  A$main$3873                        main
     00005D07  A$main$3874                        main
     00005D0A  A$main$3875                        main
     00005D0B  A$main$3876                        main
     00005D0C  A$main$3877                        main
     00005D0F  A$main$3878                        main
     00005D12  A$main$3879                        main
     00005D13  A$main$3880                        main
     00005D14  A$main$3884                        main
     00005D14  C$main.c$697$2$231                 main
     00005D15  A$main$3885                        main
     00005D16  A$main$3886                        main
     00005D17  A$main$3887                        main
     00005D1A  A$main$3888                        main
     00005D1E  A$main$3889                        main
     00005D1F  A$main$3890                        main
     00005D20  A$main$3891                        main
     00005D23  A$main$3892                        main
     00005D26  A$main$3893                        main
     00005D27  A$main$3894                        main
     00005D2A  A$main$3895                        main
     00005D2B  A$main$3896                        main
     00005D2E  A$main$3897                        main
     00005D2F  A$main$3898                        main
     00005D30  A$main$3899                        main
     00005D31  A$main$3900                        main
     00005D32  A$main$3904                        main
     00005D32  C$main.c$698$2$231                 main
     00005D33  A$main$3905                        main
     00005D34  A$main$3906                        main
     00005D36  A$main$3907                        main
ASxxxx Linker V03.00 + NoICE + sdld,  page 91.
Hexadecimal  [32-Bits]

Area                                    Addr        Size        Decimal Bytes (Attributes)
--------------------------------        ----        ----        ------- ----- ------------
_CODE                               00000200    000082A2 =       33442. bytes (REL,CON)

      Value  Global                              Global Defined In Module
      -----  --------------------------------   ------------------------
     00005D37  A$main$3908                        main
     00005D38  A$main$3909                        main
     00005D39  A$main$3910                        main
     00005D3A  A$main$3914                        main
     00005D3A  C$main.c$699$2$231                 main
     00005D3B  A$main$3915                        main
     00005D3C  A$main$3916                        main
     00005D3D  A$main$3917                        main
     00005D3E  A$main$3918                        main
     00005D3F  A$main$3919                        main
     00005D42  A$main$3920                        main
     00005D46  A$main$3921                        main
     00005D47  A$main$3922                        main
     00005D48  A$main$3923                        main
     00005D4B  A$main$3924                        main
     00005D4E  A$main$3925                        main
     00005D4F  A$main$3926                        main
     00005D52  A$main$3927                        main
     00005D53  A$main$3928                        main
     00005D56  A$main$3929                        main
     00005D57  A$main$3930                        main
     00005D58  A$main$3931                        main
     00005D59  A$main$3932                        main
     00005D5A  A$main$3936                        main
     00005D5A  C$main.c$700$2$231                 main
     00005D5B  A$main$3937                        main
     00005D5D  A$main$3938                        main
     00005D5E  A$main$3939                        main
     00005D5F  A$main$3940                        main
     00005D61  A$main$3941                        main
     00005D62  A$main$3942                        main
     00005D63  A$main$3943                        main
     00005D64  A$main$3947                        main
     00005D64  C$main.c$701$2$231                 main
     00005D65  A$main$3948                        main
     00005D66  A$main$3949                        main
     00005D67  A$main$3950                        main
     00005D68  A$main$3951                        main
     00005D69  A$main$3952                        main
     00005D6B  A$main$3953                        main
     00005D6C  A$main$3954                        main
     00005D6F  A$main$3955                        main
     00005D70  A$main$3956                        main
     00005D73  A$main$3957                        main
     00005D74  A$main$3958                        main
     00005D75  A$main$3963                        main
     00005D75  C$main.c$703$1$230                 main
     00005D77  A$main$3964                        main
     00005D79  A$main$3969                        main
     00005D79  C$main.c$704$1$230                 main
     00005D79  XFmain$inputDiag_printDevice$0$0   main
ASxxxx Linker V03.00 + NoICE + sdld,  page 92.
Hexadecimal  [32-Bits]

Area                                    Addr        Size        Decimal Bytes (Attributes)
--------------------------------        ----        ----        ------- ----- ------------
_CODE                               00000200    000082A2 =       33442. bytes (REL,CON)

      Value  Global                              Global Defined In Module
      -----  --------------------------------   ------------------------
     00005D7A  Fmain$__str_0$0$0                  main
     00005D82  Fmain$__str_1$0$0                  main
     00005D91  Fmain$__str_2$0$0                  main
     00005D9B  Fmain$__str_3$0$0                  main
     00005DAA  Fmain$__str_4$0$0                  main
     00005DB4  Fmain$__str_5$0$0                  main
     00005DC3  Fmain$__str_6$0$0                  main
     00005DCB  Fmain$__str_7$0$0                  main
     00005DD3  Fmain$__str_8$0$0                  main
     00005DE2  Fmain$__str_9$0$0                  main
     00005DEA  Fmain$__str_10$0$0                 main
     00005DF9  Fmain$__str_11$0$0                 main
     00005E08  A$main$4027                        main
     00005E08  C$main.c$706$1$230                 main
     00005E08  G$inputDiag_inlib$0$0              main
     00005E08  _inputDiag_inlib                   main
     00005E0A  A$main$4028                        main
     00005E0E  A$main$4029                        main
     00005E10  A$main$4030                        main
     00005E11  A$main$4034                        main
     00005E11  C$main.c$708$1$230                 main
     00005E15  A$main$4038                        main
     00005E15  C$main.c$711$1$233                 main
     00005E18  A$main$4039                        main
     00005E1B  A$main$4043                        main
     00005E1B  C$main.c$712$1$233                 main
     00005E1E  A$main$4047                        main
     00005E1E  C$main.c$713$1$233                 main
     00005E21  A$main$4048                        main
     00005E24  A$main$4052                        main
     00005E24  C$main.c$714$1$233                 main
     00005E27  A$main$4056                        main
     00005E27  C$main.c$715$1$233                 main
     00005E2A  A$main$4060                        main
     00005E2A  C$main.c$716$1$233                 main
     00005E2D  A$main$4064                        main
     00005E2D  C$main.c$717$1$233                 main
     00005E30  A$main$4065                        main
     00005E31  A$main$4069                        main
     00005E31  C$main.c$718$1$233                 main
     00005E34  A$main$4070                        main
     00005E35  A$main$4071                        main
     00005E38  A$main$4072                        main
     00005E39  A$main$4076                        main
     00005E39  C$main.c$719$1$233                 main
     00005E3C  A$main$4077                        main
     00005E3D  A$main$4081                        main
     00005E3D  C$main.c$720$1$233                 main
     00005E40  A$main$4082                        main
     00005E41  A$main$4083                        main
     00005E44  A$main$4084                        main
ASxxxx Linker V03.00 + NoICE + sdld,  page 93.
Hexadecimal  [32-Bits]

Area                                    Addr        Size        Decimal Bytes (Attributes)
--------------------------------        ----        ----        ------- ----- ------------
_CODE                               00000200    000082A2 =       33442. bytes (REL,CON)

      Value  Global                              Global Defined In Module
      -----  --------------------------------   ------------------------
     00005E45  A$main$4085                        main
     00005E48  A$main$4086                        main
     00005E49  A$main$4087                        main
     00005E4A  A$main$4091                        main
     00005E4A  C$main.c$721$1$233                 main
     00005E4D  A$main$4095                        main
     00005E4D  C$main.c$723$1$233                 main
     00005E50  A$main$4099                        main
     00005E50  C$main.c$725$1$233                 main
     00005E53  A$main$4103                        main
     00005E53  C$main.c$727$3$241                 main
     00005E57  A$main$4108                        main
     00005E57  C$main.c$729$2$234                 main
     00005E5A  A$main$4112                        main
     00005E5A  C$main.c$730$2$234                 main
     00005E5D  A$main$4116                        main
     00005E5D  C$main.c$732$2$234                 main
     00005E60  A$main$4117                        main
     00005E61  A$main$4118                        main
     00005E63  A$main$4119                        main
     00005E64  A$main$4120                        main
     00005E65  A$main$4121                        main
     00005E68  A$main$4122                        main
     00005E69  A$main$4123                        main
     00005E6C  A$main$4124                        main
     00005E6D  A$main$4128                        main
     00005E6D  C$main.c$733$2$234                 main
     00005E6E  A$main$4129                        main
     00005E71  A$main$4130                        main
     00005E72  A$main$4131                        main
     00005E74  A$main$4132                        main
     00005E75  A$main$4133                        main
     00005E76  A$main$4134                        main
     00005E79  A$main$4135                        main
     00005E7A  A$main$4136                        main
     00005E7D  A$main$4137                        main
     00005E7E  A$main$4138                        main
     00005E7F  A$main$4139                        main
     00005E80  A$main$4143                        main
     00005E80  C$main.c$735$2$234                 main
     00005E83  A$main$4144                        main
     00005E84  A$main$4148                        main
     00005E84  C$main.c$736$2$234                 main
     00005E87  A$main$4149                        main
     00005E89  A$main$4150                        main
     00005E8A  A$main$4151                        main
     00005E8D  A$main$4152                        main
     00005E8E  A$main$4153                        main
     00005E91  A$main$4154                        main
     00005E92  A$main$4155                        main
     00005E93  A$main$4159                        main
ASxxxx Linker V03.00 + NoICE + sdld,  page 94.
Hexadecimal  [32-Bits]

Area                                    Addr        Size        Decimal Bytes (Attributes)
--------------------------------        ----        ----        ------- ----- ------------
_CODE                               00000200    000082A2 =       33442. bytes (REL,CON)

      Value  Global                              Global Defined In Module
      -----  --------------------------------   ------------------------
     00005E93  C$main.c$737$2$234                 main
     00005E96  A$main$4163                        main
     00005E96  C$main.c$739$2$234                 main
     00005E99  A$main$4164                        main
     00005E9B  A$main$4165                        main
     00005E9D  A$main$4169                        main
     00005E9D  C$main.c$741$3$235                 main
     00005EA0  A$main$4170                        main
     00005EA1  A$main$4171                        main
     00005EA3  A$main$4175                        main
     00005EA3  C$main.c$743$4$236                 main
     00005EA6  A$main$4176                        main
     00005EA7  A$main$4180                        main
     00005EA7  C$main.c$744$4$236                 main
     00005EAA  A$main$4181                        main
     00005EAB  A$main$4182                        main
     00005EAE  A$main$4183                        main
     00005EAF  A$main$4187                        main
     00005EAF  C$main.c$745$4$236                 main
     00005EB2  A$main$4191                        main
     00005EB2  C$main.c$746$4$236                 main
     00005EB5  A$main$4196                        main
     00005EB5  C$main.c$749$3$235                 main
     00005EB8  A$main$4197                        main
     00005EB9  A$main$4201                        main
     00005EB9  C$main.c$750$3$235                 main
     00005EBC  A$main$4202                        main
     00005EBD  A$main$4203                        main
     00005EC0  A$main$4204                        main
     00005EC1  A$main$4205                        main
     00005EC3  A$main$4210                        main
     00005EC3  C$main.c$752$2$234                 main
     00005EC5  A$main$4211                        main
     00005EC7  A$main$4215                        main
     00005EC7  C$main.c$754$3$237                 main
     00005ECA  A$main$4216                        main
     00005ECB  A$main$4220                        main
     00005ECB  C$main.c$755$3$237                 main
     00005ECE  A$main$4221                        main
     00005ECF  A$main$4222                        main
     00005ED2  A$main$4223                        main
     00005ED3  A$main$4224                        main
     00005ED5  A$main$4229                        main
     00005ED5  C$main.c$757$2$234                 main
     00005ED7  A$main$4230                        main
     00005ED9  A$main$4234                        main
     00005ED9  C$main.c$759$3$238                 main
     00005EDC  A$main$4235                        main
     00005EDD  A$main$4239                        main
     00005EDD  C$main.c$760$3$238                 main
     00005EE0  A$main$4240                        main
ASxxxx Linker V03.00 + NoICE + sdld,  page 95.
Hexadecimal  [32-Bits]

Area                                    Addr        Size        Decimal Bytes (Attributes)
--------------------------------        ----        ----        ------- ----- ------------
_CODE                               00000200    000082A2 =       33442. bytes (REL,CON)

      Value  Global                              Global Defined In Module
      -----  --------------------------------   ------------------------
     00005EE1  A$main$4241                        main
     00005EE4  A$main$4242                        main
     00005EE5  A$main$4243                        main
     00005EE7  A$main$4248                        main
     00005EE7  C$main.c$762$2$234                 main
     00005EE9  A$main$4249                        main
     00005EEB  A$main$4253                        main
     00005EEB  C$main.c$764$3$239                 main
     00005EEE  A$main$4254                        main
     00005EEF  A$main$4258                        main
     00005EEF  C$main.c$765$3$239                 main
     00005EF2  A$main$4259                        main
     00005EF3  A$main$4260                        main
     00005EF6  A$main$4261                        main
     00005EF7  A$main$4262                        main
     00005EF9  A$main$4267                        main
     00005EF9  C$main.c$767$2$234                 main
     00005EFB  A$main$4268                        main
     00005EFD  A$main$4272                        main
     00005EFD  C$main.c$769$3$240                 main
     00005F00  A$main$4273                        main
     00005F01  A$main$4277                        main
     00005F01  C$main.c$770$3$240                 main
     00005F04  A$main$4278                        main
     00005F05  A$main$4279                        main
     00005F08  A$main$4280                        main
     00005F09  A$main$4281                        main
     00005F0B  A$main$4286                        main
     00005F0B  C$main.c$774$3$241                 main
     00005F0E  A$main$4287                        main
     00005F0F  A$main$4291                        main
     00005F0F  C$main.c$775$3$241                 main
     00005F12  A$main$4292                        main
     00005F13  A$main$4293                        main
     00005F16  A$main$4294                        main
     00005F17  A$main$4299                        main
     00005F17  C$main.c$778$2$234                 main
     00005F1A  A$main$4300                        main
     00005F1B  A$main$4304                        main
     00005F1B  C$main.c$779$2$234                 main
     00005F1E  A$main$4305                        main
     00005F1F  A$main$4306                        main
     00005F22  A$main$4307                        main
     00005F23  A$main$4311                        main
     00005F23  C$main.c$739$1$233                 main
     00005F26  A$main$4312                        main
     00005F27  A$main$4316                        main
     00005F29  A$main$4317                        main
     00005F2A  A$main$4318                        main
     00005F2C  A$main$4322                        main
     00005F2C  C$main.c$784$1$233                 main
ASxxxx Linker V03.00 + NoICE + sdld,  page 96.
Hexadecimal  [32-Bits]

Area                                    Addr        Size        Decimal Bytes (Attributes)
--------------------------------        ----        ----        ------- ----- ------------
_CODE                               00000200    000082A2 =       33442. bytes (REL,CON)

      Value  Global                              Global Defined In Module
      -----  --------------------------------   ------------------------
     00005F2F  A$main$4323                        main
     00005F30  A$main$4327                        main
     00005F30  C$main.c$781$2$234                 main
     00005F31  A$main$4328                        main
     00005F33  A$main$4329                        main
     00005F36  A$main$4330                        main
     00005F37  A$main$4331                        main
     00005F38  A$main$4335                        main
     00005F38  C$main.c$783$3$242                 main
     00005F39  A$main$4337                        main
     00005F3B  A$main$4338                        main
     00005F3D  A$main$4339                        main
     00005F3F  A$main$4340                        main
     00005F41  A$main$4341                        main
     00005F43  A$main$4342                        main
     00005F45  A$main$4347                        main
     00005F45  C$main.c$784$3$242                 main
     00005F46  A$main$4348                        main
     00005F47  A$main$4349                        main
     00005F49  A$main$4353                        main
     00005F49  C$main.c$786$4$243                 main
     00005F4D  A$main$4357                        main
     00005F4D  C$main.c$788$3$242                 main
     00005F4F  A$main$4365                        main
     00005F4F  C$main.c$789$3$242                 main
     00005F4F  C$main.c$790$3$242                 main
     00005F50  A$main$4366                        main
     00005F51  A$main$4367                        main
     00005F53  A$main$4371                        main
     00005F53  C$main.c$792$4$244                 main
     00005F54  A$main$4372                        main
     00005F56  A$main$4373                        main
     00005F58  A$main$4377                        main
     00005F58  C$main.c$796$4$244                 main
     00005F5C  A$main$4381                        main
     00005F5C  C$main.c$798$3$242                 main
     00005F5E  A$main$4389                        main
     00005F5E  C$main.c$799$3$242                 main
     00005F5E  C$main.c$800$3$242                 main
     00005F5F  A$main$4390                        main
     00005F60  A$main$4391                        main
     00005F62  A$main$4395                        main
     00005F62  C$main.c$802$4$246                 main
     00005F66  A$main$4399                        main
     00005F66  C$main.c$804$3$242                 main
     00005F68  A$main$4407                        main
     00005F68  C$main.c$805$3$242                 main
     00005F68  C$main.c$806$3$242                 main
     00005F69  A$main$4408                        main
     00005F6A  A$main$4409                        main
     00005F6C  A$main$4413                        main
ASxxxx Linker V03.00 + NoICE + sdld,  page 97.
Hexadecimal  [32-Bits]

Area                                    Addr        Size        Decimal Bytes (Attributes)
--------------------------------        ----        ----        ------- ----- ------------
_CODE                               00000200    000082A2 =       33442. bytes (REL,CON)

      Value  Global                              Global Defined In Module
      -----  --------------------------------   ------------------------
     00005F6C  C$main.c$808$4$247                 main
     00005F70  A$main$4417                        main
     00005F70  C$main.c$810$3$242                 main
     00005F72  A$main$4425                        main
     00005F72  C$main.c$811$3$242                 main
     00005F72  C$main.c$812$3$242                 main
     00005F73  A$main$4426                        main
     00005F74  A$main$4427                        main
     00005F76  A$main$4431                        main
     00005F76  C$main.c$814$4$248                 main
     00005F7A  A$main$4435                        main
     00005F7A  C$main.c$816$3$242                 main
     00005F7C  A$main$4443                        main
     00005F7C  C$main.c$817$3$242                 main
     00005F7C  C$main.c$818$3$242                 main
     00005F7D  A$main$4444                        main
     00005F7E  A$main$4445                        main
     00005F80  A$main$4449                        main
     00005F80  C$main.c$820$4$249                 main
     00005F84  A$main$4457                        main
     00005F84  C$main.c$823$2$234                 main
     00005F84  C$main.c$825$2$234                 main
     00005F85  A$main$4458                        main
     00005F86  A$main$4459                        main
     00005F88  A$main$4463                        main
     00005F88  C$main.c$827$3$250                 main
     00005F8B  A$main$4464                        main
     00005F8C  A$main$4468                        main
     00005F8C  C$main.c$828$3$250                 main
     00005F8F  A$main$4469                        main
     00005F90  A$main$4470                        main
     00005F93  A$main$4471                        main
     00005F94  A$main$4475                        main
     00005F94  C$main.c$829$3$250                 main
     00005F97  A$main$4476                        main
     00005F98  A$main$4480                        main
     00005F98  C$main.c$830$3$250                 main
     00005F9B  A$main$4481                        main
     00005F9C  A$main$4482                        main
     00005F9F  A$main$4483                        main
     00005FA0  A$main$4487                        main
     00005FA0  C$main.c$831$3$250                 main
     00005FA3  A$main$4488                        main
     00005FA4  A$main$4492                        main
     00005FA4  C$main.c$832$3$250                 main
     00005FA7  A$main$4493                        main
     00005FA8  A$main$4494                        main
     00005FAB  A$main$4495                        main
     00005FAC  A$main$4500                        main
     00005FAC  C$main.c$835$2$234                 main
     00005FAF  A$main$4501                        main
ASxxxx Linker V03.00 + NoICE + sdld,  page 98.
Hexadecimal  [32-Bits]

Area                                    Addr        Size        Decimal Bytes (Attributes)
--------------------------------        ----        ----        ------- ----- ------------
_CODE                               00000200    000082A2 =       33442. bytes (REL,CON)

      Value  Global                              Global Defined In Module
      -----  --------------------------------   ------------------------
     00005FB1  A$main$4502                        main
     00005FB3  A$main$4506                        main
     00005FB3  C$main.c$837$3$251                 main
     00005FB6  A$main$4510                        main
     00005FB6  C$main.c$839$3$251                 main
     00005FB9  A$main$4511                        main
     00005FBA  A$main$4512                        main
     00005FBC  A$main$4516                        main
     00005FBC  C$main.c$841$4$252                 main
     00005FBF  A$main$4517                        main
     00005FC1  A$main$4521                        main
     00005FC1  C$main.c$842$4$252                 main
     00005FC4  A$main$4525                        main
     00005FC4  C$main.c$843$4$252                 main
     00005FC7  A$main$4526                        main
     00005FC9  A$main$4531                        main
     00005FC9  C$main.c$845$3$251                 main
     00005FCB  A$main$4532                        main
     00005FCD  A$main$4536                        main
     00005FCD  C$main.c$847$4$253                 main
     00005FD0  A$main$4537                        main
     00005FD2  A$main$4541                        main
     00005FD2  C$main.c$848$4$253                 main
     00005FD5  A$main$4545                        main
     00005FD5  C$main.c$849$4$253                 main
     00005FD8  A$main$4546                        main
     00005FDA  A$main$4551                        main
     00005FDA  C$main.c$851$3$251                 main
     00005FDC  A$main$4552                        main
     00005FDE  A$main$4556                        main
     00005FDE  C$main.c$853$4$254                 main
     00005FE1  A$main$4557                        main
     00005FE3  A$main$4561                        main
     00005FE3  C$main.c$854$4$254                 main
     00005FE6  A$main$4565                        main
     00005FE6  C$main.c$855$4$254                 main
     00005FE9  A$main$4566                        main
     00005FEB  A$main$4571                        main
     00005FEB  C$main.c$857$3$251                 main
     00005FED  A$main$4572                        main
     00005FEF  A$main$4576                        main
     00005FEF  C$main.c$859$4$255                 main
     00005FF2  A$main$4577                        main
     00005FF4  A$main$4581                        main
     00005FF4  C$main.c$860$4$255                 main
     00005FF7  A$main$4585                        main
     00005FF7  C$main.c$861$4$255                 main
     00005FFA  A$main$4590                        main
     00005FFA  C$main.c$865$1$233                 main
     00005FFD  A$main$4591                        main
     00005FFE  A$main$4592                        main
ASxxxx Linker V03.00 + NoICE + sdld,  page 99.
Hexadecimal  [32-Bits]

Area                                    Addr        Size        Decimal Bytes (Attributes)
--------------------------------        ----        ----        ------- ----- ------------
_CODE                               00000200    000082A2 =       33442. bytes (REL,CON)

      Value  Global                              Global Defined In Module
      -----  --------------------------------   ------------------------
     00006001  A$main$4593                        main
     00006003  A$main$4594                        main
     00006005  A$main$4599                        main
     00006005  C$main.c$866$1$233                 main
     00006005  XG$inputDiag_inlib$0$0             main
     00006006  Fmain$__str_12$0$0                 main
     0000601F  Fmain$__str_13$0$0                 main
     0000602E  Fmain$__str_14$0$0                 main
     00006032  Fmain$__str_15$0$0                 main
     00006039  Fmain$__str_16$0$0                 main
     00006040  Fmain$__str_17$0$0                 main
     00006045  Fmain$__str_18$0$0                 main
     0000605D  Fmain$__str_19$0$0                 main
     00006075  Fmain$__str_20$0$0                 main
     0000608D  Fmain$__str_21$0$0                 main
     000060A5  Fmain$__str_22$0$0                 main
     000060BD  Fmain$__str_23$0$0                 main
     000060D5  Fmain$__str_24$0$0                 main
     000060ED  Fmain$__str_25$0$0                 main
     000060FF  Fmain$__str_26$0$0                 main
     00006119  Fmain$__str_27$0$0                 main
     0000612F  Fmain$__str_28$0$0                 main
     0000613F  A$main$4677                        main
     0000613F  C$main.c$868$1$233                 main
     0000613F  G$interruptibleFrameDelay$0$0      main
     0000613F  _interruptibleFrameDelay           main
     00006141  A$main$4678                        main
     00006145  A$main$4679                        main
     00006147  A$main$4683                        main
     00006147  C$main.c$870$2$258                 main
     0000614A  A$main$4684                        main
     0000614D  A$main$4686                        main
     0000614E  A$main$4687                        main
     0000614F  A$main$4688                        main
     00006150  A$main$4689                        main
     00006151  A$main$4690                        main
     00006152  A$main$4691                        main
     00006154  A$main$4695                        main
     00006154  C$main.c$872$2$258                 main
     00006155  A$main$4696                        main
     00006158  A$main$4697                        main
     00006159  A$main$4701                        main
     00006159  C$main.c$874$2$258                 main
     0000615C  A$main$4702                        main
     0000615D  A$main$4703                        main
     0000615F  A$main$4707                        main
     0000615F  C$main.c$876$3$259                 main
     00006162  A$main$4708                        main
     00006164  A$main$4709                        main
     00006166  A$main$4711                        main
     00006168  A$main$4716                        main
ASxxxx Linker V03.00 + NoICE + sdld,  page 100.
Hexadecimal  [32-Bits]

Area                                    Addr        Size        Decimal Bytes (Attributes)
--------------------------------        ----        ----        ------- ----- ------------
_CODE                               00000200    000082A2 =       33442. bytes (REL,CON)

      Value  Global                              Global Defined In Module
      -----  --------------------------------   ------------------------
     00006168  C$main.c$879$1$257                 main
     00006168  XG$interruptibleFrameDelay$0$0     main
     00006169  A$main$4726                        main
     00006169  C$main.c$881$1$257                 main
     00006169  G$main$0$0                         main
     00006169  _main                              main
     0000616B  A$main$4727                        main
     0000616F  A$main$4728                        main
     00006171  A$main$4729                        main
     00006174  A$main$4730                        main
     00006175  A$main$4731                        main
     00006176  A$main$4735                        main
     00006176  C$main.c$884$1$257                 main
     00006179  A$main$4739                        main
     00006179  C$main.c$885$1$257                 main
     0000617D  A$main$4740                        main
     00006181  A$main$4744                        main
     00006181  C$main.c$886$1$257                 main
     00006185  A$main$4745                        main
     00006189  A$main$4749                        main
     00006189  C$main.c$887$1$257                 main
     0000618D  A$main$4750                        main
     00006191  A$main$4754                        main
     00006191  C$main.c$889$1$261                 main
     00006192  A$main$4755                        main
     00006195  A$main$4756                        main
     00006198  A$main$4757                        main
     0000619B  A$main$4758                        main
     0000619E  A$main$4759                        main
     0000619F  A$main$4760                        main
     000061A2  A$main$4761                        main
     000061A3  A$main$4762                        main
     000061A4  A$main$4763                        main
     000061A5  A$main$4764                        main
     000061A6  A$main$4765                        main
     000061A9  A$main$4766                        main
     000061AA  A$main$4767                        main
     000061AD  A$main$4768                        main
     000061B0  A$main$4769                        main
     000061B1  A$main$4770                        main
     000061B2  A$main$4771                        main
     000061B5  A$main$4772                        main
     000061B8  A$main$4773                        main
     000061BB  A$main$4774                        main
     000061BE  A$main$4775                        main
     000061BF  A$main$4776                        main
     000061C2  A$main$4777                        main
     000061C3  A$main$4778                        main
     000061C4  A$main$4779                        main
     000061C5  A$main$4780                        main
     000061C6  A$main$4781                        main
ASxxxx Linker V03.00 + NoICE + sdld,  page 101.
Hexadecimal  [32-Bits]

Area                                    Addr        Size        Decimal Bytes (Attributes)
--------------------------------        ----        ----        ------- ----- ------------
_CODE                               00000200    000082A2 =       33442. bytes (REL,CON)

      Value  Global                              Global Defined In Module
      -----  --------------------------------   ------------------------
     000061C9  A$main$4782                        main
     000061CA  A$main$4783                        main
     000061CD  A$main$4784                        main
     000061D0  A$main$4785                        main
     000061D1  A$main$4786                        main
     000061D2  A$main$4787                        main
     000061D4  A$main$4788                        main
     000061D7  A$main$4789                        main
     000061DA  A$main$4790                        main
     000061DD  A$main$4791                        main
     000061E0  A$main$4792                        main
     000061E1  A$main$4793                        main
     000061E4  A$main$4794                        main
     000061E5  A$main$4795                        main
     000061E8  A$main$4796                        main
     000061E9  A$main$4797                        main
     000061EC  A$main$4798                        main
     000061EF  A$main$4799                        main
     000061F0  A$main$4800                        main
     000061F1  A$main$4801                        main
     000061F2  A$main$4805                        main
     000061F2  C$main.c$926$1$261                 main
     000061F3  A$main$4806                        main
     000061F5  A$main$4807                        main
     000061F8  A$main$4808                        main
     000061F9  A$main$4812                        main
     000061F9  C$main.c$927$1$261                 main
     000061FC  A$main$4813                        main
     000061FE  A$main$4817                        main
     000061FE  C$main.c$929$1$261                 main
     000061FF  A$main$4818                        main
     00006202  A$main$4819                        main
     00006203  A$main$4820                        main
     00006205  A$main$4821                        main
     00006206  A$main$4822                        main
     00006209  A$main$4823                        main
     0000620A  A$main$4824                        main
     0000620D  A$main$4825                        main
     0000620E  A$main$4826                        main
     00006211  A$main$4827                        main
     00006212  A$main$4828                        main
     00006215  A$main$4829                        main
     00006216  A$main$4830                        main
     00006219  A$main$4831                        main
     0000621A  A$main$4832                        main
     0000621D  A$main$4833                        main
     0000621E  A$main$4834                        main
     00006221  A$main$4835                        main
     00006222  A$main$4836                        main
     00006225  A$main$4837                        main
     00006226  A$main$4838                        main
ASxxxx Linker V03.00 + NoICE + sdld,  page 102.
Hexadecimal  [32-Bits]

Area                                    Addr        Size        Decimal Bytes (Attributes)
--------------------------------        ----        ----        ------- ----- ------------
_CODE                               00000200    000082A2 =       33442. bytes (REL,CON)

      Value  Global                              Global Defined In Module
      -----  --------------------------------   ------------------------
     00006229  A$main$4839                        main
     0000622A  A$main$4840                        main
     0000622D  A$main$4841                        main
     0000622E  A$main$4842                        main
     00006231  A$main$4843                        main
     00006232  A$main$4844                        main
     00006235  A$main$4845                        main
     00006236  A$main$4846                        main
     00006239  A$main$4847                        main
     0000623A  A$main$4848                        main
     0000623D  A$main$4849                        main
     0000623E  A$main$4850                        main
     00006241  A$main$4851                        main
     00006242  A$main$4852                        main
     00006245  A$main$4853                        main
     00006246  A$main$4854                        main
     00006249  A$main$4855                        main
     0000624A  A$main$4856                        main
     0000624D  A$main$4857                        main
     0000624E  A$main$4858                        main
     00006251  A$main$4859                        main
     00006252  A$main$4860                        main
     00006253  A$main$4861                        main
     00006256  A$main$4862                        main
     00006259  A$main$4863                        main
     0000625A  A$main$4867                        main
     0000625A  C$main.c$945$1$261                 main
     0000625D  A$main$4868                        main
     00006260  A$main$4869                        main
     00006261  A$main$4870                        main
     00006264  A$main$4874                        main
     00006264  C$main.c$947$1$261                 main
     00006265  A$main$4875                        main
     00006268  A$main$4876                        main
     00006269  A$main$4877                        main
     0000626A  A$main$4878                        main
     0000626B  A$main$4879                        main
     0000626E  A$main$4880                        main
     0000626F  A$main$4881                        main
     00006271  A$main$4882                        main
     00006272  A$main$4883                        main
     00006274  A$main$4884                        main
     00006275  A$main$4885                        main
     00006277  A$main$4886                        main
     00006278  A$main$4887                        main
     0000627B  A$main$4888                        main
     0000627E  A$main$4889                        main
     0000627F  A$main$4890                        main
     00006280  A$main$4891                        main
     00006283  A$main$4892                        main
     00006286  A$main$4893                        main
ASxxxx Linker V03.00 + NoICE + sdld,  page 103.
Hexadecimal  [32-Bits]

Area                                    Addr        Size        Decimal Bytes (Attributes)
--------------------------------        ----        ----        ------- ----- ------------
_CODE                               00000200    000082A2 =       33442. bytes (REL,CON)

      Value  Global                              Global Defined In Module
      -----  --------------------------------   ------------------------
     00006289  A$main$4894                        main
     0000628C  A$main$4895                        main
     0000628D  A$main$4896                        main
     00006290  A$main$4897                        main
     00006291  A$main$4898                        main
     00006294  A$main$4899                        main
     00006297  A$main$4900                        main
     00006298  A$main$4904                        main
     00006298  C$main.c$959$1$261                 main
     0000629B  A$main$4905                        main
     0000629C  A$main$4906                        main
     0000629D  A$main$4907                        main
     000062A0  A$main$4908                        main
     000062A1  A$main$4909                        main
     000062A2  A$main$4910                        main
     000062A3  A$main$4911                        main
     000062A4  A$main$4912                        main
     000062A6  A$main$4916                        main
     000062A6  C$main.c$961$2$262                 main
     000062A9  A$main$4917                        main
     000062AA  A$main$4918                        main
     000062AB  A$main$4919                        main
     000062AE  A$main$4920                        main
     000062AF  A$main$4921                        main
     000062B2  A$main$4922                        main
     000062B3  A$main$4927                        main
     000062B3  C$main.c$965$1$261                 main
     000062B4  A$main$4928                        main
     000062B7  A$main$4929                        main
     000062BA  A$main$4930                        main
     000062BB  A$main$4935                        main
     000062BB  C$main.c$972$3$264                 main
     000062BC  A$main$4936                        main
     000062BF  A$main$4937                        main
     000062C2  A$main$4938                        main
     000062C5  A$main$4939                        main
     000062C8  A$main$4940                        main
     000062CB  A$main$4941                        main
     000062CC  A$main$4945                        main
     000062CC  C$main.c$978$3$264                 main
     000062CF  A$main$4946                        main
     000062D2  A$main$4947                        main
     000062D4  A$main$4948                        main
     000062D7  A$main$4949                        main
     000062DA  A$main$4950                        main
     000062DD  A$main$4951                        main
     000062DF  A$main$4952                        main
     000062E2  A$main$4953                        main
     000062E3  A$main$4954                        main
     000062E4  A$main$4955                        main
     000062E5  A$main$4956                        main
ASxxxx Linker V03.00 + NoICE + sdld,  page 104.
Hexadecimal  [32-Bits]

Area                                    Addr        Size        Decimal Bytes (Attributes)
--------------------------------        ----        ----        ------- ----- ------------
_CODE                               00000200    000082A2 =       33442. bytes (REL,CON)

      Value  Global                              Global Defined In Module
      -----  --------------------------------   ------------------------
     000062E6  A$main$4958                        main
     000062E9  A$main$4959                        main
     000062EC  A$main$4960                        main
     000062EF  A$main$4961                        main
     000062F2  A$main$4962                        main
     000062F5  A$main$4963                        main
     000062F8  A$main$4971                        main
     000062F8  C$main.c$980$4$265                 main
     000062F8  C$main.c$981$4$265                 main
     000062F9  A$main$4972                        main
     000062FC  A$main$4973                        main
     000062FD  A$main$4974                        main
     00006300  A$main$4975                        main
     00006303  A$main$4979                        main
     00006303  C$main.c$982$4$265                 main
     00006304  A$main$4980                        main
     00006307  A$main$4981                        main
     00006308  A$main$4982                        main
     00006309  A$main$4983                        main
     0000630A  A$main$4984                        main
     0000630B  A$main$4988                        main
     0000630B  C$main.c$984$4$265                 main
     0000630F  A$main$4989                        main
     00006311  A$main$4993                        main
     00006311  C$main.c$986$5$266                 main
     00006312  A$main$4994                        main
     00006315  A$main$4995                        main
     00006318  A$main$4996                        main
     0000631B  A$main$4997                        main
     0000631D  A$main$4999                        main
     00006320  A$main$5003                        main
     00006320  C$main.c$988$6$267                 main
     00006323  A$main$5004                        main
     00006326  A$main$5005                        main
     00006327  A$main$5006                        main
     0000632A  A$main$5007                        main
     0000632D  A$main$5012                        main
     0000632D  C$main.c$991$4$265                 main
     00006331  A$main$5013                        main
     00006333  A$main$5017                        main
     00006333  C$main.c$993$5$268                 main
     00006336  A$main$5018                        main
     00006338  A$main$5019                        main
     0000633B  A$main$5020                        main
     0000633C  A$main$5021                        main
     0000633D  A$main$5022                        main
     0000633E  A$main$5023                        main
     00006340  A$main$5024                        main
     00006342  A$main$5028                        main
     00006342  C$main.c$995$6$269                 main
     00006345  A$main$5029                        main
ASxxxx Linker V03.00 + NoICE + sdld,  page 105.
Hexadecimal  [32-Bits]

Area                                    Addr        Size        Decimal Bytes (Attributes)
--------------------------------        ----        ----        ------- ----- ------------
_CODE                               00000200    000082A2 =       33442. bytes (REL,CON)

      Value  Global                              Global Defined In Module
      -----  --------------------------------   ------------------------
     00006347  A$main$5030                        main
     0000634A  A$main$5036                        main
     0000634A  C$main.c$998$4$265                 main
     0000634E  A$main$5037                        main
     00006350  A$main$5041                        main
     00006350  C$main.c$1000$5$270                main
     00006351  A$main$5042                        main
     00006352  A$main$5043                        main
     00006353  A$main$5044                        main
     00006356  A$main$5045                        main
     00006358  A$main$5047                        main
     0000635B  A$main$5051                        main
     0000635B  C$main.c$1002$6$271                main
     0000635C  A$main$5056                        main
     0000635C  C$main.c$1005$4$265                main
     00006360  A$main$5057                        main
     00006362  A$main$5061                        main
     00006362  C$main.c$1007$5$272                main
     00006363  A$main$5062                        main
     00006365  A$main$5063                        main
     00006366  A$main$5064                        main
     00006367  A$main$5065                        main
     00006368  A$main$5066                        main
     00006369  A$main$5067                        main
     0000636B  A$main$5068                        main
     0000636D  A$main$5072                        main
     0000636D  C$main.c$1009$6$273                main
     0000636E  A$main$5077                        main
     0000636E  C$main.c$1013$4$265                main
     00006371  A$main$5078                        main
     00006372  A$main$5079                        main
     00006374  A$main$5080                        main
     00006377  A$main$5081                        main
     00006378  A$main$5082                        main
     0000637A  A$main$5083                        main
     0000637D  A$main$5084                        main
     00006380  A$main$5085                        main
     00006382  A$main$5086                        main
     00006385  A$main$5087                        main
     00006388  A$main$5088                        main
     0000638A  A$main$5094                        main
     0000638A  C$main.c$1015$5$274                main
     0000638B  A$main$5095                        main
     0000638C  A$main$5096                        main
     0000638D  A$main$5097                        main
     0000638E  A$main$5098                        main
     00006391  A$main$5099                        main
     00006394  A$main$5100                        main
     00006395  A$main$5101                        main
     00006398  A$main$5102                        main
     0000639B  A$main$5103                        main
ASxxxx Linker V03.00 + NoICE + sdld,  page 106.
Hexadecimal  [32-Bits]

Area                                    Addr        Size        Decimal Bytes (Attributes)
--------------------------------        ----        ----        ------- ----- ------------
_CODE                               00000200    000082A2 =       33442. bytes (REL,CON)

      Value  Global                              Global Defined In Module
      -----  --------------------------------   ------------------------
     0000639C  A$main$5104                        main
     0000639F  A$main$5105                        main
     000063A2  A$main$5106                        main
     000063A3  A$main$5107                        main
     000063A4  A$main$5108                        main
     000063A7  A$main$5109                        main
     000063AA  A$main$5110                        main
     000063AB  A$main$5111                        main
     000063AC  A$main$5112                        main
     000063AD  A$main$5116                        main
     000063AD  C$main.c$1017$5$274                main
     000063B0  A$main$5117                        main
     000063B3  A$main$5121                        main
     000063B3  C$main.c$1018$5$274                main
     000063B6  A$main$5122                        main
     000063B9  A$main$5123                        main
     000063BC  A$main$5124                        main
     000063BF  A$main$5129                        main
     000063BF  C$main.c$1021$4$265                main
     000063C3  A$main$5130                        main
     000063C5  A$main$5134                        main
     000063C5  C$main.c$1023$5$275                main
     000063C9  A$main$5135                        main
     000063CC  A$main$5136                        main
     000063CE  A$main$5137                        main
     000063D0  A$main$5138                        main
     000063D1  A$main$5139                        main
     000063D4  A$main$5143                        main
     000063D4  C$main.c$1024$5$275                main
     000063D5  A$main$5144                        main
     000063D6  A$main$5145                        main
     000063D7  A$main$5146                        main
     000063D8  A$main$5147                        main
     000063DB  A$main$5148                        main
     000063DE  A$main$5149                        main
     000063DF  A$main$5150                        main
     000063E2  A$main$5151                        main
     000063E5  A$main$5152                        main
     000063E6  A$main$5153                        main
     000063E9  A$main$5154                        main
     000063EC  A$main$5155                        main
     000063ED  A$main$5156                        main
     000063EE  A$main$5157                        main
     000063F1  A$main$5158                        main
     000063F4  A$main$5159                        main
     000063F5  A$main$5160                        main
     000063F6  A$main$5161                        main
     000063F7  A$main$5166                        main
     000063F7  C$main.c$1027$4$265                main
     000063FB  A$main$5167                        main
     000063FE  A$main$5171                        main
ASxxxx Linker V03.00 + NoICE + sdld,  page 107.
Hexadecimal  [32-Bits]

Area                                    Addr        Size        Decimal Bytes (Attributes)
--------------------------------        ----        ----        ------- ----- ------------
_CODE                               00000200    000082A2 =       33442. bytes (REL,CON)

      Value  Global                              Global Defined In Module
      -----  --------------------------------   ------------------------
     000063FE  C$main.c$1029$5$276                main
     000063FF  A$main$5172                        main
     00006402  A$main$5173                        main
     00006405  A$main$5174                        main
     00006406  A$main$5178                        main
     00006406  C$main.c$1032$4$265                main
     00006409  A$main$5186                        main
     00006409  C$main.c$1034$4$265                main
     00006409  C$main.c$1036$4$265                main
     0000640C  A$main$5187                        main
     0000640D  A$main$5188                        main
     0000640F  A$main$5192                        main
     0000640F  C$main.c$1037$4$265                main
     00006412  A$main$5193                        main
     00006413  A$main$5194                        main
     00006415  A$main$5195                        main
     00006417  A$main$5196                        main
     00006418  A$main$5197                        main
     0000641B  A$main$5198                        main
     0000641D  A$main$5199                        main
     0000641E  A$main$5200                        main
     00006421  A$main$5204                        main
     00006421  C$main.c$1039$4$265                main
     00006423  A$main$5205                        main
     00006424  A$main$5206                        main
     00006426  A$main$5207                        main
     00006427  A$main$5208                        main
     0000642A  A$main$5209                        main
     0000642C  A$main$5211                        main
     0000642F  A$main$5215                        main
     0000642F  C$main.c$1041$5$277                main
     00006432  A$main$5220                        main
     00006432  C$main.c$1043$4$265                main
     00006434  A$main$5221                        main
     00006437  A$main$5222                        main
     00006439  A$main$5223                        main
     0000643C  A$main$5224                        main
     0000643F  A$main$5225                        main
     00006441  A$main$5227                        main
     00006444  A$main$5231                        main
     00006444  C$main.c$1045$5$278                main
     00006448  A$main$5232                        main
     0000644C  A$main$5237                        main
     0000644C  C$main.c$1048$4$265                main
     0000644F  A$main$5238                        main
     00006450  A$main$5239                        main
     00006452  A$main$5240                        main
     00006455  A$main$5241                        main
     00006456  A$main$5242                        main
     00006458  A$main$5243                        main
     0000645B  A$main$5244                        main
ASxxxx Linker V03.00 + NoICE + sdld,  page 108.
Hexadecimal  [32-Bits]

Area                                    Addr        Size        Decimal Bytes (Attributes)
--------------------------------        ----        ----        ------- ----- ------------
_CODE                               00000200    000082A2 =       33442. bytes (REL,CON)

      Value  Global                              Global Defined In Module
      -----  --------------------------------   ------------------------
     0000645E  A$main$5245                        main
     00006460  A$main$5246                        main
     00006463  A$main$5247                        main
     00006466  A$main$5248                        main
     00006468  A$main$5254                        main
     00006468  C$main.c$1050$5$279                main
     0000646B  A$main$5255                        main
     0000646D  A$main$5259                        main
     0000646D  C$main.c$1051$5$279                main
     0000646E  A$main$5260                        main
     0000646F  A$main$5261                        main
     00006470  A$main$5262                        main
     00006471  A$main$5263                        main
     00006474  A$main$5264                        main
     00006477  A$main$5265                        main
     00006478  A$main$5266                        main
     0000647B  A$main$5267                        main
     0000647E  A$main$5268                        main
     0000647F  A$main$5269                        main
     00006482  A$main$5270                        main
     00006485  A$main$5271                        main
     00006486  A$main$5272                        main
     00006487  A$main$5273                        main
     0000648A  A$main$5274                        main
     0000648D  A$main$5275                        main
     0000648E  A$main$5276                        main
     0000648F  A$main$5277                        main
     00006490  A$main$5281                        main
     00006490  C$main.c$1053$5$279                main
     00006493  A$main$5282                        main
     00006496  A$main$5286                        main
     00006496  C$main.c$1054$5$279                main
     00006499  A$main$5287                        main
     0000649C  A$main$5288                        main
     0000649F  A$main$5289                        main
     000064A2  A$main$5294                        main
     000064A2  C$main.c$1057$4$265                main
     000064A5  A$main$5295                        main
     000064A6  A$main$5296                        main
     000064A9  A$main$5300                        main
     000064A9  C$main.c$1059$5$280                main
     000064AD  A$main$5301                        main
     000064B0  A$main$5302                        main
     000064B2  A$main$5303                        main
     000064B4  A$main$5304                        main
     000064B5  A$main$5305                        main
     000064B8  A$main$5309                        main
     000064B8  C$main.c$1060$5$280                main
     000064B9  A$main$5310                        main
     000064BA  A$main$5311                        main
     000064BB  A$main$5312                        main
ASxxxx Linker V03.00 + NoICE + sdld,  page 109.
Hexadecimal  [32-Bits]

Area                                    Addr        Size        Decimal Bytes (Attributes)
--------------------------------        ----        ----        ------- ----- ------------
_CODE                               00000200    000082A2 =       33442. bytes (REL,CON)

      Value  Global                              Global Defined In Module
      -----  --------------------------------   ------------------------
     000064BC  A$main$5313                        main
     000064BF  A$main$5314                        main
     000064C2  A$main$5315                        main
     000064C3  A$main$5316                        main
     000064C6  A$main$5317                        main
     000064C9  A$main$5318                        main
     000064CA  A$main$5319                        main
     000064CD  A$main$5320                        main
     000064D0  A$main$5321                        main
     000064D1  A$main$5322                        main
     000064D2  A$main$5323                        main
     000064D5  A$main$5324                        main
     000064D8  A$main$5325                        main
     000064D9  A$main$5326                        main
     000064DA  A$main$5327                        main
     000064DB  A$main$5331                        main
     000064DB  C$main.c$1062$4$265                main
     000064DE  A$main$5339                        main
     000064DE  C$main.c$1064$4$265                main
     000064DE  C$main.c$1066$4$265                main
     000064E1  A$main$5340                        main
     000064E2  A$main$5341                        main
     000064E3  A$main$5342                        main
     000064E4  A$main$5343                        main
     000064E5  A$main$5344                        main
     000064E6  A$main$5345                        main
     000064E7  A$main$5346                        main
     000064E8  A$main$5350                        main
     000064E8  C$main.c$1067$4$265                main
     000064EB  A$main$5351                        main
     000064EC  A$main$5352                        main
     000064ED  A$main$5353                        main
     000064EE  A$main$5354                        main
     000064EF  A$main$5355                        main
     000064F0  A$main$5356                        main
     000064F1  A$main$5357                        main
     000064F2  A$main$5358                        main
     000064F4  A$main$5359                        main
     000064F5  A$main$5360                        main
     000064F6  A$main$5361                        main
     000064F9  A$main$5362                        main
     000064FA  A$main$5363                        main
     000064FD  A$main$5364                        main
     00006500  A$main$5365                        main
     00006501  A$main$5366                        main
     00006504  A$main$5370                        main
     00006504  C$main.c$1069$4$265                main
     00006506  A$main$5371                        main
     00006507  A$main$5372                        main
     00006509  A$main$5373                        main
     0000650A  A$main$5374                        main
ASxxxx Linker V03.00 + NoICE + sdld,  page 110.
Hexadecimal  [32-Bits]

Area                                    Addr        Size        Decimal Bytes (Attributes)
--------------------------------        ----        ----        ------- ----- ------------
_CODE                               00000200    000082A2 =       33442. bytes (REL,CON)

      Value  Global                              Global Defined In Module
      -----  --------------------------------   ------------------------
     0000650D  A$main$5375                        main
     0000650F  A$main$5377                        main
     00006512  A$main$5381                        main
     00006512  C$main.c$1071$5$281                main
     00006515  A$main$5386                        main
     00006515  C$main.c$1073$4$265                main
     00006517  A$main$5387                        main
     0000651A  A$main$5388                        main
     0000651C  A$main$5389                        main
     0000651F  A$main$5390                        main
     00006522  A$main$5391                        main
     00006524  A$main$5393                        main
     00006527  A$main$5397                        main
     00006527  C$main.c$1075$5$282                main
     0000652B  A$main$5398                        main
     0000652F  A$main$5403                        main
     0000652F  C$main.c$1077$4$265                main
     00006531  A$main$5404                        main
     00006533  A$main$5408                        main
     00006533  C$main.c$1079$5$283                main
     00006536  A$main$5413                        main
     00006536  C$main.c$1081$4$265                main
     0000653A  A$main$5414                        main
     0000653C  A$main$5418                        main
     0000653C  C$main.c$1083$5$284                main
     00006540  A$main$5419                        main
     00006544  A$main$5424                        main
     00006544  C$main.c$1086$4$265                main
     00006547  A$main$5425                        main
     00006548  A$main$5426                        main
     0000654A  A$main$5427                        main
     0000654D  A$main$5428                        main
     0000654E  A$main$5429                        main
     00006550  A$main$5430                        main
     00006553  A$main$5431                        main
     00006556  A$main$5432                        main
     00006558  A$main$5433                        main
     0000655B  A$main$5434                        main
     0000655E  A$main$5435                        main
     00006560  A$main$5441                        main
     00006560  C$main.c$1088$5$285                main
     00006563  A$main$5442                        main
     00006565  A$main$5446                        main
     00006565  C$main.c$1089$5$285                main
     00006566  A$main$5447                        main
     00006567  A$main$5448                        main
     00006568  A$main$5449                        main
     00006569  A$main$5450                        main
     0000656C  A$main$5451                        main
     0000656F  A$main$5452                        main
     00006570  A$main$5453                        main
ASxxxx Linker V03.00 + NoICE + sdld,  page 111.
Hexadecimal  [32-Bits]

Area                                    Addr        Size        Decimal Bytes (Attributes)
--------------------------------        ----        ----        ------- ----- ------------
_CODE                               00000200    000082A2 =       33442. bytes (REL,CON)

      Value  Global                              Global Defined In Module
      -----  --------------------------------   ------------------------
     00006573  A$main$5454                        main
     00006576  A$main$5455                        main
     00006577  A$main$5456                        main
     0000657A  A$main$5457                        main
     0000657D  A$main$5458                        main
     0000657E  A$main$5459                        main
     0000657F  A$main$5460                        main
     00006582  A$main$5461                        main
     00006585  A$main$5462                        main
     00006586  A$main$5463                        main
     00006587  A$main$5464                        main
     00006588  A$main$5468                        main
     00006588  C$main.c$1091$5$285                main
     0000658B  A$main$5469                        main
     0000658E  A$main$5473                        main
     0000658E  C$main.c$1092$5$285                main
     00006591  A$main$5474                        main
     00006594  A$main$5475                        main
     00006597  A$main$5476                        main
     0000659A  A$main$5481                        main
     0000659A  C$main.c$1095$4$265                main
     0000659D  A$main$5482                        main
     0000659E  A$main$5483                        main
     0000659F  A$main$5484                        main
     000065A1  A$main$5485                        main
     000065A4  A$main$5489                        main
     000065A4  C$main.c$1097$4$265                main
     000065A6  A$main$5490                        main
     000065A8  A$main$5494                        main
     000065A8  C$main.c$1099$5$286                main
     000065A9  A$main$5495                        main
     000065AA  A$main$5496                        main
     000065AB  A$main$5497                        main
     000065AC  A$main$5498                        main
     000065AF  A$main$5499                        main
     000065B0  A$main$5500                        main
     000065B1  A$main$5505                        main
     000065B1  C$main.c$1102$4$265                main
     000065B4  A$main$5506                        main
     000065B6  A$main$5507                        main
     000065B9  A$main$5511                        main
     000065B9  C$main.c$1104$5$287                main
     000065BA  A$main$5512                        main
     000065BD  A$main$5513                        main
     000065C0  A$main$5514                        main
     000065C1  A$main$5518                        main
     000065C1  C$main.c$1108$4$265                main
     000065C4  A$main$5526                        main
     000065C4  C$main.c$1110$4$265                main
     000065C4  C$main.c$1112$4$265                main
     000065C7  A$main$5527                        main
ASxxxx Linker V03.00 + NoICE + sdld,  page 112.
Hexadecimal  [32-Bits]

Area                                    Addr        Size        Decimal Bytes (Attributes)
--------------------------------        ----        ----        ------- ----- ------------
_CODE                               00000200    000082A2 =       33442. bytes (REL,CON)

      Value  Global                              Global Defined In Module
      -----  --------------------------------   ------------------------
     000065C8  A$main$5528                        main
     000065C9  A$main$5529                        main
     000065CA  A$main$5530                        main
     000065CB  A$main$5531                        main
     000065CC  A$main$5532                        main
     000065CD  A$main$5533                        main
     000065CE  A$main$5534                        main
     000065D0  A$main$5535                        main
     000065D1  A$main$5536                        main
     000065D2  A$main$5537                        main
     000065D3  A$main$5538                        main
     000065D4  A$main$5539                        main
     000065D5  A$main$5543                        main
     000065D5  C$main.c$1113$4$265                main
     000065D8  A$main$5544                        main
     000065D9  A$main$5545                        main
     000065DA  A$main$5546                        main
     000065DB  A$main$5547                        main
     000065DC  A$main$5548                        main
     000065DD  A$main$5549                        main
     000065DE  A$main$5550                        main
     000065DF  A$main$5551                        main
     000065E1  A$main$5552                        main
     000065E2  A$main$5553                        main
     000065E3  A$main$5554                        main
     000065E6  A$main$5555                        main
     000065E7  A$main$5556                        main
     000065EA  A$main$5557                        main
     000065ED  A$main$5558                        main
     000065EE  A$main$5559                        main
     000065F1  A$main$5563                        main
     000065F1  C$main.c$1115$4$265                main
     000065F3  A$main$5564                        main
     000065F4  A$main$5565                        main
     000065F6  A$main$5566                        main
     000065F7  A$main$5567                        main
     000065FA  A$main$5568                        main
     000065FC  A$main$5570                        main
     000065FF  A$main$5574                        main
     000065FF  C$main.c$1117$5$288                main
     00006602  A$main$5579                        main
     00006602  C$main.c$1119$4$265                main
     00006604  A$main$5580                        main
     00006607  A$main$5581                        main
     00006609  A$main$5582                        main
     0000660C  A$main$5583                        main
     0000660F  A$main$5584                        main
     00006611  A$main$5586                        main
     00006614  A$main$5590                        main
     00006614  C$main.c$1121$5$289                main
     00006618  A$main$5591                        main
ASxxxx Linker V03.00 + NoICE + sdld,  page 113.
Hexadecimal  [32-Bits]

Area                                    Addr        Size        Decimal Bytes (Attributes)
--------------------------------        ----        ----        ------- ----- ------------
_CODE                               00000200    000082A2 =       33442. bytes (REL,CON)

      Value  Global                              Global Defined In Module
      -----  --------------------------------   ------------------------
     0000661C  A$main$5596                        main
     0000661C  C$main.c$1123$4$265                main
     0000661E  A$main$5597                        main
     00006620  A$main$5601                        main
     00006620  C$main.c$1125$5$290                main
     00006623  A$main$5606                        main
     00006623  C$main.c$1127$4$265                main
     00006627  A$main$5607                        main
     00006629  A$main$5611                        main
     00006629  C$main.c$1129$5$291                main
     0000662D  A$main$5612                        main
     00006631  A$main$5617                        main
     00006631  C$main.c$1132$4$265                main
     00006634  A$main$5618                        main
     00006635  A$main$5619                        main
     00006637  A$main$5620                        main
     0000663A  A$main$5621                        main
     0000663B  A$main$5622                        main
     0000663D  A$main$5623                        main
     00006640  A$main$5624                        main
     00006643  A$main$5625                        main
     00006645  A$main$5626                        main
     00006648  A$main$5627                        main
     0000664B  A$main$5628                        main
     0000664D  A$main$5634                        main
     0000664D  C$main.c$1134$5$292                main
     00006650  A$main$5635                        main
     00006652  A$main$5639                        main
     00006652  C$main.c$1135$5$292                main
     00006653  A$main$5640                        main
     00006654  A$main$5641                        main
     00006655  A$main$5642                        main
     00006656  A$main$5643                        main
     00006659  A$main$5644                        main
     0000665C  A$main$5645                        main
     0000665D  A$main$5646                        main
     00006660  A$main$5647                        main
     00006663  A$main$5648                        main
     00006664  A$main$5649                        main
     00006667  A$main$5650                        main
     0000666A  A$main$5651                        main
     0000666B  A$main$5652                        main
     0000666C  A$main$5653                        main
     0000666F  A$main$5654                        main
     00006672  A$main$5655                        main
     00006673  A$main$5656                        main
     00006674  A$main$5657                        main
     00006675  A$main$5661                        main
     00006675  C$main.c$1137$5$292                main
     00006678  A$main$5662                        main
     0000667B  A$main$5666                        main
ASxxxx Linker V03.00 + NoICE + sdld,  page 114.
Hexadecimal  [32-Bits]

Area                                    Addr        Size        Decimal Bytes (Attributes)
--------------------------------        ----        ----        ------- ----- ------------
_CODE                               00000200    000082A2 =       33442. bytes (REL,CON)

      Value  Global                              Global Defined In Module
      -----  --------------------------------   ------------------------
     0000667B  C$main.c$1138$5$292                main
     0000667E  A$main$5667                        main
     00006681  A$main$5668                        main
     00006684  A$main$5669                        main
     00006687  A$main$5674                        main
     00006687  C$main.c$1141$4$265                main
     0000668A  A$main$5675                        main
     0000668B  A$main$5676                        main
     0000668C  A$main$5677                        main
     0000668E  A$main$5678                        main
     00006691  A$main$5682                        main
     00006691  C$main.c$1143$4$265                main
     00006693  A$main$5683                        main
     00006696  A$main$5687                        main
     00006696  C$main.c$1145$5$293                main
     00006697  A$main$5688                        main
     0000669A  A$main$5689                        main
     0000669D  A$main$5690                        main
     0000669E  A$main$5694                        main
     0000669E  C$main.c$1149$4$265                main
     000066A1  A$main$5702                        main
     000066A1  C$main.c$1151$4$265                main
     000066A1  C$main.c$1152$4$265                main
     000066A4  A$main$5703                        main
     000066A8  A$main$5704                        main
     000066AB  A$main$5708                        main
     000066AB  C$main.c$1154$4$265                main
     000066AE  A$main$5709                        main
     000066AF  A$main$5710                        main
     000066B2  A$main$5714                        main
     000066B2  C$main.c$1156$5$294                main
     000066B5  A$main$5715                        main
     000066B7  A$main$5716                        main
     000066B9  A$main$5720                        main
     000066B9  C$main.c$1158$6$295                main
     000066BC  A$main$5721                        main
     000066BE  A$main$5726                        main
     000066BE  C$main.c$1162$6$296                main
     000066C0  A$main$5727                        main
     000066C2  A$main$5728                        main
     000066C3  A$main$5729                        main
     000066C4  A$main$5730                        main
     000066C6  A$main$5731                        main
     000066C7  A$main$5736                        main
     000066C7  C$main.c$1164$5$294                main
     000066CA  A$main$5737                        main
     000066CC  A$main$5738                        main
     000066CE  A$main$5742                        main
     000066CE  C$main.c$1166$6$297                main
     000066D2  A$main$5743                        main
     000066D6  A$main$5744                        main
ASxxxx Linker V03.00 + NoICE + sdld,  page 115.
Hexadecimal  [32-Bits]

Area                                    Addr        Size        Decimal Bytes (Attributes)
--------------------------------        ----        ----        ------- ----- ------------
_CODE                               00000200    000082A2 =       33442. bytes (REL,CON)

      Value  Global                              Global Defined In Module
      -----  --------------------------------   ------------------------
     000066D8  A$main$5749                        main
     000066D8  C$main.c$1170$6$298                main
     000066DB  A$main$5750                        main
     000066DF  A$main$5751                        main
     000066E2  A$main$5752                        main
     000066E4  A$main$5753                        main
     000066E7  A$main$5754                        main
     000066EA  A$main$5755                        main
     000066EC  A$main$5756                        main
     000066EF  A$main$5761                        main
     000066EF  C$main.c$1173$5$294                main
     000066F1  A$main$5762                        main
     000066F2  A$main$5763                        main
     000066F4  A$main$5764                        main
     000066F5  A$main$5765                        main
     000066F8  A$main$5766                        main
     000066FA  A$main$5768                        main
     000066FD  A$main$5772                        main
     000066FD  C$main.c$1175$6$299                main
     00006700  A$main$5777                        main
     00006700  C$main.c$1177$5$294                main
     00006702  A$main$5778                        main
     00006705  A$main$5779                        main
     00006707  A$main$5780                        main
     0000670A  A$main$5781                        main
     0000670D  A$main$5782                        main
     0000670F  A$main$5784                        main
     00006712  A$main$5788                        main
     00006712  C$main.c$1179$6$300                main
     00006716  A$main$5789                        main
     0000671A  A$main$5794                        main
     0000671A  C$main.c$1181$5$294                main
     0000671C  A$main$5795                        main
     0000671E  A$main$5799                        main
     0000671E  C$main.c$1183$6$301                main
     00006721  A$main$5804                        main
     00006721  C$main.c$1185$5$294                main
     00006725  A$main$5805                        main
     00006727  A$main$5809                        main
     00006727  C$main.c$1187$6$302                main
     0000672B  A$main$5810                        main
     0000672F  A$main$5815                        main
     0000672F  C$main.c$1190$5$294                main
     00006732  A$main$5816                        main
     00006733  A$main$5817                        main
     00006735  A$main$5818                        main
     00006738  A$main$5819                        main
     00006739  A$main$5820                        main
     0000673B  A$main$5821                        main
     0000673E  A$main$5822                        main
     00006741  A$main$5823                        main
ASxxxx Linker V03.00 + NoICE + sdld,  page 116.
Hexadecimal  [32-Bits]

Area                                    Addr        Size        Decimal Bytes (Attributes)
--------------------------------        ----        ----        ------- ----- ------------
_CODE                               00000200    000082A2 =       33442. bytes (REL,CON)

      Value  Global                              Global Defined In Module
      -----  --------------------------------   ------------------------
     00006743  A$main$5824                        main
     00006746  A$main$5825                        main
     00006749  A$main$5826                        main
     0000674B  A$main$5832                        main
     0000674B  C$main.c$1192$6$303                main
     0000674E  A$main$5833                        main
     00006750  A$main$5837                        main
     00006750  C$main.c$1194$6$303                main
     00006753  A$main$5838                        main
     00006756  A$main$5839                        main
     00006758  A$main$5840                        main
     0000675B  A$main$5841                        main
     0000675E  A$main$5842                        main
     00006760  A$main$5846                        main
     00006760  C$main.c$1196$7$304                main
     00006761  A$main$5847                        main
     00006762  A$main$5848                        main
     00006763  A$main$5849                        main
     00006764  A$main$5850                        main
     00006767  A$main$5851                        main
     0000676A  A$main$5852                        main
     0000676B  A$main$5853                        main
     0000676E  A$main$5854                        main
     00006771  A$main$5855                        main
     00006772  A$main$5856                        main
     00006775  A$main$5857                        main
     00006778  A$main$5858                        main
     00006779  A$main$5859                        main
     0000677A  A$main$5860                        main
     0000677D  A$main$5861                        main
     00006780  A$main$5862                        main
     00006781  A$main$5863                        main
     00006782  A$main$5864                        main
     00006783  A$main$5869                        main
     00006783  C$main.c$1200$5$294                main
     00006786  A$main$5870                        main
     00006789  A$main$5874                        main
     00006789  C$main.c$1201$5$294                main
     0000678C  A$main$5875                        main
     0000678F  A$main$5876                        main
     00006792  A$main$5877                        main
     00006795  A$main$5878                        main
     00006798  A$main$5883                        main
     00006798  C$main.c$1205$5$305                main
     0000679C  A$main$5884                        main
     000067A0  A$main$5885                        main
     000067A4  A$main$5886                        main
     000067A8  A$main$5890                        main
     000067A8  C$main.c$1208$4$265                main
     000067AB  A$main$5898                        main
     000067AB  C$main.c$1210$4$265                main
ASxxxx Linker V03.00 + NoICE + sdld,  page 117.
Hexadecimal  [32-Bits]

Area                                    Addr        Size        Decimal Bytes (Attributes)
--------------------------------        ----        ----        ------- ----- ------------
_CODE                               00000200    000082A2 =       33442. bytes (REL,CON)

      Value  Global                              Global Defined In Module
      -----  --------------------------------   ------------------------
     000067AB  C$main.c$1213$4$265                main
     000067AE  A$main$5899                        main
     000067AF  A$main$5900                        main
     000067B1  A$main$5904                        main
     000067B1  C$main.c$1216$4$265                main
     000067B4  A$main$5905                        main
     000067B6  A$main$5906                        main
     000067B7  A$main$5907                        main
     000067B9  A$main$5908                        main
     000067BC  A$main$5909                        main
     000067BD  A$main$5910                        main
     000067BF  A$main$5911                        main
     000067C2  A$main$5915                        main
     000067C2  C$main.c$1218$4$265                main
     000067C4  A$main$5916                        main
     000067C5  A$main$5917                        main
     000067C7  A$main$5918                        main
     000067C8  A$main$5919                        main
     000067CB  A$main$5920                        main
     000067CD  A$main$5922                        main
     000067D0  A$main$5926                        main
     000067D0  C$main.c$1220$5$306                main
     000067D3  A$main$5931                        main
     000067D3  C$main.c$1222$4$265                main
     000067D5  A$main$5932                        main
     000067D8  A$main$5933                        main
     000067DA  A$main$5934                        main
     000067DD  A$main$5935                        main
     000067E0  A$main$5936                        main
     000067E2  A$main$5938                        main
     000067E5  A$main$5942                        main
     000067E5  C$main.c$1224$5$307                main
     000067E9  A$main$5943                        main
     000067ED  A$main$5948                        main
     000067ED  C$main.c$1226$4$265                main
     000067EF  A$main$5949                        main
     000067F1  A$main$5953                        main
     000067F1  C$main.c$1228$5$308                main
     000067F4  A$main$5958                        main
     000067F4  C$main.c$1230$4$265                main
     000067F8  A$main$5959                        main
     000067FA  A$main$5963                        main
     000067FA  C$main.c$1232$5$309                main
     000067FE  A$main$5964                        main
     00006802  A$main$5969                        main
     00006802  C$main.c$1235$4$265                main
     00006805  A$main$5970                        main
     00006806  A$main$5971                        main
     00006808  A$main$5972                        main
     0000680B  A$main$5973                        main
     0000680C  A$main$5974                        main
ASxxxx Linker V03.00 + NoICE + sdld,  page 118.
Hexadecimal  [32-Bits]

Area                                    Addr        Size        Decimal Bytes (Attributes)
--------------------------------        ----        ----        ------- ----- ------------
_CODE                               00000200    000082A2 =       33442. bytes (REL,CON)

      Value  Global                              Global Defined In Module
      -----  --------------------------------   ------------------------
     0000680E  A$main$5975                        main
     00006811  A$main$5976                        main
     00006814  A$main$5977                        main
     00006816  A$main$5978                        main
     00006819  A$main$5979                        main
     0000681C  A$main$5980                        main
     0000681E  A$main$5986                        main
     0000681E  C$main.c$1237$5$310                main
     00006821  A$main$5987                        main
     00006823  A$main$5991                        main
     00006823  C$main.c$1238$5$310                main
     00006824  A$main$5992                        main
     00006825  A$main$5993                        main
     00006826  A$main$5994                        main
     00006827  A$main$5995                        main
     0000682A  A$main$5996                        main
     0000682D  A$main$5997                        main
     0000682E  A$main$5998                        main
     00006831  A$main$5999                        main
     00006834  A$main$6000                        main
     00006835  A$main$6001                        main
     00006838  A$main$6002                        main
     0000683B  A$main$6003                        main
     0000683C  A$main$6004                        main
     0000683D  A$main$6005                        main
     00006840  A$main$6006                        main
     00006843  A$main$6007                        main
     00006844  A$main$6008                        main
     00006845  A$main$6009                        main
     00006846  A$main$6013                        main
     00006846  C$main.c$1240$5$310                main
     00006849  A$main$6014                        main
     0000684C  A$main$6018                        main
     0000684C  C$main.c$1241$5$310                main
     0000684F  A$main$6019                        main
     00006852  A$main$6020                        main
     00006855  A$main$6021                        main
     00006858  A$main$6026                        main
     00006858  C$main.c$1244$4$265                main
     0000685B  A$main$6027                        main
     0000685E  A$main$6035                        main
     0000685E  C$main.c$1246$3$264                main
     0000685E  C$main.c$1248$3$264                main
     0000685F  A$main$6036                        main
     00006862  A$main$6037                        main
     00006863  A$main$6038                        main
     00006865  A$main$6039                        main
     00006868  A$main$6043                        main
     00006868  C$main.c$1250$4$311                main
     00006869  A$main$6044                        main
     0000686C  A$main$6045                        main
ASxxxx Linker V03.00 + NoICE + sdld,  page 119.
Hexadecimal  [32-Bits]

Area                                    Addr        Size        Decimal Bytes (Attributes)
--------------------------------        ----        ----        ------- ----- ------------
_CODE                               00000200    000082A2 =       33442. bytes (REL,CON)

      Value  Global                              Global Defined In Module
      -----  --------------------------------   ------------------------
     0000686D  A$main$6046                        main
     0000686E  A$main$6047                        main
     0000686F  A$main$6048                        main
     00006872  A$main$6049                        main
     00006873  A$main$6050                        main
     00006874  A$main$6055                        main
     00006874  C$main.c$1254$2$263                main
     00006874  XG$main$0$0                        main
     00006877  Fmain$__str_29$0$0                 main
     00006888  Fmain$__str_30$0$0                 main
     00006894  Fmain$__str_31$0$0                 main
     000068CB  Fmain$__str_32$0$0                 main
     000068DC  Fmain$__str_33$0$0                 main
     000068E9  Fmain$__str_34$0$0                 main
     000068FE  Fmain$__str_35$0$0                 main
     00006916  Fmain$__str_36$0$0                 main
     0000692B  Fmain$__str_37$0$0                 main
     00006947  Fmain$__str_38$0$0                 main
     00006955  Fmain$__str_39$0$0                 main
     00006961  Fmain$__str_40$0$0                 main
     0000697D  Fmain$__str_41$0$0                 main
     00006996  Fmain$__str_42$0$0                 main
     0000699E  Fmain$__str_43$0$0                 main
     000069AF  Fmain$__str_44$0$0                 main
     000069D9  Fmain$__str_45$0$0                 main
     000069FD  Fmain$__str_46$0$0                 main
     00006A08  A$savedata$78                      savedata
     00006A08  C$savedata.c$12$0$0                savedata
     00006A08  C$savedata.c$14$1$88               savedata
     00006A08  G$savedata_init$0$0                savedata
     00006A08  _savedata_init                     savedata
     00006A0B  A$savedata$79                      savedata
     00006A0C  A$savedata$80                      savedata
     00006A0D  A$savedata$81                      savedata
     00006A0F  A$savedata$85                      savedata
     00006A0F  C$savedata.c$16$2$89               savedata
     00006A12  A$savedata$86                      savedata
     00006A13  A$savedata$87                      savedata
     00006A15  A$savedata$88                      savedata
     00006A16  A$savedata$89                      savedata
     00006A17  A$savedata$90                      savedata
     00006A1A  A$savedata$91                      savedata
     00006A1B  A$savedata$92                      savedata
     00006A1E  A$savedata$93                      savedata
     00006A1F  A$savedata$94                      savedata
     00006A22  A$savedata$95                      savedata
     00006A25  A$savedata$96                      savedata
     00006A26  A$savedata$97                      savedata
     00006A27  A$savedata$101                     savedata
     00006A27  C$savedata.c$20$2$89               savedata
     00006A2A  A$savedata$102                     savedata
ASxxxx Linker V03.00 + NoICE + sdld,  page 120.
Hexadecimal  [32-Bits]

Area                                    Addr        Size        Decimal Bytes (Attributes)
--------------------------------        ----        ----        ------- ----- ------------
_CODE                               00000200    000082A2 =       33442. bytes (REL,CON)

      Value  Global                              Global Defined In Module
      -----  --------------------------------   ------------------------
     00006A2C  A$savedata$103                     savedata
     00006A2D  A$savedata$108                     savedata
     00006A2D  C$savedata.c$24$2$90               savedata
     00006A31  A$savedata$109                     savedata
     00006A35  A$savedata$113                     savedata
     00006A35  C$savedata.c$25$2$90               savedata
     00006A38  A$savedata$114                     savedata
     00006A3B  A$savedata$115                     savedata
     00006A3E  A$savedata$116                     savedata
     00006A40  A$savedata$120                     savedata
     00006A40  C$savedata.c$26$2$90               savedata
     00006A44  A$savedata$124                     savedata
     00006A44  C$savedata.c$27$2$90               savedata
     00006A47  A$savedata$125                     savedata
     00006A49  A$savedata$130                     savedata
     00006A49  C$savedata.c$29$1$88               savedata
     00006A49  XG$savedata_init$0$0               savedata
     00006A4A  A$savedata$143                     savedata
     00006A4A  C$savedata.c$31$1$88               savedata
     00006A4A  C$savedata.c$33$1$91               savedata
     00006A4A  G$savedata_commit$0$0              savedata
     00006A4A  _savedata_commit                   savedata
     00006A4D  A$savedata$144                     savedata
     00006A4E  A$savedata$145                     savedata
     00006A50  A$savedata$149                     savedata
     00006A50  C$savedata.c$35$2$92               savedata
     00006A54  A$savedata$150                     savedata
     00006A58  A$savedata$154                     savedata
     00006A58  C$savedata.c$36$2$92               savedata
     00006A5B  A$savedata$155                     savedata
     00006A5E  A$savedata$156                     savedata
     00006A61  A$savedata$157                     savedata
     00006A63  A$savedata$161                     savedata
     00006A63  C$savedata.c$37$2$92               savedata
     00006A67  A$savedata$165                     savedata
     00006A67  C$savedata.c$38$2$92               savedata
     00006A69  A$savedata$166                     savedata
     00006A6A  A$savedata$171                     savedata
     00006A6A  C$savedata.c$42$1$91               savedata
     00006A6D  A$savedata$172                     savedata
     00006A6E  A$savedata$173                     savedata
     00006A70  A$savedata$174                     savedata
     00006A71  A$savedata$175                     savedata
     00006A72  A$savedata$176                     savedata
     00006A75  A$savedata$177                     savedata
     00006A76  A$savedata$178                     savedata
     00006A79  A$savedata$179                     savedata
     00006A7A  A$savedata$180                     savedata
     00006A7D  A$savedata$181                     savedata
     00006A7E  A$savedata$182                     savedata
     00006A7F  A$savedata$183                     savedata
ASxxxx Linker V03.00 + NoICE + sdld,  page 121.
Hexadecimal  [32-Bits]

Area                                    Addr        Size        Decimal Bytes (Attributes)
--------------------------------        ----        ----        ------- ----- ------------
_CODE                               00000200    000082A2 =       33442. bytes (REL,CON)

      Value  Global                              Global Defined In Module
      -----  --------------------------------   ------------------------
     00006A80  A$savedata$184                     savedata
     00006A81  A$savedata$185                     savedata
     00006A82  A$savedata$186                     savedata
     00006A83  A$savedata$187                     savedata
     00006A85  A$savedata$191                     savedata
     00006A85  C$savedata.c$46$2$93               savedata
     00006A87  A$savedata$192                     savedata
     00006A88  A$savedata$193                     savedata
     00006A89  A$savedata$194                     savedata
     00006A8C  A$savedata$195                     savedata
     00006A8D  A$savedata$199                     savedata
     00006A8D  C$savedata.c$47$2$93               savedata
     00006A90  A$savedata$200                     savedata
     00006A91  A$savedata$201                     savedata
     00006A93  A$savedata$202                     savedata
     00006A94  A$savedata$203                     savedata
     00006A95  A$savedata$204                     savedata
     00006A98  A$savedata$205                     savedata
     00006A99  A$savedata$206                     savedata
     00006A9C  A$savedata$207                     savedata
     00006A9D  A$savedata$208                     savedata
     00006AA0  A$savedata$209                     savedata
     00006AA3  A$savedata$210                     savedata
     00006AA4  A$savedata$211                     savedata
     00006AA5  A$savedata$215                     savedata
     00006AA5  C$savedata.c$50$2$93               savedata
     00006AA7  A$savedata$216                     savedata
     00006AA8  A$savedata$221                     savedata
     00006AA8  C$savedata.c$52$1$91               savedata
     00006AAA  A$savedata$226                     savedata
     00006AAA  C$savedata.c$53$1$91               savedata
     00006AAA  XG$savedata_commit$0$0             savedata
     00006AAB  A$savestruct$54                    savestruct
     00006AAB  C$savestruct.c$6$0$0               savestruct
     00006AAB  G$savestruct_reset$0$0             savestruct
     00006AAB  _savestruct_reset                  savestruct
     00006AAD  A$savestruct$55                    savestruct
     00006AB1  A$savestruct$56                    savestruct
     00006AB3  A$savestruct$57                    savestruct
     00006AB4  A$savestruct$58                    savestruct
     00006AB5  A$savestruct$62                    savestruct
     00006AB5  C$savestruct.c$8$1$0               savestruct
     00006AB8  A$savestruct$63                    savestruct
     00006AB9  A$savestruct$64                    savestruct
     00006ABA  A$savestruct$65                    savestruct
     00006ABC  A$savestruct$66                    savestruct
     00006ABD  A$savestruct$67                    savestruct
     00006ABE  A$savestruct$68                    savestruct
     00006ABF  A$savestruct$69                    savestruct
     00006AC0  A$savestruct$70                    savestruct
     00006AC2  A$savestruct$71                    savestruct
ASxxxx Linker V03.00 + NoICE + sdld,  page 122.
Hexadecimal  [32-Bits]

Area                                    Addr        Size        Decimal Bytes (Attributes)
--------------------------------        ----        ----        ------- ----- ------------
_CODE                               00000200    000082A2 =       33442. bytes (REL,CON)

      Value  Global                              Global Defined In Module
      -----  --------------------------------   ------------------------
     00006AC3  A$savestruct$72                    savestruct
     00006AC4  A$savestruct$73                    savestruct
     00006AC5  A$savestruct$74                    savestruct
     00006AC6  A$savestruct$75                    savestruct
     00006AC8  A$savestruct$76                    savestruct
     00006AC9  A$savestruct$77                    savestruct
     00006ACA  A$savestruct$78                    savestruct
     00006ACB  A$savestruct$79                    savestruct
     00006ACC  A$savestruct$80                    savestruct
     00006ACD  A$savestruct$81                    savestruct
     00006ACF  A$savestruct$85                    savestruct
     00006ACF  C$savestruct.c$9$1$24              savestruct
     00006AD2  A$savestruct$86                    savestruct
     00006AD5  A$savestruct$87                    savestruct
     00006AD6  A$savestruct$88                    savestruct
     00006AD8  A$savestruct$89                    savestruct
     00006AD9  A$savestruct$90                    savestruct
     00006ADA  A$savestruct$91                    savestruct
     00006ADB  A$savestruct$92                    savestruct
     00006ADE  A$savestruct$93                    savestruct
     00006AE0  A$savestruct$94                    savestruct
     00006AE1  A$savestruct$98                    savestruct
     00006AE1  C$savestruct.c$10$1$24             savestruct
     00006AE4  A$savestruct$99                    savestruct
     00006AE7  A$savestruct$100                   savestruct
     00006AE8  A$savestruct$101                   savestruct
     00006AEB  A$savestruct$102                   savestruct
     00006AED  A$savestruct$103                   savestruct
     00006AEF  A$savestruct$104                   savestruct
     00006AF1  A$savestruct$109                   savestruct
     00006AF1  C$savestruct.c$11$1$24             savestruct
     00006AF1  XG$savestruct_reset$0$0            savestruct
     00006AF2  A$savestruct$119                   savestruct
     00006AF2  C$savestruct.c$13$1$24             savestruct
     00006AF2  G$savestruct_valid$0$0             savestruct
     00006AF2  _savestruct_valid                  savestruct
     00006AF4  A$savestruct$120                   savestruct
     00006AF8  A$savestruct$121                   savestruct
     00006AFA  A$savestruct$122                   savestruct
     00006AFB  A$savestruct$123                   savestruct
     00006AFC  A$savestruct$127                   savestruct
     00006AFC  C$savestruct.c$15$1$24             savestruct
     00006AFF  A$savestruct$128                   savestruct
     00006B00  A$savestruct$129                   savestruct
     00006B01  A$savestruct$130                   savestruct
     00006B02  A$savestruct$131                   savestruct
     00006B04  A$savestruct$132                   savestruct
     00006B05  A$savestruct$133                   savestruct
     00006B06  A$savestruct$134                   savestruct
     00006B07  A$savestruct$135                   savestruct
     00006B09  A$savestruct$136                   savestruct
ASxxxx Linker V03.00 + NoICE + sdld,  page 123.
Hexadecimal  [32-Bits]

Area                                    Addr        Size        Decimal Bytes (Attributes)
--------------------------------        ----        ----        ------- ----- ------------
_CODE                               00000200    000082A2 =       33442. bytes (REL,CON)

      Value  Global                              Global Defined In Module
      -----  --------------------------------   ------------------------
     00006B0A  A$savestruct$137                   savestruct
     00006B0B  A$savestruct$138                   savestruct
     00006B0C  A$savestruct$139                   savestruct
     00006B0D  A$savestruct$140                   savestruct
     00006B0F  A$savestruct$141                   savestruct
     00006B10  A$savestruct$142                   savestruct
     00006B11  A$savestruct$143                   savestruct
     00006B12  A$savestruct$144                   savestruct
     00006B13  A$savestruct$145                   savestruct
     00006B14  A$savestruct$146                   savestruct
     00006B16  A$savestruct$150                   savestruct
     00006B16  C$savestruct.c$16$1$26             savestruct
     00006B19  A$savestruct$151                   savestruct
     00006B1C  A$savestruct$152                   savestruct
     00006B1F  A$savestruct$153                   savestruct
     00006B20  A$savestruct$154                   savestruct
     00006B21  A$savestruct$155                   savestruct
     00006B22  A$savestruct$156                   savestruct
     00006B25  A$savestruct$157                   savestruct
     00006B26  A$savestruct$158                   savestruct
     00006B27  A$savestruct$159                   savestruct
     00006B28  A$savestruct$160                   savestruct
     00006B29  A$savestruct$161                   savestruct
     00006B2A  A$savestruct$162                   savestruct
     00006B2B  A$savestruct$163                   savestruct
     00006B2D  A$savestruct$164                   savestruct
     00006B2F  A$savestruct$165                   savestruct
     00006B30  A$savestruct$166                   savestruct
     00006B31  A$savestruct$167                   savestruct
     00006B33  A$savestruct$168                   savestruct
     00006B35  A$savestruct$173                   savestruct
     00006B35  C$savestruct.c$17$1$26             savestruct
     00006B35  XG$savestruct_valid$0$0            savestruct
     00006B36  A$sinlut$53                        sinlut
     00006B36  C$sinlut.c$23$0$0                  sinlut
     00006B36  G$cheapSin$0$0                     sinlut
     00006B36  _cheapSin                          sinlut
     00006B38  A$sinlut$54                        sinlut
     00006B3C  A$sinlut$55                        sinlut
     00006B3E  A$sinlut$59                        sinlut
     00006B3E  C$sinlut.c$25$1$4                  sinlut
     00006B41  A$sinlut$60                        sinlut
     00006B44  A$sinlut$61                        sinlut
     00006B46  A$sinlut$62                        sinlut
     00006B47  A$sinlut$63                        sinlut
     00006B48  A$sinlut$64                        sinlut
     00006B49  A$sinlut$65                        sinlut
     00006B4A  A$sinlut$66                        sinlut
     00006B4B  A$sinlut$67                        sinlut
     00006B4C  A$sinlut$68                        sinlut
     00006B4E  A$sinlut$73                        sinlut
ASxxxx Linker V03.00 + NoICE + sdld,  page 124.
Hexadecimal  [32-Bits]

Area                                    Addr        Size        Decimal Bytes (Attributes)
--------------------------------        ----        ----        ------- ----- ------------
_CODE                               00000200    000082A2 =       33442. bytes (REL,CON)

      Value  Global                              Global Defined In Module
      -----  --------------------------------   ------------------------
     00006B4E  C$sinlut.c$26$1$4                  sinlut
     00006B4E  XG$cheapSin$0$0                    sinlut
     00006B4F  Fsinlut$sinlut$0$0                 sinlut
     00006D4F  A$sinlut$344                       sinlut
     00006D4F  C$sinlut.c$28$1$4                  sinlut
     00006D4F  C$sinlut.c$30$1$6                  sinlut
     00006D4F  G$cheapCos$0$0                     sinlut
     00006D4F  _cheapCos                          sinlut
     00006D52  A$sinlut$345                       sinlut
     00006D53  A$sinlut$346                       sinlut
     00006D54  A$sinlut$347                       sinlut
     00006D56  A$sinlut$348                       sinlut
     00006D57  A$sinlut$349                       sinlut
     00006D58  A$sinlut$350                       sinlut
     00006D59  A$sinlut$351                       sinlut
     00006D5C  A$sinlut$352                       sinlut
     00006D5D  A$sinlut$357                       sinlut
     00006D5D  C$sinlut.c$31$1$6                  sinlut
     00006D5D  XG$cheapCos$0$0                    sinlut
     00006D5E  A$util$76                          util
     00006D5E  C$util.c$16$0$0                    util
     00006D5E  C$util.c$18$1$60                   util
     00006D5E  G$util_smsClear$0$0                util
     00006D5E  _util_smsClear                     util
     00006D61  A$util$77                          util
     00006D64  A$util$81                          util
     00006D64  C$util.c$19$1$60                   util
     00006D67  A$util$85                          util
     00006D67  C$util.c$20$1$60                   util
     00006D6A  A$util$86                          util
     00006D6C  A$util$90                          util
     00006D6C  C$util.c$21$1$60                   util
     00006D6F  A$util$91                          util
     00006D70  A$util$92                          util
     00006D71  A$util$93                          util
     00006D72  A$util$94                          util
     00006D74  A$util$98                          util
     00006D74  C$util.c$23$2$61                   util
     00006D75  A$util$99                          util
     00006D76  A$util$100                         util
     00006D77  A$util$101                         util
     00006D78  A$util$102                         util
     00006D7B  A$util$103                         util
     00006D7D  A$util$108                         util
     00006D7D  C$util.c$27$2$62                   util
     00006D7E  A$util$109                         util
     00006D7F  A$util$110                         util
     00006D80  A$util$111                         util
     00006D81  A$util$112                         util
     00006D84  A$util$117                         util
     00006D84  C$util.c$29$1$60                   util
ASxxxx Linker V03.00 + NoICE + sdld,  page 125.
Hexadecimal  [32-Bits]

Area                                    Addr        Size        Decimal Bytes (Attributes)
--------------------------------        ----        ----        ------- ----- ------------
_CODE                               00000200    000082A2 =       33442. bytes (REL,CON)

      Value  Global                              Global Defined In Module
      -----  --------------------------------   ------------------------
     00006D87  A$util$118                         util
     00006D88  A$util$119                         util
     00006D89  A$util$120                         util
     00006D8A  A$util$121                         util
     00006D8B  A$util$122                         util
     00006D8D  A$util$123                         util
     00006D8E  A$util$124                         util
     00006D91  A$util$125                         util
     00006D92  A$util$126                         util
     00006D93  A$util$127                         util
     00006D94  A$util$131                         util
     00006D94  C$util.c$30$1$60                   util
     00006D97  A$util$132                         util
     00006D98  A$util$133                         util
     00006D99  A$util$134                         util
     00006D9A  A$util$135                         util
     00006D9B  A$util$136                         util
     00006D9C  A$util$137                         util
     00006D9F  A$util$138                         util
     00006DA0  A$util$139                         util
     00006DA3  A$util$140                         util
     00006DA4  A$util$141                         util
     00006DA5  A$util$142                         util
     00006DA6  A$util$143                         util
     00006DA7  A$util$144                         util
     00006DA8  A$util$145                         util
     00006DAB  A$util$146                         util
     00006DAE  A$util$147                         util
     00006DAF  A$util$148                         util
     00006DB0  A$util$152                         util
     00006DB0  C$util.c$31$1$60                   util
     00006DB2  A$util$153                         util
     00006DB5  A$util$157                         util
     00006DB5  C$util.c$32$1$60                   util
     00006DB7  A$util$158                         util
     00006DBA  A$util$162                         util
     00006DBA  C$util.c$33$1$60                   util
     00006DBD  A$util$166                         util
     00006DBD  C$util.c$34$1$60                   util
     00006DC0  A$util$170                         util
     00006DC0  C$util.c$35$1$60                   util
     00006DC3  A$util$174                         util
     00006DC3  C$util.c$36$1$60                   util
     00006DC6  A$util$178                         util
     00006DC6  C$util.c$37$1$60                   util
     00006DC9  A$util$186                         util
     00006DC9  C$util.c$38$1$60                   util
     00006DC9  C$util.c$39$1$60                   util
     00006DC9  XG$util_smsClear$0$0               util
     00006DCC  A$vfont$79                         vfont
     00006DCC  C$vfont.c$112$0$0                  vfont
ASxxxx Linker V03.00 + NoICE + sdld,  page 126.
Hexadecimal  [32-Bits]

Area                                    Addr        Size        Decimal Bytes (Attributes)
--------------------------------        ----        ----        ------- ----- ------------
_CODE                               00000200    000082A2 =       33442. bytes (REL,CON)

      Value  Global                              Global Defined In Module
      -----  --------------------------------   ------------------------
     00006DCC  G$drawLetter$0$0                   vfont
     00006DCC  _drawLetter                        vfont
     00006DCE  A$vfont$80                         vfont
     00006DD2  A$vfont$81                         vfont
     00006DD4  A$vfont$82                         vfont
     00006DD7  A$vfont$83                         vfont
     00006DD8  A$vfont$84                         vfont
     00006DD9  A$vfont$88                         vfont
     00006DD9  C$vfont.c$114$1$0                  vfont
     00006DDC  A$vfont$92                         vfont
     00006DDC  C$vfont.c$122$1$5                  vfont
     00006DDF  A$vfont$93                         vfont
     00006DE1  A$vfont$94                         vfont
     00006DE3  A$vfont$95                         vfont
     00006DE5  A$vfont$96                         vfont
     00006DE8  A$vfont$97                         vfont
     00006DEA  A$vfont$101                        vfont
     00006DEA  C$vfont.c$123$2$6                  vfont
     00006DED  A$vfont$102                        vfont
     00006DF0  A$vfont$103                        vfont
     00006DF2  A$vfont$104                        vfont
     00006DF3  A$vfont$105                        vfont
     00006DF5  A$vfont$106                        vfont
     00006DF6  A$vfont$107                        vfont
     00006DF7  A$vfont$108                        vfont
     00006DF8  A$vfont$109                        vfont
     00006DF9  A$vfont$110                        vfont
     00006DFA  A$vfont$111                        vfont
     00006DFB  A$vfont$112                        vfont
     00006DFC  A$vfont$113                        vfont
     00006DFD  A$vfont$114                        vfont
     00006DFE  A$vfont$115                        vfont
     00006E00  A$vfont$116                        vfont
     00006E02  A$vfont$117                        vfont
     00006E03  A$vfont$118                        vfont
     00006E04  A$vfont$119                        vfont
     00006E05  A$vfont$120                        vfont
     00006E06  A$vfont$121                        vfont
     00006E07  A$vfont$122                        vfont
     00006E08  A$vfont$123                        vfont
     00006E09  A$vfont$127                        vfont
     00006E09  C$vfont.c$124$2$6                  vfont
     00006E0C  A$vfont$128                        vfont
     00006E0F  A$vfont$132                        vfont
     00006E0F  C$vfont.c$125$2$6                  vfont
     00006E11  A$vfont$133                        vfont
     00006E12  A$vfont$134                        vfont
     00006E13  A$vfont$135                        vfont
     00006E14  A$vfont$139                        vfont
     00006E14  C$vfont.c$126$2$6                  vfont
     00006E17  A$vfont$140                        vfont
ASxxxx Linker V03.00 + NoICE + sdld,  page 127.
Hexadecimal  [32-Bits]

Area                                    Addr        Size        Decimal Bytes (Attributes)
--------------------------------        ----        ----        ------- ----- ------------
_CODE                               00000200    000082A2 =       33442. bytes (REL,CON)

      Value  Global                              Global Defined In Module
      -----  --------------------------------   ------------------------
     00006E1A  A$vfont$141                        vfont
     00006E1D  A$vfont$146                        vfont
     00006E1D  C$vfont.c$127$1$5                  vfont
     00006E20  A$vfont$147                        vfont
     00006E22  A$vfont$148                        vfont
     00006E24  A$vfont$149                        vfont
     00006E26  A$vfont$150                        vfont
     00006E29  A$vfont$151                        vfont
     00006E2B  A$vfont$155                        vfont
     00006E2B  C$vfont.c$128$2$7                  vfont
     00006E2E  A$vfont$156                        vfont
     00006E31  A$vfont$157                        vfont
     00006E33  A$vfont$158                        vfont
     00006E34  A$vfont$159                        vfont
     00006E36  A$vfont$160                        vfont
     00006E37  A$vfont$161                        vfont
     00006E38  A$vfont$162                        vfont
     00006E39  A$vfont$163                        vfont
     00006E3A  A$vfont$164                        vfont
     00006E3B  A$vfont$165                        vfont
     00006E3C  A$vfont$166                        vfont
     00006E3D  A$vfont$167                        vfont
     00006E3E  A$vfont$168                        vfont
     00006E3F  A$vfont$169                        vfont
     00006E41  A$vfont$170                        vfont
     00006E43  A$vfont$171                        vfont
     00006E44  A$vfont$172                        vfont
     00006E45  A$vfont$173                        vfont
     00006E46  A$vfont$174                        vfont
     00006E47  A$vfont$175                        vfont
     00006E48  A$vfont$176                        vfont
     00006E49  A$vfont$177                        vfont
     00006E4A  A$vfont$181                        vfont
     00006E4A  C$vfont.c$129$2$7                  vfont
     00006E4D  A$vfont$182                        vfont
     00006E50  A$vfont$186                        vfont
     00006E50  C$vfont.c$130$2$7                  vfont
     00006E52  A$vfont$187                        vfont
     00006E53  A$vfont$188                        vfont
     00006E54  A$vfont$189                        vfont
     00006E55  A$vfont$193                        vfont
     00006E55  C$vfont.c$131$2$7                  vfont
     00006E58  A$vfont$194                        vfont
     00006E5B  A$vfont$195                        vfont
     00006E5E  A$vfont$200                        vfont
     00006E5E  C$vfont.c$132$1$5                  vfont
     00006E61  A$vfont$201                        vfont
     00006E63  A$vfont$202                        vfont
     00006E65  A$vfont$203                        vfont
     00006E67  A$vfont$204                        vfont
     00006E6A  A$vfont$205                        vfont
ASxxxx Linker V03.00 + NoICE + sdld,  page 128.
Hexadecimal  [32-Bits]

Area                                    Addr        Size        Decimal Bytes (Attributes)
--------------------------------        ----        ----        ------- ----- ------------
_CODE                               00000200    000082A2 =       33442. bytes (REL,CON)

      Value  Global                              Global Defined In Module
      -----  --------------------------------   ------------------------
     00006E6C  A$vfont$209                        vfont
     00006E6C  C$vfont.c$133$2$8                  vfont
     00006E6F  A$vfont$210                        vfont
     00006E72  A$vfont$211                        vfont
     00006E74  A$vfont$212                        vfont
     00006E75  A$vfont$213                        vfont
     00006E77  A$vfont$214                        vfont
     00006E78  A$vfont$215                        vfont
     00006E79  A$vfont$216                        vfont
     00006E7A  A$vfont$217                        vfont
     00006E7B  A$vfont$218                        vfont
     00006E7C  A$vfont$219                        vfont
     00006E7D  A$vfont$220                        vfont
     00006E7E  A$vfont$221                        vfont
     00006E7F  A$vfont$222                        vfont
     00006E80  A$vfont$223                        vfont
     00006E82  A$vfont$224                        vfont
     00006E84  A$vfont$225                        vfont
     00006E85  A$vfont$226                        vfont
     00006E86  A$vfont$227                        vfont
     00006E87  A$vfont$228                        vfont
     00006E88  A$vfont$229                        vfont
     00006E89  A$vfont$230                        vfont
     00006E8A  A$vfont$231                        vfont
     00006E8B  A$vfont$235                        vfont
     00006E8B  C$vfont.c$134$2$8                  vfont
     00006E8E  A$vfont$236                        vfont
     00006E91  A$vfont$240                        vfont
     00006E91  C$vfont.c$135$2$8                  vfont
     00006E93  A$vfont$241                        vfont
     00006E94  A$vfont$242                        vfont
     00006E95  A$vfont$243                        vfont
     00006E96  A$vfont$247                        vfont
     00006E96  C$vfont.c$136$2$8                  vfont
     00006E99  A$vfont$248                        vfont
     00006E9C  A$vfont$249                        vfont
     00006E9E  A$vfont$254                        vfont
     00006E9E  C$vfont.c$138$1$5                  vfont
     00006EA1  A$vfont$255                        vfont
     00006EA3  A$vfont$256                        vfont
     00006EA5  A$vfont$257                        vfont
     00006EA7  A$vfont$258                        vfont
     00006EAA  A$vfont$259                        vfont
     00006EAC  A$vfont$263                        vfont
     00006EAC  C$vfont.c$139$2$9                  vfont
     00006EAF  A$vfont$264                        vfont
     00006EB2  A$vfont$265                        vfont
     00006EB4  A$vfont$266                        vfont
     00006EB5  A$vfont$267                        vfont
     00006EB7  A$vfont$268                        vfont
     00006EB8  A$vfont$269                        vfont
ASxxxx Linker V03.00 + NoICE + sdld,  page 129.
Hexadecimal  [32-Bits]

Area                                    Addr        Size        Decimal Bytes (Attributes)
--------------------------------        ----        ----        ------- ----- ------------
_CODE                               00000200    000082A2 =       33442. bytes (REL,CON)

      Value  Global                              Global Defined In Module
      -----  --------------------------------   ------------------------
     00006EB9  A$vfont$270                        vfont
     00006EBA  A$vfont$271                        vfont
     00006EBB  A$vfont$272                        vfont
     00006EBC  A$vfont$273                        vfont
     00006EBD  A$vfont$274                        vfont
     00006EBE  A$vfont$275                        vfont
     00006EBF  A$vfont$276                        vfont
     00006EC0  A$vfont$277                        vfont
     00006EC2  A$vfont$278                        vfont
     00006EC4  A$vfont$279                        vfont
     00006EC5  A$vfont$280                        vfont
     00006EC6  A$vfont$281                        vfont
     00006EC7  A$vfont$282                        vfont
     00006EC8  A$vfont$283                        vfont
     00006EC9  A$vfont$284                        vfont
     00006ECA  A$vfont$285                        vfont
     00006ECB  A$vfont$289                        vfont
     00006ECB  C$vfont.c$140$2$9                  vfont
     00006ECE  A$vfont$290                        vfont
     00006ED1  A$vfont$294                        vfont
     00006ED1  C$vfont.c$141$2$9                  vfont
     00006ED3  A$vfont$295                        vfont
     00006ED4  A$vfont$296                        vfont
     00006ED5  A$vfont$297                        vfont
     00006ED6  A$vfont$301                        vfont
     00006ED6  C$vfont.c$142$2$9                  vfont
     00006ED9  A$vfont$302                        vfont
     00006EDC  A$vfont$303                        vfont
     00006EDE  A$vfont$308                        vfont
     00006EDE  C$vfont.c$145$2$10                 vfont
     00006EE2  A$vfont$312                        vfont
     00006EE2  C$vfont.c$146$2$10                 vfont
     00006EE6  A$vfont$313                        vfont
     00006EE8  A$vfont$318                        vfont
     00006EE8  C$vfont.c$149$1$5                  vfont
     00006EEB  A$vfont$319                        vfont
     00006EEE  A$vfont$323                        vfont
     00006EEE  C$vfont.c$150$1$5                  vfont
     00006EF1  A$vfont$324                        vfont
     00006EF4  A$vfont$328                        vfont
     00006EF4  C$vfont.c$152$1$5                  vfont
     00006EF5  A$vfont$329                        vfont
     00006EF6  A$vfont$330                        vfont
     00006EF9  A$vfont$331                        vfont
     00006EFC  A$vfont$332                        vfont
     00006EFE  A$vfont$333                        vfont
     00006EFF  A$vfont$334                        vfont
     00006F01  A$vfont$336                        vfont
     00006F02  A$vfont$337                        vfont
     00006F04  A$vfont$338                        vfont
     00006F05  A$vfont$340                        vfont
ASxxxx Linker V03.00 + NoICE + sdld,  page 130.
Hexadecimal  [32-Bits]

Area                                    Addr        Size        Decimal Bytes (Attributes)
--------------------------------        ----        ----        ------- ----- ------------
_CODE                               00000200    000082A2 =       33442. bytes (REL,CON)

      Value  Global                              Global Defined In Module
      -----  --------------------------------   ------------------------
     00006F07  A$vfont$341                        vfont
     00006F08  A$vfont$342                        vfont
     00006F09  A$vfont$343                        vfont
     00006F0A  A$vfont$344                        vfont
     00006F0D  A$vfont$345                        vfont
     00006F0E  A$vfont$346                        vfont
     00006F0F  A$vfont$347                        vfont
     00006F10  A$vfont$351                        vfont
     00006F10  C$vfont.c$153$1$5                  vfont
     00006F11  A$vfont$352                        vfont
     00006F14  A$vfont$353                        vfont
     00006F16  A$vfont$354                        vfont
     00006F17  A$vfont$355                        vfont
     00006F19  A$vfont$357                        vfont
     00006F1A  A$vfont$358                        vfont
     00006F1C  A$vfont$359                        vfont
     00006F1D  A$vfont$361                        vfont
     00006F1F  A$vfont$362                        vfont
     00006F20  A$vfont$363                        vfont
     00006F21  A$vfont$364                        vfont
     00006F24  A$vfont$365                        vfont
     00006F25  A$vfont$366                        vfont
     00006F26  A$vfont$367                        vfont
     00006F27  A$vfont$371                        vfont
     00006F27  C$vfont.c$155$1$5                  vfont
     00006F2B  A$vfont$375                        vfont
     00006F2B  C$vfont.c$157$1$5                  vfont
     00006F2C  A$vfont$376                        vfont
     00006F2D  A$vfont$377                        vfont
     00006F30  A$vfont$381                        vfont
     00006F30  C$vfont.c$158$1$5                  vfont
     00006F33  A$vfont$382                        vfont
     00006F36  A$vfont$384                        vfont
     00006F39  A$vfont$385                        vfont
     00006F3C  A$vfont$386                        vfont
     00006F3D  A$vfont$387                        vfont
     00006F3E  A$vfont$388                        vfont
     00006F3F  A$vfont$389                        vfont
     00006F42  A$vfont$393                        vfont
     00006F42  C$vfont.c$160$3$12                 vfont
     00006F45  A$vfont$394                        vfont
     00006F48  A$vfont$398                        vfont
     00006F48  C$vfont.c$161$3$12                 vfont
     00006F4B  A$vfont$399                        vfont
     00006F4C  A$vfont$403                        vfont
     00006F4C  C$vfont.c$163$3$12                 vfont
     00006F4D  A$vfont$404                        vfont
     00006F4F  A$vfont$405                        vfont
     00006F51  A$vfont$406                        vfont
     00006F53  A$vfont$407                        vfont
     00006F55  A$vfont$408                        vfont
ASxxxx Linker V03.00 + NoICE + sdld,  page 131.
Hexadecimal  [32-Bits]

Area                                    Addr        Size        Decimal Bytes (Attributes)
--------------------------------        ----        ----        ------- ----- ------------
_CODE                               00000200    000082A2 =       33442. bytes (REL,CON)

      Value  Global                              Global Defined In Module
      -----  --------------------------------   ------------------------
     00006F57  A$vfont$409                        vfont
     00006F59  A$vfont$410                        vfont
     00006F5B  A$vfont$411                        vfont
     00006F5D  A$vfont$412                        vfont
     00006F5F  A$vfont$413                        vfont
     00006F61  A$vfont$414                        vfont
     00006F63  A$vfont$415                        vfont
     00006F66  A$vfont$416                        vfont
     00006F68  A$vfont$417                        vfont
     00006F6A  A$vfont$418                        vfont
     00006F6C  A$vfont$419                        vfont
     00006F6E  A$vfont$420                        vfont
     00006F70  A$vfont$421                        vfont
     00006F72  A$vfont$425                        vfont
     00006F72  C$vfont.c$166$4$13                 vfont
     00006F75  A$vfont$430                        vfont
     00006F75  C$vfont.c$167$4$13                 vfont
     00006F78  A$vfont$431                        vfont
     00006F79  A$vfont$432                        vfont
     00006F7C  A$vfont$433                        vfont
     00006F7D  A$vfont$434                        vfont
     00006F7F  A$vfont$439                        vfont
     00006F7F  C$vfont.c$168$4$13                 vfont
     00006F82  A$vfont$440                        vfont
     00006F83  A$vfont$441                        vfont
     00006F86  A$vfont$442                        vfont
     00006F87  A$vfont$443                        vfont
     00006F8A  A$vfont$444                        vfont
     00006F8B  A$vfont$445                        vfont
     00006F8E  A$vfont$446                        vfont
     00006F8F  A$vfont$447                        vfont
     00006F91  A$vfont$452                        vfont
     00006F91  C$vfont.c$169$4$13                 vfont
     00006F94  A$vfont$453                        vfont
     00006F95  A$vfont$454                        vfont
     00006F98  A$vfont$455                        vfont
     00006F99  A$vfont$456                        vfont
     00006F9B  A$vfont$461                        vfont
     00006F9B  C$vfont.c$170$4$13                 vfont
     00006F9E  A$vfont$462                        vfont
     00006F9F  A$vfont$463                        vfont
     00006FA2  A$vfont$464                        vfont
     00006FA3  A$vfont$465                        vfont
     00006FA6  A$vfont$466                        vfont
     00006FA7  A$vfont$467                        vfont
     00006FAA  A$vfont$468                        vfont
     00006FAB  A$vfont$469                        vfont
     00006FAD  A$vfont$474                        vfont
     00006FAD  C$vfont.c$171$4$13                 vfont
     00006FB0  A$vfont$475                        vfont
     00006FB1  A$vfont$476                        vfont
ASxxxx Linker V03.00 + NoICE + sdld,  page 132.
Hexadecimal  [32-Bits]

Area                                    Addr        Size        Decimal Bytes (Attributes)
--------------------------------        ----        ----        ------- ----- ------------
_CODE                               00000200    000082A2 =       33442. bytes (REL,CON)

      Value  Global                              Global Defined In Module
      -----  --------------------------------   ------------------------
     00006FB4  A$vfont$477                        vfont
     00006FB5  A$vfont$478                        vfont
     00006FB7  A$vfont$483                        vfont
     00006FB7  C$vfont.c$172$4$13                 vfont
     00006FBA  A$vfont$484                        vfont
     00006FBB  A$vfont$485                        vfont
     00006FBE  A$vfont$486                        vfont
     00006FBF  A$vfont$487                        vfont
     00006FC2  A$vfont$488                        vfont
     00006FC3  A$vfont$489                        vfont
     00006FC6  A$vfont$490                        vfont
     00006FC7  A$vfont$491                        vfont
     00006FC9  A$vfont$496                        vfont
     00006FC9  C$vfont.c$173$4$13                 vfont
     00006FCC  A$vfont$497                        vfont
     00006FCD  A$vfont$498                        vfont
     00006FD0  A$vfont$499                        vfont
     00006FD1  A$vfont$500                        vfont
     00006FD3  A$vfont$505                        vfont
     00006FD3  C$vfont.c$174$4$13                 vfont
     00006FD6  A$vfont$506                        vfont
     00006FD7  A$vfont$507                        vfont
     00006FDA  A$vfont$508                        vfont
     00006FDB  A$vfont$509                        vfont
     00006FDE  A$vfont$510                        vfont
     00006FDF  A$vfont$511                        vfont
     00006FE2  A$vfont$512                        vfont
     00006FE3  A$vfont$513                        vfont
     00006FE5  A$vfont$518                        vfont
     00006FE5  C$vfont.c$175$4$13                 vfont
     00006FE8  A$vfont$519                        vfont
     00006FEA  A$vfont$520                        vfont
     00006FEC  A$vfont$521                        vfont
     00006FED  A$vfont$522                        vfont
     00006FF0  A$vfont$530                        vfont
     00006FF0  C$vfont.c$176$3$12                 vfont
     00006FF0  C$vfont.c$178$3$12                 vfont
     00006FF3  A$vfont$531                        vfont
     00006FF4  A$vfont$532                        vfont
     00006FF6  A$vfont$533                        vfont
     00006FF9  A$vfont$534                        vfont
     00006FFD  A$vfont$535                        vfont
     00007000  A$vfont$536                        vfont
     00007002  A$vfont$537                        vfont
     00007005  A$vfont$538                        vfont
     00007006  A$vfont$539                        vfont
     00007008  A$vfont$544                        vfont
     00007008  C$vfont.c$179$4$14                 vfont
     0000700A  A$vfont$545                        vfont
     0000700D  A$vfont$546                        vfont
     00007010  A$vfont$547                        vfont
ASxxxx Linker V03.00 + NoICE + sdld,  page 133.
Hexadecimal  [32-Bits]

Area                                    Addr        Size        Decimal Bytes (Attributes)
--------------------------------        ----        ----        ------- ----- ------------
_CODE                               00000200    000082A2 =       33442. bytes (REL,CON)

      Value  Global                              Global Defined In Module
      -----  --------------------------------   ------------------------
     00007014  A$vfont$548                        vfont
     00007017  A$vfont$549                        vfont
     00007018  A$vfont$550                        vfont
     0000701A  A$vfont$551                        vfont
     0000701E  A$vfont$552                        vfont
     00007021  A$vfont$553                        vfont
     00007023  A$vfont$554                        vfont
     00007024  A$vfont$555                        vfont
     00007025  A$vfont$556                        vfont
     00007026  A$vfont$557                        vfont
     00007027  A$vfont$558                        vfont
     0000702A  A$vfont$559                        vfont
     0000702D  A$vfont$560                        vfont
     0000702E  A$vfont$561                        vfont
     0000702F  A$vfont$562                        vfont
     00007030  A$vfont$563                        vfont
     00007033  A$vfont$564                        vfont
     00007036  A$vfont$565                        vfont
     00007037  A$vfont$566                        vfont
     00007038  A$vfont$571                        vfont
     00007038  C$vfont.c$186$3$12                 vfont
     0000703B  A$vfont$572                        vfont
     0000703D  A$vfont$573                        vfont
     00007040  A$vfont$578                        vfont
     00007040  C$vfont.c$188$3$12                 vfont
     00007043  A$vfont$582                        vfont
     00007043  C$vfont.c$189$3$12                 vfont
     00007046  A$vfont$583                        vfont
     00007047  A$vfont$584                        vfont
     0000704A  A$vfont$592                        vfont
     0000704A  C$vfont.c$190$1$5                  vfont
     0000704A  C$vfont.c$194$1$5                  vfont
     0000704D  A$vfont$593                        vfont
     00007050  A$vfont$594                        vfont
     00007052  A$vfont$595                        vfont
     00007053  A$vfont$596                        vfont
     00007055  A$vfont$598                        vfont
     00007056  A$vfont$599                        vfont
     00007058  A$vfont$600                        vfont
     00007059  A$vfont$602                        vfont
     0000705B  A$vfont$603                        vfont
     0000705E  A$vfont$604                        vfont
     0000705F  A$vfont$605                        vfont
     00007062  A$vfont$606                        vfont
     00007064  A$vfont$607                        vfont
     00007065  A$vfont$611                        vfont
     00007065  C$vfont.c$195$1$5                  vfont
     00007068  A$vfont$612                        vfont
     0000706B  A$vfont$613                        vfont
     0000706D  A$vfont$614                        vfont
     0000706F  A$vfont$619                        vfont
ASxxxx Linker V03.00 + NoICE + sdld,  page 134.
Hexadecimal  [32-Bits]

Area                                    Addr        Size        Decimal Bytes (Attributes)
--------------------------------        ----        ----        ------- ----- ------------
_CODE                               00000200    000082A2 =       33442. bytes (REL,CON)

      Value  Global                              Global Defined In Module
      -----  --------------------------------   ------------------------
     0000706F  C$vfont.c$196$1$5                  vfont
     0000706F  XG$drawLetter$0$0                  vfont
     00007070  Fvfont$__str_0$0$0                 vfont
     00007071  A$vfont$635                        vfont
     00007071  C$vfont.c$198$1$5                  vfont
     00007071  C$vfont.c$200$1$16                 vfont
     00007071  G$drawString$0$0                   vfont
     00007071  _drawString                        vfont
     00007072  A$vfont$636                        vfont
     00007073  A$vfont$637                        vfont
     00007074  A$vfont$638                        vfont
     00007075  A$vfont$640                        vfont
     00007076  A$vfont$641                        vfont
     00007077  A$vfont$642                        vfont
     00007078  A$vfont$643                        vfont
     00007079  A$vfont$647                        vfont
     00007079  C$vfont.c$201$2$17                 vfont
     0000707A  A$vfont$648                        vfont
     0000707D  A$vfont$649                        vfont
     0000707E  A$vfont$650                        vfont
     0000707F  A$vfont$651                        vfont
     00007080  A$vfont$652                        vfont
     00007081  A$vfont$653                        vfont
     00007082  A$vfont$654                        vfont
     00007083  A$vfont$655                        vfont
     00007086  A$vfont$656                        vfont
     00007087  A$vfont$657                        vfont
     00007088  A$vfont$661                        vfont
     00007088  C$vfont.c$202$2$17                 vfont
     00007089  A$vfont$665                        vfont
     00007089  C$vfont.c$204$2$17                 vfont
     0000708C  A$vfont$666                        vfont
     0000708D  A$vfont$667                        vfont
     0000708F  A$vfont$675                        vfont
     0000708F  C$vfont.c$205$1$16                 vfont
     0000708F  C$vfont.c$207$1$16                 vfont
     0000708F  XG$drawString$0$0                  vfont
     00007090  Fvfont$__str_1$0$0                 vfont
     0000709A  Fvfont$__str_2$0$0                 vfont
     000070A6  Fvfont$__str_3$0$0                 vfont
     000070AD  Fvfont$__str_4$0$0                 vfont
     000070B9  Fvfont$__str_5$0$0                 vfont
     000070C2  Fvfont$__str_6$0$0                 vfont
     000070CC  Fvfont$__str_7$0$0                 vfont
     000070D7  Fvfont$__str_8$0$0                 vfont
     000070E4  Fvfont$__str_9$0$0                 vfont
     000070EF  Fvfont$__str_10$0$0                vfont
     000070FE  Fvfont$__str_11$0$0                vfont
     0000710C  Fvfont$__str_12$0$0                vfont
     00007112  Fvfont$__str_13$0$0                vfont
     00007122  Fvfont$__str_14$0$0                vfont
ASxxxx Linker V03.00 + NoICE + sdld,  page 135.
Hexadecimal  [32-Bits]

Area                                    Addr        Size        Decimal Bytes (Attributes)
--------------------------------        ----        ----        ------- ----- ------------
_CODE                               00000200    000082A2 =       33442. bytes (REL,CON)

      Value  Global                              Global Defined In Module
      -----  --------------------------------   ------------------------
     0000712C  Fvfont$__str_15$0$0                vfont
     00007135  Fvfont$__str_16$0$0                vfont
     00007140  Fvfont$__str_17$0$0                vfont
     0000714B  Fvfont$__str_18$0$0                vfont
     00007153  Fvfont$__str_19$0$0                vfont
     0000715C  Fvfont$__str_20$0$0                vfont
     00007166  Fvfont$__str_21$0$0                vfont
     00007171  Fvfont$__str_22$0$0                vfont
     00007178  Fvfont$__str_23$0$0                vfont
     00007181  Fvfont$__str_24$0$0                vfont
     0000718D  Fvfont$__str_25$0$0                vfont
     0000719D  Fvfont$__str_26$0$0                vfont
     000071A7  Fvfont$__str_27$0$0                vfont
     000071B8  Fvfont$__str_28$0$0                vfont
     000071CF  Fvfont$__str_29$0$0                vfont
     000071D9  Fvfont$__str_30$0$0                vfont
     000071EF  Fvfont$__str_31$0$0                vfont
     00007204  Fvfont$__str_32$0$0                vfont
     00007215  Fvfont$__str_33$0$0                vfont
     00007221  Fvfont$__str_34$0$0                vfont
     00007237  Fvfont$__str_35$0$0                vfont
     00007243  Fvfont$__str_36$0$0                vfont
     0000724E  Fvfont$__str_37$0$0                vfont
     0000725E  Fvfont$__str_38$0$0                vfont
     00007266  Fvfont$__str_39$0$0                vfont
     00007275  Fvfont$__str_40$0$0                vfont
     00007285  Fvfont$__str_41$0$0                vfont
     00007292  Fvfont$__str_42$0$0                vfont
     0000729F  Fvfont$__str_43$0$0                vfont
     000072B3  Fvfont$__str_44$0$0                vfont
     000072C3  Fvfont$__str_45$0$0                vfont
     000072D0  Fvfont$__str_46$0$0                vfont
     000072DC  Fvfont$__str_47$0$0                vfont
     000072E8  Fvfont$__str_48$0$0                vfont
     000072F3  Fvfont$__str_49$0$0                vfont
     00007302  Fvfont$__str_50$0$0                vfont
     00007312  Fvfont$__str_51$0$0                vfont
     0000731C  Fvfont$__str_52$0$0                vfont
     00007328  Fvfont$__str_53$0$0                vfont
     00007332  Fvfont$__str_54$0$0                vfont
     0000733D  Fvfont$__str_55$0$0                vfont
     00007349  Fvfont$__str_56$0$0                vfont
     0000735A  Fvfont$__str_57$0$0                vfont
     00007367  Fvfont$__str_58$0$0                vfont
     00007374  Fvfont$__str_59$0$0                vfont
     0000737D  Fvfont$__str_60$0$0                vfont
     0000738B  Fvfont$__str_61$0$0                vfont
     00007396  Fvfont$__str_62$0$0                vfont
     000073A3  Fvfont$__str_63$0$0                vfont
     000073B2  Fvfont$__str_64$0$0                vfont
     000073C1  Fvfont$__str_65$0$0                vfont
ASxxxx Linker V03.00 + NoICE + sdld,  page 136.
Hexadecimal  [32-Bits]

Area                                    Addr        Size        Decimal Bytes (Attributes)
--------------------------------        ----        ----        ------- ----- ------------
_CODE                               00000200    000082A2 =       33442. bytes (REL,CON)

      Value  Global                              Global Defined In Module
      -----  --------------------------------   ------------------------
     000073CD  Fvfont$__str_66$0$0                vfont
     000073E0  Fvfont$__str_67$0$0                vfont
     000073F1  Fvfont$__str_68$0$0                vfont
     000073F7  Fvfont$__str_69$0$0                vfont
     000073F9  Fvfont$__str_70$0$0                vfont
     00007400  Fvfont$__str_71$0$0                vfont
     00007407  Fvfont$__str_72$0$0                vfont
     0000740A  Fvfont$__str_73$0$0                vfont
     0000740F  _SMS_reserveSprite                 SMSlib_spriteAdv
     00007430  _SMS_updateSpritePosition          SMSlib_spriteAdv
     00007472  _SMS_updateSpriteImage             SMSlib_spriteAdv
     0000748C  _SMS_hideSprite                    SMSlib_spriteAdv
     0000749B  _SMS_init                          SMSlib
     000074EF  _VDPReg_init                       SMSlib
     000074FA  _SMS_VDPType                       SMSlib
     00007502  _SMS_VDPturnOnFeature              SMSlib
     00007519  _SMS_VDPturnOffFeature             SMSlib
     00007532  _SMS_setBGScrollX                  SMSlib
     0000753C  _SMS_setBGScrollY                  SMSlib
     00007546  _SMS_setBackdropColor              SMSlib
     00007550  _SMS_useFirstHalfTilesforSprites   SMSlib
     00007564  _SMS_setSpriteMode                 SMSlib
     000075A9  _SMS_setBGPaletteColor             SMSlib
     000075BD  _SMS_setSpritePaletteColor         SMSlib
     000075D1  _SMS_loadBGPalette                 SMSlib
     000075E5  _SMS_loadSpritePalette             SMSlib
     000075F9  _SMS_setColor                      SMSlib
     000075FD  _SMS_initSprites                   SMSlib
     00007603  _SMS_addSprite                     SMSlib
     00007658  _SMS_finalizeSprites               SMSlib
     0000766A  _SMS_copySpritestoSAT              SMSlib
     00007693  _SMS_waitForVBlank                 SMSlib
     000076A0  _SMS_getKeysStatus                 SMSlib
     000076A4  _SMS_getKeysPressed                SMSlib
     000076C1  _SMS_getKeysHeld                   SMSlib
     000076D8  _SMS_getKeysReleased               SMSlib
     000076F5  _SMS_queryPauseRequested           SMSlib
     000076FD  _SMS_resetPauseRequest             SMSlib
     00007703  _SMS_setLineInterruptHandler       SMSlib
     00007714  _SMS_setLineCounter                SMSlib
     00007723  _SMS_getVCount                     SMSlib
     00007727  _SMS_getHCount                     SMSlib
     0000772B  _SMS_isr                           SMSlib
     00007761  _SMS_nmi_isr                       SMSlib
     00007774  _SMS_loadTiles                     SMSlib_loadTiles
     000077A5  _abs                               
     000077B1  _memcmp                            _memcmp
     00007823  ___sdcc_call_hl                    
     00007824  _SMS_VRAMmemset                    SMSlib_VRAMmemset
     00007849  _SMS_VRAMmemsetW                   SMSlib_VRAMmemset
     00007886  _vprintf                           vprintf
ASxxxx Linker V03.00 + NoICE + sdld,  page 137.
Hexadecimal  [32-Bits]

Area                                    Addr        Size        Decimal Bytes (Attributes)
--------------------------------        ----        ----        ------- ----- ------------
_CODE                               00000200    000082A2 =       33442. bytes (REL,CON)

      Value  Global                              Global Defined In Module
      -----  --------------------------------   ------------------------
     000078A6  _printf                            vprintf
     000078C3  _SMS_loadBGPaletteHalfBrightness   SMSlib_paletteAdv
     000078DA  _SMS_zeroBGPalette                 SMSlib_paletteAdv
     000078EE  _SMS_loadSpritePaletteHalfBright   SMSlib_paletteAdv
     00007905  _SMS_zeroSpritePalette             SMSlib_paletteAdv
     00007919  _SMS_loadTileMap                   SMSlib_loadTileMap
     00007A51  __print_format                     printf_large
     00008493  _strlen                            

ASxxxx Linker V03.00 + NoICE + sdld,  page 138.
Hexadecimal  [32-Bits]

Area                                    Addr        Size        Decimal Bytes (Attributes)
--------------------------------        ----        ----        ------- ----- ------------
_HEADER0                            00000000    00000006 =           6. bytes (ABS,CON)

      Value  Global                              Global Defined In Module
      -----  --------------------------------   ------------------------
     00000006  _SMS_crt0_RST08                    crt0

ASxxxx Linker V03.00 + NoICE + sdld,  page 139.
Hexadecimal  [32-Bits]

Area                                    Addr        Size        Decimal Bytes (Attributes)
--------------------------------        ----        ----        ------- ----- ------------
_HEADER1                            00000000    00000009 =           9. bytes (ABS,CON)

      Value  Global                              Global Defined In Module
      -----  --------------------------------   ------------------------
     00000011  _SMS_crt0_RST18                    crt0

ASxxxx Linker V03.00 + NoICE + sdld,  page 140.
Hexadecimal  [32-Bits]

Area                                    Addr        Size        Decimal Bytes (Attributes)
--------------------------------        ----        ----        ------- ----- ------------
_HEADER2                            00000000    0000000A =          10. bytes (ABS,CON)

      Value  Global                              Global Defined In Module
      -----  --------------------------------   ------------------------
ASxxxx Linker V03.00 + NoICE + sdld,  page 141.
Hexadecimal  [32-Bits]

Area                                    Addr        Size        Decimal Bytes (Attributes)
--------------------------------        ----        ----        ------- ----- ------------
_HEADER3                            00000000    00000003 =           3. bytes (ABS,CON)

      Value  Global                              Global Defined In Module
      -----  --------------------------------   ------------------------
ASxxxx Linker V03.00 + NoICE + sdld,  page 142.
Hexadecimal  [32-Bits]

Area                                    Addr        Size        Decimal Bytes (Attributes)
--------------------------------        ----        ----        ------- ----- ------------
_HEADER4                            00000000    00000003 =           3. bytes (ABS,CON)

      Value  Global                              Global Defined In Module
      -----  --------------------------------   ------------------------
ASxxxx Linker V03.00 + NoICE + sdld,  page 143.
Hexadecimal  [32-Bits]

Area                                    Addr        Size        Decimal Bytes (Attributes)
--------------------------------        ----        ----        ------- ----- ------------
_HEADER5                            00000000    0000012A =         298. bytes (ABS,CON)

      Value  Global                              Global Defined In Module
      -----  --------------------------------   ------------------------
     00000099  _OUTI128                           crt0
     00000119  _OUTI64                            crt0
     00000159  _OUTI32                            crt0
     00000199  _outi_block                        crt0

ASxxxx Linker V03.00 + NoICE + sdld,  page 144.
Hexadecimal  [32-Bits]

Area                                    Addr        Size        Decimal Bytes (Attributes)
--------------------------------        ----        ----        ------- ----- ------------
_INITIALIZER                        000084A2    00000481 =        1153. bytes (REL,CON)

      Value  Global                              Global Defined In Module
      -----  --------------------------------   ------------------------
     00008611  Fmain$__xinit_drawing$0$0          main
     00008612  Fmain$__xinit_paddle_mode$0$0      main
     00008613  Fmain$__xinit_fill_mode$0$0        main
     00008614  Fmain$__xinit_script$0$0           main
     00008780  Fvfont$__xinit_lowercase$0$0       vfont
     00008802  Fvfont$__xinit_uppercase$0$0       vfont
     00008884  Fvfont$__xinit_number$0$0          vfont
     000088D4  Fvfont$__xinit_symbols$0$0         vfont

ASxxxx Linker V03.00 + NoICE + sdld,  page 145.
Hexadecimal  [32-Bits]

Area                                    Addr        Size        Decimal Bytes (Attributes)
--------------------------------        ----        ----        ------- ----- ------------
_GSINIT                             00008923    0000003B =          59. bytes (REL,CON)

      Value  Global                              Global Defined In Module
      -----  --------------------------------   ------------------------
     00008923  gsinit                             crt0
     00008948  A$main$143                         main
     00008948  C$main.c$137$1$150                 main
     0000894C  A$main$144                         main
     00008950  A$main$148                         main
     00008950  C$main.c$138$1$150                 main
     00008954  A$main$149                         main
     00008958  A$main$155                         main
     00008958  C$main.c$576$1$221                 main
     0000895B  A$main$156                         main

ASxxxx Linker V03.00 + NoICE + sdld,  page 146.
Hexadecimal  [32-Bits]

Area                                    Addr        Size        Decimal Bytes (Attributes)
--------------------------------        ----        ----        ------- ----- ------------
_GSFINAL                            0000895E    00000001 =           1. bytes (REL,CON)

      Value  Global                              Global Defined In Module
      -----  --------------------------------   ------------------------
ASxxxx Linker V03.00 + NoICE + sdld,  page 147.
Hexadecimal  [32-Bits]

Area                                    Addr        Size        Decimal Bytes (Attributes)
--------------------------------        ----        ----        ------- ----- ------------
_DATA                               0000C000    00000C7A =        3194. bytes (REL,CON)

      Value  Global                              Global Defined In Module
      -----  --------------------------------   ------------------------
     0000C01C  _PSGMusicStatus                    PSGlib
     0000C01D  _PSGMusicStart                     PSGlib
     0000C01F  _PSGMusicPointer                   PSGlib
     0000C021  _PSGMusicLoopPoint                 PSGlib
     0000C023  _PSGMusicSkipFrames                PSGlib
     0000C024  _PSGLoopFlag                       PSGlib
     0000C025  _PSGMusicLastLatch                 PSGlib
     0000C026  _PSGMusicVolumeAttenuation         PSGlib
     0000C027  _PSGMusicSubstringLen              PSGlib
     0000C028  _PSGMusicSubstringRetAddr          PSGlib
     0000C02A  _PSGChan0Volume                    PSGlib
     0000C02B  _PSGChan1Volume                    PSGlib
     0000C02C  _PSGChan2Volume                    PSGlib
     0000C02D  _PSGChan3Volume                    PSGlib
     0000C02E  _PSGChan2LowTone                   PSGlib
     0000C02F  _PSGChan2HighTone                  PSGlib
     0000C030  _PSGChan3LowTone                   PSGlib
     0000C031  _PSGChannel2SFX                    PSGlib
     0000C032  _PSGChannel3SFX                    PSGlib
     0000C033  _PSGSFXChan2Volume                 PSGlib
     0000C034  _PSGSFXChan3Volume                 PSGlib
     0000C035  _PSGSFXStatus                      PSGlib
     0000C036  _PSGSFXStart                       PSGlib
     0000C038  _PSGSFXPointer                     PSGlib
     0000C03A  _PSGSFXLoopPoint                   PSGlib
     0000C03C  _PSGSFXSkipFrames                  PSGlib
     0000C03D  _PSGSFXLoopFlag                    PSGlib
     0000C03E  _PSGSFXSubstringLen                PSGlib
     0000C03F  _PSGSFXSubstringRetAddr            PSGlib
     0000C041  G$inlib_port1$0$0                  inlib
     0000C041  _inlib_port1                       inlib
     0000C046  G$inlib_port2$0$0                  inlib
     0000C046  _inlib_port2                       inlib
     0000C04B  Fmain$spriteIds$0$0                main
     0000C052  Fmain$spriteX$0$0                  main
     0000C059  Fmain$spriteY$0$0                  main
     0000C060  G$drawbuf$0$0                      main
     0000C060  _drawbuf                           main
     0000C062  G$start_pressed$0$0                main
     0000C062  _start_pressed                     main
     0000C063  Lmain.clearDisplay$msk$1$150       main
     0000C064  Lmain.clearDisplay$off$1$150       main
     0000C065  Lmain.runScript$frame$1$221        main
     0000C067  G$g_savedata$0$0                   savedata
     0000C067  _g_savedata                        savedata
     0000CBAC  G$savedata_is_sram_based$0$0       savedata
     0000CBAC  _savedata_is_sram_based            savedata
     0000CBAD  G$pen_x$0$0                        vfont
     0000CBAD  _pen_x                             vfont
     0000CBAE  G$pen_y$0$0                        vfont
ASxxxx Linker V03.00 + NoICE + sdld,  page 148.
Hexadecimal  [32-Bits]

Area                                    Addr        Size        Decimal Bytes (Attributes)
--------------------------------        ----        ----        ------- ----- ------------
_DATA                               0000C000    00000C7A =        3194. bytes (REL,CON)

      Value  Global                              Global Defined In Module
      -----  --------------------------------   ------------------------
     0000CBAE  _pen_y                             vfont
     0000CBAF  _VDPBlank                          SMSlib
     0000CBB0  _SMS_VDPFlags                      SMSlib
     0000CBB1  _PauseRequested                    SMSlib
     0000CBB2  _VDPType                           SMSlib
     0000CBB3  _KeysStatus                        SMSlib
     0000CBB5  _PreviousKeysStatus                SMSlib
     0000CBB7  _SpriteTableY                      SMSlib
     0000CBF7  _SpriteTableXN                     SMSlib
     0000CC77  _SpriteNextFree                    SMSlib
     0000CC78  _SMS_theLineInterruptHandler       SMSlib

ASxxxx Linker V03.00 + NoICE + sdld,  page 149.
Hexadecimal  [32-Bits]

Area                                    Addr        Size        Decimal Bytes (Attributes)
--------------------------------        ----        ----        ------- ----- ------------
_INITIALIZED                        0000CC7A    00000481 =        1153. bytes (REL,CON)

      Value  Global                              Global Defined In Module
      -----  --------------------------------   ------------------------
     0000CDE9  Fmain$drawing$0$0                  main
     0000CDEA  Fmain$paddle_mode$0$0              main
     0000CDEB  Fmain$fill_mode$0$0                main
     0000CDEC  G$script$0$0                       main
     0000CDEC  _script                            main
     0000CF58  G$lowercase$0$0                    vfont
     0000CF58  _lowercase                         vfont
     0000CFDA  G$uppercase$0$0                    vfont
     0000CFDA  _uppercase                         vfont
     0000D05C  G$number$0$0                       vfont
     0000D05C  _number                            vfont
     0000D0AC  G$symbols$0$0                      vfont
     0000D0AC  _symbols                           vfont
     0000D0F7  _VDPReg                            SMSlib
     0000D0F9  _spritesHeight                     SMSlib
     0000D0FA  _spritesWidth                      SMSlib

ASxxxx Linker V03.00 + NoICE + sdld,  page 150.
Hexadecimal  [32-Bits]

Area                                    Addr        Size        Decimal Bytes (Attributes)
--------------------------------        ----        ----        ------- ----- ------------
_CABS0                              00000000    00000020 =          32. bytes (ABS,CON)

      Value  Global                              Global Defined In Module
      -----  --------------------------------   ------------------------
     00008000  G$__SMS__SEGA_signature$0$0        main
     00008000  ___SMS__SEGA_signature             main

ASxxxx Linker V03.00 + NoICE + sdld,  page 151.
Hexadecimal  [32-Bits]

Area                                    Addr        Size        Decimal Bytes (Attributes)
--------------------------------        ----        ----        ------- ----- ------------
_CABS1                              00000000    00000022 =          34. bytes (ABS,CON)

      Value  Global                              Global Defined In Module
      -----  --------------------------------   ------------------------
     00007FE0  G$__SMS__SDSC_author$0$0           main
     00007FE0  ___SMS__SDSC_author                main

ASxxxx Linker V03.00 + NoICE + sdld,  page 152.
Hexadecimal  [32-Bits]

Area                                    Addr        Size        Decimal Bytes (Attributes)
--------------------------------        ----        ----        ------- ----- ------------
_CABS2                              00000000    00000018 =          24. bytes (ABS,CON)

      Value  Global                              Global Defined In Module
      -----  --------------------------------   ------------------------
     00007FCF  G$__SMS__SDSC_name$0$0             main
     00007FCF  ___SMS__SDSC_name                  main

ASxxxx Linker V03.00 + NoICE + sdld,  page 153.
Hexadecimal  [32-Bits]

Area                                    Addr        Size        Decimal Bytes (Attributes)
--------------------------------        ----        ----        ------- ----- ------------
_CABS3                              00000000    0000006E =         110. bytes (ABS,CON)

      Value  Global                              Global Defined In Module
      -----  --------------------------------   ------------------------
     00007FC3  G$__SMS__SDSC_descr$0$0            main
     00007FC3  ___SMS__SDSC_descr                 main

ASxxxx Linker V03.00 + NoICE + sdld,  page 154.
Hexadecimal  [32-Bits]

Area                                    Addr        Size        Decimal Bytes (Attributes)
--------------------------------        ----        ----        ------- ----- ------------
_CABS4                              00000000    00000020 =          32. bytes (ABS,CON)

      Value  Global                              Global Defined In Module
      -----  --------------------------------   ------------------------
     00007FF0  G$__SMS__SDSC_signature$0$0        main
     00007FF0  ___SMS__SDSC_signature             main

ASxxxx Linker V03.00 + NoICE + sdld,  page 155.

Files Linked                              [ module(s) ]

../crt0/crt0_sms.rel                      [ crt0 ]
main.rel                                  [ main ]
../lib/PSGlib.rel                         [ PSGlib ]
data.rel                                  [ data ]
data_bank2.rel                            [ data_bank2 ]
data_bank3.rel                            [ data_bank3 ]
flash.rel                                 [ flash ]
inlib.rel                                 [ inlib ]
knob.rel                                  [ knob ]
main.rel                                  [ main ]
savedata.rel                              [ savedata ]
savestruct.rel                            [ savestruct ]
sinlut.rel                                [ sinlut ]
util.rel                                  [ util ]
vfont.rel                                 [ vfont ]


Libraries Linked                          [ object file ]

../lib/SMSlib.lib                         [ SMSlib_spriteAdv.rel ]
../lib/SMSlib.lib                         [ SMSlib.rel ]
../lib/SMSlib.lib                         [ SMSlib_loadTiles.rel ]
C:\Program Files\SDCC\bin\..\lib\z80/z80.lib
                                          [ abs.rel ]
C:\Program Files\SDCC\bin\..\lib\z80/z80.lib
                                          [ _memcmp.rel ]
C:\Program Files\SDCC\bin\..\lib\z80/z80.lib
                                          [ __sdcc_call_hl.rel ]
../lib/SMSlib.lib                         [ SMSlib_VRAMmemset.rel ]
C:\Program Files\SDCC\bin\..\lib\z80/z80.lib
                                          [ vprintf.rel ]
../lib/SMSlib.lib                         [ SMSlib_paletteAdv.rel ]
../lib/SMSlib.lib                         [ SMSlib_loadTileMap.rel ]
C:\Program Files\SDCC\bin\..\lib\z80/z80.lib
                                          [ printf_large.rel ]
C:\Program Files\SDCC\bin\..\lib\z80/z80.lib
                                          [ strlen.rel ]

ASxxxx Linker V03.00 + NoICE + sdld,  page 156.

User Base Address Definitions

_CODE = 0x0200
_DATA = 0xc000


?ASlink-Warning-Undefined Global '_putchar' referenced by module 'vprintf'

?ASlink-Warning-Undefined Global '_SMS_autoSetUpTextRenderer' referenced by module 'main'

?ASlink-Warning-Undefined Global '_SMS_autoSetUpTextRenderer' referenced by module 'main'
