                                      1 ;--------------------------------------------------------
                                      2 ; File Created by SDCC : free open source ANSI-C Compiler
                                      3 ; Version 4.1.0 #12072 (MINGW64)
                                      4 ;--------------------------------------------------------
                                      5 	.module _gsl_manager
                                      6 	.optsdcc -mz80
                                      7 	
                                      8 ;--------------------------------------------------------
                                      9 ; Public variables in this module
                                     10 ;--------------------------------------------------------
                                     11 	.globl _GSL_getScrolltableAddress
                                     12 	.globl _GSL_getCollisionCount
                                     13 	.globl _GSL_getCurrentY
                                     14 	.globl _GSL_getCurrentX
                                     15 	.globl _GSL_getScrolltableSize
                                     16 	.globl _GSL_getMapHeightInMetatiles
                                     17 	.globl _GSL_getMapWidthInMetatiles
                                     18 	.globl _GSL_getMapHeightInPixels
                                     19 	.globl _GSL_getMapWidthInPixels
                                     20 	.globl _GSL_metatileUpdateCustom
                                     21 	.globl _GSL_metatileUpdate
                                     22 	.globl _GSL_VBlank
                                     23 	.globl _GSL_scroll
                                     24 	.globl _GSL_refreshVDP
                                     25 	.globl _GSL_tileLookup
                                     26 	.globl _GSL_metatileLookup
                                     27 	.globl _GSL_positionWindow
                                     28 	.globl _GSL_initializeMap
                                     29 	.globl _devkit_GSL_initializeMap
                                     30 	.globl _devkit_GSL_positionWindow
                                     31 	.globl _devkit_GSL_metatileLookup
                                     32 	.globl _devkit_GSL_tileLookup
                                     33 	.globl _devkit_GSL_refreshVDP
                                     34 	.globl _devkit_GSL_scroll
                                     35 	.globl _devkit_GSL_VBlank
                                     36 	.globl _devkit_GSL_metatileUpdate
                                     37 	.globl _devkit_GSL_metatileUpdateCustom
                                     38 	.globl _devkit_GSL_getMapWidthInPixels
                                     39 	.globl _devkit_GSL_getMapHeightInPixels
                                     40 	.globl _devkit_GSL_getMapWidthInMetatiles
                                     41 	.globl _devkit_GSL_getMapHeightInMetatiles
                                     42 	.globl _devkit_GSL_getScrolltableSize
                                     43 	.globl _devkit_GSL_getCurrentX
                                     44 	.globl _devkit_GSL_getCurrentY
                                     45 	.globl _devkit_GSL_getCollisionCount
                                     46 	.globl _devkit_GSL_getScrolltableAddress
                                     47 ;--------------------------------------------------------
                                     48 ; special function registers
                                     49 ;--------------------------------------------------------
                                     50 ;--------------------------------------------------------
                                     51 ; ram data
                                     52 ;--------------------------------------------------------
                                     53 	.area _DATA
                                     54 ;--------------------------------------------------------
                                     55 ; ram data
                                     56 ;--------------------------------------------------------
                                     57 	.area _INITIALIZED
                                     58 ;--------------------------------------------------------
                                     59 ; absolute external ram data
                                     60 ;--------------------------------------------------------
                                     61 	.area _DABS (ABS)
                                     62 ;--------------------------------------------------------
                                     63 ; global & static initialisations
                                     64 ;--------------------------------------------------------
                                     65 	.area _HOME
                                     66 	.area _GSINIT
                                     67 	.area _GSFINAL
                                     68 	.area _GSINIT
                                     69 ;--------------------------------------------------------
                                     70 ; Home
                                     71 ;--------------------------------------------------------
                                     72 	.area _HOME
                                     73 	.area _HOME
                                     74 ;--------------------------------------------------------
                                     75 ; code
                                     76 ;--------------------------------------------------------
                                     77 	.area _CODE
                           000000    78 	G$devkit_GSL_initializeMap$0$0	= .
                                     79 	.globl	G$devkit_GSL_initializeMap$0$0
                           000000    80 	C$_gsl_manager.c$9$0_0$14	= .
                                     81 	.globl	C$_gsl_manager.c$9$0_0$14
                                     82 ;_gsl_manager.c:9: void devkit_GSL_initializeMap( void *scrolltable, void *metatiles )
                                     83 ;	---------------------------------
                                     84 ; Function devkit_GSL_initializeMap
                                     85 ; ---------------------------------
      000000                         86 _devkit_GSL_initializeMap::
                           000000    87 	C$_gsl_manager.c$11$1_0$14	= .
                                     88 	.globl	C$_gsl_manager.c$11$1_0$14
                                     89 ;_gsl_manager.c:11: GSL_initializeMap( scrolltable, metatiles );
      000000 FD 21 04 00      [14]   90 	ld	iy, #4
      000004 FD 39            [15]   91 	add	iy, sp
      000006 FD 6E 00         [19]   92 	ld	l, 0 (iy)
      000009 FD 66 01         [19]   93 	ld	h, 1 (iy)
      00000C E5               [11]   94 	push	hl
      00000D FD 6E FE         [19]   95 	ld	l, -2 (iy)
      000010 FD 66 FF         [19]   96 	ld	h, -1 (iy)
      000013 E5               [11]   97 	push	hl
      000014 CDr00r00         [17]   98 	call	_GSL_initializeMap
      000017 F1               [10]   99 	pop	af
      000018 F1               [10]  100 	pop	af
                           000019   101 	C$_gsl_manager.c$12$1_0$14	= .
                                    102 	.globl	C$_gsl_manager.c$12$1_0$14
                                    103 ;_gsl_manager.c:12: }
                           000019   104 	C$_gsl_manager.c$12$1_0$14	= .
                                    105 	.globl	C$_gsl_manager.c$12$1_0$14
                           000019   106 	XG$devkit_GSL_initializeMap$0$0	= .
                                    107 	.globl	XG$devkit_GSL_initializeMap$0$0
      000019 C9               [10]  108 	ret
                           00001A   109 	G$devkit_GSL_positionWindow$0$0	= .
                                    110 	.globl	G$devkit_GSL_positionWindow$0$0
                           00001A   111 	C$_gsl_manager.c$13$1_0$16	= .
                                    112 	.globl	C$_gsl_manager.c$13$1_0$16
                                    113 ;_gsl_manager.c:13: void devkit_GSL_positionWindow( unsigned int X, unsigned int Y )
                                    114 ;	---------------------------------
                                    115 ; Function devkit_GSL_positionWindow
                                    116 ; ---------------------------------
      00001A                        117 _devkit_GSL_positionWindow::
                           00001A   118 	C$_gsl_manager.c$15$1_0$16	= .
                                    119 	.globl	C$_gsl_manager.c$15$1_0$16
                                    120 ;_gsl_manager.c:15: GSL_positionWindow( X, Y );
      00001A FD 21 04 00      [14]  121 	ld	iy, #4
      00001E FD 39            [15]  122 	add	iy, sp
      000020 FD 6E 00         [19]  123 	ld	l, 0 (iy)
      000023 FD 66 01         [19]  124 	ld	h, 1 (iy)
      000026 E5               [11]  125 	push	hl
      000027 FD 6E FE         [19]  126 	ld	l, -2 (iy)
      00002A FD 66 FF         [19]  127 	ld	h, -1 (iy)
      00002D E5               [11]  128 	push	hl
      00002E CDr00r00         [17]  129 	call	_GSL_positionWindow
      000031 F1               [10]  130 	pop	af
      000032 F1               [10]  131 	pop	af
                           000033   132 	C$_gsl_manager.c$16$1_0$16	= .
                                    133 	.globl	C$_gsl_manager.c$16$1_0$16
                                    134 ;_gsl_manager.c:16: }
                           000033   135 	C$_gsl_manager.c$16$1_0$16	= .
                                    136 	.globl	C$_gsl_manager.c$16$1_0$16
                           000033   137 	XG$devkit_GSL_positionWindow$0$0	= .
                                    138 	.globl	XG$devkit_GSL_positionWindow$0$0
      000033 C9               [10]  139 	ret
                           000034   140 	G$devkit_GSL_metatileLookup$0$0	= .
                                    141 	.globl	G$devkit_GSL_metatileLookup$0$0
                           000034   142 	C$_gsl_manager.c$17$1_0$18	= .
                                    143 	.globl	C$_gsl_manager.c$17$1_0$18
                                    144 ;_gsl_manager.c:17: unsigned int *devkit_GSL_metatileLookup( unsigned int x, unsigned int y )
                                    145 ;	---------------------------------
                                    146 ; Function devkit_GSL_metatileLookup
                                    147 ; ---------------------------------
      000034                        148 _devkit_GSL_metatileLookup::
                           000034   149 	C$_gsl_manager.c$19$1_0$18	= .
                                    150 	.globl	C$_gsl_manager.c$19$1_0$18
                                    151 ;_gsl_manager.c:19: return GSL_metatileLookup( x, y );
      000034 FD 21 04 00      [14]  152 	ld	iy, #4
      000038 FD 39            [15]  153 	add	iy, sp
      00003A FD 6E 00         [19]  154 	ld	l, 0 (iy)
      00003D FD 66 01         [19]  155 	ld	h, 1 (iy)
      000040 E5               [11]  156 	push	hl
      000041 FD 6E FE         [19]  157 	ld	l, -2 (iy)
      000044 FD 66 FF         [19]  158 	ld	h, -1 (iy)
      000047 E5               [11]  159 	push	hl
      000048 CDr00r00         [17]  160 	call	_GSL_metatileLookup
      00004B F1               [10]  161 	pop	af
      00004C F1               [10]  162 	pop	af
                           00004D   163 	C$_gsl_manager.c$20$1_0$18	= .
                                    164 	.globl	C$_gsl_manager.c$20$1_0$18
                                    165 ;_gsl_manager.c:20: }
                           00004D   166 	C$_gsl_manager.c$20$1_0$18	= .
                                    167 	.globl	C$_gsl_manager.c$20$1_0$18
                           00004D   168 	XG$devkit_GSL_metatileLookup$0$0	= .
                                    169 	.globl	XG$devkit_GSL_metatileLookup$0$0
      00004D C9               [10]  170 	ret
                           00004E   171 	G$devkit_GSL_tileLookup$0$0	= .
                                    172 	.globl	G$devkit_GSL_tileLookup$0$0
                           00004E   173 	C$_gsl_manager.c$21$1_0$20	= .
                                    174 	.globl	C$_gsl_manager.c$21$1_0$20
                                    175 ;_gsl_manager.c:21: void devkit_GSL_tileLookup( unsigned int x, unsigned int y )
                                    176 ;	---------------------------------
                                    177 ; Function devkit_GSL_tileLookup
                                    178 ; ---------------------------------
      00004E                        179 _devkit_GSL_tileLookup::
                           00004E   180 	C$_gsl_manager.c$23$1_0$20	= .
                                    181 	.globl	C$_gsl_manager.c$23$1_0$20
                                    182 ;_gsl_manager.c:23: GSL_tileLookup( x, y );
      00004E FD 21 04 00      [14]  183 	ld	iy, #4
      000052 FD 39            [15]  184 	add	iy, sp
      000054 FD 6E 00         [19]  185 	ld	l, 0 (iy)
      000057 FD 66 01         [19]  186 	ld	h, 1 (iy)
      00005A E5               [11]  187 	push	hl
      00005B FD 6E FE         [19]  188 	ld	l, -2 (iy)
      00005E FD 66 FF         [19]  189 	ld	h, -1 (iy)
      000061 E5               [11]  190 	push	hl
      000062 CDr00r00         [17]  191 	call	_GSL_tileLookup
      000065 F1               [10]  192 	pop	af
      000066 F1               [10]  193 	pop	af
                           000067   194 	C$_gsl_manager.c$24$1_0$20	= .
                                    195 	.globl	C$_gsl_manager.c$24$1_0$20
                                    196 ;_gsl_manager.c:24: }
                           000067   197 	C$_gsl_manager.c$24$1_0$20	= .
                                    198 	.globl	C$_gsl_manager.c$24$1_0$20
                           000067   199 	XG$devkit_GSL_tileLookup$0$0	= .
                                    200 	.globl	XG$devkit_GSL_tileLookup$0$0
      000067 C9               [10]  201 	ret
                           000068   202 	G$devkit_GSL_refreshVDP$0$0	= .
                                    203 	.globl	G$devkit_GSL_refreshVDP$0$0
                           000068   204 	C$_gsl_manager.c$25$1_0$21	= .
                                    205 	.globl	C$_gsl_manager.c$25$1_0$21
                                    206 ;_gsl_manager.c:25: void devkit_GSL_refreshVDP()
                                    207 ;	---------------------------------
                                    208 ; Function devkit_GSL_refreshVDP
                                    209 ; ---------------------------------
      000068                        210 _devkit_GSL_refreshVDP::
                           000068   211 	C$_gsl_manager.c$27$1_0$21	= .
                                    212 	.globl	C$_gsl_manager.c$27$1_0$21
                                    213 ;_gsl_manager.c:27: GSL_refreshVDP();
                           000068   214 	C$_gsl_manager.c$28$1_0$21	= .
                                    215 	.globl	C$_gsl_manager.c$28$1_0$21
                                    216 ;_gsl_manager.c:28: }
                           000068   217 	C$_gsl_manager.c$28$1_0$21	= .
                                    218 	.globl	C$_gsl_manager.c$28$1_0$21
                           000068   219 	XG$devkit_GSL_refreshVDP$0$0	= .
                                    220 	.globl	XG$devkit_GSL_refreshVDP$0$0
      000068 C3r00r00         [10]  221 	jp	_GSL_refreshVDP
                           00006B   222 	G$devkit_GSL_scroll$0$0	= .
                                    223 	.globl	G$devkit_GSL_scroll$0$0
                           00006B   224 	C$_gsl_manager.c$29$1_0$23	= .
                                    225 	.globl	C$_gsl_manager.c$29$1_0$23
                                    226 ;_gsl_manager.c:29: void devkit_GSL_scroll( char x, char y )
                                    227 ;	---------------------------------
                                    228 ; Function devkit_GSL_scroll
                                    229 ; ---------------------------------
      00006B                        230 _devkit_GSL_scroll::
                           00006B   231 	C$_gsl_manager.c$31$1_0$23	= .
                                    232 	.globl	C$_gsl_manager.c$31$1_0$23
                                    233 ;_gsl_manager.c:31: GSL_scroll( x, y );
      00006B FD 21 03 00      [14]  234 	ld	iy, #3
      00006F FD 39            [15]  235 	add	iy, sp
      000071 FD 66 00         [19]  236 	ld	h, 0 (iy)
      000074 FD 6E FF         [19]  237 	ld	l, -1 (iy)
      000077 E5               [11]  238 	push	hl
      000078 CDr00r00         [17]  239 	call	_GSL_scroll
      00007B F1               [10]  240 	pop	af
                           00007C   241 	C$_gsl_manager.c$32$1_0$23	= .
                                    242 	.globl	C$_gsl_manager.c$32$1_0$23
                                    243 ;_gsl_manager.c:32: }
                           00007C   244 	C$_gsl_manager.c$32$1_0$23	= .
                                    245 	.globl	C$_gsl_manager.c$32$1_0$23
                           00007C   246 	XG$devkit_GSL_scroll$0$0	= .
                                    247 	.globl	XG$devkit_GSL_scroll$0$0
      00007C C9               [10]  248 	ret
                           00007D   249 	G$devkit_GSL_VBlank$0$0	= .
                                    250 	.globl	G$devkit_GSL_VBlank$0$0
                           00007D   251 	C$_gsl_manager.c$33$1_0$24	= .
                                    252 	.globl	C$_gsl_manager.c$33$1_0$24
                                    253 ;_gsl_manager.c:33: void devkit_GSL_VBlank()
                                    254 ;	---------------------------------
                                    255 ; Function devkit_GSL_VBlank
                                    256 ; ---------------------------------
      00007D                        257 _devkit_GSL_VBlank::
                           00007D   258 	C$_gsl_manager.c$35$1_0$24	= .
                                    259 	.globl	C$_gsl_manager.c$35$1_0$24
                                    260 ;_gsl_manager.c:35: GSL_VBlank();
                           00007D   261 	C$_gsl_manager.c$36$1_0$24	= .
                                    262 	.globl	C$_gsl_manager.c$36$1_0$24
                                    263 ;_gsl_manager.c:36: }
                           00007D   264 	C$_gsl_manager.c$36$1_0$24	= .
                                    265 	.globl	C$_gsl_manager.c$36$1_0$24
                           00007D   266 	XG$devkit_GSL_VBlank$0$0	= .
                                    267 	.globl	XG$devkit_GSL_VBlank$0$0
      00007D C3r00r00         [10]  268 	jp	_GSL_VBlank
                           000080   269 	G$devkit_GSL_metatileUpdate$0$0	= .
                                    270 	.globl	G$devkit_GSL_metatileUpdate$0$0
                           000080   271 	C$_gsl_manager.c$37$1_0$25	= .
                                    272 	.globl	C$_gsl_manager.c$37$1_0$25
                                    273 ;_gsl_manager.c:37: void devkit_GSL_metatileUpdate()
                                    274 ;	---------------------------------
                                    275 ; Function devkit_GSL_metatileUpdate
                                    276 ; ---------------------------------
      000080                        277 _devkit_GSL_metatileUpdate::
                           000080   278 	C$_gsl_manager.c$39$1_0$25	= .
                                    279 	.globl	C$_gsl_manager.c$39$1_0$25
                                    280 ;_gsl_manager.c:39: GSL_metatileUpdate();
                           000080   281 	C$_gsl_manager.c$40$1_0$25	= .
                                    282 	.globl	C$_gsl_manager.c$40$1_0$25
                                    283 ;_gsl_manager.c:40: }
                           000080   284 	C$_gsl_manager.c$40$1_0$25	= .
                                    285 	.globl	C$_gsl_manager.c$40$1_0$25
                           000080   286 	XG$devkit_GSL_metatileUpdate$0$0	= .
                                    287 	.globl	XG$devkit_GSL_metatileUpdate$0$0
      000080 C3r00r00         [10]  288 	jp	_GSL_metatileUpdate
                           000083   289 	G$devkit_GSL_metatileUpdateCustom$0$0	= .
                                    290 	.globl	G$devkit_GSL_metatileUpdateCustom$0$0
                           000083   291 	C$_gsl_manager.c$41$1_0$27	= .
                                    292 	.globl	C$_gsl_manager.c$41$1_0$27
                                    293 ;_gsl_manager.c:41: void devkit_GSL_metatileUpdateCustom( unsigned int x, unsigned int y, unsigned int offset )
                                    294 ;	---------------------------------
                                    295 ; Function devkit_GSL_metatileUpdateCustom
                                    296 ; ---------------------------------
      000083                        297 _devkit_GSL_metatileUpdateCustom::
                           000083   298 	C$_gsl_manager.c$43$1_0$27	= .
                                    299 	.globl	C$_gsl_manager.c$43$1_0$27
                                    300 ;_gsl_manager.c:43: GSL_metatileUpdateCustom( x, y, offset );
      000083 FD 21 06 00      [14]  301 	ld	iy, #6
      000087 FD 39            [15]  302 	add	iy, sp
      000089 FD 6E 00         [19]  303 	ld	l, 0 (iy)
      00008C FD 66 01         [19]  304 	ld	h, 1 (iy)
      00008F E5               [11]  305 	push	hl
      000090 FD 6E FE         [19]  306 	ld	l, -2 (iy)
      000093 FD 66 FF         [19]  307 	ld	h, -1 (iy)
      000096 FD 2B            [10]  308 	dec	iy
      000098 FD 2B            [10]  309 	dec	iy
      00009A E5               [11]  310 	push	hl
      00009B FD 6E FE         [19]  311 	ld	l, -2 (iy)
      00009E FD 66 FF         [19]  312 	ld	h, -1 (iy)
      0000A1 E5               [11]  313 	push	hl
      0000A2 CDr00r00         [17]  314 	call	_GSL_metatileUpdateCustom
      0000A5 21 06 00         [10]  315 	ld	hl, #6
      0000A8 39               [11]  316 	add	hl, sp
      0000A9 F9               [ 6]  317 	ld	sp, hl
                           0000AA   318 	C$_gsl_manager.c$44$1_0$27	= .
                                    319 	.globl	C$_gsl_manager.c$44$1_0$27
                                    320 ;_gsl_manager.c:44: }
                           0000AA   321 	C$_gsl_manager.c$44$1_0$27	= .
                                    322 	.globl	C$_gsl_manager.c$44$1_0$27
                           0000AA   323 	XG$devkit_GSL_metatileUpdateCustom$0$0	= .
                                    324 	.globl	XG$devkit_GSL_metatileUpdateCustom$0$0
      0000AA C9               [10]  325 	ret
                           0000AB   326 	G$devkit_GSL_getMapWidthInPixels$0$0	= .
                                    327 	.globl	G$devkit_GSL_getMapWidthInPixels$0$0
                           0000AB   328 	C$_gsl_manager.c$45$1_0$28	= .
                                    329 	.globl	C$_gsl_manager.c$45$1_0$28
                                    330 ;_gsl_manager.c:45: unsigned int devkit_GSL_getMapWidthInPixels()
                                    331 ;	---------------------------------
                                    332 ; Function devkit_GSL_getMapWidthInPixels
                                    333 ; ---------------------------------
      0000AB                        334 _devkit_GSL_getMapWidthInPixels::
                           0000AB   335 	C$_gsl_manager.c$47$1_0$28	= .
                                    336 	.globl	C$_gsl_manager.c$47$1_0$28
                                    337 ;_gsl_manager.c:47: return GSL_getMapWidthInPixels();
                           0000AB   338 	C$_gsl_manager.c$48$1_0$28	= .
                                    339 	.globl	C$_gsl_manager.c$48$1_0$28
                                    340 ;_gsl_manager.c:48: }
                           0000AB   341 	C$_gsl_manager.c$48$1_0$28	= .
                                    342 	.globl	C$_gsl_manager.c$48$1_0$28
                           0000AB   343 	XG$devkit_GSL_getMapWidthInPixels$0$0	= .
                                    344 	.globl	XG$devkit_GSL_getMapWidthInPixels$0$0
      0000AB C3r00r00         [10]  345 	jp	_GSL_getMapWidthInPixels
                           0000AE   346 	G$devkit_GSL_getMapHeightInPixels$0$0	= .
                                    347 	.globl	G$devkit_GSL_getMapHeightInPixels$0$0
                           0000AE   348 	C$_gsl_manager.c$49$1_0$29	= .
                                    349 	.globl	C$_gsl_manager.c$49$1_0$29
                                    350 ;_gsl_manager.c:49: unsigned int devkit_GSL_getMapHeightInPixels()
                                    351 ;	---------------------------------
                                    352 ; Function devkit_GSL_getMapHeightInPixels
                                    353 ; ---------------------------------
      0000AE                        354 _devkit_GSL_getMapHeightInPixels::
                           0000AE   355 	C$_gsl_manager.c$51$1_0$29	= .
                                    356 	.globl	C$_gsl_manager.c$51$1_0$29
                                    357 ;_gsl_manager.c:51: return GSL_getMapHeightInPixels();
                           0000AE   358 	C$_gsl_manager.c$52$1_0$29	= .
                                    359 	.globl	C$_gsl_manager.c$52$1_0$29
                                    360 ;_gsl_manager.c:52: }
                           0000AE   361 	C$_gsl_manager.c$52$1_0$29	= .
                                    362 	.globl	C$_gsl_manager.c$52$1_0$29
                           0000AE   363 	XG$devkit_GSL_getMapHeightInPixels$0$0	= .
                                    364 	.globl	XG$devkit_GSL_getMapHeightInPixels$0$0
      0000AE C3r00r00         [10]  365 	jp	_GSL_getMapHeightInPixels
                           0000B1   366 	G$devkit_GSL_getMapWidthInMetatiles$0$0	= .
                                    367 	.globl	G$devkit_GSL_getMapWidthInMetatiles$0$0
                           0000B1   368 	C$_gsl_manager.c$53$1_0$30	= .
                                    369 	.globl	C$_gsl_manager.c$53$1_0$30
                                    370 ;_gsl_manager.c:53: unsigned int devkit_GSL_getMapWidthInMetatiles()
                                    371 ;	---------------------------------
                                    372 ; Function devkit_GSL_getMapWidthInMetatiles
                                    373 ; ---------------------------------
      0000B1                        374 _devkit_GSL_getMapWidthInMetatiles::
                           0000B1   375 	C$_gsl_manager.c$55$1_0$30	= .
                                    376 	.globl	C$_gsl_manager.c$55$1_0$30
                                    377 ;_gsl_manager.c:55: return GSL_getMapWidthInMetatiles();
                           0000B1   378 	C$_gsl_manager.c$56$1_0$30	= .
                                    379 	.globl	C$_gsl_manager.c$56$1_0$30
                                    380 ;_gsl_manager.c:56: }
                           0000B1   381 	C$_gsl_manager.c$56$1_0$30	= .
                                    382 	.globl	C$_gsl_manager.c$56$1_0$30
                           0000B1   383 	XG$devkit_GSL_getMapWidthInMetatiles$0$0	= .
                                    384 	.globl	XG$devkit_GSL_getMapWidthInMetatiles$0$0
      0000B1 C3r00r00         [10]  385 	jp	_GSL_getMapWidthInMetatiles
                           0000B4   386 	G$devkit_GSL_getMapHeightInMetatiles$0$0	= .
                                    387 	.globl	G$devkit_GSL_getMapHeightInMetatiles$0$0
                           0000B4   388 	C$_gsl_manager.c$57$1_0$31	= .
                                    389 	.globl	C$_gsl_manager.c$57$1_0$31
                                    390 ;_gsl_manager.c:57: unsigned int devkit_GSL_getMapHeightInMetatiles()
                                    391 ;	---------------------------------
                                    392 ; Function devkit_GSL_getMapHeightInMetatiles
                                    393 ; ---------------------------------
      0000B4                        394 _devkit_GSL_getMapHeightInMetatiles::
                           0000B4   395 	C$_gsl_manager.c$59$1_0$31	= .
                                    396 	.globl	C$_gsl_manager.c$59$1_0$31
                                    397 ;_gsl_manager.c:59: return GSL_getMapHeightInMetatiles();
                           0000B4   398 	C$_gsl_manager.c$60$1_0$31	= .
                                    399 	.globl	C$_gsl_manager.c$60$1_0$31
                                    400 ;_gsl_manager.c:60: }
                           0000B4   401 	C$_gsl_manager.c$60$1_0$31	= .
                                    402 	.globl	C$_gsl_manager.c$60$1_0$31
                           0000B4   403 	XG$devkit_GSL_getMapHeightInMetatiles$0$0	= .
                                    404 	.globl	XG$devkit_GSL_getMapHeightInMetatiles$0$0
      0000B4 C3r00r00         [10]  405 	jp	_GSL_getMapHeightInMetatiles
                           0000B7   406 	G$devkit_GSL_getScrolltableSize$0$0	= .
                                    407 	.globl	G$devkit_GSL_getScrolltableSize$0$0
                           0000B7   408 	C$_gsl_manager.c$61$1_0$32	= .
                                    409 	.globl	C$_gsl_manager.c$61$1_0$32
                                    410 ;_gsl_manager.c:61: unsigned int devkit_GSL_getScrolltableSize()
                                    411 ;	---------------------------------
                                    412 ; Function devkit_GSL_getScrolltableSize
                                    413 ; ---------------------------------
      0000B7                        414 _devkit_GSL_getScrolltableSize::
                           0000B7   415 	C$_gsl_manager.c$63$1_0$32	= .
                                    416 	.globl	C$_gsl_manager.c$63$1_0$32
                                    417 ;_gsl_manager.c:63: return GSL_getScrolltableSize();
                           0000B7   418 	C$_gsl_manager.c$64$1_0$32	= .
                                    419 	.globl	C$_gsl_manager.c$64$1_0$32
                                    420 ;_gsl_manager.c:64: }
                           0000B7   421 	C$_gsl_manager.c$64$1_0$32	= .
                                    422 	.globl	C$_gsl_manager.c$64$1_0$32
                           0000B7   423 	XG$devkit_GSL_getScrolltableSize$0$0	= .
                                    424 	.globl	XG$devkit_GSL_getScrolltableSize$0$0
      0000B7 C3r00r00         [10]  425 	jp	_GSL_getScrolltableSize
                           0000BA   426 	G$devkit_GSL_getCurrentX$0$0	= .
                                    427 	.globl	G$devkit_GSL_getCurrentX$0$0
                           0000BA   428 	C$_gsl_manager.c$65$1_0$33	= .
                                    429 	.globl	C$_gsl_manager.c$65$1_0$33
                                    430 ;_gsl_manager.c:65: unsigned int devkit_GSL_getCurrentX()
                                    431 ;	---------------------------------
                                    432 ; Function devkit_GSL_getCurrentX
                                    433 ; ---------------------------------
      0000BA                        434 _devkit_GSL_getCurrentX::
                           0000BA   435 	C$_gsl_manager.c$67$1_0$33	= .
                                    436 	.globl	C$_gsl_manager.c$67$1_0$33
                                    437 ;_gsl_manager.c:67: return GSL_getCurrentX();
                           0000BA   438 	C$_gsl_manager.c$68$1_0$33	= .
                                    439 	.globl	C$_gsl_manager.c$68$1_0$33
                                    440 ;_gsl_manager.c:68: }
                           0000BA   441 	C$_gsl_manager.c$68$1_0$33	= .
                                    442 	.globl	C$_gsl_manager.c$68$1_0$33
                           0000BA   443 	XG$devkit_GSL_getCurrentX$0$0	= .
                                    444 	.globl	XG$devkit_GSL_getCurrentX$0$0
      0000BA C3r00r00         [10]  445 	jp	_GSL_getCurrentX
                           0000BD   446 	G$devkit_GSL_getCurrentY$0$0	= .
                                    447 	.globl	G$devkit_GSL_getCurrentY$0$0
                           0000BD   448 	C$_gsl_manager.c$69$1_0$34	= .
                                    449 	.globl	C$_gsl_manager.c$69$1_0$34
                                    450 ;_gsl_manager.c:69: unsigned int devkit_GSL_getCurrentY()
                                    451 ;	---------------------------------
                                    452 ; Function devkit_GSL_getCurrentY
                                    453 ; ---------------------------------
      0000BD                        454 _devkit_GSL_getCurrentY::
                           0000BD   455 	C$_gsl_manager.c$71$1_0$34	= .
                                    456 	.globl	C$_gsl_manager.c$71$1_0$34
                                    457 ;_gsl_manager.c:71: return GSL_getCurrentY();
                           0000BD   458 	C$_gsl_manager.c$72$1_0$34	= .
                                    459 	.globl	C$_gsl_manager.c$72$1_0$34
                                    460 ;_gsl_manager.c:72: }
                           0000BD   461 	C$_gsl_manager.c$72$1_0$34	= .
                                    462 	.globl	C$_gsl_manager.c$72$1_0$34
                           0000BD   463 	XG$devkit_GSL_getCurrentY$0$0	= .
                                    464 	.globl	XG$devkit_GSL_getCurrentY$0$0
      0000BD C3r00r00         [10]  465 	jp	_GSL_getCurrentY
                           0000C0   466 	G$devkit_GSL_getCollisionCount$0$0	= .
                                    467 	.globl	G$devkit_GSL_getCollisionCount$0$0
                           0000C0   468 	C$_gsl_manager.c$73$1_0$35	= .
                                    469 	.globl	C$_gsl_manager.c$73$1_0$35
                                    470 ;_gsl_manager.c:73: unsigned char devkit_GSL_getCollisionCount()
                                    471 ;	---------------------------------
                                    472 ; Function devkit_GSL_getCollisionCount
                                    473 ; ---------------------------------
      0000C0                        474 _devkit_GSL_getCollisionCount::
                           0000C0   475 	C$_gsl_manager.c$75$1_0$35	= .
                                    476 	.globl	C$_gsl_manager.c$75$1_0$35
                                    477 ;_gsl_manager.c:75: return GSL_getCollisionCount();
                           0000C0   478 	C$_gsl_manager.c$76$1_0$35	= .
                                    479 	.globl	C$_gsl_manager.c$76$1_0$35
                                    480 ;_gsl_manager.c:76: }
                           0000C0   481 	C$_gsl_manager.c$76$1_0$35	= .
                                    482 	.globl	C$_gsl_manager.c$76$1_0$35
                           0000C0   483 	XG$devkit_GSL_getCollisionCount$0$0	= .
                                    484 	.globl	XG$devkit_GSL_getCollisionCount$0$0
      0000C0 C3r00r00         [10]  485 	jp	_GSL_getCollisionCount
                           0000C3   486 	G$devkit_GSL_getScrolltableAddress$0$0	= .
                                    487 	.globl	G$devkit_GSL_getScrolltableAddress$0$0
                           0000C3   488 	C$_gsl_manager.c$77$1_0$36	= .
                                    489 	.globl	C$_gsl_manager.c$77$1_0$36
                                    490 ;_gsl_manager.c:77: unsigned char *devkit_GSL_getScrolltableAddress()
                                    491 ;	---------------------------------
                                    492 ; Function devkit_GSL_getScrolltableAddress
                                    493 ; ---------------------------------
      0000C3                        494 _devkit_GSL_getScrolltableAddress::
                           0000C3   495 	C$_gsl_manager.c$79$1_0$36	= .
                                    496 	.globl	C$_gsl_manager.c$79$1_0$36
                                    497 ;_gsl_manager.c:79: return GSL_getScrolltableAddress();
                           0000C3   498 	C$_gsl_manager.c$80$1_0$36	= .
                                    499 	.globl	C$_gsl_manager.c$80$1_0$36
                                    500 ;_gsl_manager.c:80: }
                           0000C3   501 	C$_gsl_manager.c$80$1_0$36	= .
                                    502 	.globl	C$_gsl_manager.c$80$1_0$36
                           0000C3   503 	XG$devkit_GSL_getScrolltableAddress$0$0	= .
                                    504 	.globl	XG$devkit_GSL_getScrolltableAddress$0$0
      0000C3 C3r00r00         [10]  505 	jp	_GSL_getScrolltableAddress
                                    506 	.area _CODE
                                    507 	.area _INITIALIZER
                                    508 	.area _CABS (ABS)
