                                      1 ;--------------------------------------------------------
                                      2 ; File Created by SDCC : free open source ANSI-C Compiler
                                      3 ; Version 4.1.0 #12072 (MINGW64)
                                      4 ;--------------------------------------------------------
                                      5 	.module _sms_manager
                                      6 	.optsdcc -mz80
                                      7 	
                                      8 ;--------------------------------------------------------
                                      9 ; Public variables in this module
                                     10 ;--------------------------------------------------------
                                     11 	.globl ___SMS__SDSC_signature
                                     12 	.globl ___SMS__SDSC_descr
                                     13 	.globl ___SMS__SDSC_name
                                     14 	.globl ___SMS__SDSC_author
                                     15 	.globl ___SMS__SEGA_signature
                                     16 	.globl _SMS_nmi_isr
                                     17 	.globl _SMS_isr
                                     18 	.globl _UNSAFE_SMS_VRAMmemcpy128
                                     19 	.globl _UNSAFE_SMS_VRAMmemcpy64
                                     20 	.globl _UNSAFE_SMS_VRAMmemcpy32
                                     21 	.globl _UNSAFE_SMS_copySpritestoSAT
                                     22 	.globl _SMS_VRAMmemsetW
                                     23 	.globl _SMS_VRAMmemset
                                     24 	.globl _SMS_VRAMmemcpy_brief
                                     25 	.globl _SMS_VRAMmemcpy
                                     26 	.globl _SMS_getHCount
                                     27 	.globl _SMS_getVCount
                                     28 	.globl _SMS_setLineCounter
                                     29 	.globl _SMS_setLineInterruptHandler
                                     30 	.globl _SMS_resetPauseRequest
                                     31 	.globl _SMS_queryPauseRequested
                                     32 	.globl _SMS_readPaddle
                                     33 	.globl _SMS_detectPaddle
                                     34 	.globl _SMS_getKeysReleased
                                     35 	.globl _SMS_getKeysHeld
                                     36 	.globl _SMS_getKeysPressed
                                     37 	.globl _SMS_getKeysStatus
                                     38 	.globl _SMS_decompressZX7
                                     39 	.globl _SMS_autoSetUpTextRenderer
                                     40 	.globl _SMS_configureTextRenderer
                                     41 	.globl _SMS_zeroSpritePalette
                                     42 	.globl _SMS_zeroBGPalette
                                     43 	.globl _SMS_loadSpritePaletteHalfBrightness
                                     44 	.globl _SMS_loadBGPaletteHalfBrightness
                                     45 	.globl _SMS_setColor
                                     46 	.globl _SMS_loadSpritePalette
                                     47 	.globl _SMS_loadBGPalette
                                     48 	.globl _SMS_setSpritePaletteColor
                                     49 	.globl _SMS_setBGPaletteColor
                                     50 	.globl _SMS_copySpritestoSAT
                                     51 	.globl _SMS_finalizeSprites
                                     52 	.globl _SMS_addSpriteClipping
                                     53 	.globl _SMS_setClippingWindow
                                     54 	.globl _SMS_hideSprite
                                     55 	.globl _SMS_updateSpriteImage
                                     56 	.globl _SMS_updateSpritePosition
                                     57 	.globl _SMS_reserveSprite
                                     58 	.globl _SMS_addThreeAdjoiningSprites
                                     59 	.globl _SMS_addTwoAdjoiningSprites
                                     60 	.globl _SMS_addSprite
                                     61 	.globl _SMS_initSprites
                                     62 	.globl _SMS_loadSTMcompressedTileMapatAddr
                                     63 	.globl _SMS_loadTileMapArea
                                     64 	.globl _UNSAFE_SMS_loadaPLibcompressedTilesatAddr
                                     65 	.globl _UNSAFE_SMS_loadZX7compressedTilesatAddr
                                     66 	.globl _SMS_loadPSGaidencompressedTilesatAddr
                                     67 	.globl _SMS_load1bppTiles
                                     68 	.globl _SMS_crt0_RST18
                                     69 	.globl _SMS_crt0_RST08
                                     70 	.globl _SMS_waitForVBlank
                                     71 	.globl _SMS_setSpriteMode
                                     72 	.globl _SMS_useFirstHalfTilesforSprites
                                     73 	.globl _SMS_setBackdropColor
                                     74 	.globl _SMS_setBGScrollY
                                     75 	.globl _SMS_setBGScrollX
                                     76 	.globl _SMS_VDPturnOffFeature
                                     77 	.globl _SMS_VDPturnOnFeature
                                     78 	.globl _SMS_init
                                     79 	.globl _SMS_SRAM
                                     80 	.globl _SRAM_bank_to_be_mapped_on_slot2
                                     81 	.globl _ROM_bank_to_be_mapped_on_slot2
                                     82 	.globl _devkit_SMS_init
                                     83 	.globl _devkit_SMS_VDPturnOnFeature
                                     84 	.globl _devkit_SMS_VDPturnOffFeature
                                     85 	.globl _devkit_VDPFEATURE_EXTRAHEIGHT
                                     86 	.globl _devkit_VDPFEATURE_SHIFTSPRITES
                                     87 	.globl _devkit_VDPFEATURE_HIDEFIRSTCOL
                                     88 	.globl _devkit_VDPFEATURE_LEFTCOLBLANK
                                     89 	.globl _devkit_VDPFEATURE_LOCKHSCROLL
                                     90 	.globl _devkit_VDPFEATURE_LOCKVSCROLL
                                     91 	.globl _devkit_VDPFEATURE_ZOOMSPRITES
                                     92 	.globl _devkit_VDPFEATURE_USETALLSPRITES
                                     93 	.globl _devkit_VDPFEATURE_240LINES
                                     94 	.globl _devkit_VDPFEATURE_224LINES
                                     95 	.globl _devkit_VDPFEATURE_FRAMEIRQ
                                     96 	.globl _devkit_VDPFEATURE_SHOWDISPLAY
                                     97 	.globl _devkit_SMS_displayOn
                                     98 	.globl _devkit_SMS_displayOff
                                     99 	.globl _devkit_SMS_setBGScrollX
                                    100 	.globl _devkit_SMS_setBGScrollY
                                    101 	.globl _devkit_SMS_setBackdropColor
                                    102 	.globl _devkit_SMS_useFirstHalfTilesforSprites
                                    103 	.globl _devkit_SMS_setSpriteMode
                                    104 	.globl _devkit_SPRITEMODE_NORMAL
                                    105 	.globl _devkit_SPRITEMODE_TALL
                                    106 	.globl _devkit_SPRITEMODE_ZOOMED
                                    107 	.globl _devkit_SPRITEMODE_TALL_ZOOMED
                                    108 	.globl _devkit_SMS_mapROMBank
                                    109 	.globl _devkit_SMS_enableSRAM
                                    110 	.globl _devkit_SMS_enableSRAMBank
                                    111 	.globl _devkit_SMS_disableSRAM
                                    112 	.globl _devkit_SMS_SRAM
                                    113 	.globl _devkit_SMS_waitForVBlank
                                    114 	.globl _devkit_SMS_crt0_RST08
                                    115 	.globl _devkit_SMS_crt0_RST18
                                    116 	.globl _devkit_SMS_setTile
                                    117 	.globl _devkit_SMS_setAddr
                                    118 	.globl _devkit_XYtoADDR
                                    119 	.globl _devkit_SMS_setNextTileatXY
                                    120 	.globl _devkit_SMS_setNextTileatLoc
                                    121 	.globl _devkit_SMS_setNextTileatAddr
                                    122 	.globl _devkit_SMS_setTileatXY
                                    123 	.globl _devkit_TILEtoADDR
                                    124 	.globl _devkit_TILE_FLIPPED_X
                                    125 	.globl _devkit_TILE_FLIPPED_Y
                                    126 	.globl _devkit_TILE_USE_SPRITE_PALETTE
                                    127 	.globl _devkit_TILE_PRIORITY
                                    128 	.globl _devkit_SMS_loadTiles
                                    129 	.globl _devkit_SMS_load1bppTiles
                                    130 	.globl _devkit_SMS_loadPSGaidencompressedTilesatAddr
                                    131 	.globl _devkit_SMS_loadPSGaidencompressedTiles
                                    132 	.globl _devkit_UNSAFE_SMS_loadZX7compressedTilesatAddr
                                    133 	.globl _devkit_UNSAFE_SMS_loadZX7compressedTiles
                                    134 	.globl _devkit_UNSAFE_SMS_loadaPLibcompressedTilesatAddr
                                    135 	.globl _devkit_UNSAFE_SMS_loadaPLibcompressedTiles
                                    136 	.globl _devkit_SMS_loadTileMap
                                    137 	.globl _devkit_SMS_loadTileMapArea
                                    138 	.globl _devkit_SMS_loadSTMcompressedTileMapatAddr
                                    139 	.globl _devkit_SMS_loadSTMcompressedTileMap
                                    140 	.globl _devkit_SMS_loadSTMcompressedTileMapArea
                                    141 	.globl _devkit_SMS_initSprites
                                    142 	.globl _devkit_SMS_addSprite
                                    143 	.globl _devkit_SMS_addTwoAdjoiningSprites
                                    144 	.globl _devkit_SMS_addThreeAdjoiningSprites
                                    145 	.globl _devkit_SMS_reserveSprite
                                    146 	.globl _devkit_SMS_updateSpritePosition
                                    147 	.globl _devkit_SMS_updateSpriteImage
                                    148 	.globl _devkit_SMS_hideSprite
                                    149 	.globl _devkit_SMS_setClippingWindow
                                    150 	.globl _devkit_SMS_addSpriteClipping
                                    151 	.globl _devkit_SMS_finalizeSprites
                                    152 	.globl _devkit_SMS_copySpritestoSAT
                                    153 	.globl _devkit_SMS_setBGPaletteColor
                                    154 	.globl _devkit_SMS_setSpritePaletteColor
                                    155 	.globl _devkit_SMS_loadBGPalette
                                    156 	.globl _devkit_SMS_loadSpritePalette
                                    157 	.globl _devkit_SMS_setNextBGColoratIndex
                                    158 	.globl _devkit_SMS_setNextSpriteColoratIndex
                                    159 	.globl _devkit_SMS_setColor
                                    160 	.globl _devkit_RGB
                                    161 	.globl _devkit_RGB8
                                    162 	.globl _devkit_SMS_loadBGPaletteHalfBrightness
                                    163 	.globl _devkit_SMS_loadSpritePaletteHalfBrightness
                                    164 	.globl _devkit_SMS_zeroBGPalette
                                    165 	.globl _devkit_SMS_zeroSpritePalette
                                    166 	.globl _devkit_SMS_configureTextRenderer
                                    167 	.globl _devkit_SMS_autoSetUpTextRenderer
                                    168 	.globl _devkit_SMS_decompressZX7
                                    169 	.globl _devkit_SMS_getKeysStatus
                                    170 	.globl _devkit_SMS_getKeysPressed
                                    171 	.globl _devkit_SMS_getKeysHeld
                                    172 	.globl _devkit_SMS_getKeysReleased
                                    173 	.globl _devkit_PORT_A_KEY_UP
                                    174 	.globl _devkit_PORT_A_KEY_DOWN
                                    175 	.globl _devkit_PORT_A_KEY_LEFT
                                    176 	.globl _devkit_PORT_A_KEY_RIGHT
                                    177 	.globl _devkit_PORT_A_KEY_1
                                    178 	.globl _devkit_PORT_A_KEY_2
                                    179 	.globl _devkit_PORT_A_KEY_START
                                    180 	.globl _devkit_PORT_B_KEY_UP
                                    181 	.globl _devkit_PORT_B_KEY_DOWN
                                    182 	.globl _devkit_PORT_B_KEY_LEFT
                                    183 	.globl _devkit_PORT_B_KEY_RIGHT
                                    184 	.globl _devkit_PORT_B_KEY_1
                                    185 	.globl _devkit_PORT_B_KEY_2
                                    186 	.globl _devkit_PORT_B_KEY_START
                                    187 	.globl _devkit_RESET_KEY
                                    188 	.globl _devkit_CARTRIDGE_SLOT
                                    189 	.globl _devkit_PORT_A_TH
                                    190 	.globl _devkit_PORT_B_TH
                                    191 	.globl _devkit_PORT_A
                                    192 	.globl _devkit_PORT_B
                                    193 	.globl _devkit_SMS_detectPaddle
                                    194 	.globl _devkit_SMS_readPaddle
                                    195 	.globl _devkit_SMS_queryPauseRequested
                                    196 	.globl _devkit_SMS_resetPauseRequest
                                    197 	.globl _devkit_SMS_VDPFlags
                                    198 	.globl _devkit_VDPFLAG_SPRITEOVERFLOW
                                    199 	.globl _devkit_VDPFLAG_SPRITECOLLISION
                                    200 	.globl _devkit_SMS_setLineInterruptHandler
                                    201 	.globl _devkit_SMS_setLineCounter
                                    202 	.globl _devkit_SMS_enableLineInterrupt
                                    203 	.globl _devkit_SMS_disableLineInterrupt
                                    204 	.globl _devkit_SMS_getVCount
                                    205 	.globl _devkit_SMS_getHCount
                                    206 	.globl _devkit_SMS_VRAMmemcpy
                                    207 	.globl _devkit_SMS_VRAMmemcpy_brief
                                    208 	.globl _devkit_SMS_VRAMmemset
                                    209 	.globl _devkit_SMS_VRAMmemsetW
                                    210 	.globl _devkit_UNSAFE_SMS_copySpritestoSAT
                                    211 	.globl _devkit_UNSAFE_SMS_VRAMmemcpy32
                                    212 	.globl _devkit_UNSAFE_SMS_VRAMmemcpy64
                                    213 	.globl _devkit_UNSAFE_SMS_VRAMmemcpy128
                                    214 	.globl _devkit_UNSAFE_SMS_load1Tile
                                    215 	.globl _devkit_UNSAFE_SMS_load2Tiles
                                    216 	.globl _devkit_UNSAFE_SMS_load4Tiles
                                    217 	.globl _dekvit_SMS_isr
                                    218 	.globl _dekvit_SMS_nmi_isr
                                    219 	.globl _devkit_SMS_addSprite_bulk8
                                    220 	.globl _devkit_SMS_addSprite_bulk12
                                    221 	.globl _devkit_SMS_setTilePriority
                                    222 	.globl _devkit_isCollisionDetected
                                    223 ;--------------------------------------------------------
                                    224 ; special function registers
                                    225 ;--------------------------------------------------------
                                    226 ;--------------------------------------------------------
                                    227 ; ram data
                                    228 ;--------------------------------------------------------
                                    229 	.area _DATA
                           00FFFF   230 G$ROM_bank_to_be_mapped_on_slot2$0_0$0 == 0xffff
                           00FFFF   231 _ROM_bank_to_be_mapped_on_slot2	=	0xffff
                           00FFFC   232 G$SRAM_bank_to_be_mapped_on_slot2$0_0$0 == 0xfffc
                           00FFFC   233 _SRAM_bank_to_be_mapped_on_slot2	=	0xfffc
                           008000   234 G$SMS_SRAM$0_0$0 == 0x8000
                           008000   235 _SMS_SRAM	=	0x8000
                                    236 ;--------------------------------------------------------
                                    237 ; ram data
                                    238 ;--------------------------------------------------------
                                    239 	.area _INITIALIZED
                                    240 ;--------------------------------------------------------
                                    241 ; absolute external ram data
                                    242 ;--------------------------------------------------------
                                    243 	.area _DABS (ABS)
                                    244 ;--------------------------------------------------------
                                    245 ; global & static initialisations
                                    246 ;--------------------------------------------------------
                                    247 	.area _HOME
                                    248 	.area _GSINIT
                                    249 	.area _GSFINAL
                                    250 	.area _GSINIT
                                    251 ;--------------------------------------------------------
                                    252 ; Home
                                    253 ;--------------------------------------------------------
                                    254 	.area _HOME
                                    255 	.area _HOME
                                    256 ;--------------------------------------------------------
                                    257 ; code
                                    258 ;--------------------------------------------------------
                                    259 	.area _CODE
                           000000   260 	G$devkit_SMS_init$0$0	= .
                                    261 	.globl	G$devkit_SMS_init$0$0
                           000000   262 	C$_sms_manager.c$12$0_0$146	= .
                                    263 	.globl	C$_sms_manager.c$12$0_0$146
                                    264 ;_sms_manager.c:12: void devkit_SMS_init()
                                    265 ;	---------------------------------
                                    266 ; Function devkit_SMS_init
                                    267 ; ---------------------------------
      000000                        268 _devkit_SMS_init::
                           000000   269 	C$_sms_manager.c$14$1_0$146	= .
                                    270 	.globl	C$_sms_manager.c$14$1_0$146
                                    271 ;_sms_manager.c:14: SMS_init();
                           000000   272 	C$_sms_manager.c$15$1_0$146	= .
                                    273 	.globl	C$_sms_manager.c$15$1_0$146
                                    274 ;_sms_manager.c:15: }
                           000000   275 	C$_sms_manager.c$15$1_0$146	= .
                                    276 	.globl	C$_sms_manager.c$15$1_0$146
                           000000   277 	XG$devkit_SMS_init$0$0	= .
                                    278 	.globl	XG$devkit_SMS_init$0$0
      000000 C3r00r00         [10]  279 	jp	_SMS_init
                           000003   280 	G$devkit_SMS_VDPturnOnFeature$0$0	= .
                                    281 	.globl	G$devkit_SMS_VDPturnOnFeature$0$0
                           000003   282 	C$_sms_manager.c$18$1_0$148	= .
                                    283 	.globl	C$_sms_manager.c$18$1_0$148
                                    284 ;_sms_manager.c:18: void devkit_SMS_VDPturnOnFeature( unsigned int feature )
                                    285 ;	---------------------------------
                                    286 ; Function devkit_SMS_VDPturnOnFeature
                                    287 ; ---------------------------------
      000003                        288 _devkit_SMS_VDPturnOnFeature::
                           000003   289 	C$_sms_manager.c$20$1_0$148	= .
                                    290 	.globl	C$_sms_manager.c$20$1_0$148
                                    291 ;_sms_manager.c:20: SMS_VDPturnOnFeature( feature );
      000003 FD 21 02 00      [14]  292 	ld	iy, #2
      000007 FD 39            [15]  293 	add	iy, sp
      000009 FD 6E 00         [19]  294 	ld	l, 0 (iy)
      00000C FD 66 01         [19]  295 	ld	h, 1 (iy)
                           00000F   296 	C$_sms_manager.c$21$1_0$148	= .
                                    297 	.globl	C$_sms_manager.c$21$1_0$148
                                    298 ;_sms_manager.c:21: }
                           00000F   299 	C$_sms_manager.c$21$1_0$148	= .
                                    300 	.globl	C$_sms_manager.c$21$1_0$148
                           00000F   301 	XG$devkit_SMS_VDPturnOnFeature$0$0	= .
                                    302 	.globl	XG$devkit_SMS_VDPturnOnFeature$0$0
      00000F C3r00r00         [10]  303 	jp	_SMS_VDPturnOnFeature
                           000012   304 	G$devkit_SMS_VDPturnOffFeature$0$0	= .
                                    305 	.globl	G$devkit_SMS_VDPturnOffFeature$0$0
                           000012   306 	C$_sms_manager.c$22$1_0$150	= .
                                    307 	.globl	C$_sms_manager.c$22$1_0$150
                                    308 ;_sms_manager.c:22: void devkit_SMS_VDPturnOffFeature( unsigned int feature )
                                    309 ;	---------------------------------
                                    310 ; Function devkit_SMS_VDPturnOffFeature
                                    311 ; ---------------------------------
      000012                        312 _devkit_SMS_VDPturnOffFeature::
                           000012   313 	C$_sms_manager.c$24$1_0$150	= .
                                    314 	.globl	C$_sms_manager.c$24$1_0$150
                                    315 ;_sms_manager.c:24: SMS_VDPturnOffFeature( feature );
      000012 FD 21 02 00      [14]  316 	ld	iy, #2
      000016 FD 39            [15]  317 	add	iy, sp
      000018 FD 6E 00         [19]  318 	ld	l, 0 (iy)
      00001B FD 66 01         [19]  319 	ld	h, 1 (iy)
                           00001E   320 	C$_sms_manager.c$25$1_0$150	= .
                                    321 	.globl	C$_sms_manager.c$25$1_0$150
                                    322 ;_sms_manager.c:25: }
                           00001E   323 	C$_sms_manager.c$25$1_0$150	= .
                                    324 	.globl	C$_sms_manager.c$25$1_0$150
                           00001E   325 	XG$devkit_SMS_VDPturnOffFeature$0$0	= .
                                    326 	.globl	XG$devkit_SMS_VDPturnOffFeature$0$0
      00001E C3r00r00         [10]  327 	jp	_SMS_VDPturnOffFeature
                           000021   328 	G$devkit_VDPFEATURE_EXTRAHEIGHT$0$0	= .
                                    329 	.globl	G$devkit_VDPFEATURE_EXTRAHEIGHT$0$0
                           000021   330 	C$_sms_manager.c$28$1_0$151	= .
                                    331 	.globl	C$_sms_manager.c$28$1_0$151
                                    332 ;_sms_manager.c:28: unsigned int devkit_VDPFEATURE_EXTRAHEIGHT()
                                    333 ;	---------------------------------
                                    334 ; Function devkit_VDPFEATURE_EXTRAHEIGHT
                                    335 ; ---------------------------------
      000021                        336 _devkit_VDPFEATURE_EXTRAHEIGHT::
                           000021   337 	C$_sms_manager.c$30$1_0$151	= .
                                    338 	.globl	C$_sms_manager.c$30$1_0$151
                                    339 ;_sms_manager.c:30: return VDPFEATURE_EXTRAHEIGHT; 
      000021 21 02 00         [10]  340 	ld	hl, #0x0002
                           000024   341 	C$_sms_manager.c$31$1_0$151	= .
                                    342 	.globl	C$_sms_manager.c$31$1_0$151
                                    343 ;_sms_manager.c:31: }
                           000024   344 	C$_sms_manager.c$31$1_0$151	= .
                                    345 	.globl	C$_sms_manager.c$31$1_0$151
                           000024   346 	XG$devkit_VDPFEATURE_EXTRAHEIGHT$0$0	= .
                                    347 	.globl	XG$devkit_VDPFEATURE_EXTRAHEIGHT$0$0
      000024 C9               [10]  348 	ret
                           000025   349 	G$devkit_VDPFEATURE_SHIFTSPRITES$0$0	= .
                                    350 	.globl	G$devkit_VDPFEATURE_SHIFTSPRITES$0$0
                           000025   351 	C$_sms_manager.c$32$1_0$152	= .
                                    352 	.globl	C$_sms_manager.c$32$1_0$152
                                    353 ;_sms_manager.c:32: unsigned int devkit_VDPFEATURE_SHIFTSPRITES()
                                    354 ;	---------------------------------
                                    355 ; Function devkit_VDPFEATURE_SHIFTSPRITES
                                    356 ; ---------------------------------
      000025                        357 _devkit_VDPFEATURE_SHIFTSPRITES::
                           000025   358 	C$_sms_manager.c$34$1_0$152	= .
                                    359 	.globl	C$_sms_manager.c$34$1_0$152
                                    360 ;_sms_manager.c:34: return VDPFEATURE_SHIFTSPRITES; 
      000025 21 08 00         [10]  361 	ld	hl, #0x0008
                           000028   362 	C$_sms_manager.c$35$1_0$152	= .
                                    363 	.globl	C$_sms_manager.c$35$1_0$152
                                    364 ;_sms_manager.c:35: }
                           000028   365 	C$_sms_manager.c$35$1_0$152	= .
                                    366 	.globl	C$_sms_manager.c$35$1_0$152
                           000028   367 	XG$devkit_VDPFEATURE_SHIFTSPRITES$0$0	= .
                                    368 	.globl	XG$devkit_VDPFEATURE_SHIFTSPRITES$0$0
      000028 C9               [10]  369 	ret
                           000029   370 	G$devkit_VDPFEATURE_HIDEFIRSTCOL$0$0	= .
                                    371 	.globl	G$devkit_VDPFEATURE_HIDEFIRSTCOL$0$0
                           000029   372 	C$_sms_manager.c$36$1_0$153	= .
                                    373 	.globl	C$_sms_manager.c$36$1_0$153
                                    374 ;_sms_manager.c:36: unsigned int devkit_VDPFEATURE_HIDEFIRSTCOL() 
                                    375 ;	---------------------------------
                                    376 ; Function devkit_VDPFEATURE_HIDEFIRSTCOL
                                    377 ; ---------------------------------
      000029                        378 _devkit_VDPFEATURE_HIDEFIRSTCOL::
                           000029   379 	C$_sms_manager.c$38$1_0$153	= .
                                    380 	.globl	C$_sms_manager.c$38$1_0$153
                                    381 ;_sms_manager.c:38: return VDPFEATURE_HIDEFIRSTCOL; 
      000029 21 20 00         [10]  382 	ld	hl, #0x0020
                           00002C   383 	C$_sms_manager.c$39$1_0$153	= .
                                    384 	.globl	C$_sms_manager.c$39$1_0$153
                                    385 ;_sms_manager.c:39: }
                           00002C   386 	C$_sms_manager.c$39$1_0$153	= .
                                    387 	.globl	C$_sms_manager.c$39$1_0$153
                           00002C   388 	XG$devkit_VDPFEATURE_HIDEFIRSTCOL$0$0	= .
                                    389 	.globl	XG$devkit_VDPFEATURE_HIDEFIRSTCOL$0$0
      00002C C9               [10]  390 	ret
                           00002D   391 	G$devkit_VDPFEATURE_LEFTCOLBLANK$0$0	= .
                                    392 	.globl	G$devkit_VDPFEATURE_LEFTCOLBLANK$0$0
                           00002D   393 	C$_sms_manager.c$40$1_0$154	= .
                                    394 	.globl	C$_sms_manager.c$40$1_0$154
                                    395 ;_sms_manager.c:40: unsigned int devkit_VDPFEATURE_LEFTCOLBLANK()
                                    396 ;	---------------------------------
                                    397 ; Function devkit_VDPFEATURE_LEFTCOLBLANK
                                    398 ; ---------------------------------
      00002D                        399 _devkit_VDPFEATURE_LEFTCOLBLANK::
                           00002D   400 	C$_sms_manager.c$42$1_0$154	= .
                                    401 	.globl	C$_sms_manager.c$42$1_0$154
                                    402 ;_sms_manager.c:42: return VDPFEATURE_LEFTCOLBLANK; 
      00002D 21 20 00         [10]  403 	ld	hl, #0x0020
                           000030   404 	C$_sms_manager.c$43$1_0$154	= .
                                    405 	.globl	C$_sms_manager.c$43$1_0$154
                                    406 ;_sms_manager.c:43: }
                           000030   407 	C$_sms_manager.c$43$1_0$154	= .
                                    408 	.globl	C$_sms_manager.c$43$1_0$154
                           000030   409 	XG$devkit_VDPFEATURE_LEFTCOLBLANK$0$0	= .
                                    410 	.globl	XG$devkit_VDPFEATURE_LEFTCOLBLANK$0$0
      000030 C9               [10]  411 	ret
                           000031   412 	G$devkit_VDPFEATURE_LOCKHSCROLL$0$0	= .
                                    413 	.globl	G$devkit_VDPFEATURE_LOCKHSCROLL$0$0
                           000031   414 	C$_sms_manager.c$44$1_0$155	= .
                                    415 	.globl	C$_sms_manager.c$44$1_0$155
                                    416 ;_sms_manager.c:44: unsigned int devkit_VDPFEATURE_LOCKHSCROLL()
                                    417 ;	---------------------------------
                                    418 ; Function devkit_VDPFEATURE_LOCKHSCROLL
                                    419 ; ---------------------------------
      000031                        420 _devkit_VDPFEATURE_LOCKHSCROLL::
                           000031   421 	C$_sms_manager.c$46$1_0$155	= .
                                    422 	.globl	C$_sms_manager.c$46$1_0$155
                                    423 ;_sms_manager.c:46: return VDPFEATURE_LOCKHSCROLL; 
      000031 21 40 00         [10]  424 	ld	hl, #0x0040
                           000034   425 	C$_sms_manager.c$47$1_0$155	= .
                                    426 	.globl	C$_sms_manager.c$47$1_0$155
                                    427 ;_sms_manager.c:47: }
                           000034   428 	C$_sms_manager.c$47$1_0$155	= .
                                    429 	.globl	C$_sms_manager.c$47$1_0$155
                           000034   430 	XG$devkit_VDPFEATURE_LOCKHSCROLL$0$0	= .
                                    431 	.globl	XG$devkit_VDPFEATURE_LOCKHSCROLL$0$0
      000034 C9               [10]  432 	ret
                           000035   433 	G$devkit_VDPFEATURE_LOCKVSCROLL$0$0	= .
                                    434 	.globl	G$devkit_VDPFEATURE_LOCKVSCROLL$0$0
                           000035   435 	C$_sms_manager.c$48$1_0$156	= .
                                    436 	.globl	C$_sms_manager.c$48$1_0$156
                                    437 ;_sms_manager.c:48: unsigned int devkit_VDPFEATURE_LOCKVSCROLL() 
                                    438 ;	---------------------------------
                                    439 ; Function devkit_VDPFEATURE_LOCKVSCROLL
                                    440 ; ---------------------------------
      000035                        441 _devkit_VDPFEATURE_LOCKVSCROLL::
                           000035   442 	C$_sms_manager.c$50$1_0$156	= .
                                    443 	.globl	C$_sms_manager.c$50$1_0$156
                                    444 ;_sms_manager.c:50: return VDPFEATURE_LOCKVSCROLL; 
      000035 21 80 00         [10]  445 	ld	hl, #0x0080
                           000038   446 	C$_sms_manager.c$51$1_0$156	= .
                                    447 	.globl	C$_sms_manager.c$51$1_0$156
                                    448 ;_sms_manager.c:51: }
                           000038   449 	C$_sms_manager.c$51$1_0$156	= .
                                    450 	.globl	C$_sms_manager.c$51$1_0$156
                           000038   451 	XG$devkit_VDPFEATURE_LOCKVSCROLL$0$0	= .
                                    452 	.globl	XG$devkit_VDPFEATURE_LOCKVSCROLL$0$0
      000038 C9               [10]  453 	ret
                           000039   454 	G$devkit_VDPFEATURE_ZOOMSPRITES$0$0	= .
                                    455 	.globl	G$devkit_VDPFEATURE_ZOOMSPRITES$0$0
                           000039   456 	C$_sms_manager.c$54$1_0$157	= .
                                    457 	.globl	C$_sms_manager.c$54$1_0$157
                                    458 ;_sms_manager.c:54: unsigned int devkit_VDPFEATURE_ZOOMSPRITES()
                                    459 ;	---------------------------------
                                    460 ; Function devkit_VDPFEATURE_ZOOMSPRITES
                                    461 ; ---------------------------------
      000039                        462 _devkit_VDPFEATURE_ZOOMSPRITES::
                           000039   463 	C$_sms_manager.c$56$1_0$157	= .
                                    464 	.globl	C$_sms_manager.c$56$1_0$157
                                    465 ;_sms_manager.c:56: return VDPFEATURE_ZOOMSPRITES; 
      000039 21 01 01         [10]  466 	ld	hl, #0x0101
                           00003C   467 	C$_sms_manager.c$57$1_0$157	= .
                                    468 	.globl	C$_sms_manager.c$57$1_0$157
                                    469 ;_sms_manager.c:57: }
                           00003C   470 	C$_sms_manager.c$57$1_0$157	= .
                                    471 	.globl	C$_sms_manager.c$57$1_0$157
                           00003C   472 	XG$devkit_VDPFEATURE_ZOOMSPRITES$0$0	= .
                                    473 	.globl	XG$devkit_VDPFEATURE_ZOOMSPRITES$0$0
      00003C C9               [10]  474 	ret
                           00003D   475 	G$devkit_VDPFEATURE_USETALLSPRITES$0$0	= .
                                    476 	.globl	G$devkit_VDPFEATURE_USETALLSPRITES$0$0
                           00003D   477 	C$_sms_manager.c$58$1_0$158	= .
                                    478 	.globl	C$_sms_manager.c$58$1_0$158
                                    479 ;_sms_manager.c:58: unsigned int devkit_VDPFEATURE_USETALLSPRITES()
                                    480 ;	---------------------------------
                                    481 ; Function devkit_VDPFEATURE_USETALLSPRITES
                                    482 ; ---------------------------------
      00003D                        483 _devkit_VDPFEATURE_USETALLSPRITES::
                           00003D   484 	C$_sms_manager.c$60$1_0$158	= .
                                    485 	.globl	C$_sms_manager.c$60$1_0$158
                                    486 ;_sms_manager.c:60: return VDPFEATURE_USETALLSPRITES; 
      00003D 21 02 01         [10]  487 	ld	hl, #0x0102
                           000040   488 	C$_sms_manager.c$61$1_0$158	= .
                                    489 	.globl	C$_sms_manager.c$61$1_0$158
                                    490 ;_sms_manager.c:61: }
                           000040   491 	C$_sms_manager.c$61$1_0$158	= .
                                    492 	.globl	C$_sms_manager.c$61$1_0$158
                           000040   493 	XG$devkit_VDPFEATURE_USETALLSPRITES$0$0	= .
                                    494 	.globl	XG$devkit_VDPFEATURE_USETALLSPRITES$0$0
      000040 C9               [10]  495 	ret
                           000041   496 	G$devkit_VDPFEATURE_240LINES$0$0	= .
                                    497 	.globl	G$devkit_VDPFEATURE_240LINES$0$0
                           000041   498 	C$_sms_manager.c$62$1_0$159	= .
                                    499 	.globl	C$_sms_manager.c$62$1_0$159
                                    500 ;_sms_manager.c:62: unsigned int devkit_VDPFEATURE_240LINES()
                                    501 ;	---------------------------------
                                    502 ; Function devkit_VDPFEATURE_240LINES
                                    503 ; ---------------------------------
      000041                        504 _devkit_VDPFEATURE_240LINES::
                           000041   505 	C$_sms_manager.c$64$1_0$159	= .
                                    506 	.globl	C$_sms_manager.c$64$1_0$159
                                    507 ;_sms_manager.c:64: return VDPFEATURE_240LINES; 
      000041 21 08 01         [10]  508 	ld	hl, #0x0108
                           000044   509 	C$_sms_manager.c$65$1_0$159	= .
                                    510 	.globl	C$_sms_manager.c$65$1_0$159
                                    511 ;_sms_manager.c:65: }
                           000044   512 	C$_sms_manager.c$65$1_0$159	= .
                                    513 	.globl	C$_sms_manager.c$65$1_0$159
                           000044   514 	XG$devkit_VDPFEATURE_240LINES$0$0	= .
                                    515 	.globl	XG$devkit_VDPFEATURE_240LINES$0$0
      000044 C9               [10]  516 	ret
                           000045   517 	G$devkit_VDPFEATURE_224LINES$0$0	= .
                                    518 	.globl	G$devkit_VDPFEATURE_224LINES$0$0
                           000045   519 	C$_sms_manager.c$66$1_0$160	= .
                                    520 	.globl	C$_sms_manager.c$66$1_0$160
                                    521 ;_sms_manager.c:66: unsigned int devkit_VDPFEATURE_224LINES()
                                    522 ;	---------------------------------
                                    523 ; Function devkit_VDPFEATURE_224LINES
                                    524 ; ---------------------------------
      000045                        525 _devkit_VDPFEATURE_224LINES::
                           000045   526 	C$_sms_manager.c$68$1_0$160	= .
                                    527 	.globl	C$_sms_manager.c$68$1_0$160
                                    528 ;_sms_manager.c:68: return VDPFEATURE_224LINES; 
      000045 21 10 01         [10]  529 	ld	hl, #0x0110
                           000048   530 	C$_sms_manager.c$69$1_0$160	= .
                                    531 	.globl	C$_sms_manager.c$69$1_0$160
                                    532 ;_sms_manager.c:69: }
                           000048   533 	C$_sms_manager.c$69$1_0$160	= .
                                    534 	.globl	C$_sms_manager.c$69$1_0$160
                           000048   535 	XG$devkit_VDPFEATURE_224LINES$0$0	= .
                                    536 	.globl	XG$devkit_VDPFEATURE_224LINES$0$0
      000048 C9               [10]  537 	ret
                           000049   538 	G$devkit_VDPFEATURE_FRAMEIRQ$0$0	= .
                                    539 	.globl	G$devkit_VDPFEATURE_FRAMEIRQ$0$0
                           000049   540 	C$_sms_manager.c$70$1_0$161	= .
                                    541 	.globl	C$_sms_manager.c$70$1_0$161
                                    542 ;_sms_manager.c:70: unsigned int devkit_VDPFEATURE_FRAMEIRQ()
                                    543 ;	---------------------------------
                                    544 ; Function devkit_VDPFEATURE_FRAMEIRQ
                                    545 ; ---------------------------------
      000049                        546 _devkit_VDPFEATURE_FRAMEIRQ::
                           000049   547 	C$_sms_manager.c$72$1_0$161	= .
                                    548 	.globl	C$_sms_manager.c$72$1_0$161
                                    549 ;_sms_manager.c:72: return VDPFEATURE_FRAMEIRQ;
      000049 21 20 01         [10]  550 	ld	hl, #0x0120
                           00004C   551 	C$_sms_manager.c$73$1_0$161	= .
                                    552 	.globl	C$_sms_manager.c$73$1_0$161
                                    553 ;_sms_manager.c:73: }
                           00004C   554 	C$_sms_manager.c$73$1_0$161	= .
                                    555 	.globl	C$_sms_manager.c$73$1_0$161
                           00004C   556 	XG$devkit_VDPFEATURE_FRAMEIRQ$0$0	= .
                                    557 	.globl	XG$devkit_VDPFEATURE_FRAMEIRQ$0$0
      00004C C9               [10]  558 	ret
                           00004D   559 	G$devkit_VDPFEATURE_SHOWDISPLAY$0$0	= .
                                    560 	.globl	G$devkit_VDPFEATURE_SHOWDISPLAY$0$0
                           00004D   561 	C$_sms_manager.c$74$1_0$162	= .
                                    562 	.globl	C$_sms_manager.c$74$1_0$162
                                    563 ;_sms_manager.c:74: unsigned int devkit_VDPFEATURE_SHOWDISPLAY()
                                    564 ;	---------------------------------
                                    565 ; Function devkit_VDPFEATURE_SHOWDISPLAY
                                    566 ; ---------------------------------
      00004D                        567 _devkit_VDPFEATURE_SHOWDISPLAY::
                           00004D   568 	C$_sms_manager.c$76$1_0$162	= .
                                    569 	.globl	C$_sms_manager.c$76$1_0$162
                                    570 ;_sms_manager.c:76: return VDPFEATURE_SHOWDISPLAY; 
      00004D 21 40 01         [10]  571 	ld	hl, #0x0140
                           000050   572 	C$_sms_manager.c$77$1_0$162	= .
                                    573 	.globl	C$_sms_manager.c$77$1_0$162
                                    574 ;_sms_manager.c:77: }
                           000050   575 	C$_sms_manager.c$77$1_0$162	= .
                                    576 	.globl	C$_sms_manager.c$77$1_0$162
                           000050   577 	XG$devkit_VDPFEATURE_SHOWDISPLAY$0$0	= .
                                    578 	.globl	XG$devkit_VDPFEATURE_SHOWDISPLAY$0$0
      000050 C9               [10]  579 	ret
                           000051   580 	G$devkit_SMS_displayOn$0$0	= .
                                    581 	.globl	G$devkit_SMS_displayOn$0$0
                           000051   582 	C$_sms_manager.c$80$1_0$163	= .
                                    583 	.globl	C$_sms_manager.c$80$1_0$163
                                    584 ;_sms_manager.c:80: void devkit_SMS_displayOn()
                                    585 ;	---------------------------------
                                    586 ; Function devkit_SMS_displayOn
                                    587 ; ---------------------------------
      000051                        588 _devkit_SMS_displayOn::
                           000051   589 	C$_sms_manager.c$82$1_0$163	= .
                                    590 	.globl	C$_sms_manager.c$82$1_0$163
                                    591 ;_sms_manager.c:82: SMS_displayOn();
      000051 21 40 01         [10]  592 	ld	hl, #0x0140
                           000054   593 	C$_sms_manager.c$83$1_0$163	= .
                                    594 	.globl	C$_sms_manager.c$83$1_0$163
                                    595 ;_sms_manager.c:83: }
                           000054   596 	C$_sms_manager.c$83$1_0$163	= .
                                    597 	.globl	C$_sms_manager.c$83$1_0$163
                           000054   598 	XG$devkit_SMS_displayOn$0$0	= .
                                    599 	.globl	XG$devkit_SMS_displayOn$0$0
      000054 C3r00r00         [10]  600 	jp	_SMS_VDPturnOnFeature
                           000057   601 	G$devkit_SMS_displayOff$0$0	= .
                                    602 	.globl	G$devkit_SMS_displayOff$0$0
                           000057   603 	C$_sms_manager.c$84$1_0$164	= .
                                    604 	.globl	C$_sms_manager.c$84$1_0$164
                                    605 ;_sms_manager.c:84: void devkit_SMS_displayOff()
                                    606 ;	---------------------------------
                                    607 ; Function devkit_SMS_displayOff
                                    608 ; ---------------------------------
      000057                        609 _devkit_SMS_displayOff::
                           000057   610 	C$_sms_manager.c$86$1_0$164	= .
                                    611 	.globl	C$_sms_manager.c$86$1_0$164
                                    612 ;_sms_manager.c:86: SMS_displayOff();
      000057 21 40 01         [10]  613 	ld	hl, #0x0140
                           00005A   614 	C$_sms_manager.c$87$1_0$164	= .
                                    615 	.globl	C$_sms_manager.c$87$1_0$164
                                    616 ;_sms_manager.c:87: }
                           00005A   617 	C$_sms_manager.c$87$1_0$164	= .
                                    618 	.globl	C$_sms_manager.c$87$1_0$164
                           00005A   619 	XG$devkit_SMS_displayOff$0$0	= .
                                    620 	.globl	XG$devkit_SMS_displayOff$0$0
      00005A C3r00r00         [10]  621 	jp	_SMS_VDPturnOffFeature
                           00005D   622 	G$devkit_SMS_setBGScrollX$0$0	= .
                                    623 	.globl	G$devkit_SMS_setBGScrollX$0$0
                           00005D   624 	C$_sms_manager.c$89$1_0$166	= .
                                    625 	.globl	C$_sms_manager.c$89$1_0$166
                                    626 ;_sms_manager.c:89: void devkit_SMS_setBGScrollX( unsigned char scrollX )
                                    627 ;	---------------------------------
                                    628 ; Function devkit_SMS_setBGScrollX
                                    629 ; ---------------------------------
      00005D                        630 _devkit_SMS_setBGScrollX::
                           00005D   631 	C$_sms_manager.c$91$1_0$166	= .
                                    632 	.globl	C$_sms_manager.c$91$1_0$166
                                    633 ;_sms_manager.c:91: SMS_setBGScrollX( scrollX );
      00005D FD 21 02 00      [14]  634 	ld	iy, #2
      000061 FD 39            [15]  635 	add	iy, sp
      000063 FD 6E 00         [19]  636 	ld	l, 0 (iy)
                           000066   637 	C$_sms_manager.c$92$1_0$166	= .
                                    638 	.globl	C$_sms_manager.c$92$1_0$166
                                    639 ;_sms_manager.c:92: }
                           000066   640 	C$_sms_manager.c$92$1_0$166	= .
                                    641 	.globl	C$_sms_manager.c$92$1_0$166
                           000066   642 	XG$devkit_SMS_setBGScrollX$0$0	= .
                                    643 	.globl	XG$devkit_SMS_setBGScrollX$0$0
      000066 C3r00r00         [10]  644 	jp	_SMS_setBGScrollX
                           000069   645 	G$devkit_SMS_setBGScrollY$0$0	= .
                                    646 	.globl	G$devkit_SMS_setBGScrollY$0$0
                           000069   647 	C$_sms_manager.c$93$1_0$168	= .
                                    648 	.globl	C$_sms_manager.c$93$1_0$168
                                    649 ;_sms_manager.c:93: void devkit_SMS_setBGScrollY( unsigned char scrollY )
                                    650 ;	---------------------------------
                                    651 ; Function devkit_SMS_setBGScrollY
                                    652 ; ---------------------------------
      000069                        653 _devkit_SMS_setBGScrollY::
                           000069   654 	C$_sms_manager.c$95$1_0$168	= .
                                    655 	.globl	C$_sms_manager.c$95$1_0$168
                                    656 ;_sms_manager.c:95: SMS_setBGScrollY( scrollY );
      000069 FD 21 02 00      [14]  657 	ld	iy, #2
      00006D FD 39            [15]  658 	add	iy, sp
      00006F FD 6E 00         [19]  659 	ld	l, 0 (iy)
                           000072   660 	C$_sms_manager.c$96$1_0$168	= .
                                    661 	.globl	C$_sms_manager.c$96$1_0$168
                                    662 ;_sms_manager.c:96: }
                           000072   663 	C$_sms_manager.c$96$1_0$168	= .
                                    664 	.globl	C$_sms_manager.c$96$1_0$168
                           000072   665 	XG$devkit_SMS_setBGScrollY$0$0	= .
                                    666 	.globl	XG$devkit_SMS_setBGScrollY$0$0
      000072 C3r00r00         [10]  667 	jp	_SMS_setBGScrollY
                           000075   668 	G$devkit_SMS_setBackdropColor$0$0	= .
                                    669 	.globl	G$devkit_SMS_setBackdropColor$0$0
                           000075   670 	C$_sms_manager.c$97$1_0$170	= .
                                    671 	.globl	C$_sms_manager.c$97$1_0$170
                                    672 ;_sms_manager.c:97: void devkit_SMS_setBackdropColor( unsigned char entry )
                                    673 ;	---------------------------------
                                    674 ; Function devkit_SMS_setBackdropColor
                                    675 ; ---------------------------------
      000075                        676 _devkit_SMS_setBackdropColor::
                           000075   677 	C$_sms_manager.c$99$1_0$170	= .
                                    678 	.globl	C$_sms_manager.c$99$1_0$170
                                    679 ;_sms_manager.c:99: SMS_setBackdropColor( entry );
      000075 FD 21 02 00      [14]  680 	ld	iy, #2
      000079 FD 39            [15]  681 	add	iy, sp
      00007B FD 6E 00         [19]  682 	ld	l, 0 (iy)
                           00007E   683 	C$_sms_manager.c$100$1_0$170	= .
                                    684 	.globl	C$_sms_manager.c$100$1_0$170
                                    685 ;_sms_manager.c:100: }
                           00007E   686 	C$_sms_manager.c$100$1_0$170	= .
                                    687 	.globl	C$_sms_manager.c$100$1_0$170
                           00007E   688 	XG$devkit_SMS_setBackdropColor$0$0	= .
                                    689 	.globl	XG$devkit_SMS_setBackdropColor$0$0
      00007E C3r00r00         [10]  690 	jp	_SMS_setBackdropColor
                           000081   691 	G$devkit_SMS_useFirstHalfTilesforSprites$0$0	= .
                                    692 	.globl	G$devkit_SMS_useFirstHalfTilesforSprites$0$0
                           000081   693 	C$_sms_manager.c$101$1_0$172	= .
                                    694 	.globl	C$_sms_manager.c$101$1_0$172
                                    695 ;_sms_manager.c:101: void devkit_SMS_useFirstHalfTilesforSprites( unsigned char usefirsthalf )
                                    696 ;	---------------------------------
                                    697 ; Function devkit_SMS_useFirstHalfTilesforSprites
                                    698 ; ---------------------------------
      000081                        699 _devkit_SMS_useFirstHalfTilesforSprites::
                           000081   700 	C$_sms_manager.c$103$1_0$172	= .
                                    701 	.globl	C$_sms_manager.c$103$1_0$172
                                    702 ;_sms_manager.c:103: SMS_useFirstHalfTilesforSprites( usefirsthalf );
      000081 AF               [ 4]  703 	xor	a, a
      000082 FD 21 02 00      [14]  704 	ld	iy, #2
      000086 FD 39            [15]  705 	add	iy, sp
      000088 FD BE 00         [19]  706 	cp	a, 0 (iy)
      00008B 17               [ 4]  707 	rla
      00008C 6F               [ 4]  708 	ld	l, a
                           00008D   709 	C$_sms_manager.c$104$1_0$172	= .
                                    710 	.globl	C$_sms_manager.c$104$1_0$172
                                    711 ;_sms_manager.c:104: }
                           00008D   712 	C$_sms_manager.c$104$1_0$172	= .
                                    713 	.globl	C$_sms_manager.c$104$1_0$172
                           00008D   714 	XG$devkit_SMS_useFirstHalfTilesforSprites$0$0	= .
                                    715 	.globl	XG$devkit_SMS_useFirstHalfTilesforSprites$0$0
      00008D C3r00r00         [10]  716 	jp	_SMS_useFirstHalfTilesforSprites
                           000090   717 	G$devkit_SMS_setSpriteMode$0$0	= .
                                    718 	.globl	G$devkit_SMS_setSpriteMode$0$0
                           000090   719 	C$_sms_manager.c$105$1_0$174	= .
                                    720 	.globl	C$_sms_manager.c$105$1_0$174
                                    721 ;_sms_manager.c:105: void devkit_SMS_setSpriteMode( unsigned char mode )
                                    722 ;	---------------------------------
                                    723 ; Function devkit_SMS_setSpriteMode
                                    724 ; ---------------------------------
      000090                        725 _devkit_SMS_setSpriteMode::
                           000090   726 	C$_sms_manager.c$107$1_0$174	= .
                                    727 	.globl	C$_sms_manager.c$107$1_0$174
                                    728 ;_sms_manager.c:107: SMS_setSpriteMode( mode );
      000090 FD 21 02 00      [14]  729 	ld	iy, #2
      000094 FD 39            [15]  730 	add	iy, sp
      000096 FD 6E 00         [19]  731 	ld	l, 0 (iy)
                           000099   732 	C$_sms_manager.c$108$1_0$174	= .
                                    733 	.globl	C$_sms_manager.c$108$1_0$174
                                    734 ;_sms_manager.c:108: }
                           000099   735 	C$_sms_manager.c$108$1_0$174	= .
                                    736 	.globl	C$_sms_manager.c$108$1_0$174
                           000099   737 	XG$devkit_SMS_setSpriteMode$0$0	= .
                                    738 	.globl	XG$devkit_SMS_setSpriteMode$0$0
      000099 C3r00r00         [10]  739 	jp	_SMS_setSpriteMode
                           00009C   740 	G$devkit_SPRITEMODE_NORMAL$0$0	= .
                                    741 	.globl	G$devkit_SPRITEMODE_NORMAL$0$0
                           00009C   742 	C$_sms_manager.c$111$1_0$175	= .
                                    743 	.globl	C$_sms_manager.c$111$1_0$175
                                    744 ;_sms_manager.c:111: unsigned char devkit_SPRITEMODE_NORMAL() 
                                    745 ;	---------------------------------
                                    746 ; Function devkit_SPRITEMODE_NORMAL
                                    747 ; ---------------------------------
      00009C                        748 _devkit_SPRITEMODE_NORMAL::
                           00009C   749 	C$_sms_manager.c$113$1_0$175	= .
                                    750 	.globl	C$_sms_manager.c$113$1_0$175
                                    751 ;_sms_manager.c:113: return SPRITEMODE_NORMAL; 
      00009C 2E 00            [ 7]  752 	ld	l, #0x00
                           00009E   753 	C$_sms_manager.c$114$1_0$175	= .
                                    754 	.globl	C$_sms_manager.c$114$1_0$175
                                    755 ;_sms_manager.c:114: }
                           00009E   756 	C$_sms_manager.c$114$1_0$175	= .
                                    757 	.globl	C$_sms_manager.c$114$1_0$175
                           00009E   758 	XG$devkit_SPRITEMODE_NORMAL$0$0	= .
                                    759 	.globl	XG$devkit_SPRITEMODE_NORMAL$0$0
      00009E C9               [10]  760 	ret
                           00009F   761 	G$devkit_SPRITEMODE_TALL$0$0	= .
                                    762 	.globl	G$devkit_SPRITEMODE_TALL$0$0
                           00009F   763 	C$_sms_manager.c$115$1_0$176	= .
                                    764 	.globl	C$_sms_manager.c$115$1_0$176
                                    765 ;_sms_manager.c:115: unsigned char devkit_SPRITEMODE_TALL()
                                    766 ;	---------------------------------
                                    767 ; Function devkit_SPRITEMODE_TALL
                                    768 ; ---------------------------------
      00009F                        769 _devkit_SPRITEMODE_TALL::
                           00009F   770 	C$_sms_manager.c$117$1_0$176	= .
                                    771 	.globl	C$_sms_manager.c$117$1_0$176
                                    772 ;_sms_manager.c:117: return SPRITEMODE_TALL; 
      00009F 2E 01            [ 7]  773 	ld	l, #0x01
                           0000A1   774 	C$_sms_manager.c$118$1_0$176	= .
                                    775 	.globl	C$_sms_manager.c$118$1_0$176
                                    776 ;_sms_manager.c:118: }
                           0000A1   777 	C$_sms_manager.c$118$1_0$176	= .
                                    778 	.globl	C$_sms_manager.c$118$1_0$176
                           0000A1   779 	XG$devkit_SPRITEMODE_TALL$0$0	= .
                                    780 	.globl	XG$devkit_SPRITEMODE_TALL$0$0
      0000A1 C9               [10]  781 	ret
                           0000A2   782 	G$devkit_SPRITEMODE_ZOOMED$0$0	= .
                                    783 	.globl	G$devkit_SPRITEMODE_ZOOMED$0$0
                           0000A2   784 	C$_sms_manager.c$119$1_0$177	= .
                                    785 	.globl	C$_sms_manager.c$119$1_0$177
                                    786 ;_sms_manager.c:119: unsigned char devkit_SPRITEMODE_ZOOMED()
                                    787 ;	---------------------------------
                                    788 ; Function devkit_SPRITEMODE_ZOOMED
                                    789 ; ---------------------------------
      0000A2                        790 _devkit_SPRITEMODE_ZOOMED::
                           0000A2   791 	C$_sms_manager.c$121$1_0$177	= .
                                    792 	.globl	C$_sms_manager.c$121$1_0$177
                                    793 ;_sms_manager.c:121: return SPRITEMODE_ZOOMED; 
      0000A2 2E 02            [ 7]  794 	ld	l, #0x02
                           0000A4   795 	C$_sms_manager.c$122$1_0$177	= .
                                    796 	.globl	C$_sms_manager.c$122$1_0$177
                                    797 ;_sms_manager.c:122: }
                           0000A4   798 	C$_sms_manager.c$122$1_0$177	= .
                                    799 	.globl	C$_sms_manager.c$122$1_0$177
                           0000A4   800 	XG$devkit_SPRITEMODE_ZOOMED$0$0	= .
                                    801 	.globl	XG$devkit_SPRITEMODE_ZOOMED$0$0
      0000A4 C9               [10]  802 	ret
                           0000A5   803 	G$devkit_SPRITEMODE_TALL_ZOOMED$0$0	= .
                                    804 	.globl	G$devkit_SPRITEMODE_TALL_ZOOMED$0$0
                           0000A5   805 	C$_sms_manager.c$123$1_0$178	= .
                                    806 	.globl	C$_sms_manager.c$123$1_0$178
                                    807 ;_sms_manager.c:123: unsigned char devkit_SPRITEMODE_TALL_ZOOMED()
                                    808 ;	---------------------------------
                                    809 ; Function devkit_SPRITEMODE_TALL_ZOOMED
                                    810 ; ---------------------------------
      0000A5                        811 _devkit_SPRITEMODE_TALL_ZOOMED::
                           0000A5   812 	C$_sms_manager.c$125$1_0$178	= .
                                    813 	.globl	C$_sms_manager.c$125$1_0$178
                                    814 ;_sms_manager.c:125: return SPRITEMODE_TALL_ZOOMED; 
      0000A5 2E 03            [ 7]  815 	ld	l, #0x03
                           0000A7   816 	C$_sms_manager.c$126$1_0$178	= .
                                    817 	.globl	C$_sms_manager.c$126$1_0$178
                                    818 ;_sms_manager.c:126: }
                           0000A7   819 	C$_sms_manager.c$126$1_0$178	= .
                                    820 	.globl	C$_sms_manager.c$126$1_0$178
                           0000A7   821 	XG$devkit_SPRITEMODE_TALL_ZOOMED$0$0	= .
                                    822 	.globl	XG$devkit_SPRITEMODE_TALL_ZOOMED$0$0
      0000A7 C9               [10]  823 	ret
                           0000A8   824 	G$devkit_SMS_mapROMBank$0$0	= .
                                    825 	.globl	G$devkit_SMS_mapROMBank$0$0
                           0000A8   826 	C$_sms_manager.c$130$1_0$180	= .
                                    827 	.globl	C$_sms_manager.c$130$1_0$180
                                    828 ;_sms_manager.c:130: void devkit_SMS_mapROMBank( unsigned char n )
                                    829 ;	---------------------------------
                                    830 ; Function devkit_SMS_mapROMBank
                                    831 ; ---------------------------------
      0000A8                        832 _devkit_SMS_mapROMBank::
                           0000A8   833 	C$_sms_manager.c$132$1_0$180	= .
                                    834 	.globl	C$_sms_manager.c$132$1_0$180
                                    835 ;_sms_manager.c:132: SMS_mapROMBank( n );
      0000A8 FD 21 02 00      [14]  836 	ld	iy, #2
      0000AC FD 39            [15]  837 	add	iy, sp
      0000AE FD 7E 00         [19]  838 	ld	a, 0 (iy)
      0000B1 32 FF FF         [13]  839 	ld	(_ROM_bank_to_be_mapped_on_slot2+0), a
                           0000B4   840 	C$_sms_manager.c$133$1_0$180	= .
                                    841 	.globl	C$_sms_manager.c$133$1_0$180
                                    842 ;_sms_manager.c:133: }
                           0000B4   843 	C$_sms_manager.c$133$1_0$180	= .
                                    844 	.globl	C$_sms_manager.c$133$1_0$180
                           0000B4   845 	XG$devkit_SMS_mapROMBank$0$0	= .
                                    846 	.globl	XG$devkit_SMS_mapROMBank$0$0
      0000B4 C9               [10]  847 	ret
                           0000B5   848 	G$devkit_SMS_enableSRAM$0$0	= .
                                    849 	.globl	G$devkit_SMS_enableSRAM$0$0
                           0000B5   850 	C$_sms_manager.c$136$1_0$181	= .
                                    851 	.globl	C$_sms_manager.c$136$1_0$181
                                    852 ;_sms_manager.c:136: void devkit_SMS_enableSRAM()
                                    853 ;	---------------------------------
                                    854 ; Function devkit_SMS_enableSRAM
                                    855 ; ---------------------------------
      0000B5                        856 _devkit_SMS_enableSRAM::
                           0000B5   857 	C$_sms_manager.c$138$1_0$181	= .
                                    858 	.globl	C$_sms_manager.c$138$1_0$181
                                    859 ;_sms_manager.c:138: SMS_enableSRAM();
      0000B5 3E 08            [ 7]  860 	ld	a, #0x08
      0000B7 32 FC FF         [13]  861 	ld	(#_SRAM_bank_to_be_mapped_on_slot2), a
                           0000BA   862 	C$_sms_manager.c$139$1_0$181	= .
                                    863 	.globl	C$_sms_manager.c$139$1_0$181
                                    864 ;_sms_manager.c:139: }
                           0000BA   865 	C$_sms_manager.c$139$1_0$181	= .
                                    866 	.globl	C$_sms_manager.c$139$1_0$181
                           0000BA   867 	XG$devkit_SMS_enableSRAM$0$0	= .
                                    868 	.globl	XG$devkit_SMS_enableSRAM$0$0
      0000BA C9               [10]  869 	ret
                           0000BB   870 	G$devkit_SMS_enableSRAMBank$0$0	= .
                                    871 	.globl	G$devkit_SMS_enableSRAMBank$0$0
                           0000BB   872 	C$_sms_manager.c$140$1_0$183	= .
                                    873 	.globl	C$_sms_manager.c$140$1_0$183
                                    874 ;_sms_manager.c:140: void devkit_SMS_enableSRAMBank( unsigned char n )
                                    875 ;	---------------------------------
                                    876 ; Function devkit_SMS_enableSRAMBank
                                    877 ; ---------------------------------
      0000BB                        878 _devkit_SMS_enableSRAMBank::
                           0000BB   879 	C$_sms_manager.c$142$1_0$183	= .
                                    880 	.globl	C$_sms_manager.c$142$1_0$183
                                    881 ;_sms_manager.c:142: SMS_enableSRAMBank( n );
      0000BB FD 21 02 00      [14]  882 	ld	iy, #2
      0000BF FD 39            [15]  883 	add	iy, sp
      0000C1 FD 7E 00         [19]  884 	ld	a, 0 (iy)
      0000C4 87               [ 4]  885 	add	a, a
      0000C5 87               [ 4]  886 	add	a, a
      0000C6 CB DF            [ 8]  887 	set	3, a
      0000C8 E6 0C            [ 7]  888 	and	a, #0x0c
      0000CA 32 FC FF         [13]  889 	ld	(_SRAM_bank_to_be_mapped_on_slot2+0), a
                           0000CD   890 	C$_sms_manager.c$143$1_0$183	= .
                                    891 	.globl	C$_sms_manager.c$143$1_0$183
                                    892 ;_sms_manager.c:143: }
                           0000CD   893 	C$_sms_manager.c$143$1_0$183	= .
                                    894 	.globl	C$_sms_manager.c$143$1_0$183
                           0000CD   895 	XG$devkit_SMS_enableSRAMBank$0$0	= .
                                    896 	.globl	XG$devkit_SMS_enableSRAMBank$0$0
      0000CD C9               [10]  897 	ret
                           0000CE   898 	G$devkit_SMS_disableSRAM$0$0	= .
                                    899 	.globl	G$devkit_SMS_disableSRAM$0$0
                           0000CE   900 	C$_sms_manager.c$144$1_0$184	= .
                                    901 	.globl	C$_sms_manager.c$144$1_0$184
                                    902 ;_sms_manager.c:144: void devkit_SMS_disableSRAM()
                                    903 ;	---------------------------------
                                    904 ; Function devkit_SMS_disableSRAM
                                    905 ; ---------------------------------
      0000CE                        906 _devkit_SMS_disableSRAM::
                           0000CE   907 	C$_sms_manager.c$146$1_0$184	= .
                                    908 	.globl	C$_sms_manager.c$146$1_0$184
                                    909 ;_sms_manager.c:146: SMS_disableSRAM();
      0000CE 3E 00            [ 7]  910 	ld	a, #0x00
      0000D0 32 FC FF         [13]  911 	ld	(#_SRAM_bank_to_be_mapped_on_slot2), a
                           0000D3   912 	C$_sms_manager.c$147$1_0$184	= .
                                    913 	.globl	C$_sms_manager.c$147$1_0$184
                                    914 ;_sms_manager.c:147: }
                           0000D3   915 	C$_sms_manager.c$147$1_0$184	= .
                                    916 	.globl	C$_sms_manager.c$147$1_0$184
                           0000D3   917 	XG$devkit_SMS_disableSRAM$0$0	= .
                                    918 	.globl	XG$devkit_SMS_disableSRAM$0$0
      0000D3 C9               [10]  919 	ret
                           0000D4   920 	G$devkit_SMS_SRAM$0$0	= .
                                    921 	.globl	G$devkit_SMS_SRAM$0$0
                           0000D4   922 	C$_sms_manager.c$150$1_0$185	= .
                                    923 	.globl	C$_sms_manager.c$150$1_0$185
                                    924 ;_sms_manager.c:150: unsigned char* devkit_SMS_SRAM()
                                    925 ;	---------------------------------
                                    926 ; Function devkit_SMS_SRAM
                                    927 ; ---------------------------------
      0000D4                        928 _devkit_SMS_SRAM::
                           0000D4   929 	C$_sms_manager.c$152$1_0$185	= .
                                    930 	.globl	C$_sms_manager.c$152$1_0$185
                                    931 ;_sms_manager.c:152: return SMS_SRAM;
      0000D4 21 00 80         [10]  932 	ld	hl, #_SMS_SRAM
                           0000D7   933 	C$_sms_manager.c$153$1_0$185	= .
                                    934 	.globl	C$_sms_manager.c$153$1_0$185
                                    935 ;_sms_manager.c:153: }
                           0000D7   936 	C$_sms_manager.c$153$1_0$185	= .
                                    937 	.globl	C$_sms_manager.c$153$1_0$185
                           0000D7   938 	XG$devkit_SMS_SRAM$0$0	= .
                                    939 	.globl	XG$devkit_SMS_SRAM$0$0
      0000D7 C9               [10]  940 	ret
                           0000D8   941 	G$devkit_SMS_waitForVBlank$0$0	= .
                                    942 	.globl	G$devkit_SMS_waitForVBlank$0$0
                           0000D8   943 	C$_sms_manager.c$156$1_0$186	= .
                                    944 	.globl	C$_sms_manager.c$156$1_0$186
                                    945 ;_sms_manager.c:156: void devkit_SMS_waitForVBlank()
                                    946 ;	---------------------------------
                                    947 ; Function devkit_SMS_waitForVBlank
                                    948 ; ---------------------------------
      0000D8                        949 _devkit_SMS_waitForVBlank::
                           0000D8   950 	C$_sms_manager.c$158$1_0$186	= .
                                    951 	.globl	C$_sms_manager.c$158$1_0$186
                                    952 ;_sms_manager.c:158: SMS_waitForVBlank();
                           0000D8   953 	C$_sms_manager.c$159$1_0$186	= .
                                    954 	.globl	C$_sms_manager.c$159$1_0$186
                                    955 ;_sms_manager.c:159: }
                           0000D8   956 	C$_sms_manager.c$159$1_0$186	= .
                                    957 	.globl	C$_sms_manager.c$159$1_0$186
                           0000D8   958 	XG$devkit_SMS_waitForVBlank$0$0	= .
                                    959 	.globl	XG$devkit_SMS_waitForVBlank$0$0
      0000D8 C3r00r00         [10]  960 	jp	_SMS_waitForVBlank
                           0000DB   961 	G$devkit_SMS_crt0_RST08$0$0	= .
                                    962 	.globl	G$devkit_SMS_crt0_RST08$0$0
                           0000DB   963 	C$_sms_manager.c$161$1_0$188	= .
                                    964 	.globl	C$_sms_manager.c$161$1_0$188
                                    965 ;_sms_manager.c:161: void devkit_SMS_crt0_RST08( unsigned int addr )
                                    966 ;	---------------------------------
                                    967 ; Function devkit_SMS_crt0_RST08
                                    968 ; ---------------------------------
      0000DB                        969 _devkit_SMS_crt0_RST08::
                           0000DB   970 	C$_sms_manager.c$163$1_0$188	= .
                                    971 	.globl	C$_sms_manager.c$163$1_0$188
                                    972 ;_sms_manager.c:163: SMS_crt0_RST08( addr );
      0000DB FD 21 02 00      [14]  973 	ld	iy, #2
      0000DF FD 39            [15]  974 	add	iy, sp
      0000E1 FD 6E 00         [19]  975 	ld	l, 0 (iy)
      0000E4 FD 66 01         [19]  976 	ld	h, 1 (iy)
                           0000E7   977 	C$_sms_manager.c$164$1_0$188	= .
                                    978 	.globl	C$_sms_manager.c$164$1_0$188
                                    979 ;_sms_manager.c:164: }
                           0000E7   980 	C$_sms_manager.c$164$1_0$188	= .
                                    981 	.globl	C$_sms_manager.c$164$1_0$188
                           0000E7   982 	XG$devkit_SMS_crt0_RST08$0$0	= .
                                    983 	.globl	XG$devkit_SMS_crt0_RST08$0$0
      0000E7 C3r00r00         [10]  984 	jp	_SMS_crt0_RST08
                           0000EA   985 	G$devkit_SMS_crt0_RST18$0$0	= .
                                    986 	.globl	G$devkit_SMS_crt0_RST18$0$0
                           0000EA   987 	C$_sms_manager.c$165$1_0$190	= .
                                    988 	.globl	C$_sms_manager.c$165$1_0$190
                                    989 ;_sms_manager.c:165: void devkit_SMS_crt0_RST18( unsigned int tile )
                                    990 ;	---------------------------------
                                    991 ; Function devkit_SMS_crt0_RST18
                                    992 ; ---------------------------------
      0000EA                        993 _devkit_SMS_crt0_RST18::
                           0000EA   994 	C$_sms_manager.c$167$1_0$190	= .
                                    995 	.globl	C$_sms_manager.c$167$1_0$190
                                    996 ;_sms_manager.c:167: SMS_crt0_RST18( tile );
      0000EA FD 21 02 00      [14]  997 	ld	iy, #2
      0000EE FD 39            [15]  998 	add	iy, sp
      0000F0 FD 6E 00         [19]  999 	ld	l, 0 (iy)
      0000F3 FD 66 01         [19] 1000 	ld	h, 1 (iy)
                           0000F6  1001 	C$_sms_manager.c$168$1_0$190	= .
                                   1002 	.globl	C$_sms_manager.c$168$1_0$190
                                   1003 ;_sms_manager.c:168: }
                           0000F6  1004 	C$_sms_manager.c$168$1_0$190	= .
                                   1005 	.globl	C$_sms_manager.c$168$1_0$190
                           0000F6  1006 	XG$devkit_SMS_crt0_RST18$0$0	= .
                                   1007 	.globl	XG$devkit_SMS_crt0_RST18$0$0
      0000F6 C3r00r00         [10] 1008 	jp	_SMS_crt0_RST18
                           0000F9  1009 	G$devkit_SMS_setTile$0$0	= .
                                   1010 	.globl	G$devkit_SMS_setTile$0$0
                           0000F9  1011 	C$_sms_manager.c$171$1_0$192	= .
                                   1012 	.globl	C$_sms_manager.c$171$1_0$192
                                   1013 ;_sms_manager.c:171: void devkit_SMS_setTile( const unsigned int tile )
                                   1014 ;	---------------------------------
                                   1015 ; Function devkit_SMS_setTile
                                   1016 ; ---------------------------------
      0000F9                       1017 _devkit_SMS_setTile::
                           0000F9  1018 	C$_sms_manager.c$173$1_0$192	= .
                                   1019 	.globl	C$_sms_manager.c$173$1_0$192
                                   1020 ;_sms_manager.c:173: SMS_setTile( tile );
      0000F9 FD 21 02 00      [14] 1021 	ld	iy, #2
      0000FD FD 39            [15] 1022 	add	iy, sp
      0000FF FD 6E 00         [19] 1023 	ld	l, 0 (iy)
      000102 FD 66 01         [19] 1024 	ld	h, 1 (iy)
                           000105  1025 	C$_sms_manager.c$174$1_0$192	= .
                                   1026 	.globl	C$_sms_manager.c$174$1_0$192
                                   1027 ;_sms_manager.c:174: }
                           000105  1028 	C$_sms_manager.c$174$1_0$192	= .
                                   1029 	.globl	C$_sms_manager.c$174$1_0$192
                           000105  1030 	XG$devkit_SMS_setTile$0$0	= .
                                   1031 	.globl	XG$devkit_SMS_setTile$0$0
      000105 C3r00r00         [10] 1032 	jp	_SMS_crt0_RST18
                           000108  1033 	G$devkit_SMS_setAddr$0$0	= .
                                   1034 	.globl	G$devkit_SMS_setAddr$0$0
                           000108  1035 	C$_sms_manager.c$175$1_0$194	= .
                                   1036 	.globl	C$_sms_manager.c$175$1_0$194
                                   1037 ;_sms_manager.c:175: void devkit_SMS_setAddr( const unsigned int addr )
                                   1038 ;	---------------------------------
                                   1039 ; Function devkit_SMS_setAddr
                                   1040 ; ---------------------------------
      000108                       1041 _devkit_SMS_setAddr::
                           000108  1042 	C$_sms_manager.c$177$1_0$194	= .
                                   1043 	.globl	C$_sms_manager.c$177$1_0$194
                                   1044 ;_sms_manager.c:177: SMS_setAddr( addr );
      000108 FD 21 02 00      [14] 1045 	ld	iy, #2
      00010C FD 39            [15] 1046 	add	iy, sp
      00010E FD 6E 00         [19] 1047 	ld	l, 0 (iy)
      000111 FD 66 01         [19] 1048 	ld	h, 1 (iy)
                           000114  1049 	C$_sms_manager.c$178$1_0$194	= .
                                   1050 	.globl	C$_sms_manager.c$178$1_0$194
                                   1051 ;_sms_manager.c:178: }
                           000114  1052 	C$_sms_manager.c$178$1_0$194	= .
                                   1053 	.globl	C$_sms_manager.c$178$1_0$194
                           000114  1054 	XG$devkit_SMS_setAddr$0$0	= .
                                   1055 	.globl	XG$devkit_SMS_setAddr$0$0
      000114 C3r00r00         [10] 1056 	jp	_SMS_crt0_RST08
                           000117  1057 	G$devkit_XYtoADDR$0$0	= .
                                   1058 	.globl	G$devkit_XYtoADDR$0$0
                           000117  1059 	C$_sms_manager.c$182$1_0$196	= .
                                   1060 	.globl	C$_sms_manager.c$182$1_0$196
                                   1061 ;_sms_manager.c:182: void devkit_XYtoADDR( unsigned int x, unsigned char y )
                                   1062 ;	---------------------------------
                                   1063 ; Function devkit_XYtoADDR
                                   1064 ; ---------------------------------
      000117                       1065 _devkit_XYtoADDR::
                           000117  1066 	C$_sms_manager.c$184$1_0$196	= .
                                   1067 	.globl	C$_sms_manager.c$184$1_0$196
                                   1068 ;_sms_manager.c:184: XYtoADDR( x, y );
                           000117  1069 	C$_sms_manager.c$185$1_0$196	= .
                                   1070 	.globl	C$_sms_manager.c$185$1_0$196
                                   1071 ;_sms_manager.c:185: }
                           000117  1072 	C$_sms_manager.c$185$1_0$196	= .
                                   1073 	.globl	C$_sms_manager.c$185$1_0$196
                           000117  1074 	XG$devkit_XYtoADDR$0$0	= .
                                   1075 	.globl	XG$devkit_XYtoADDR$0$0
      000117 C9               [10] 1076 	ret
                           000118  1077 	G$devkit_SMS_setNextTileatXY$0$0	= .
                                   1078 	.globl	G$devkit_SMS_setNextTileatXY$0$0
                           000118  1079 	C$_sms_manager.c$186$1_0$198	= .
                                   1080 	.globl	C$_sms_manager.c$186$1_0$198
                                   1081 ;_sms_manager.c:186: void devkit_SMS_setNextTileatXY( unsigned char x, unsigned char y )
                                   1082 ;	---------------------------------
                                   1083 ; Function devkit_SMS_setNextTileatXY
                                   1084 ; ---------------------------------
      000118                       1085 _devkit_SMS_setNextTileatXY::
      000118 DD E5            [15] 1086 	push	ix
      00011A DD 21 00 00      [14] 1087 	ld	ix,#0
      00011E DD 39            [15] 1088 	add	ix,sp
                           000120  1089 	C$_sms_manager.c$188$1_0$198	= .
                                   1090 	.globl	C$_sms_manager.c$188$1_0$198
                                   1091 ;_sms_manager.c:188: SMS_setNextTileatXY( x, y );
      000120 DD 6E 05         [19] 1092 	ld	l, 5 (ix)
      000123 26 00            [ 7] 1093 	ld	h, #0x00
      000125 29               [11] 1094 	add	hl, hl
      000126 29               [11] 1095 	add	hl, hl
      000127 29               [11] 1096 	add	hl, hl
      000128 29               [11] 1097 	add	hl, hl
      000129 29               [11] 1098 	add	hl, hl
      00012A DD 4E 04         [19] 1099 	ld	c, 4 (ix)
      00012D 06 00            [ 7] 1100 	ld	b, #0x00
      00012F 09               [11] 1101 	add	hl, bc
      000130 29               [11] 1102 	add	hl, hl
      000131 7C               [ 4] 1103 	ld	a, h
      000132 F6 78            [ 7] 1104 	or	a, #0x78
      000134 67               [ 4] 1105 	ld	h, a
                           000135  1106 	C$_sms_manager.c$189$1_0$198	= .
                                   1107 	.globl	C$_sms_manager.c$189$1_0$198
                                   1108 ;_sms_manager.c:189: }
                           000135  1109 	C$_sms_manager.c$189$1_0$198	= .
                                   1110 	.globl	C$_sms_manager.c$189$1_0$198
                           000135  1111 	XG$devkit_SMS_setNextTileatXY$0$0	= .
                                   1112 	.globl	XG$devkit_SMS_setNextTileatXY$0$0
      000135 DD E1            [14] 1113 	pop	ix
      000137 C3r00r00         [10] 1114 	jp	_SMS_crt0_RST08
                           00013A  1115 	G$devkit_SMS_setNextTileatLoc$0$0	= .
                                   1116 	.globl	G$devkit_SMS_setNextTileatLoc$0$0
                           00013A  1117 	C$_sms_manager.c$190$1_0$200	= .
                                   1118 	.globl	C$_sms_manager.c$190$1_0$200
                                   1119 ;_sms_manager.c:190: void devkit_SMS_setNextTileatLoc( unsigned int loc )
                                   1120 ;	---------------------------------
                                   1121 ; Function devkit_SMS_setNextTileatLoc
                                   1122 ; ---------------------------------
      00013A                       1123 _devkit_SMS_setNextTileatLoc::
                           00013A  1124 	C$_sms_manager.c$192$1_0$200	= .
                                   1125 	.globl	C$_sms_manager.c$192$1_0$200
                                   1126 ;_sms_manager.c:192: SMS_setNextTileatLoc( loc );
      00013A C1               [10] 1127 	pop	bc
      00013B E1               [10] 1128 	pop	hl
      00013C E5               [11] 1129 	push	hl
      00013D C5               [11] 1130 	push	bc
      00013E 29               [11] 1131 	add	hl, hl
      00013F 7C               [ 4] 1132 	ld	a, h
      000140 F6 78            [ 7] 1133 	or	a, #0x78
      000142 67               [ 4] 1134 	ld	h, a
                           000143  1135 	C$_sms_manager.c$193$1_0$200	= .
                                   1136 	.globl	C$_sms_manager.c$193$1_0$200
                                   1137 ;_sms_manager.c:193: }
                           000143  1138 	C$_sms_manager.c$193$1_0$200	= .
                                   1139 	.globl	C$_sms_manager.c$193$1_0$200
                           000143  1140 	XG$devkit_SMS_setNextTileatLoc$0$0	= .
                                   1141 	.globl	XG$devkit_SMS_setNextTileatLoc$0$0
      000143 C3r00r00         [10] 1142 	jp	_SMS_crt0_RST08
                           000146  1143 	G$devkit_SMS_setNextTileatAddr$0$0	= .
                                   1144 	.globl	G$devkit_SMS_setNextTileatAddr$0$0
                           000146  1145 	C$_sms_manager.c$194$1_0$202	= .
                                   1146 	.globl	C$_sms_manager.c$194$1_0$202
                                   1147 ;_sms_manager.c:194: void devkit_SMS_setNextTileatAddr( const unsigned char a )
                                   1148 ;	---------------------------------
                                   1149 ; Function devkit_SMS_setNextTileatAddr
                                   1150 ; ---------------------------------
      000146                       1151 _devkit_SMS_setNextTileatAddr::
                           000146  1152 	C$_sms_manager.c$196$1_0$202	= .
                                   1153 	.globl	C$_sms_manager.c$196$1_0$202
                                   1154 ;_sms_manager.c:196: SMS_setNextTileatAddr( a );
      000146 FD 21 02 00      [14] 1155 	ld	iy, #2
      00014A FD 39            [15] 1156 	add	iy, sp
      00014C FD 6E 00         [19] 1157 	ld	l, 0 (iy)
      00014F 26 00            [ 7] 1158 	ld	h, #0x00
                           000151  1159 	C$_sms_manager.c$197$1_0$202	= .
                                   1160 	.globl	C$_sms_manager.c$197$1_0$202
                                   1161 ;_sms_manager.c:197: }
                           000151  1162 	C$_sms_manager.c$197$1_0$202	= .
                                   1163 	.globl	C$_sms_manager.c$197$1_0$202
                           000151  1164 	XG$devkit_SMS_setNextTileatAddr$0$0	= .
                                   1165 	.globl	XG$devkit_SMS_setNextTileatAddr$0$0
      000151 C3r00r00         [10] 1166 	jp	_SMS_crt0_RST08
                           000154  1167 	G$devkit_SMS_setTileatXY$0$0	= .
                                   1168 	.globl	G$devkit_SMS_setTileatXY$0$0
                           000154  1169 	C$_sms_manager.c$198$1_0$204	= .
                                   1170 	.globl	C$_sms_manager.c$198$1_0$204
                                   1171 ;_sms_manager.c:198: void devkit_SMS_setTileatXY( unsigned int x, unsigned char y, unsigned int tile )
                                   1172 ;	---------------------------------
                                   1173 ; Function devkit_SMS_setTileatXY
                                   1174 ; ---------------------------------
      000154                       1175 _devkit_SMS_setTileatXY::
      000154 DD E5            [15] 1176 	push	ix
      000156 DD 21 00 00      [14] 1177 	ld	ix,#0
      00015A DD 39            [15] 1178 	add	ix,sp
                           00015C  1179 	C$_sms_manager.c$200$2_0$205	= .
                                   1180 	.globl	C$_sms_manager.c$200$2_0$205
                                   1181 ;_sms_manager.c:200: SMS_setTileatXY( x, y, tile );
      00015C DD 6E 06         [19] 1182 	ld	l, 6 (ix)
      00015F 26 00            [ 7] 1183 	ld	h, #0x00
      000161 29               [11] 1184 	add	hl, hl
      000162 29               [11] 1185 	add	hl, hl
      000163 29               [11] 1186 	add	hl, hl
      000164 29               [11] 1187 	add	hl, hl
      000165 29               [11] 1188 	add	hl, hl
      000166 DD 4E 04         [19] 1189 	ld	c, 4 (ix)
      000169 06 00            [ 7] 1190 	ld	b, #0x00
      00016B 09               [11] 1191 	add	hl, bc
      00016C 29               [11] 1192 	add	hl, hl
      00016D 7C               [ 4] 1193 	ld	a, h
      00016E F6 78            [ 7] 1194 	or	a, #0x78
      000170 67               [ 4] 1195 	ld	h, a
      000171 CF               [11] 1196 	rst	#0x08
      000172 DD 6E 07         [19] 1197 	ld	l, 7 (ix)
      000175 DD 66 08         [19] 1198 	ld	h, 8 (ix)
                           000178  1199 	C$_sms_manager.c$201$1_0$204	= .
                                   1200 	.globl	C$_sms_manager.c$201$1_0$204
                                   1201 ;_sms_manager.c:201: }
                           000178  1202 	C$_sms_manager.c$201$1_0$204	= .
                                   1203 	.globl	C$_sms_manager.c$201$1_0$204
                           000178  1204 	XG$devkit_SMS_setTileatXY$0$0	= .
                                   1205 	.globl	XG$devkit_SMS_setTileatXY$0$0
      000178 DD E1            [14] 1206 	pop	ix
      00017A C3r00r00         [10] 1207 	jp	_SMS_crt0_RST18
                           00017D  1208 	G$devkit_TILEtoADDR$0$0	= .
                                   1209 	.globl	G$devkit_TILEtoADDR$0$0
                           00017D  1210 	C$_sms_manager.c$205$1_0$207	= .
                                   1211 	.globl	C$_sms_manager.c$205$1_0$207
                                   1212 ;_sms_manager.c:205: void devkit_TILEtoADDR( unsigned int tile )
                                   1213 ;	---------------------------------
                                   1214 ; Function devkit_TILEtoADDR
                                   1215 ; ---------------------------------
      00017D                       1216 _devkit_TILEtoADDR::
                           00017D  1217 	C$_sms_manager.c$207$1_0$207	= .
                                   1218 	.globl	C$_sms_manager.c$207$1_0$207
                                   1219 ;_sms_manager.c:207: TILEtoADDR( tile );
                           00017D  1220 	C$_sms_manager.c$208$1_0$207	= .
                                   1221 	.globl	C$_sms_manager.c$208$1_0$207
                                   1222 ;_sms_manager.c:208: }
                           00017D  1223 	C$_sms_manager.c$208$1_0$207	= .
                                   1224 	.globl	C$_sms_manager.c$208$1_0$207
                           00017D  1225 	XG$devkit_TILEtoADDR$0$0	= .
                                   1226 	.globl	XG$devkit_TILEtoADDR$0$0
      00017D C9               [10] 1227 	ret
                           00017E  1228 	G$devkit_TILE_FLIPPED_X$0$0	= .
                                   1229 	.globl	G$devkit_TILE_FLIPPED_X$0$0
                           00017E  1230 	C$_sms_manager.c$211$1_0$208	= .
                                   1231 	.globl	C$_sms_manager.c$211$1_0$208
                                   1232 ;_sms_manager.c:211: unsigned int devkit_TILE_FLIPPED_X()
                                   1233 ;	---------------------------------
                                   1234 ; Function devkit_TILE_FLIPPED_X
                                   1235 ; ---------------------------------
      00017E                       1236 _devkit_TILE_FLIPPED_X::
                           00017E  1237 	C$_sms_manager.c$213$1_0$208	= .
                                   1238 	.globl	C$_sms_manager.c$213$1_0$208
                                   1239 ;_sms_manager.c:213: return TILE_FLIPPED_X;
      00017E 21 00 02         [10] 1240 	ld	hl, #0x0200
                           000181  1241 	C$_sms_manager.c$214$1_0$208	= .
                                   1242 	.globl	C$_sms_manager.c$214$1_0$208
                                   1243 ;_sms_manager.c:214: }
                           000181  1244 	C$_sms_manager.c$214$1_0$208	= .
                                   1245 	.globl	C$_sms_manager.c$214$1_0$208
                           000181  1246 	XG$devkit_TILE_FLIPPED_X$0$0	= .
                                   1247 	.globl	XG$devkit_TILE_FLIPPED_X$0$0
      000181 C9               [10] 1248 	ret
                           000182  1249 	G$devkit_TILE_FLIPPED_Y$0$0	= .
                                   1250 	.globl	G$devkit_TILE_FLIPPED_Y$0$0
                           000182  1251 	C$_sms_manager.c$215$1_0$209	= .
                                   1252 	.globl	C$_sms_manager.c$215$1_0$209
                                   1253 ;_sms_manager.c:215: unsigned int devkit_TILE_FLIPPED_Y()
                                   1254 ;	---------------------------------
                                   1255 ; Function devkit_TILE_FLIPPED_Y
                                   1256 ; ---------------------------------
      000182                       1257 _devkit_TILE_FLIPPED_Y::
                           000182  1258 	C$_sms_manager.c$217$1_0$209	= .
                                   1259 	.globl	C$_sms_manager.c$217$1_0$209
                                   1260 ;_sms_manager.c:217: return TILE_FLIPPED_Y;
      000182 21 00 04         [10] 1261 	ld	hl, #0x0400
                           000185  1262 	C$_sms_manager.c$218$1_0$209	= .
                                   1263 	.globl	C$_sms_manager.c$218$1_0$209
                                   1264 ;_sms_manager.c:218: }
                           000185  1265 	C$_sms_manager.c$218$1_0$209	= .
                                   1266 	.globl	C$_sms_manager.c$218$1_0$209
                           000185  1267 	XG$devkit_TILE_FLIPPED_Y$0$0	= .
                                   1268 	.globl	XG$devkit_TILE_FLIPPED_Y$0$0
      000185 C9               [10] 1269 	ret
                           000186  1270 	G$devkit_TILE_USE_SPRITE_PALETTE$0$0	= .
                                   1271 	.globl	G$devkit_TILE_USE_SPRITE_PALETTE$0$0
                           000186  1272 	C$_sms_manager.c$219$1_0$210	= .
                                   1273 	.globl	C$_sms_manager.c$219$1_0$210
                                   1274 ;_sms_manager.c:219: unsigned int devkit_TILE_USE_SPRITE_PALETTE()
                                   1275 ;	---------------------------------
                                   1276 ; Function devkit_TILE_USE_SPRITE_PALETTE
                                   1277 ; ---------------------------------
      000186                       1278 _devkit_TILE_USE_SPRITE_PALETTE::
                           000186  1279 	C$_sms_manager.c$221$1_0$210	= .
                                   1280 	.globl	C$_sms_manager.c$221$1_0$210
                                   1281 ;_sms_manager.c:221: return TILE_USE_SPRITE_PALETTE;
      000186 21 00 08         [10] 1282 	ld	hl, #0x0800
                           000189  1283 	C$_sms_manager.c$222$1_0$210	= .
                                   1284 	.globl	C$_sms_manager.c$222$1_0$210
                                   1285 ;_sms_manager.c:222: }
                           000189  1286 	C$_sms_manager.c$222$1_0$210	= .
                                   1287 	.globl	C$_sms_manager.c$222$1_0$210
                           000189  1288 	XG$devkit_TILE_USE_SPRITE_PALETTE$0$0	= .
                                   1289 	.globl	XG$devkit_TILE_USE_SPRITE_PALETTE$0$0
      000189 C9               [10] 1290 	ret
                           00018A  1291 	G$devkit_TILE_PRIORITY$0$0	= .
                                   1292 	.globl	G$devkit_TILE_PRIORITY$0$0
                           00018A  1293 	C$_sms_manager.c$223$1_0$211	= .
                                   1294 	.globl	C$_sms_manager.c$223$1_0$211
                                   1295 ;_sms_manager.c:223: unsigned int devkit_TILE_PRIORITY()
                                   1296 ;	---------------------------------
                                   1297 ; Function devkit_TILE_PRIORITY
                                   1298 ; ---------------------------------
      00018A                       1299 _devkit_TILE_PRIORITY::
                           00018A  1300 	C$_sms_manager.c$225$1_0$211	= .
                                   1301 	.globl	C$_sms_manager.c$225$1_0$211
                                   1302 ;_sms_manager.c:225: return TILE_PRIORITY;
      00018A 21 00 10         [10] 1303 	ld	hl, #0x1000
                           00018D  1304 	C$_sms_manager.c$226$1_0$211	= .
                                   1305 	.globl	C$_sms_manager.c$226$1_0$211
                                   1306 ;_sms_manager.c:226: }
                           00018D  1307 	C$_sms_manager.c$226$1_0$211	= .
                                   1308 	.globl	C$_sms_manager.c$226$1_0$211
                           00018D  1309 	XG$devkit_TILE_PRIORITY$0$0	= .
                                   1310 	.globl	XG$devkit_TILE_PRIORITY$0$0
      00018D C9               [10] 1311 	ret
                           00018E  1312 	G$devkit_SMS_loadTiles$0$0	= .
                                   1313 	.globl	G$devkit_SMS_loadTiles$0$0
                           00018E  1314 	C$_sms_manager.c$229$1_0$213	= .
                                   1315 	.globl	C$_sms_manager.c$229$1_0$213
                                   1316 ;_sms_manager.c:229: void devkit_SMS_loadTiles( void *src, unsigned int tilefrom, unsigned int size )
                                   1317 ;	---------------------------------
                                   1318 ; Function devkit_SMS_loadTiles
                                   1319 ; ---------------------------------
      00018E                       1320 _devkit_SMS_loadTiles::
                           00018E  1321 	C$_sms_manager.c$231$1_0$213	= .
                                   1322 	.globl	C$_sms_manager.c$231$1_0$213
                                   1323 ;_sms_manager.c:231: SMS_loadTiles( src, tilefrom, size );
      00018E FD 21 04 00      [14] 1324 	ld	iy, #4
      000192 FD 39            [15] 1325 	add	iy, sp
      000194 FD 6E 00         [19] 1326 	ld	l, 0 (iy)
      000197 FD 66 01         [19] 1327 	ld	h, 1 (iy)
      00019A 29               [11] 1328 	add	hl, hl
      00019B 29               [11] 1329 	add	hl, hl
      00019C 29               [11] 1330 	add	hl, hl
      00019D 29               [11] 1331 	add	hl, hl
      00019E 29               [11] 1332 	add	hl, hl
      00019F CB F4            [ 8] 1333 	set	6, h
      0001A1 FD 5E 02         [19] 1334 	ld	e, 2 (iy)
      0001A4 FD 56 03         [19] 1335 	ld	d, 3 (iy)
      0001A7 D5               [11] 1336 	push	de
      0001A8 FD 21 04 00      [14] 1337 	ld	iy, #4
      0001AC FD 39            [15] 1338 	add	iy, sp
      0001AE FD 5E 00         [19] 1339 	ld	e, 0 (iy)
      0001B1 FD 56 01         [19] 1340 	ld	d, 1 (iy)
      0001B4 D5               [11] 1341 	push	de
      0001B5 E5               [11] 1342 	push	hl
      0001B6 CDr00r00         [17] 1343 	call	_SMS_VRAMmemcpy
                           0001B9  1344 	C$_sms_manager.c$232$1_0$213	= .
                                   1345 	.globl	C$_sms_manager.c$232$1_0$213
                                   1346 ;_sms_manager.c:232: }
                           0001B9  1347 	C$_sms_manager.c$232$1_0$213	= .
                                   1348 	.globl	C$_sms_manager.c$232$1_0$213
                           0001B9  1349 	XG$devkit_SMS_loadTiles$0$0	= .
                                   1350 	.globl	XG$devkit_SMS_loadTiles$0$0
      0001B9 C9               [10] 1351 	ret
                           0001BA  1352 	G$devkit_SMS_load1bppTiles$0$0	= .
                                   1353 	.globl	G$devkit_SMS_load1bppTiles$0$0
                           0001BA  1354 	C$_sms_manager.c$233$1_0$215	= .
                                   1355 	.globl	C$_sms_manager.c$233$1_0$215
                                   1356 ;_sms_manager.c:233: void devkit_SMS_load1bppTiles( const void *src, unsigned int tilefrom, unsigned int size, unsigned char color0, unsigned char color1 )
                                   1357 ;	---------------------------------
                                   1358 ; Function devkit_SMS_load1bppTiles
                                   1359 ; ---------------------------------
      0001BA                       1360 _devkit_SMS_load1bppTiles::
                           0001BA  1361 	C$_sms_manager.c$235$1_0$215	= .
                                   1362 	.globl	C$_sms_manager.c$235$1_0$215
                                   1363 ;_sms_manager.c:235: SMS_load1bppTiles( src, tilefrom, size, color0, color1 );
      0001BA FD 21 09 00      [14] 1364 	ld	iy, #9
      0001BE FD 39            [15] 1365 	add	iy, sp
      0001C0 FD 7E 00         [19] 1366 	ld	a, 0 (iy)
      0001C3 F5               [11] 1367 	push	af
      0001C4 33               [ 6] 1368 	inc	sp
      0001C5 FD 7E FF         [19] 1369 	ld	a, -1 (iy)
      0001C8 FD 2B            [10] 1370 	dec	iy
      0001CA F5               [11] 1371 	push	af
      0001CB 33               [ 6] 1372 	inc	sp
      0001CC FD 6E FE         [19] 1373 	ld	l, -2 (iy)
      0001CF FD 66 FF         [19] 1374 	ld	h, -1 (iy)
      0001D2 FD 2B            [10] 1375 	dec	iy
      0001D4 FD 2B            [10] 1376 	dec	iy
      0001D6 E5               [11] 1377 	push	hl
      0001D7 FD 6E FE         [19] 1378 	ld	l, -2 (iy)
      0001DA FD 66 FF         [19] 1379 	ld	h, -1 (iy)
      0001DD FD 2B            [10] 1380 	dec	iy
      0001DF FD 2B            [10] 1381 	dec	iy
      0001E1 E5               [11] 1382 	push	hl
      0001E2 FD 6E FE         [19] 1383 	ld	l, -2 (iy)
      0001E5 FD 66 FF         [19] 1384 	ld	h, -1 (iy)
      0001E8 E5               [11] 1385 	push	hl
      0001E9 CDr00r00         [17] 1386 	call	_SMS_load1bppTiles
      0001EC 21 08 00         [10] 1387 	ld	hl, #8
      0001EF 39               [11] 1388 	add	hl, sp
      0001F0 F9               [ 6] 1389 	ld	sp, hl
                           0001F1  1390 	C$_sms_manager.c$236$1_0$215	= .
                                   1391 	.globl	C$_sms_manager.c$236$1_0$215
                                   1392 ;_sms_manager.c:236: }
                           0001F1  1393 	C$_sms_manager.c$236$1_0$215	= .
                                   1394 	.globl	C$_sms_manager.c$236$1_0$215
                           0001F1  1395 	XG$devkit_SMS_load1bppTiles$0$0	= .
                                   1396 	.globl	XG$devkit_SMS_load1bppTiles$0$0
      0001F1 C9               [10] 1397 	ret
                           0001F2  1398 	G$devkit_SMS_loadPSGaidencompressedTilesatAddr$0$0	= .
                                   1399 	.globl	G$devkit_SMS_loadPSGaidencompressedTilesatAddr$0$0
                           0001F2  1400 	C$_sms_manager.c$239$1_0$217	= .
                                   1401 	.globl	C$_sms_manager.c$239$1_0$217
                                   1402 ;_sms_manager.c:239: void devkit_SMS_loadPSGaidencompressedTilesatAddr( const void *src, unsigned int dst )
                                   1403 ;	---------------------------------
                                   1404 ; Function devkit_SMS_loadPSGaidencompressedTilesatAddr
                                   1405 ; ---------------------------------
      0001F2                       1406 _devkit_SMS_loadPSGaidencompressedTilesatAddr::
                           0001F2  1407 	C$_sms_manager.c$241$1_0$217	= .
                                   1408 	.globl	C$_sms_manager.c$241$1_0$217
                                   1409 ;_sms_manager.c:241: SMS_loadPSGaidencompressedTilesatAddr( src, dst );
      0001F2 FD 21 04 00      [14] 1410 	ld	iy, #4
      0001F6 FD 39            [15] 1411 	add	iy, sp
      0001F8 FD 6E 00         [19] 1412 	ld	l, 0 (iy)
      0001FB FD 66 01         [19] 1413 	ld	h, 1 (iy)
      0001FE E5               [11] 1414 	push	hl
      0001FF FD 6E FE         [19] 1415 	ld	l, -2 (iy)
      000202 FD 66 FF         [19] 1416 	ld	h, -1 (iy)
      000205 E5               [11] 1417 	push	hl
      000206 CDr00r00         [17] 1418 	call	_SMS_loadPSGaidencompressedTilesatAddr
      000209 F1               [10] 1419 	pop	af
      00020A F1               [10] 1420 	pop	af
                           00020B  1421 	C$_sms_manager.c$242$1_0$217	= .
                                   1422 	.globl	C$_sms_manager.c$242$1_0$217
                                   1423 ;_sms_manager.c:242: }
                           00020B  1424 	C$_sms_manager.c$242$1_0$217	= .
                                   1425 	.globl	C$_sms_manager.c$242$1_0$217
                           00020B  1426 	XG$devkit_SMS_loadPSGaidencompressedTilesatAddr$0$0	= .
                                   1427 	.globl	XG$devkit_SMS_loadPSGaidencompressedTilesatAddr$0$0
      00020B C9               [10] 1428 	ret
                           00020C  1429 	G$devkit_SMS_loadPSGaidencompressedTiles$0$0	= .
                                   1430 	.globl	G$devkit_SMS_loadPSGaidencompressedTiles$0$0
                           00020C  1431 	C$_sms_manager.c$243$1_0$219	= .
                                   1432 	.globl	C$_sms_manager.c$243$1_0$219
                                   1433 ;_sms_manager.c:243: void devkit_SMS_loadPSGaidencompressedTiles( const void *src, unsigned int tilefrom )
                                   1434 ;	---------------------------------
                                   1435 ; Function devkit_SMS_loadPSGaidencompressedTiles
                                   1436 ; ---------------------------------
      00020C                       1437 _devkit_SMS_loadPSGaidencompressedTiles::
                           00020C  1438 	C$_sms_manager.c$245$1_0$219	= .
                                   1439 	.globl	C$_sms_manager.c$245$1_0$219
                                   1440 ;_sms_manager.c:245: SMS_loadPSGaidencompressedTiles( src, tilefrom );
      00020C FD 21 04 00      [14] 1441 	ld	iy, #4
      000210 FD 39            [15] 1442 	add	iy, sp
      000212 FD 6E 00         [19] 1443 	ld	l, 0 (iy)
      000215 FD 66 01         [19] 1444 	ld	h, 1 (iy)
      000218 29               [11] 1445 	add	hl, hl
      000219 29               [11] 1446 	add	hl, hl
      00021A 29               [11] 1447 	add	hl, hl
      00021B 29               [11] 1448 	add	hl, hl
      00021C 29               [11] 1449 	add	hl, hl
      00021D CB F4            [ 8] 1450 	set	6, h
      00021F E5               [11] 1451 	push	hl
      000220 FD 6E FE         [19] 1452 	ld	l, -2 (iy)
      000223 FD 66 FF         [19] 1453 	ld	h, -1 (iy)
      000226 E5               [11] 1454 	push	hl
      000227 CDr00r00         [17] 1455 	call	_SMS_loadPSGaidencompressedTilesatAddr
      00022A F1               [10] 1456 	pop	af
      00022B F1               [10] 1457 	pop	af
                           00022C  1458 	C$_sms_manager.c$246$1_0$219	= .
                                   1459 	.globl	C$_sms_manager.c$246$1_0$219
                                   1460 ;_sms_manager.c:246: }
                           00022C  1461 	C$_sms_manager.c$246$1_0$219	= .
                                   1462 	.globl	C$_sms_manager.c$246$1_0$219
                           00022C  1463 	XG$devkit_SMS_loadPSGaidencompressedTiles$0$0	= .
                                   1464 	.globl	XG$devkit_SMS_loadPSGaidencompressedTiles$0$0
      00022C C9               [10] 1465 	ret
                           00022D  1466 	G$devkit_UNSAFE_SMS_loadZX7compressedTilesatAddr$0$0	= .
                                   1467 	.globl	G$devkit_UNSAFE_SMS_loadZX7compressedTilesatAddr$0$0
                           00022D  1468 	C$_sms_manager.c$249$1_0$221	= .
                                   1469 	.globl	C$_sms_manager.c$249$1_0$221
                                   1470 ;_sms_manager.c:249: void devkit_UNSAFE_SMS_loadZX7compressedTilesatAddr( const void *src, unsigned int dst )
                                   1471 ;	---------------------------------
                                   1472 ; Function devkit_UNSAFE_SMS_loadZX7compressedTilesatAddr
                                   1473 ; ---------------------------------
      00022D                       1474 _devkit_UNSAFE_SMS_loadZX7compressedTilesatAddr::
                           00022D  1475 	C$_sms_manager.c$251$1_0$221	= .
                                   1476 	.globl	C$_sms_manager.c$251$1_0$221
                                   1477 ;_sms_manager.c:251: UNSAFE_SMS_loadZX7compressedTilesatAddr( src, dst );
      00022D FD 21 04 00      [14] 1478 	ld	iy, #4
      000231 FD 39            [15] 1479 	add	iy, sp
      000233 FD 6E 00         [19] 1480 	ld	l, 0 (iy)
      000236 FD 66 01         [19] 1481 	ld	h, 1 (iy)
      000239 E5               [11] 1482 	push	hl
      00023A FD 6E FE         [19] 1483 	ld	l, -2 (iy)
      00023D FD 66 FF         [19] 1484 	ld	h, -1 (iy)
      000240 E5               [11] 1485 	push	hl
      000241 CDr00r00         [17] 1486 	call	_UNSAFE_SMS_loadZX7compressedTilesatAddr
      000244 F1               [10] 1487 	pop	af
      000245 F1               [10] 1488 	pop	af
                           000246  1489 	C$_sms_manager.c$252$1_0$221	= .
                                   1490 	.globl	C$_sms_manager.c$252$1_0$221
                                   1491 ;_sms_manager.c:252: }
                           000246  1492 	C$_sms_manager.c$252$1_0$221	= .
                                   1493 	.globl	C$_sms_manager.c$252$1_0$221
                           000246  1494 	XG$devkit_UNSAFE_SMS_loadZX7compressedTilesatAddr$0$0	= .
                                   1495 	.globl	XG$devkit_UNSAFE_SMS_loadZX7compressedTilesatAddr$0$0
      000246 C9               [10] 1496 	ret
                           000247  1497 	G$devkit_UNSAFE_SMS_loadZX7compressedTiles$0$0	= .
                                   1498 	.globl	G$devkit_UNSAFE_SMS_loadZX7compressedTiles$0$0
                           000247  1499 	C$_sms_manager.c$253$1_0$223	= .
                                   1500 	.globl	C$_sms_manager.c$253$1_0$223
                                   1501 ;_sms_manager.c:253: void devkit_UNSAFE_SMS_loadZX7compressedTiles( const void *src, unsigned int tilefrom )
                                   1502 ;	---------------------------------
                                   1503 ; Function devkit_UNSAFE_SMS_loadZX7compressedTiles
                                   1504 ; ---------------------------------
      000247                       1505 _devkit_UNSAFE_SMS_loadZX7compressedTiles::
                           000247  1506 	C$_sms_manager.c$255$1_0$223	= .
                                   1507 	.globl	C$_sms_manager.c$255$1_0$223
                                   1508 ;_sms_manager.c:255: UNSAFE_SMS_loadZX7compressedTiles( src, tilefrom );
      000247 FD 21 04 00      [14] 1509 	ld	iy, #4
      00024B FD 39            [15] 1510 	add	iy, sp
      00024D FD 6E 00         [19] 1511 	ld	l, 0 (iy)
      000250 FD 66 01         [19] 1512 	ld	h, 1 (iy)
      000253 29               [11] 1513 	add	hl, hl
      000254 29               [11] 1514 	add	hl, hl
      000255 29               [11] 1515 	add	hl, hl
      000256 29               [11] 1516 	add	hl, hl
      000257 29               [11] 1517 	add	hl, hl
      000258 CB F4            [ 8] 1518 	set	6, h
      00025A E5               [11] 1519 	push	hl
      00025B FD 6E FE         [19] 1520 	ld	l, -2 (iy)
      00025E FD 66 FF         [19] 1521 	ld	h, -1 (iy)
      000261 E5               [11] 1522 	push	hl
      000262 CDr00r00         [17] 1523 	call	_UNSAFE_SMS_loadZX7compressedTilesatAddr
      000265 F1               [10] 1524 	pop	af
      000266 F1               [10] 1525 	pop	af
                           000267  1526 	C$_sms_manager.c$256$1_0$223	= .
                                   1527 	.globl	C$_sms_manager.c$256$1_0$223
                                   1528 ;_sms_manager.c:256: }
                           000267  1529 	C$_sms_manager.c$256$1_0$223	= .
                                   1530 	.globl	C$_sms_manager.c$256$1_0$223
                           000267  1531 	XG$devkit_UNSAFE_SMS_loadZX7compressedTiles$0$0	= .
                                   1532 	.globl	XG$devkit_UNSAFE_SMS_loadZX7compressedTiles$0$0
      000267 C9               [10] 1533 	ret
                           000268  1534 	G$devkit_UNSAFE_SMS_loadaPLibcompressedTilesatAddr$0$0	= .
                                   1535 	.globl	G$devkit_UNSAFE_SMS_loadaPLibcompressedTilesatAddr$0$0
                           000268  1536 	C$_sms_manager.c$257$1_0$225	= .
                                   1537 	.globl	C$_sms_manager.c$257$1_0$225
                                   1538 ;_sms_manager.c:257: void devkit_UNSAFE_SMS_loadaPLibcompressedTilesatAddr( const void *src, unsigned int dst )
                                   1539 ;	---------------------------------
                                   1540 ; Function devkit_UNSAFE_SMS_loadaPLibcompressedTilesatAddr
                                   1541 ; ---------------------------------
      000268                       1542 _devkit_UNSAFE_SMS_loadaPLibcompressedTilesatAddr::
                           000268  1543 	C$_sms_manager.c$259$1_0$225	= .
                                   1544 	.globl	C$_sms_manager.c$259$1_0$225
                                   1545 ;_sms_manager.c:259: UNSAFE_SMS_loadaPLibcompressedTilesatAddr( src, dst );
      000268 FD 21 04 00      [14] 1546 	ld	iy, #4
      00026C FD 39            [15] 1547 	add	iy, sp
      00026E FD 6E 00         [19] 1548 	ld	l, 0 (iy)
      000271 FD 66 01         [19] 1549 	ld	h, 1 (iy)
      000274 E5               [11] 1550 	push	hl
      000275 FD 6E FE         [19] 1551 	ld	l, -2 (iy)
      000278 FD 66 FF         [19] 1552 	ld	h, -1 (iy)
      00027B E5               [11] 1553 	push	hl
      00027C CDr00r00         [17] 1554 	call	_UNSAFE_SMS_loadaPLibcompressedTilesatAddr
      00027F F1               [10] 1555 	pop	af
      000280 F1               [10] 1556 	pop	af
                           000281  1557 	C$_sms_manager.c$260$1_0$225	= .
                                   1558 	.globl	C$_sms_manager.c$260$1_0$225
                                   1559 ;_sms_manager.c:260: }
                           000281  1560 	C$_sms_manager.c$260$1_0$225	= .
                                   1561 	.globl	C$_sms_manager.c$260$1_0$225
                           000281  1562 	XG$devkit_UNSAFE_SMS_loadaPLibcompressedTilesatAddr$0$0	= .
                                   1563 	.globl	XG$devkit_UNSAFE_SMS_loadaPLibcompressedTilesatAddr$0$0
      000281 C9               [10] 1564 	ret
                           000282  1565 	G$devkit_UNSAFE_SMS_loadaPLibcompressedTiles$0$0	= .
                                   1566 	.globl	G$devkit_UNSAFE_SMS_loadaPLibcompressedTiles$0$0
                           000282  1567 	C$_sms_manager.c$261$1_0$227	= .
                                   1568 	.globl	C$_sms_manager.c$261$1_0$227
                                   1569 ;_sms_manager.c:261: void devkit_UNSAFE_SMS_loadaPLibcompressedTiles( const void *src, unsigned int tilefrom )
                                   1570 ;	---------------------------------
                                   1571 ; Function devkit_UNSAFE_SMS_loadaPLibcompressedTiles
                                   1572 ; ---------------------------------
      000282                       1573 _devkit_UNSAFE_SMS_loadaPLibcompressedTiles::
                           000282  1574 	C$_sms_manager.c$263$1_0$227	= .
                                   1575 	.globl	C$_sms_manager.c$263$1_0$227
                                   1576 ;_sms_manager.c:263: UNSAFE_SMS_loadaPLibcompressedTiles( src, tilefrom );
      000282 FD 21 04 00      [14] 1577 	ld	iy, #4
      000286 FD 39            [15] 1578 	add	iy, sp
      000288 FD 6E 00         [19] 1579 	ld	l, 0 (iy)
      00028B FD 66 01         [19] 1580 	ld	h, 1 (iy)
      00028E 29               [11] 1581 	add	hl, hl
      00028F 29               [11] 1582 	add	hl, hl
      000290 29               [11] 1583 	add	hl, hl
      000291 29               [11] 1584 	add	hl, hl
      000292 29               [11] 1585 	add	hl, hl
      000293 CB F4            [ 8] 1586 	set	6, h
      000295 E5               [11] 1587 	push	hl
      000296 FD 6E FE         [19] 1588 	ld	l, -2 (iy)
      000299 FD 66 FF         [19] 1589 	ld	h, -1 (iy)
      00029C E5               [11] 1590 	push	hl
      00029D CDr00r00         [17] 1591 	call	_UNSAFE_SMS_loadaPLibcompressedTilesatAddr
      0002A0 F1               [10] 1592 	pop	af
      0002A1 F1               [10] 1593 	pop	af
                           0002A2  1594 	C$_sms_manager.c$264$1_0$227	= .
                                   1595 	.globl	C$_sms_manager.c$264$1_0$227
                                   1596 ;_sms_manager.c:264: }
                           0002A2  1597 	C$_sms_manager.c$264$1_0$227	= .
                                   1598 	.globl	C$_sms_manager.c$264$1_0$227
                           0002A2  1599 	XG$devkit_UNSAFE_SMS_loadaPLibcompressedTiles$0$0	= .
                                   1600 	.globl	XG$devkit_UNSAFE_SMS_loadaPLibcompressedTiles$0$0
      0002A2 C9               [10] 1601 	ret
                           0002A3  1602 	G$devkit_SMS_loadTileMap$0$0	= .
                                   1603 	.globl	G$devkit_SMS_loadTileMap$0$0
                           0002A3  1604 	C$_sms_manager.c$267$1_0$229	= .
                                   1605 	.globl	C$_sms_manager.c$267$1_0$229
                                   1606 ;_sms_manager.c:267: void devkit_SMS_loadTileMap( unsigned char x, unsigned char y, unsigned char *src, int size )
                                   1607 ;	---------------------------------
                                   1608 ; Function devkit_SMS_loadTileMap
                                   1609 ; ---------------------------------
      0002A3                       1610 _devkit_SMS_loadTileMap::
      0002A3 DD E5            [15] 1611 	push	ix
      0002A5 DD 21 00 00      [14] 1612 	ld	ix,#0
      0002A9 DD 39            [15] 1613 	add	ix,sp
                           0002AB  1614 	C$_sms_manager.c$269$1_0$229	= .
                                   1615 	.globl	C$_sms_manager.c$269$1_0$229
                                   1616 ;_sms_manager.c:269: SMS_loadTileMap( x, y, src, size );
      0002AB DD 4E 06         [19] 1617 	ld	c, 6 (ix)
      0002AE DD 46 07         [19] 1618 	ld	b, 7 (ix)
      0002B1 DD 6E 05         [19] 1619 	ld	l, 5 (ix)
      0002B4 26 00            [ 7] 1620 	ld	h, #0x00
      0002B6 29               [11] 1621 	add	hl, hl
      0002B7 29               [11] 1622 	add	hl, hl
      0002B8 29               [11] 1623 	add	hl, hl
      0002B9 29               [11] 1624 	add	hl, hl
      0002BA 29               [11] 1625 	add	hl, hl
      0002BB DD 5E 04         [19] 1626 	ld	e, 4 (ix)
      0002BE 16 00            [ 7] 1627 	ld	d, #0x00
      0002C0 19               [11] 1628 	add	hl, de
      0002C1 29               [11] 1629 	add	hl, hl
      0002C2 7C               [ 4] 1630 	ld	a, h
      0002C3 F6 78            [ 7] 1631 	or	a, #0x78
      0002C5 67               [ 4] 1632 	ld	h, a
      0002C6 DD 5E 08         [19] 1633 	ld	e, 8 (ix)
      0002C9 DD 56 09         [19] 1634 	ld	d, 9 (ix)
      0002CC D5               [11] 1635 	push	de
      0002CD C5               [11] 1636 	push	bc
      0002CE E5               [11] 1637 	push	hl
      0002CF CDr00r00         [17] 1638 	call	_SMS_VRAMmemcpy
                           0002D2  1639 	C$_sms_manager.c$270$1_0$229	= .
                                   1640 	.globl	C$_sms_manager.c$270$1_0$229
                                   1641 ;_sms_manager.c:270: }
      0002D2 DD E1            [14] 1642 	pop	ix
                           0002D4  1643 	C$_sms_manager.c$270$1_0$229	= .
                                   1644 	.globl	C$_sms_manager.c$270$1_0$229
                           0002D4  1645 	XG$devkit_SMS_loadTileMap$0$0	= .
                                   1646 	.globl	XG$devkit_SMS_loadTileMap$0$0
      0002D4 C9               [10] 1647 	ret
                           0002D5  1648 	G$devkit_SMS_loadTileMapArea$0$0	= .
                                   1649 	.globl	G$devkit_SMS_loadTileMapArea$0$0
                           0002D5  1650 	C$_sms_manager.c$271$1_0$231	= .
                                   1651 	.globl	C$_sms_manager.c$271$1_0$231
                                   1652 ;_sms_manager.c:271: void devkit_SMS_loadTileMapArea( unsigned char x, unsigned char y, void *src, unsigned char width, unsigned char height )
                                   1653 ;	---------------------------------
                                   1654 ; Function devkit_SMS_loadTileMapArea
                                   1655 ; ---------------------------------
      0002D5                       1656 _devkit_SMS_loadTileMapArea::
                           0002D5  1657 	C$_sms_manager.c$273$1_0$231	= .
                                   1658 	.globl	C$_sms_manager.c$273$1_0$231
                                   1659 ;_sms_manager.c:273: SMS_loadTileMapArea( x, y, src, width, height );
      0002D5 FD 21 07 00      [14] 1660 	ld	iy, #7
      0002D9 FD 39            [15] 1661 	add	iy, sp
      0002DB FD 7E 00         [19] 1662 	ld	a, 0 (iy)
      0002DE F5               [11] 1663 	push	af
      0002DF 33               [ 6] 1664 	inc	sp
      0002E0 FD 7E FF         [19] 1665 	ld	a, -1 (iy)
      0002E3 FD 2B            [10] 1666 	dec	iy
      0002E5 F5               [11] 1667 	push	af
      0002E6 33               [ 6] 1668 	inc	sp
      0002E7 FD 6E FE         [19] 1669 	ld	l, -2 (iy)
      0002EA FD 66 FF         [19] 1670 	ld	h, -1 (iy)
      0002ED FD 2B            [10] 1671 	dec	iy
      0002EF FD 2B            [10] 1672 	dec	iy
      0002F1 E5               [11] 1673 	push	hl
      0002F2 FD 7E FF         [19] 1674 	ld	a, -1 (iy)
      0002F5 FD 2B            [10] 1675 	dec	iy
      0002F7 F5               [11] 1676 	push	af
      0002F8 33               [ 6] 1677 	inc	sp
      0002F9 FD 7E FF         [19] 1678 	ld	a, -1 (iy)
      0002FC F5               [11] 1679 	push	af
      0002FD 33               [ 6] 1680 	inc	sp
      0002FE CDr00r00         [17] 1681 	call	_SMS_loadTileMapArea
      000301 21 06 00         [10] 1682 	ld	hl, #6
      000304 39               [11] 1683 	add	hl, sp
      000305 F9               [ 6] 1684 	ld	sp, hl
                           000306  1685 	C$_sms_manager.c$274$1_0$231	= .
                                   1686 	.globl	C$_sms_manager.c$274$1_0$231
                                   1687 ;_sms_manager.c:274: }
                           000306  1688 	C$_sms_manager.c$274$1_0$231	= .
                                   1689 	.globl	C$_sms_manager.c$274$1_0$231
                           000306  1690 	XG$devkit_SMS_loadTileMapArea$0$0	= .
                                   1691 	.globl	XG$devkit_SMS_loadTileMapArea$0$0
      000306 C9               [10] 1692 	ret
                           000307  1693 	G$devkit_SMS_loadSTMcompressedTileMapatAddr$0$0	= .
                                   1694 	.globl	G$devkit_SMS_loadSTMcompressedTileMapatAddr$0$0
                           000307  1695 	C$_sms_manager.c$276$1_0$233	= .
                                   1696 	.globl	C$_sms_manager.c$276$1_0$233
                                   1697 ;_sms_manager.c:276: void devkit_SMS_loadSTMcompressedTileMapatAddr( unsigned int dst, const void *src )
                                   1698 ;	---------------------------------
                                   1699 ; Function devkit_SMS_loadSTMcompressedTileMapatAddr
                                   1700 ; ---------------------------------
      000307                       1701 _devkit_SMS_loadSTMcompressedTileMapatAddr::
                           000307  1702 	C$_sms_manager.c$278$1_0$233	= .
                                   1703 	.globl	C$_sms_manager.c$278$1_0$233
                                   1704 ;_sms_manager.c:278: SMS_loadSTMcompressedTileMapatAddr( dst, src );
      000307 FD 21 04 00      [14] 1705 	ld	iy, #4
      00030B FD 39            [15] 1706 	add	iy, sp
      00030D FD 6E 00         [19] 1707 	ld	l, 0 (iy)
      000310 FD 66 01         [19] 1708 	ld	h, 1 (iy)
      000313 E5               [11] 1709 	push	hl
      000314 FD 6E FE         [19] 1710 	ld	l, -2 (iy)
      000317 FD 66 FF         [19] 1711 	ld	h, -1 (iy)
      00031A E5               [11] 1712 	push	hl
      00031B CDr00r00         [17] 1713 	call	_SMS_loadSTMcompressedTileMapatAddr
      00031E F1               [10] 1714 	pop	af
      00031F F1               [10] 1715 	pop	af
                           000320  1716 	C$_sms_manager.c$279$1_0$233	= .
                                   1717 	.globl	C$_sms_manager.c$279$1_0$233
                                   1718 ;_sms_manager.c:279: }
                           000320  1719 	C$_sms_manager.c$279$1_0$233	= .
                                   1720 	.globl	C$_sms_manager.c$279$1_0$233
                           000320  1721 	XG$devkit_SMS_loadSTMcompressedTileMapatAddr$0$0	= .
                                   1722 	.globl	XG$devkit_SMS_loadSTMcompressedTileMapatAddr$0$0
      000320 C9               [10] 1723 	ret
                           000321  1724 	G$devkit_SMS_loadSTMcompressedTileMap$0$0	= .
                                   1725 	.globl	G$devkit_SMS_loadSTMcompressedTileMap$0$0
                           000321  1726 	C$_sms_manager.c$280$1_0$235	= .
                                   1727 	.globl	C$_sms_manager.c$280$1_0$235
                                   1728 ;_sms_manager.c:280: void devkit_SMS_loadSTMcompressedTileMap( unsigned char x, unsigned char y, unsigned char *src )
                                   1729 ;	---------------------------------
                                   1730 ; Function devkit_SMS_loadSTMcompressedTileMap
                                   1731 ; ---------------------------------
      000321                       1732 _devkit_SMS_loadSTMcompressedTileMap::
      000321 DD E5            [15] 1733 	push	ix
      000323 DD 21 00 00      [14] 1734 	ld	ix,#0
      000327 DD 39            [15] 1735 	add	ix,sp
                           000329  1736 	C$_sms_manager.c$282$1_0$235	= .
                                   1737 	.globl	C$_sms_manager.c$282$1_0$235
                                   1738 ;_sms_manager.c:282: SMS_loadSTMcompressedTileMap( x, y, src );
      000329 DD 4E 06         [19] 1739 	ld	c, 6 (ix)
      00032C DD 46 07         [19] 1740 	ld	b, 7 (ix)
      00032F DD 6E 05         [19] 1741 	ld	l, 5 (ix)
      000332 26 00            [ 7] 1742 	ld	h, #0x00
      000334 29               [11] 1743 	add	hl, hl
      000335 29               [11] 1744 	add	hl, hl
      000336 29               [11] 1745 	add	hl, hl
      000337 29               [11] 1746 	add	hl, hl
      000338 29               [11] 1747 	add	hl, hl
      000339 DD 5E 04         [19] 1748 	ld	e, 4 (ix)
      00033C 16 00            [ 7] 1749 	ld	d, #0x00
      00033E 19               [11] 1750 	add	hl, de
      00033F 29               [11] 1751 	add	hl, hl
      000340 7C               [ 4] 1752 	ld	a, h
      000341 F6 78            [ 7] 1753 	or	a, #0x78
      000343 67               [ 4] 1754 	ld	h, a
      000344 C5               [11] 1755 	push	bc
      000345 E5               [11] 1756 	push	hl
      000346 CDr00r00         [17] 1757 	call	_SMS_loadSTMcompressedTileMapatAddr
      000349 F1               [10] 1758 	pop	af
      00034A F1               [10] 1759 	pop	af
                           00034B  1760 	C$_sms_manager.c$283$1_0$235	= .
                                   1761 	.globl	C$_sms_manager.c$283$1_0$235
                                   1762 ;_sms_manager.c:283: }
      00034B DD E1            [14] 1763 	pop	ix
                           00034D  1764 	C$_sms_manager.c$283$1_0$235	= .
                                   1765 	.globl	C$_sms_manager.c$283$1_0$235
                           00034D  1766 	XG$devkit_SMS_loadSTMcompressedTileMap$0$0	= .
                                   1767 	.globl	XG$devkit_SMS_loadSTMcompressedTileMap$0$0
      00034D C9               [10] 1768 	ret
                           00034E  1769 	G$devkit_SMS_loadSTMcompressedTileMapArea$0$0	= .
                                   1770 	.globl	G$devkit_SMS_loadSTMcompressedTileMapArea$0$0
                           00034E  1771 	C$_sms_manager.c$284$1_0$237	= .
                                   1772 	.globl	C$_sms_manager.c$284$1_0$237
                                   1773 ;_sms_manager.c:284: void devkit_SMS_loadSTMcompressedTileMapArea( unsigned char x, unsigned char y, unsigned char *src /*, unsigned char w*/ )
                                   1774 ;	---------------------------------
                                   1775 ; Function devkit_SMS_loadSTMcompressedTileMapArea
                                   1776 ; ---------------------------------
      00034E                       1777 _devkit_SMS_loadSTMcompressedTileMapArea::
      00034E DD E5            [15] 1778 	push	ix
      000350 DD 21 00 00      [14] 1779 	ld	ix,#0
      000354 DD 39            [15] 1780 	add	ix,sp
                           000356  1781 	C$_sms_manager.c$286$1_0$237	= .
                                   1782 	.globl	C$_sms_manager.c$286$1_0$237
                                   1783 ;_sms_manager.c:286: SMS_loadSTMcompressedTileMapArea( x, y, src, 0 /*, w*/ );
      000356 DD 4E 06         [19] 1784 	ld	c, 6 (ix)
      000359 DD 46 07         [19] 1785 	ld	b, 7 (ix)
      00035C DD 6E 05         [19] 1786 	ld	l, 5 (ix)
      00035F 26 00            [ 7] 1787 	ld	h, #0x00
      000361 29               [11] 1788 	add	hl, hl
      000362 29               [11] 1789 	add	hl, hl
      000363 29               [11] 1790 	add	hl, hl
      000364 29               [11] 1791 	add	hl, hl
      000365 29               [11] 1792 	add	hl, hl
      000366 DD 5E 04         [19] 1793 	ld	e, 4 (ix)
      000369 16 00            [ 7] 1794 	ld	d, #0x00
      00036B 19               [11] 1795 	add	hl, de
      00036C 29               [11] 1796 	add	hl, hl
      00036D 7C               [ 4] 1797 	ld	a, h
      00036E F6 78            [ 7] 1798 	or	a, #0x78
      000370 67               [ 4] 1799 	ld	h, a
      000371 C5               [11] 1800 	push	bc
      000372 E5               [11] 1801 	push	hl
      000373 CDr00r00         [17] 1802 	call	_SMS_loadSTMcompressedTileMapatAddr
      000376 F1               [10] 1803 	pop	af
      000377 F1               [10] 1804 	pop	af
                           000378  1805 	C$_sms_manager.c$287$1_0$237	= .
                                   1806 	.globl	C$_sms_manager.c$287$1_0$237
                                   1807 ;_sms_manager.c:287: }
      000378 DD E1            [14] 1808 	pop	ix
                           00037A  1809 	C$_sms_manager.c$287$1_0$237	= .
                                   1810 	.globl	C$_sms_manager.c$287$1_0$237
                           00037A  1811 	XG$devkit_SMS_loadSTMcompressedTileMapArea$0$0	= .
                                   1812 	.globl	XG$devkit_SMS_loadSTMcompressedTileMapArea$0$0
      00037A C9               [10] 1813 	ret
                           00037B  1814 	G$devkit_SMS_initSprites$0$0	= .
                                   1815 	.globl	G$devkit_SMS_initSprites$0$0
                           00037B  1816 	C$_sms_manager.c$290$1_0$238	= .
                                   1817 	.globl	C$_sms_manager.c$290$1_0$238
                                   1818 ;_sms_manager.c:290: void devkit_SMS_initSprites()
                                   1819 ;	---------------------------------
                                   1820 ; Function devkit_SMS_initSprites
                                   1821 ; ---------------------------------
      00037B                       1822 _devkit_SMS_initSprites::
                           00037B  1823 	C$_sms_manager.c$292$1_0$238	= .
                                   1824 	.globl	C$_sms_manager.c$292$1_0$238
                                   1825 ;_sms_manager.c:292: SMS_initSprites();
                           00037B  1826 	C$_sms_manager.c$293$1_0$238	= .
                                   1827 	.globl	C$_sms_manager.c$293$1_0$238
                                   1828 ;_sms_manager.c:293: }
                           00037B  1829 	C$_sms_manager.c$293$1_0$238	= .
                                   1830 	.globl	C$_sms_manager.c$293$1_0$238
                           00037B  1831 	XG$devkit_SMS_initSprites$0$0	= .
                                   1832 	.globl	XG$devkit_SMS_initSprites$0$0
      00037B C3r00r00         [10] 1833 	jp	_SMS_initSprites
                           00037E  1834 	G$devkit_SMS_addSprite$0$0	= .
                                   1835 	.globl	G$devkit_SMS_addSprite$0$0
                           00037E  1836 	C$_sms_manager.c$294$1_0$240	= .
                                   1837 	.globl	C$_sms_manager.c$294$1_0$240
                                   1838 ;_sms_manager.c:294: void devkit_SMS_addSprite( unsigned char x, unsigned char y, int tile )
                                   1839 ;	---------------------------------
                                   1840 ; Function devkit_SMS_addSprite
                                   1841 ; ---------------------------------
      00037E                       1842 _devkit_SMS_addSprite::
                           00037E  1843 	C$_sms_manager.c$296$1_0$240	= .
                                   1844 	.globl	C$_sms_manager.c$296$1_0$240
                                   1845 ;_sms_manager.c:296: SMS_addSprite( x, y, tile );
      00037E FD 21 04 00      [14] 1846 	ld	iy, #4
      000382 FD 39            [15] 1847 	add	iy, sp
      000384 FD 7E 00         [19] 1848 	ld	a, 0 (iy)
      000387 F5               [11] 1849 	push	af
      000388 33               [ 6] 1850 	inc	sp
      000389 FD 7E FF         [19] 1851 	ld	a, -1 (iy)
      00038C FD 2B            [10] 1852 	dec	iy
      00038E F5               [11] 1853 	push	af
      00038F 33               [ 6] 1854 	inc	sp
      000390 FD 7E FF         [19] 1855 	ld	a, -1 (iy)
      000393 F5               [11] 1856 	push	af
      000394 33               [ 6] 1857 	inc	sp
      000395 CDr00r00         [17] 1858 	call	_SMS_addSprite
      000398 F1               [10] 1859 	pop	af
      000399 33               [ 6] 1860 	inc	sp
                           00039A  1861 	C$_sms_manager.c$297$1_0$240	= .
                                   1862 	.globl	C$_sms_manager.c$297$1_0$240
                                   1863 ;_sms_manager.c:297: }
                           00039A  1864 	C$_sms_manager.c$297$1_0$240	= .
                                   1865 	.globl	C$_sms_manager.c$297$1_0$240
                           00039A  1866 	XG$devkit_SMS_addSprite$0$0	= .
                                   1867 	.globl	XG$devkit_SMS_addSprite$0$0
      00039A C9               [10] 1868 	ret
                           00039B  1869 	G$devkit_SMS_addTwoAdjoiningSprites$0$0	= .
                                   1870 	.globl	G$devkit_SMS_addTwoAdjoiningSprites$0$0
                           00039B  1871 	C$_sms_manager.c$298$1_0$242	= .
                                   1872 	.globl	C$_sms_manager.c$298$1_0$242
                                   1873 ;_sms_manager.c:298: void devkit_SMS_addTwoAdjoiningSprites( unsigned char x, unsigned char y, unsigned char tile )
                                   1874 ;	---------------------------------
                                   1875 ; Function devkit_SMS_addTwoAdjoiningSprites
                                   1876 ; ---------------------------------
      00039B                       1877 _devkit_SMS_addTwoAdjoiningSprites::
                           00039B  1878 	C$_sms_manager.c$300$1_0$242	= .
                                   1879 	.globl	C$_sms_manager.c$300$1_0$242
                                   1880 ;_sms_manager.c:300: SMS_addTwoAdjoiningSprites( x, y, tile );
      00039B FD 21 04 00      [14] 1881 	ld	iy, #4
      00039F FD 39            [15] 1882 	add	iy, sp
      0003A1 FD 7E 00         [19] 1883 	ld	a, 0 (iy)
      0003A4 F5               [11] 1884 	push	af
      0003A5 33               [ 6] 1885 	inc	sp
      0003A6 FD 7E FF         [19] 1886 	ld	a, -1 (iy)
      0003A9 FD 2B            [10] 1887 	dec	iy
      0003AB F5               [11] 1888 	push	af
      0003AC 33               [ 6] 1889 	inc	sp
      0003AD FD 7E FF         [19] 1890 	ld	a, -1 (iy)
      0003B0 F5               [11] 1891 	push	af
      0003B1 33               [ 6] 1892 	inc	sp
      0003B2 CDr00r00         [17] 1893 	call	_SMS_addTwoAdjoiningSprites
      0003B5 F1               [10] 1894 	pop	af
      0003B6 33               [ 6] 1895 	inc	sp
                           0003B7  1896 	C$_sms_manager.c$301$1_0$242	= .
                                   1897 	.globl	C$_sms_manager.c$301$1_0$242
                                   1898 ;_sms_manager.c:301: }
                           0003B7  1899 	C$_sms_manager.c$301$1_0$242	= .
                                   1900 	.globl	C$_sms_manager.c$301$1_0$242
                           0003B7  1901 	XG$devkit_SMS_addTwoAdjoiningSprites$0$0	= .
                                   1902 	.globl	XG$devkit_SMS_addTwoAdjoiningSprites$0$0
      0003B7 C9               [10] 1903 	ret
                           0003B8  1904 	G$devkit_SMS_addThreeAdjoiningSprites$0$0	= .
                                   1905 	.globl	G$devkit_SMS_addThreeAdjoiningSprites$0$0
                           0003B8  1906 	C$_sms_manager.c$302$1_0$244	= .
                                   1907 	.globl	C$_sms_manager.c$302$1_0$244
                                   1908 ;_sms_manager.c:302: void devkit_SMS_addThreeAdjoiningSprites( unsigned char x, unsigned char y, unsigned char tile )
                                   1909 ;	---------------------------------
                                   1910 ; Function devkit_SMS_addThreeAdjoiningSprites
                                   1911 ; ---------------------------------
      0003B8                       1912 _devkit_SMS_addThreeAdjoiningSprites::
                           0003B8  1913 	C$_sms_manager.c$304$1_0$244	= .
                                   1914 	.globl	C$_sms_manager.c$304$1_0$244
                                   1915 ;_sms_manager.c:304: SMS_addThreeAdjoiningSprites( x, y, tile );
      0003B8 FD 21 04 00      [14] 1916 	ld	iy, #4
      0003BC FD 39            [15] 1917 	add	iy, sp
      0003BE FD 7E 00         [19] 1918 	ld	a, 0 (iy)
      0003C1 F5               [11] 1919 	push	af
      0003C2 33               [ 6] 1920 	inc	sp
      0003C3 FD 7E FF         [19] 1921 	ld	a, -1 (iy)
      0003C6 FD 2B            [10] 1922 	dec	iy
      0003C8 F5               [11] 1923 	push	af
      0003C9 33               [ 6] 1924 	inc	sp
      0003CA FD 7E FF         [19] 1925 	ld	a, -1 (iy)
      0003CD F5               [11] 1926 	push	af
      0003CE 33               [ 6] 1927 	inc	sp
      0003CF CDr00r00         [17] 1928 	call	_SMS_addThreeAdjoiningSprites
      0003D2 F1               [10] 1929 	pop	af
      0003D3 33               [ 6] 1930 	inc	sp
                           0003D4  1931 	C$_sms_manager.c$305$1_0$244	= .
                                   1932 	.globl	C$_sms_manager.c$305$1_0$244
                                   1933 ;_sms_manager.c:305: }
                           0003D4  1934 	C$_sms_manager.c$305$1_0$244	= .
                                   1935 	.globl	C$_sms_manager.c$305$1_0$244
                           0003D4  1936 	XG$devkit_SMS_addThreeAdjoiningSprites$0$0	= .
                                   1937 	.globl	XG$devkit_SMS_addThreeAdjoiningSprites$0$0
      0003D4 C9               [10] 1938 	ret
                           0003D5  1939 	G$devkit_SMS_reserveSprite$0$0	= .
                                   1940 	.globl	G$devkit_SMS_reserveSprite$0$0
                           0003D5  1941 	C$_sms_manager.c$306$1_0$246	= .
                                   1942 	.globl	C$_sms_manager.c$306$1_0$246
                                   1943 ;_sms_manager.c:306: signed char devkit_SMS_reserveSprite( void )
                                   1944 ;	---------------------------------
                                   1945 ; Function devkit_SMS_reserveSprite
                                   1946 ; ---------------------------------
      0003D5                       1947 _devkit_SMS_reserveSprite::
                           0003D5  1948 	C$_sms_manager.c$308$1_0$246	= .
                                   1949 	.globl	C$_sms_manager.c$308$1_0$246
                                   1950 ;_sms_manager.c:308: return SMS_reserveSprite();
                           0003D5  1951 	C$_sms_manager.c$309$1_0$246	= .
                                   1952 	.globl	C$_sms_manager.c$309$1_0$246
                                   1953 ;_sms_manager.c:309: }
                           0003D5  1954 	C$_sms_manager.c$309$1_0$246	= .
                                   1955 	.globl	C$_sms_manager.c$309$1_0$246
                           0003D5  1956 	XG$devkit_SMS_reserveSprite$0$0	= .
                                   1957 	.globl	XG$devkit_SMS_reserveSprite$0$0
      0003D5 C3r00r00         [10] 1958 	jp	_SMS_reserveSprite
                           0003D8  1959 	G$devkit_SMS_updateSpritePosition$0$0	= .
                                   1960 	.globl	G$devkit_SMS_updateSpritePosition$0$0
                           0003D8  1961 	C$_sms_manager.c$310$1_0$248	= .
                                   1962 	.globl	C$_sms_manager.c$310$1_0$248
                                   1963 ;_sms_manager.c:310: void devkit_SMS_updateSpritePosition( signed char sprite, unsigned char x, unsigned char y )
                                   1964 ;	---------------------------------
                                   1965 ; Function devkit_SMS_updateSpritePosition
                                   1966 ; ---------------------------------
      0003D8                       1967 _devkit_SMS_updateSpritePosition::
                           0003D8  1968 	C$_sms_manager.c$312$1_0$248	= .
                                   1969 	.globl	C$_sms_manager.c$312$1_0$248
                                   1970 ;_sms_manager.c:312: SMS_updateSpritePosition( sprite, x, y );
      0003D8 FD 21 04 00      [14] 1971 	ld	iy, #4
      0003DC FD 39            [15] 1972 	add	iy, sp
      0003DE FD 7E 00         [19] 1973 	ld	a, 0 (iy)
      0003E1 F5               [11] 1974 	push	af
      0003E2 33               [ 6] 1975 	inc	sp
      0003E3 FD 7E FF         [19] 1976 	ld	a, -1 (iy)
      0003E6 FD 2B            [10] 1977 	dec	iy
      0003E8 F5               [11] 1978 	push	af
      0003E9 33               [ 6] 1979 	inc	sp
      0003EA FD 7E FF         [19] 1980 	ld	a, -1 (iy)
      0003ED F5               [11] 1981 	push	af
      0003EE 33               [ 6] 1982 	inc	sp
      0003EF CDr00r00         [17] 1983 	call	_SMS_updateSpritePosition
      0003F2 F1               [10] 1984 	pop	af
      0003F3 33               [ 6] 1985 	inc	sp
                           0003F4  1986 	C$_sms_manager.c$313$1_0$248	= .
                                   1987 	.globl	C$_sms_manager.c$313$1_0$248
                                   1988 ;_sms_manager.c:313: }
                           0003F4  1989 	C$_sms_manager.c$313$1_0$248	= .
                                   1990 	.globl	C$_sms_manager.c$313$1_0$248
                           0003F4  1991 	XG$devkit_SMS_updateSpritePosition$0$0	= .
                                   1992 	.globl	XG$devkit_SMS_updateSpritePosition$0$0
      0003F4 C9               [10] 1993 	ret
                           0003F5  1994 	G$devkit_SMS_updateSpriteImage$0$0	= .
                                   1995 	.globl	G$devkit_SMS_updateSpriteImage$0$0
                           0003F5  1996 	C$_sms_manager.c$314$1_0$250	= .
                                   1997 	.globl	C$_sms_manager.c$314$1_0$250
                                   1998 ;_sms_manager.c:314: void devkit_SMS_updateSpriteImage( signed char sprite, unsigned char tile )
                                   1999 ;	---------------------------------
                                   2000 ; Function devkit_SMS_updateSpriteImage
                                   2001 ; ---------------------------------
      0003F5                       2002 _devkit_SMS_updateSpriteImage::
                           0003F5  2003 	C$_sms_manager.c$316$1_0$250	= .
                                   2004 	.globl	C$_sms_manager.c$316$1_0$250
                                   2005 ;_sms_manager.c:316: SMS_updateSpriteImage( sprite, tile );
      0003F5 FD 21 03 00      [14] 2006 	ld	iy, #3
      0003F9 FD 39            [15] 2007 	add	iy, sp
      0003FB FD 66 00         [19] 2008 	ld	h, 0 (iy)
      0003FE FD 6E FF         [19] 2009 	ld	l, -1 (iy)
      000401 E5               [11] 2010 	push	hl
      000402 CDr00r00         [17] 2011 	call	_SMS_updateSpriteImage
      000405 F1               [10] 2012 	pop	af
                           000406  2013 	C$_sms_manager.c$317$1_0$250	= .
                                   2014 	.globl	C$_sms_manager.c$317$1_0$250
                                   2015 ;_sms_manager.c:317: }
                           000406  2016 	C$_sms_manager.c$317$1_0$250	= .
                                   2017 	.globl	C$_sms_manager.c$317$1_0$250
                           000406  2018 	XG$devkit_SMS_updateSpriteImage$0$0	= .
                                   2019 	.globl	XG$devkit_SMS_updateSpriteImage$0$0
      000406 C9               [10] 2020 	ret
                           000407  2021 	G$devkit_SMS_hideSprite$0$0	= .
                                   2022 	.globl	G$devkit_SMS_hideSprite$0$0
                           000407  2023 	C$_sms_manager.c$318$1_0$252	= .
                                   2024 	.globl	C$_sms_manager.c$318$1_0$252
                                   2025 ;_sms_manager.c:318: void devkit_SMS_hideSprite( signed char sprite )
                                   2026 ;	---------------------------------
                                   2027 ; Function devkit_SMS_hideSprite
                                   2028 ; ---------------------------------
      000407                       2029 _devkit_SMS_hideSprite::
                           000407  2030 	C$_sms_manager.c$320$1_0$252	= .
                                   2031 	.globl	C$_sms_manager.c$320$1_0$252
                                   2032 ;_sms_manager.c:320: SMS_hideSprite( sprite );
      000407 21 02 00         [10] 2033 	ld	hl, #2
      00040A 39               [11] 2034 	add	hl, sp
      00040B 7E               [ 7] 2035 	ld	a, (hl)
      00040C F5               [11] 2036 	push	af
      00040D 33               [ 6] 2037 	inc	sp
      00040E CDr00r00         [17] 2038 	call	_SMS_hideSprite
      000411 33               [ 6] 2039 	inc	sp
                           000412  2040 	C$_sms_manager.c$321$1_0$252	= .
                                   2041 	.globl	C$_sms_manager.c$321$1_0$252
                                   2042 ;_sms_manager.c:321: }
                           000412  2043 	C$_sms_manager.c$321$1_0$252	= .
                                   2044 	.globl	C$_sms_manager.c$321$1_0$252
                           000412  2045 	XG$devkit_SMS_hideSprite$0$0	= .
                                   2046 	.globl	XG$devkit_SMS_hideSprite$0$0
      000412 C9               [10] 2047 	ret
                           000413  2048 	G$devkit_SMS_setClippingWindow$0$0	= .
                                   2049 	.globl	G$devkit_SMS_setClippingWindow$0$0
                           000413  2050 	C$_sms_manager.c$322$1_0$254	= .
                                   2051 	.globl	C$_sms_manager.c$322$1_0$254
                                   2052 ;_sms_manager.c:322: void devkit_SMS_setClippingWindow( unsigned char x0, unsigned char y0, unsigned char x1, unsigned char y1 )
                                   2053 ;	---------------------------------
                                   2054 ; Function devkit_SMS_setClippingWindow
                                   2055 ; ---------------------------------
      000413                       2056 _devkit_SMS_setClippingWindow::
                           000413  2057 	C$_sms_manager.c$324$1_0$254	= .
                                   2058 	.globl	C$_sms_manager.c$324$1_0$254
                                   2059 ;_sms_manager.c:324: SMS_setClippingWindow( x0, y0, x1, y1 );
      000413 FD 21 05 00      [14] 2060 	ld	iy, #5
      000417 FD 39            [15] 2061 	add	iy, sp
      000419 FD 7E 00         [19] 2062 	ld	a, 0 (iy)
      00041C F5               [11] 2063 	push	af
      00041D 33               [ 6] 2064 	inc	sp
      00041E FD 7E FF         [19] 2065 	ld	a, -1 (iy)
      000421 FD 2B            [10] 2066 	dec	iy
      000423 F5               [11] 2067 	push	af
      000424 33               [ 6] 2068 	inc	sp
      000425 FD 7E FF         [19] 2069 	ld	a, -1 (iy)
      000428 FD 2B            [10] 2070 	dec	iy
      00042A F5               [11] 2071 	push	af
      00042B 33               [ 6] 2072 	inc	sp
      00042C FD 7E FF         [19] 2073 	ld	a, -1 (iy)
      00042F F5               [11] 2074 	push	af
      000430 33               [ 6] 2075 	inc	sp
      000431 CDr00r00         [17] 2076 	call	_SMS_setClippingWindow
      000434 F1               [10] 2077 	pop	af
      000435 F1               [10] 2078 	pop	af
                           000436  2079 	C$_sms_manager.c$325$1_0$254	= .
                                   2080 	.globl	C$_sms_manager.c$325$1_0$254
                                   2081 ;_sms_manager.c:325: }
                           000436  2082 	C$_sms_manager.c$325$1_0$254	= .
                                   2083 	.globl	C$_sms_manager.c$325$1_0$254
                           000436  2084 	XG$devkit_SMS_setClippingWindow$0$0	= .
                                   2085 	.globl	XG$devkit_SMS_setClippingWindow$0$0
      000436 C9               [10] 2086 	ret
                           000437  2087 	G$devkit_SMS_addSpriteClipping$0$0	= .
                                   2088 	.globl	G$devkit_SMS_addSpriteClipping$0$0
                           000437  2089 	C$_sms_manager.c$326$1_0$256	= .
                                   2090 	.globl	C$_sms_manager.c$326$1_0$256
                                   2091 ;_sms_manager.c:326: signed char devkit_SMS_addSpriteClipping( int x, int y, unsigned char tile )
                                   2092 ;	---------------------------------
                                   2093 ; Function devkit_SMS_addSpriteClipping
                                   2094 ; ---------------------------------
      000437                       2095 _devkit_SMS_addSpriteClipping::
                           000437  2096 	C$_sms_manager.c$328$1_0$256	= .
                                   2097 	.globl	C$_sms_manager.c$328$1_0$256
                                   2098 ;_sms_manager.c:328: return SMS_addSpriteClipping( x, y, tile );
      000437 FD 21 06 00      [14] 2099 	ld	iy, #6
      00043B FD 39            [15] 2100 	add	iy, sp
      00043D FD 7E 00         [19] 2101 	ld	a, 0 (iy)
      000440 F5               [11] 2102 	push	af
      000441 33               [ 6] 2103 	inc	sp
      000442 FD 6E FE         [19] 2104 	ld	l, -2 (iy)
      000445 FD 66 FF         [19] 2105 	ld	h, -1 (iy)
      000448 FD 2B            [10] 2106 	dec	iy
      00044A FD 2B            [10] 2107 	dec	iy
      00044C E5               [11] 2108 	push	hl
      00044D FD 6E FE         [19] 2109 	ld	l, -2 (iy)
      000450 FD 66 FF         [19] 2110 	ld	h, -1 (iy)
      000453 E5               [11] 2111 	push	hl
      000454 CDr00r00         [17] 2112 	call	_SMS_addSpriteClipping
      000457 F1               [10] 2113 	pop	af
      000458 F1               [10] 2114 	pop	af
      000459 33               [ 6] 2115 	inc	sp
                           00045A  2116 	C$_sms_manager.c$329$1_0$256	= .
                                   2117 	.globl	C$_sms_manager.c$329$1_0$256
                                   2118 ;_sms_manager.c:329: }
                           00045A  2119 	C$_sms_manager.c$329$1_0$256	= .
                                   2120 	.globl	C$_sms_manager.c$329$1_0$256
                           00045A  2121 	XG$devkit_SMS_addSpriteClipping$0$0	= .
                                   2122 	.globl	XG$devkit_SMS_addSpriteClipping$0$0
      00045A C9               [10] 2123 	ret
                           00045B  2124 	G$devkit_SMS_finalizeSprites$0$0	= .
                                   2125 	.globl	G$devkit_SMS_finalizeSprites$0$0
                           00045B  2126 	C$_sms_manager.c$330$1_0$257	= .
                                   2127 	.globl	C$_sms_manager.c$330$1_0$257
                                   2128 ;_sms_manager.c:330: void devkit_SMS_finalizeSprites()
                                   2129 ;	---------------------------------
                                   2130 ; Function devkit_SMS_finalizeSprites
                                   2131 ; ---------------------------------
      00045B                       2132 _devkit_SMS_finalizeSprites::
                           00045B  2133 	C$_sms_manager.c$332$1_0$257	= .
                                   2134 	.globl	C$_sms_manager.c$332$1_0$257
                                   2135 ;_sms_manager.c:332: SMS_finalizeSprites();
                           00045B  2136 	C$_sms_manager.c$333$1_0$257	= .
                                   2137 	.globl	C$_sms_manager.c$333$1_0$257
                                   2138 ;_sms_manager.c:333: }
                           00045B  2139 	C$_sms_manager.c$333$1_0$257	= .
                                   2140 	.globl	C$_sms_manager.c$333$1_0$257
                           00045B  2141 	XG$devkit_SMS_finalizeSprites$0$0	= .
                                   2142 	.globl	XG$devkit_SMS_finalizeSprites$0$0
      00045B C3r00r00         [10] 2143 	jp	_SMS_finalizeSprites
                           00045E  2144 	G$devkit_SMS_copySpritestoSAT$0$0	= .
                                   2145 	.globl	G$devkit_SMS_copySpritestoSAT$0$0
                           00045E  2146 	C$_sms_manager.c$334$1_0$258	= .
                                   2147 	.globl	C$_sms_manager.c$334$1_0$258
                                   2148 ;_sms_manager.c:334: void devkit_SMS_copySpritestoSAT()
                                   2149 ;	---------------------------------
                                   2150 ; Function devkit_SMS_copySpritestoSAT
                                   2151 ; ---------------------------------
      00045E                       2152 _devkit_SMS_copySpritestoSAT::
                           00045E  2153 	C$_sms_manager.c$336$1_0$258	= .
                                   2154 	.globl	C$_sms_manager.c$336$1_0$258
                                   2155 ;_sms_manager.c:336: SMS_copySpritestoSAT();
                           00045E  2156 	C$_sms_manager.c$337$1_0$258	= .
                                   2157 	.globl	C$_sms_manager.c$337$1_0$258
                                   2158 ;_sms_manager.c:337: }
                           00045E  2159 	C$_sms_manager.c$337$1_0$258	= .
                                   2160 	.globl	C$_sms_manager.c$337$1_0$258
                           00045E  2161 	XG$devkit_SMS_copySpritestoSAT$0$0	= .
                                   2162 	.globl	XG$devkit_SMS_copySpritestoSAT$0$0
      00045E C3r00r00         [10] 2163 	jp	_SMS_copySpritestoSAT
                           000461  2164 	G$devkit_SMS_setBGPaletteColor$0$0	= .
                                   2165 	.globl	G$devkit_SMS_setBGPaletteColor$0$0
                           000461  2166 	C$_sms_manager.c$347$1_0$260	= .
                                   2167 	.globl	C$_sms_manager.c$347$1_0$260
                                   2168 ;_sms_manager.c:347: void devkit_SMS_setBGPaletteColor( unsigned char entry, unsigned char color )
                                   2169 ;	---------------------------------
                                   2170 ; Function devkit_SMS_setBGPaletteColor
                                   2171 ; ---------------------------------
      000461                       2172 _devkit_SMS_setBGPaletteColor::
                           000461  2173 	C$_sms_manager.c$349$1_0$260	= .
                                   2174 	.globl	C$_sms_manager.c$349$1_0$260
                                   2175 ;_sms_manager.c:349: SMS_setBGPaletteColor( entry, color );
      000461 FD 21 03 00      [14] 2176 	ld	iy, #3
      000465 FD 39            [15] 2177 	add	iy, sp
      000467 FD 66 00         [19] 2178 	ld	h, 0 (iy)
      00046A FD 6E FF         [19] 2179 	ld	l, -1 (iy)
      00046D E5               [11] 2180 	push	hl
      00046E CDr00r00         [17] 2181 	call	_SMS_setBGPaletteColor
      000471 F1               [10] 2182 	pop	af
                           000472  2183 	C$_sms_manager.c$350$1_0$260	= .
                                   2184 	.globl	C$_sms_manager.c$350$1_0$260
                                   2185 ;_sms_manager.c:350: }
                           000472  2186 	C$_sms_manager.c$350$1_0$260	= .
                                   2187 	.globl	C$_sms_manager.c$350$1_0$260
                           000472  2188 	XG$devkit_SMS_setBGPaletteColor$0$0	= .
                                   2189 	.globl	XG$devkit_SMS_setBGPaletteColor$0$0
      000472 C9               [10] 2190 	ret
                           000473  2191 	G$devkit_SMS_setSpritePaletteColor$0$0	= .
                                   2192 	.globl	G$devkit_SMS_setSpritePaletteColor$0$0
                           000473  2193 	C$_sms_manager.c$351$1_0$262	= .
                                   2194 	.globl	C$_sms_manager.c$351$1_0$262
                                   2195 ;_sms_manager.c:351: void devkit_SMS_setSpritePaletteColor( unsigned char entry, unsigned char color )
                                   2196 ;	---------------------------------
                                   2197 ; Function devkit_SMS_setSpritePaletteColor
                                   2198 ; ---------------------------------
      000473                       2199 _devkit_SMS_setSpritePaletteColor::
                           000473  2200 	C$_sms_manager.c$353$1_0$262	= .
                                   2201 	.globl	C$_sms_manager.c$353$1_0$262
                                   2202 ;_sms_manager.c:353: SMS_setSpritePaletteColor( entry, color );
      000473 FD 21 03 00      [14] 2203 	ld	iy, #3
      000477 FD 39            [15] 2204 	add	iy, sp
      000479 FD 66 00         [19] 2205 	ld	h, 0 (iy)
      00047C FD 6E FF         [19] 2206 	ld	l, -1 (iy)
      00047F E5               [11] 2207 	push	hl
      000480 CDr00r00         [17] 2208 	call	_SMS_setSpritePaletteColor
      000483 F1               [10] 2209 	pop	af
                           000484  2210 	C$_sms_manager.c$354$1_0$262	= .
                                   2211 	.globl	C$_sms_manager.c$354$1_0$262
                                   2212 ;_sms_manager.c:354: }
                           000484  2213 	C$_sms_manager.c$354$1_0$262	= .
                                   2214 	.globl	C$_sms_manager.c$354$1_0$262
                           000484  2215 	XG$devkit_SMS_setSpritePaletteColor$0$0	= .
                                   2216 	.globl	XG$devkit_SMS_setSpritePaletteColor$0$0
      000484 C9               [10] 2217 	ret
                           000485  2218 	G$devkit_SMS_loadBGPalette$0$0	= .
                                   2219 	.globl	G$devkit_SMS_loadBGPalette$0$0
                           000485  2220 	C$_sms_manager.c$355$1_0$264	= .
                                   2221 	.globl	C$_sms_manager.c$355$1_0$264
                                   2222 ;_sms_manager.c:355: void devkit_SMS_loadBGPalette( void *palette )
                                   2223 ;	---------------------------------
                                   2224 ; Function devkit_SMS_loadBGPalette
                                   2225 ; ---------------------------------
      000485                       2226 _devkit_SMS_loadBGPalette::
                           000485  2227 	C$_sms_manager.c$357$1_0$264	= .
                                   2228 	.globl	C$_sms_manager.c$357$1_0$264
                                   2229 ;_sms_manager.c:357: SMS_loadBGPalette( palette );
      000485 FD 21 02 00      [14] 2230 	ld	iy, #2
      000489 FD 39            [15] 2231 	add	iy, sp
      00048B FD 6E 00         [19] 2232 	ld	l, 0 (iy)
      00048E FD 66 01         [19] 2233 	ld	h, 1 (iy)
                           000491  2234 	C$_sms_manager.c$358$1_0$264	= .
                                   2235 	.globl	C$_sms_manager.c$358$1_0$264
                                   2236 ;_sms_manager.c:358: }
                           000491  2237 	C$_sms_manager.c$358$1_0$264	= .
                                   2238 	.globl	C$_sms_manager.c$358$1_0$264
                           000491  2239 	XG$devkit_SMS_loadBGPalette$0$0	= .
                                   2240 	.globl	XG$devkit_SMS_loadBGPalette$0$0
      000491 C3r00r00         [10] 2241 	jp	_SMS_loadBGPalette
                           000494  2242 	G$devkit_SMS_loadSpritePalette$0$0	= .
                                   2243 	.globl	G$devkit_SMS_loadSpritePalette$0$0
                           000494  2244 	C$_sms_manager.c$359$1_0$266	= .
                                   2245 	.globl	C$_sms_manager.c$359$1_0$266
                                   2246 ;_sms_manager.c:359: void devkit_SMS_loadSpritePalette( void *palette )
                                   2247 ;	---------------------------------
                                   2248 ; Function devkit_SMS_loadSpritePalette
                                   2249 ; ---------------------------------
      000494                       2250 _devkit_SMS_loadSpritePalette::
                           000494  2251 	C$_sms_manager.c$361$1_0$266	= .
                                   2252 	.globl	C$_sms_manager.c$361$1_0$266
                                   2253 ;_sms_manager.c:361: SMS_loadSpritePalette( palette );
      000494 FD 21 02 00      [14] 2254 	ld	iy, #2
      000498 FD 39            [15] 2255 	add	iy, sp
      00049A FD 6E 00         [19] 2256 	ld	l, 0 (iy)
      00049D FD 66 01         [19] 2257 	ld	h, 1 (iy)
                           0004A0  2258 	C$_sms_manager.c$362$1_0$266	= .
                                   2259 	.globl	C$_sms_manager.c$362$1_0$266
                                   2260 ;_sms_manager.c:362: }
                           0004A0  2261 	C$_sms_manager.c$362$1_0$266	= .
                                   2262 	.globl	C$_sms_manager.c$362$1_0$266
                           0004A0  2263 	XG$devkit_SMS_loadSpritePalette$0$0	= .
                                   2264 	.globl	XG$devkit_SMS_loadSpritePalette$0$0
      0004A0 C3r00r00         [10] 2265 	jp	_SMS_loadSpritePalette
                           0004A3  2266 	G$devkit_SMS_setNextBGColoratIndex$0$0	= .
                                   2267 	.globl	G$devkit_SMS_setNextBGColoratIndex$0$0
                           0004A3  2268 	C$_sms_manager.c$363$1_0$268	= .
                                   2269 	.globl	C$_sms_manager.c$363$1_0$268
                                   2270 ;_sms_manager.c:363: void devkit_SMS_setNextBGColoratIndex( const unsigned char i )
                                   2271 ;	---------------------------------
                                   2272 ; Function devkit_SMS_setNextBGColoratIndex
                                   2273 ; ---------------------------------
      0004A3                       2274 _devkit_SMS_setNextBGColoratIndex::
                           0004A3  2275 	C$_sms_manager.c$365$1_0$268	= .
                                   2276 	.globl	C$_sms_manager.c$365$1_0$268
                                   2277 ;_sms_manager.c:365: SMS_setNextBGColoratIndex( i );
      0004A3 FD 21 02 00      [14] 2278 	ld	iy, #2
      0004A7 FD 39            [15] 2279 	add	iy, sp
      0004A9 FD 6E 00         [19] 2280 	ld	l, 0 (iy)
      0004AC AF               [ 4] 2281 	xor	a, a
      0004AD F6 C0            [ 7] 2282 	or	a, #0xc0
      0004AF 67               [ 4] 2283 	ld	h, a
                           0004B0  2284 	C$_sms_manager.c$366$1_0$268	= .
                                   2285 	.globl	C$_sms_manager.c$366$1_0$268
                                   2286 ;_sms_manager.c:366: }
                           0004B0  2287 	C$_sms_manager.c$366$1_0$268	= .
                                   2288 	.globl	C$_sms_manager.c$366$1_0$268
                           0004B0  2289 	XG$devkit_SMS_setNextBGColoratIndex$0$0	= .
                                   2290 	.globl	XG$devkit_SMS_setNextBGColoratIndex$0$0
      0004B0 C3r00r00         [10] 2291 	jp	_SMS_crt0_RST08
                           0004B3  2292 	G$devkit_SMS_setNextSpriteColoratIndex$0$0	= .
                                   2293 	.globl	G$devkit_SMS_setNextSpriteColoratIndex$0$0
                           0004B3  2294 	C$_sms_manager.c$367$1_0$270	= .
                                   2295 	.globl	C$_sms_manager.c$367$1_0$270
                                   2296 ;_sms_manager.c:367: void devkit_SMS_setNextSpriteColoratIndex( const unsigned char i )
                                   2297 ;	---------------------------------
                                   2298 ; Function devkit_SMS_setNextSpriteColoratIndex
                                   2299 ; ---------------------------------
      0004B3                       2300 _devkit_SMS_setNextSpriteColoratIndex::
                           0004B3  2301 	C$_sms_manager.c$369$1_0$270	= .
                                   2302 	.globl	C$_sms_manager.c$369$1_0$270
                                   2303 ;_sms_manager.c:369: SMS_setNextSpriteColoratIndex( i );
      0004B3 FD 21 02 00      [14] 2304 	ld	iy, #2
      0004B7 FD 39            [15] 2305 	add	iy, sp
      0004B9 FD 6E 00         [19] 2306 	ld	l, 0 (iy)
      0004BC AF               [ 4] 2307 	xor	a, a
      0004BD CB E5            [ 8] 2308 	set	4, l
      0004BF F6 C0            [ 7] 2309 	or	a, #0xc0
      0004C1 67               [ 4] 2310 	ld	h, a
                           0004C2  2311 	C$_sms_manager.c$370$1_0$270	= .
                                   2312 	.globl	C$_sms_manager.c$370$1_0$270
                                   2313 ;_sms_manager.c:370: }
                           0004C2  2314 	C$_sms_manager.c$370$1_0$270	= .
                                   2315 	.globl	C$_sms_manager.c$370$1_0$270
                           0004C2  2316 	XG$devkit_SMS_setNextSpriteColoratIndex$0$0	= .
                                   2317 	.globl	XG$devkit_SMS_setNextSpriteColoratIndex$0$0
      0004C2 C3r00r00         [10] 2318 	jp	_SMS_crt0_RST08
                           0004C5  2319 	G$devkit_SMS_setColor$0$0	= .
                                   2320 	.globl	G$devkit_SMS_setColor$0$0
                           0004C5  2321 	C$_sms_manager.c$371$1_0$272	= .
                                   2322 	.globl	C$_sms_manager.c$371$1_0$272
                                   2323 ;_sms_manager.c:371: void devkit_SMS_setColor( unsigned char color )
                                   2324 ;	---------------------------------
                                   2325 ; Function devkit_SMS_setColor
                                   2326 ; ---------------------------------
      0004C5                       2327 _devkit_SMS_setColor::
                           0004C5  2328 	C$_sms_manager.c$373$1_0$272	= .
                                   2329 	.globl	C$_sms_manager.c$373$1_0$272
                                   2330 ;_sms_manager.c:373: SMS_setColor( color );
      0004C5 FD 21 02 00      [14] 2331 	ld	iy, #2
      0004C9 FD 39            [15] 2332 	add	iy, sp
      0004CB FD 6E 00         [19] 2333 	ld	l, 0 (iy)
                           0004CE  2334 	C$_sms_manager.c$374$1_0$272	= .
                                   2335 	.globl	C$_sms_manager.c$374$1_0$272
                                   2336 ;_sms_manager.c:374: }
                           0004CE  2337 	C$_sms_manager.c$374$1_0$272	= .
                                   2338 	.globl	C$_sms_manager.c$374$1_0$272
                           0004CE  2339 	XG$devkit_SMS_setColor$0$0	= .
                                   2340 	.globl	XG$devkit_SMS_setColor$0$0
      0004CE C3r00r00         [10] 2341 	jp	_SMS_setColor
                           0004D1  2342 	G$devkit_RGB$0$0	= .
                                   2343 	.globl	G$devkit_RGB$0$0
                           0004D1  2344 	C$_sms_manager.c$377$1_0$274	= .
                                   2345 	.globl	C$_sms_manager.c$377$1_0$274
                                   2346 ;_sms_manager.c:377: unsigned char devkit_RGB( const unsigned char r, const unsigned char g, const unsigned char b )
                                   2347 ;	---------------------------------
                                   2348 ; Function devkit_RGB
                                   2349 ; ---------------------------------
      0004D1                       2350 _devkit_RGB::
                           0004D1  2351 	C$_sms_manager.c$379$1_0$274	= .
                                   2352 	.globl	C$_sms_manager.c$379$1_0$274
                                   2353 ;_sms_manager.c:379: return RGB( r, g, b );
      0004D1 FD 21 03 00      [14] 2354 	ld	iy, #3
      0004D5 FD 39            [15] 2355 	add	iy, sp
      0004D7 FD 7E 00         [19] 2356 	ld	a, 0 (iy)
      0004DA 87               [ 4] 2357 	add	a, a
      0004DB 87               [ 4] 2358 	add	a, a
      0004DC FD 2B            [10] 2359 	dec	iy
      0004DE FD B6 00         [19] 2360 	or	a, 0 (iy)
      0004E1 4F               [ 4] 2361 	ld	c, a
      0004E2 FD 7E 02         [19] 2362 	ld	a, 2 (iy)
      0004E5 87               [ 4] 2363 	add	a, a
      0004E6 87               [ 4] 2364 	add	a, a
      0004E7 87               [ 4] 2365 	add	a, a
      0004E8 87               [ 4] 2366 	add	a, a
      0004E9 B1               [ 4] 2367 	or	a, c
      0004EA 6F               [ 4] 2368 	ld	l, a
                           0004EB  2369 	C$_sms_manager.c$380$1_0$274	= .
                                   2370 	.globl	C$_sms_manager.c$380$1_0$274
                                   2371 ;_sms_manager.c:380: }
                           0004EB  2372 	C$_sms_manager.c$380$1_0$274	= .
                                   2373 	.globl	C$_sms_manager.c$380$1_0$274
                           0004EB  2374 	XG$devkit_RGB$0$0	= .
                                   2375 	.globl	XG$devkit_RGB$0$0
      0004EB C9               [10] 2376 	ret
                           0004EC  2377 	G$devkit_RGB8$0$0	= .
                                   2378 	.globl	G$devkit_RGB8$0$0
                           0004EC  2379 	C$_sms_manager.c$381$1_0$276	= .
                                   2380 	.globl	C$_sms_manager.c$381$1_0$276
                                   2381 ;_sms_manager.c:381: unsigned char devkit_RGB8( const unsigned char r, const unsigned char g, const unsigned char b )
                                   2382 ;	---------------------------------
                                   2383 ; Function devkit_RGB8
                                   2384 ; ---------------------------------
      0004EC                       2385 _devkit_RGB8::
                           0004EC  2386 	C$_sms_manager.c$383$1_0$276	= .
                                   2387 	.globl	C$_sms_manager.c$383$1_0$276
                                   2388 ;_sms_manager.c:383: return RGB8( r, g, b );
      0004EC FD 21 02 00      [14] 2389 	ld	iy, #2
      0004F0 FD 39            [15] 2390 	add	iy, sp
      0004F2 FD 7E 00         [19] 2391 	ld	a, 0 (iy)
      0004F5 07               [ 4] 2392 	rlca
      0004F6 07               [ 4] 2393 	rlca
      0004F7 E6 03            [ 7] 2394 	and	a, #0x03
      0004F9 4F               [ 4] 2395 	ld	c, a
      0004FA FD 7E 01         [19] 2396 	ld	a, 1 (iy)
      0004FD FD 23            [10] 2397 	inc	iy
      0004FF 07               [ 4] 2398 	rlca
      000500 07               [ 4] 2399 	rlca
      000501 E6 03            [ 7] 2400 	and	a, #0x03
      000503 87               [ 4] 2401 	add	a, a
      000504 87               [ 4] 2402 	add	a, a
      000505 B1               [ 4] 2403 	or	a, c
      000506 4F               [ 4] 2404 	ld	c, a
      000507 FD 7E 01         [19] 2405 	ld	a, 1 (iy)
      00050A 07               [ 4] 2406 	rlca
      00050B 07               [ 4] 2407 	rlca
      00050C E6 03            [ 7] 2408 	and	a, #0x03
      00050E 87               [ 4] 2409 	add	a, a
      00050F 87               [ 4] 2410 	add	a, a
      000510 87               [ 4] 2411 	add	a, a
      000511 87               [ 4] 2412 	add	a, a
      000512 B1               [ 4] 2413 	or	a, c
      000513 6F               [ 4] 2414 	ld	l, a
                           000514  2415 	C$_sms_manager.c$384$1_0$276	= .
                                   2416 	.globl	C$_sms_manager.c$384$1_0$276
                                   2417 ;_sms_manager.c:384: }
                           000514  2418 	C$_sms_manager.c$384$1_0$276	= .
                                   2419 	.globl	C$_sms_manager.c$384$1_0$276
                           000514  2420 	XG$devkit_RGB8$0$0	= .
                                   2421 	.globl	XG$devkit_RGB8$0$0
      000514 C9               [10] 2422 	ret
                           000515  2423 	G$devkit_SMS_loadBGPaletteHalfBrightness$0$0	= .
                                   2424 	.globl	G$devkit_SMS_loadBGPaletteHalfBrightness$0$0
                           000515  2425 	C$_sms_manager.c$390$1_0$278	= .
                                   2426 	.globl	C$_sms_manager.c$390$1_0$278
                                   2427 ;_sms_manager.c:390: void devkit_SMS_loadBGPaletteHalfBrightness( void *palette )
                                   2428 ;	---------------------------------
                                   2429 ; Function devkit_SMS_loadBGPaletteHalfBrightness
                                   2430 ; ---------------------------------
      000515                       2431 _devkit_SMS_loadBGPaletteHalfBrightness::
                           000515  2432 	C$_sms_manager.c$392$1_0$278	= .
                                   2433 	.globl	C$_sms_manager.c$392$1_0$278
                                   2434 ;_sms_manager.c:392: SMS_loadBGPaletteHalfBrightness( palette );
      000515 FD 21 02 00      [14] 2435 	ld	iy, #2
      000519 FD 39            [15] 2436 	add	iy, sp
      00051B FD 6E 00         [19] 2437 	ld	l, 0 (iy)
      00051E FD 66 01         [19] 2438 	ld	h, 1 (iy)
                           000521  2439 	C$_sms_manager.c$393$1_0$278	= .
                                   2440 	.globl	C$_sms_manager.c$393$1_0$278
                                   2441 ;_sms_manager.c:393: }
                           000521  2442 	C$_sms_manager.c$393$1_0$278	= .
                                   2443 	.globl	C$_sms_manager.c$393$1_0$278
                           000521  2444 	XG$devkit_SMS_loadBGPaletteHalfBrightness$0$0	= .
                                   2445 	.globl	XG$devkit_SMS_loadBGPaletteHalfBrightness$0$0
      000521 C3r00r00         [10] 2446 	jp	_SMS_loadBGPaletteHalfBrightness
                           000524  2447 	G$devkit_SMS_loadSpritePaletteHalfBrightness$0$0	= .
                                   2448 	.globl	G$devkit_SMS_loadSpritePaletteHalfBrightness$0$0
                           000524  2449 	C$_sms_manager.c$394$1_0$280	= .
                                   2450 	.globl	C$_sms_manager.c$394$1_0$280
                                   2451 ;_sms_manager.c:394: void devkit_SMS_loadSpritePaletteHalfBrightness( void *palette )
                                   2452 ;	---------------------------------
                                   2453 ; Function devkit_SMS_loadSpritePaletteHalfBrightness
                                   2454 ; ---------------------------------
      000524                       2455 _devkit_SMS_loadSpritePaletteHalfBrightness::
                           000524  2456 	C$_sms_manager.c$396$1_0$280	= .
                                   2457 	.globl	C$_sms_manager.c$396$1_0$280
                                   2458 ;_sms_manager.c:396: SMS_loadSpritePaletteHalfBrightness( palette );
      000524 FD 21 02 00      [14] 2459 	ld	iy, #2
      000528 FD 39            [15] 2460 	add	iy, sp
      00052A FD 6E 00         [19] 2461 	ld	l, 0 (iy)
      00052D FD 66 01         [19] 2462 	ld	h, 1 (iy)
                           000530  2463 	C$_sms_manager.c$397$1_0$280	= .
                                   2464 	.globl	C$_sms_manager.c$397$1_0$280
                                   2465 ;_sms_manager.c:397: }
                           000530  2466 	C$_sms_manager.c$397$1_0$280	= .
                                   2467 	.globl	C$_sms_manager.c$397$1_0$280
                           000530  2468 	XG$devkit_SMS_loadSpritePaletteHalfBrightness$0$0	= .
                                   2469 	.globl	XG$devkit_SMS_loadSpritePaletteHalfBrightness$0$0
      000530 C3r00r00         [10] 2470 	jp	_SMS_loadSpritePaletteHalfBrightness
                           000533  2471 	G$devkit_SMS_zeroBGPalette$0$0	= .
                                   2472 	.globl	G$devkit_SMS_zeroBGPalette$0$0
                           000533  2473 	C$_sms_manager.c$398$1_0$282	= .
                                   2474 	.globl	C$_sms_manager.c$398$1_0$282
                                   2475 ;_sms_manager.c:398: void devkit_SMS_zeroBGPalette( void )
                                   2476 ;	---------------------------------
                                   2477 ; Function devkit_SMS_zeroBGPalette
                                   2478 ; ---------------------------------
      000533                       2479 _devkit_SMS_zeroBGPalette::
                           000533  2480 	C$_sms_manager.c$400$1_0$282	= .
                                   2481 	.globl	C$_sms_manager.c$400$1_0$282
                                   2482 ;_sms_manager.c:400: SMS_zeroBGPalette();
                           000533  2483 	C$_sms_manager.c$401$1_0$282	= .
                                   2484 	.globl	C$_sms_manager.c$401$1_0$282
                                   2485 ;_sms_manager.c:401: }
                           000533  2486 	C$_sms_manager.c$401$1_0$282	= .
                                   2487 	.globl	C$_sms_manager.c$401$1_0$282
                           000533  2488 	XG$devkit_SMS_zeroBGPalette$0$0	= .
                                   2489 	.globl	XG$devkit_SMS_zeroBGPalette$0$0
      000533 C3r00r00         [10] 2490 	jp	_SMS_zeroBGPalette
                           000536  2491 	G$devkit_SMS_zeroSpritePalette$0$0	= .
                                   2492 	.globl	G$devkit_SMS_zeroSpritePalette$0$0
                           000536  2493 	C$_sms_manager.c$402$1_0$284	= .
                                   2494 	.globl	C$_sms_manager.c$402$1_0$284
                                   2495 ;_sms_manager.c:402: void devkit_SMS_zeroSpritePalette( void )
                                   2496 ;	---------------------------------
                                   2497 ; Function devkit_SMS_zeroSpritePalette
                                   2498 ; ---------------------------------
      000536                       2499 _devkit_SMS_zeroSpritePalette::
                           000536  2500 	C$_sms_manager.c$404$1_0$284	= .
                                   2501 	.globl	C$_sms_manager.c$404$1_0$284
                                   2502 ;_sms_manager.c:404: SMS_zeroSpritePalette();
                           000536  2503 	C$_sms_manager.c$405$1_0$284	= .
                                   2504 	.globl	C$_sms_manager.c$405$1_0$284
                                   2505 ;_sms_manager.c:405: }
                           000536  2506 	C$_sms_manager.c$405$1_0$284	= .
                                   2507 	.globl	C$_sms_manager.c$405$1_0$284
                           000536  2508 	XG$devkit_SMS_zeroSpritePalette$0$0	= .
                                   2509 	.globl	XG$devkit_SMS_zeroSpritePalette$0$0
      000536 C3r00r00         [10] 2510 	jp	_SMS_zeroSpritePalette
                           000539  2511 	G$devkit_SMS_configureTextRenderer$0$0	= .
                                   2512 	.globl	G$devkit_SMS_configureTextRenderer$0$0
                           000539  2513 	C$_sms_manager.c$408$1_0$286	= .
                                   2514 	.globl	C$_sms_manager.c$408$1_0$286
                                   2515 ;_sms_manager.c:408: void devkit_SMS_configureTextRenderer( signed int ascii_to_tile_offset )
                                   2516 ;	---------------------------------
                                   2517 ; Function devkit_SMS_configureTextRenderer
                                   2518 ; ---------------------------------
      000539                       2519 _devkit_SMS_configureTextRenderer::
                           000539  2520 	C$_sms_manager.c$410$1_0$286	= .
                                   2521 	.globl	C$_sms_manager.c$410$1_0$286
                                   2522 ;_sms_manager.c:410: SMS_configureTextRenderer( ascii_to_tile_offset );
      000539 FD 21 02 00      [14] 2523 	ld	iy, #2
      00053D FD 39            [15] 2524 	add	iy, sp
      00053F FD 6E 00         [19] 2525 	ld	l, 0 (iy)
      000542 FD 66 01         [19] 2526 	ld	h, 1 (iy)
                           000545  2527 	C$_sms_manager.c$411$1_0$286	= .
                                   2528 	.globl	C$_sms_manager.c$411$1_0$286
                                   2529 ;_sms_manager.c:411: }
                           000545  2530 	C$_sms_manager.c$411$1_0$286	= .
                                   2531 	.globl	C$_sms_manager.c$411$1_0$286
                           000545  2532 	XG$devkit_SMS_configureTextRenderer$0$0	= .
                                   2533 	.globl	XG$devkit_SMS_configureTextRenderer$0$0
      000545 C3r00r00         [10] 2534 	jp	_SMS_configureTextRenderer
                           000548  2535 	G$devkit_SMS_autoSetUpTextRenderer$0$0	= .
                                   2536 	.globl	G$devkit_SMS_autoSetUpTextRenderer$0$0
                           000548  2537 	C$_sms_manager.c$412$1_0$288	= .
                                   2538 	.globl	C$_sms_manager.c$412$1_0$288
                                   2539 ;_sms_manager.c:412: void devkit_SMS_autoSetUpTextRenderer( void )
                                   2540 ;	---------------------------------
                                   2541 ; Function devkit_SMS_autoSetUpTextRenderer
                                   2542 ; ---------------------------------
      000548                       2543 _devkit_SMS_autoSetUpTextRenderer::
                           000548  2544 	C$_sms_manager.c$414$1_0$288	= .
                                   2545 	.globl	C$_sms_manager.c$414$1_0$288
                                   2546 ;_sms_manager.c:414: SMS_autoSetUpTextRenderer();
                           000548  2547 	C$_sms_manager.c$415$1_0$288	= .
                                   2548 	.globl	C$_sms_manager.c$415$1_0$288
                                   2549 ;_sms_manager.c:415: }
                           000548  2550 	C$_sms_manager.c$415$1_0$288	= .
                                   2551 	.globl	C$_sms_manager.c$415$1_0$288
                           000548  2552 	XG$devkit_SMS_autoSetUpTextRenderer$0$0	= .
                                   2553 	.globl	XG$devkit_SMS_autoSetUpTextRenderer$0$0
      000548 C3r00r00         [10] 2554 	jp	_SMS_autoSetUpTextRenderer
                           00054B  2555 	G$devkit_SMS_decompressZX7$0$0	= .
                                   2556 	.globl	G$devkit_SMS_decompressZX7$0$0
                           00054B  2557 	C$_sms_manager.c$418$1_0$290	= .
                                   2558 	.globl	C$_sms_manager.c$418$1_0$290
                                   2559 ;_sms_manager.c:418: void devkit_SMS_decompressZX7( const void *src, void *dst )
                                   2560 ;	---------------------------------
                                   2561 ; Function devkit_SMS_decompressZX7
                                   2562 ; ---------------------------------
      00054B                       2563 _devkit_SMS_decompressZX7::
                           00054B  2564 	C$_sms_manager.c$420$1_0$290	= .
                                   2565 	.globl	C$_sms_manager.c$420$1_0$290
                                   2566 ;_sms_manager.c:420: SMS_decompressZX7( src, dst );
      00054B FD 21 04 00      [14] 2567 	ld	iy, #4
      00054F FD 39            [15] 2568 	add	iy, sp
      000551 FD 6E 00         [19] 2569 	ld	l, 0 (iy)
      000554 FD 66 01         [19] 2570 	ld	h, 1 (iy)
      000557 E5               [11] 2571 	push	hl
      000558 FD 6E FE         [19] 2572 	ld	l, -2 (iy)
      00055B FD 66 FF         [19] 2573 	ld	h, -1 (iy)
      00055E E5               [11] 2574 	push	hl
      00055F CDr00r00         [17] 2575 	call	_SMS_decompressZX7
      000562 F1               [10] 2576 	pop	af
      000563 F1               [10] 2577 	pop	af
                           000564  2578 	C$_sms_manager.c$421$1_0$290	= .
                                   2579 	.globl	C$_sms_manager.c$421$1_0$290
                                   2580 ;_sms_manager.c:421: }
                           000564  2581 	C$_sms_manager.c$421$1_0$290	= .
                                   2582 	.globl	C$_sms_manager.c$421$1_0$290
                           000564  2583 	XG$devkit_SMS_decompressZX7$0$0	= .
                                   2584 	.globl	XG$devkit_SMS_decompressZX7$0$0
      000564 C9               [10] 2585 	ret
                           000565  2586 	G$devkit_SMS_getKeysStatus$0$0	= .
                                   2587 	.globl	G$devkit_SMS_getKeysStatus$0$0
                           000565  2588 	C$_sms_manager.c$424$1_0$291	= .
                                   2589 	.globl	C$_sms_manager.c$424$1_0$291
                                   2590 ;_sms_manager.c:424: unsigned int devkit_SMS_getKeysStatus()
                                   2591 ;	---------------------------------
                                   2592 ; Function devkit_SMS_getKeysStatus
                                   2593 ; ---------------------------------
      000565                       2594 _devkit_SMS_getKeysStatus::
                           000565  2595 	C$_sms_manager.c$426$1_0$291	= .
                                   2596 	.globl	C$_sms_manager.c$426$1_0$291
                                   2597 ;_sms_manager.c:426: return SMS_getKeysStatus();
                           000565  2598 	C$_sms_manager.c$427$1_0$291	= .
                                   2599 	.globl	C$_sms_manager.c$427$1_0$291
                                   2600 ;_sms_manager.c:427: }
                           000565  2601 	C$_sms_manager.c$427$1_0$291	= .
                                   2602 	.globl	C$_sms_manager.c$427$1_0$291
                           000565  2603 	XG$devkit_SMS_getKeysStatus$0$0	= .
                                   2604 	.globl	XG$devkit_SMS_getKeysStatus$0$0
      000565 C3r00r00         [10] 2605 	jp	_SMS_getKeysStatus
                           000568  2606 	G$devkit_SMS_getKeysPressed$0$0	= .
                                   2607 	.globl	G$devkit_SMS_getKeysPressed$0$0
                           000568  2608 	C$_sms_manager.c$428$1_0$292	= .
                                   2609 	.globl	C$_sms_manager.c$428$1_0$292
                                   2610 ;_sms_manager.c:428: unsigned int devkit_SMS_getKeysPressed()
                                   2611 ;	---------------------------------
                                   2612 ; Function devkit_SMS_getKeysPressed
                                   2613 ; ---------------------------------
      000568                       2614 _devkit_SMS_getKeysPressed::
                           000568  2615 	C$_sms_manager.c$430$1_0$292	= .
                                   2616 	.globl	C$_sms_manager.c$430$1_0$292
                                   2617 ;_sms_manager.c:430: return SMS_getKeysPressed();
                           000568  2618 	C$_sms_manager.c$431$1_0$292	= .
                                   2619 	.globl	C$_sms_manager.c$431$1_0$292
                                   2620 ;_sms_manager.c:431: }
                           000568  2621 	C$_sms_manager.c$431$1_0$292	= .
                                   2622 	.globl	C$_sms_manager.c$431$1_0$292
                           000568  2623 	XG$devkit_SMS_getKeysPressed$0$0	= .
                                   2624 	.globl	XG$devkit_SMS_getKeysPressed$0$0
      000568 C3r00r00         [10] 2625 	jp	_SMS_getKeysPressed
                           00056B  2626 	G$devkit_SMS_getKeysHeld$0$0	= .
                                   2627 	.globl	G$devkit_SMS_getKeysHeld$0$0
                           00056B  2628 	C$_sms_manager.c$432$1_0$293	= .
                                   2629 	.globl	C$_sms_manager.c$432$1_0$293
                                   2630 ;_sms_manager.c:432: unsigned int devkit_SMS_getKeysHeld()
                                   2631 ;	---------------------------------
                                   2632 ; Function devkit_SMS_getKeysHeld
                                   2633 ; ---------------------------------
      00056B                       2634 _devkit_SMS_getKeysHeld::
                           00056B  2635 	C$_sms_manager.c$434$1_0$293	= .
                                   2636 	.globl	C$_sms_manager.c$434$1_0$293
                                   2637 ;_sms_manager.c:434: return SMS_getKeysHeld();
                           00056B  2638 	C$_sms_manager.c$435$1_0$293	= .
                                   2639 	.globl	C$_sms_manager.c$435$1_0$293
                                   2640 ;_sms_manager.c:435: }
                           00056B  2641 	C$_sms_manager.c$435$1_0$293	= .
                                   2642 	.globl	C$_sms_manager.c$435$1_0$293
                           00056B  2643 	XG$devkit_SMS_getKeysHeld$0$0	= .
                                   2644 	.globl	XG$devkit_SMS_getKeysHeld$0$0
      00056B C3r00r00         [10] 2645 	jp	_SMS_getKeysHeld
                           00056E  2646 	G$devkit_SMS_getKeysReleased$0$0	= .
                                   2647 	.globl	G$devkit_SMS_getKeysReleased$0$0
                           00056E  2648 	C$_sms_manager.c$436$1_0$294	= .
                                   2649 	.globl	C$_sms_manager.c$436$1_0$294
                                   2650 ;_sms_manager.c:436: unsigned int devkit_SMS_getKeysReleased()
                                   2651 ;	---------------------------------
                                   2652 ; Function devkit_SMS_getKeysReleased
                                   2653 ; ---------------------------------
      00056E                       2654 _devkit_SMS_getKeysReleased::
                           00056E  2655 	C$_sms_manager.c$438$1_0$294	= .
                                   2656 	.globl	C$_sms_manager.c$438$1_0$294
                                   2657 ;_sms_manager.c:438: return SMS_getKeysReleased();
                           00056E  2658 	C$_sms_manager.c$439$1_0$294	= .
                                   2659 	.globl	C$_sms_manager.c$439$1_0$294
                                   2660 ;_sms_manager.c:439: }
                           00056E  2661 	C$_sms_manager.c$439$1_0$294	= .
                                   2662 	.globl	C$_sms_manager.c$439$1_0$294
                           00056E  2663 	XG$devkit_SMS_getKeysReleased$0$0	= .
                                   2664 	.globl	XG$devkit_SMS_getKeysReleased$0$0
      00056E C3r00r00         [10] 2665 	jp	_SMS_getKeysReleased
                           000571  2666 	G$devkit_PORT_A_KEY_UP$0$0	= .
                                   2667 	.globl	G$devkit_PORT_A_KEY_UP$0$0
                           000571  2668 	C$_sms_manager.c$442$1_0$295	= .
                                   2669 	.globl	C$_sms_manager.c$442$1_0$295
                                   2670 ;_sms_manager.c:442: unsigned int devkit_PORT_A_KEY_UP()
                                   2671 ;	---------------------------------
                                   2672 ; Function devkit_PORT_A_KEY_UP
                                   2673 ; ---------------------------------
      000571                       2674 _devkit_PORT_A_KEY_UP::
                           000571  2675 	C$_sms_manager.c$444$1_0$295	= .
                                   2676 	.globl	C$_sms_manager.c$444$1_0$295
                                   2677 ;_sms_manager.c:444: return PORT_A_KEY_UP;
      000571 21 01 00         [10] 2678 	ld	hl, #0x0001
                           000574  2679 	C$_sms_manager.c$445$1_0$295	= .
                                   2680 	.globl	C$_sms_manager.c$445$1_0$295
                                   2681 ;_sms_manager.c:445: }
                           000574  2682 	C$_sms_manager.c$445$1_0$295	= .
                                   2683 	.globl	C$_sms_manager.c$445$1_0$295
                           000574  2684 	XG$devkit_PORT_A_KEY_UP$0$0	= .
                                   2685 	.globl	XG$devkit_PORT_A_KEY_UP$0$0
      000574 C9               [10] 2686 	ret
                           000575  2687 	G$devkit_PORT_A_KEY_DOWN$0$0	= .
                                   2688 	.globl	G$devkit_PORT_A_KEY_DOWN$0$0
                           000575  2689 	C$_sms_manager.c$446$1_0$296	= .
                                   2690 	.globl	C$_sms_manager.c$446$1_0$296
                                   2691 ;_sms_manager.c:446: unsigned int devkit_PORT_A_KEY_DOWN()
                                   2692 ;	---------------------------------
                                   2693 ; Function devkit_PORT_A_KEY_DOWN
                                   2694 ; ---------------------------------
      000575                       2695 _devkit_PORT_A_KEY_DOWN::
                           000575  2696 	C$_sms_manager.c$448$1_0$296	= .
                                   2697 	.globl	C$_sms_manager.c$448$1_0$296
                                   2698 ;_sms_manager.c:448: return PORT_A_KEY_DOWN;
      000575 21 02 00         [10] 2699 	ld	hl, #0x0002
                           000578  2700 	C$_sms_manager.c$449$1_0$296	= .
                                   2701 	.globl	C$_sms_manager.c$449$1_0$296
                                   2702 ;_sms_manager.c:449: }
                           000578  2703 	C$_sms_manager.c$449$1_0$296	= .
                                   2704 	.globl	C$_sms_manager.c$449$1_0$296
                           000578  2705 	XG$devkit_PORT_A_KEY_DOWN$0$0	= .
                                   2706 	.globl	XG$devkit_PORT_A_KEY_DOWN$0$0
      000578 C9               [10] 2707 	ret
                           000579  2708 	G$devkit_PORT_A_KEY_LEFT$0$0	= .
                                   2709 	.globl	G$devkit_PORT_A_KEY_LEFT$0$0
                           000579  2710 	C$_sms_manager.c$450$1_0$297	= .
                                   2711 	.globl	C$_sms_manager.c$450$1_0$297
                                   2712 ;_sms_manager.c:450: unsigned int devkit_PORT_A_KEY_LEFT()
                                   2713 ;	---------------------------------
                                   2714 ; Function devkit_PORT_A_KEY_LEFT
                                   2715 ; ---------------------------------
      000579                       2716 _devkit_PORT_A_KEY_LEFT::
                           000579  2717 	C$_sms_manager.c$452$1_0$297	= .
                                   2718 	.globl	C$_sms_manager.c$452$1_0$297
                                   2719 ;_sms_manager.c:452: return PORT_A_KEY_LEFT;
      000579 21 04 00         [10] 2720 	ld	hl, #0x0004
                           00057C  2721 	C$_sms_manager.c$453$1_0$297	= .
                                   2722 	.globl	C$_sms_manager.c$453$1_0$297
                                   2723 ;_sms_manager.c:453: }
                           00057C  2724 	C$_sms_manager.c$453$1_0$297	= .
                                   2725 	.globl	C$_sms_manager.c$453$1_0$297
                           00057C  2726 	XG$devkit_PORT_A_KEY_LEFT$0$0	= .
                                   2727 	.globl	XG$devkit_PORT_A_KEY_LEFT$0$0
      00057C C9               [10] 2728 	ret
                           00057D  2729 	G$devkit_PORT_A_KEY_RIGHT$0$0	= .
                                   2730 	.globl	G$devkit_PORT_A_KEY_RIGHT$0$0
                           00057D  2731 	C$_sms_manager.c$454$1_0$298	= .
                                   2732 	.globl	C$_sms_manager.c$454$1_0$298
                                   2733 ;_sms_manager.c:454: unsigned int devkit_PORT_A_KEY_RIGHT()
                                   2734 ;	---------------------------------
                                   2735 ; Function devkit_PORT_A_KEY_RIGHT
                                   2736 ; ---------------------------------
      00057D                       2737 _devkit_PORT_A_KEY_RIGHT::
                           00057D  2738 	C$_sms_manager.c$456$1_0$298	= .
                                   2739 	.globl	C$_sms_manager.c$456$1_0$298
                                   2740 ;_sms_manager.c:456: return PORT_A_KEY_RIGHT;
      00057D 21 08 00         [10] 2741 	ld	hl, #0x0008
                           000580  2742 	C$_sms_manager.c$457$1_0$298	= .
                                   2743 	.globl	C$_sms_manager.c$457$1_0$298
                                   2744 ;_sms_manager.c:457: }
                           000580  2745 	C$_sms_manager.c$457$1_0$298	= .
                                   2746 	.globl	C$_sms_manager.c$457$1_0$298
                           000580  2747 	XG$devkit_PORT_A_KEY_RIGHT$0$0	= .
                                   2748 	.globl	XG$devkit_PORT_A_KEY_RIGHT$0$0
      000580 C9               [10] 2749 	ret
                           000581  2750 	G$devkit_PORT_A_KEY_1$0$0	= .
                                   2751 	.globl	G$devkit_PORT_A_KEY_1$0$0
                           000581  2752 	C$_sms_manager.c$458$1_0$299	= .
                                   2753 	.globl	C$_sms_manager.c$458$1_0$299
                                   2754 ;_sms_manager.c:458: unsigned int devkit_PORT_A_KEY_1()
                                   2755 ;	---------------------------------
                                   2756 ; Function devkit_PORT_A_KEY_1
                                   2757 ; ---------------------------------
      000581                       2758 _devkit_PORT_A_KEY_1::
                           000581  2759 	C$_sms_manager.c$460$1_0$299	= .
                                   2760 	.globl	C$_sms_manager.c$460$1_0$299
                                   2761 ;_sms_manager.c:460: return PORT_A_KEY_1;
      000581 21 10 00         [10] 2762 	ld	hl, #0x0010
                           000584  2763 	C$_sms_manager.c$461$1_0$299	= .
                                   2764 	.globl	C$_sms_manager.c$461$1_0$299
                                   2765 ;_sms_manager.c:461: }
                           000584  2766 	C$_sms_manager.c$461$1_0$299	= .
                                   2767 	.globl	C$_sms_manager.c$461$1_0$299
                           000584  2768 	XG$devkit_PORT_A_KEY_1$0$0	= .
                                   2769 	.globl	XG$devkit_PORT_A_KEY_1$0$0
      000584 C9               [10] 2770 	ret
                           000585  2771 	G$devkit_PORT_A_KEY_2$0$0	= .
                                   2772 	.globl	G$devkit_PORT_A_KEY_2$0$0
                           000585  2773 	C$_sms_manager.c$462$1_0$300	= .
                                   2774 	.globl	C$_sms_manager.c$462$1_0$300
                                   2775 ;_sms_manager.c:462: unsigned int devkit_PORT_A_KEY_2()
                                   2776 ;	---------------------------------
                                   2777 ; Function devkit_PORT_A_KEY_2
                                   2778 ; ---------------------------------
      000585                       2779 _devkit_PORT_A_KEY_2::
                           000585  2780 	C$_sms_manager.c$464$1_0$300	= .
                                   2781 	.globl	C$_sms_manager.c$464$1_0$300
                                   2782 ;_sms_manager.c:464: return PORT_A_KEY_2;
      000585 21 20 00         [10] 2783 	ld	hl, #0x0020
                           000588  2784 	C$_sms_manager.c$465$1_0$300	= .
                                   2785 	.globl	C$_sms_manager.c$465$1_0$300
                                   2786 ;_sms_manager.c:465: }
                           000588  2787 	C$_sms_manager.c$465$1_0$300	= .
                                   2788 	.globl	C$_sms_manager.c$465$1_0$300
                           000588  2789 	XG$devkit_PORT_A_KEY_2$0$0	= .
                                   2790 	.globl	XG$devkit_PORT_A_KEY_2$0$0
      000588 C9               [10] 2791 	ret
                           000589  2792 	G$devkit_PORT_A_KEY_START$0$0	= .
                                   2793 	.globl	G$devkit_PORT_A_KEY_START$0$0
                           000589  2794 	C$_sms_manager.c$466$1_0$301	= .
                                   2795 	.globl	C$_sms_manager.c$466$1_0$301
                                   2796 ;_sms_manager.c:466: unsigned int devkit_PORT_A_KEY_START()
                                   2797 ;	---------------------------------
                                   2798 ; Function devkit_PORT_A_KEY_START
                                   2799 ; ---------------------------------
      000589                       2800 _devkit_PORT_A_KEY_START::
                           000589  2801 	C$_sms_manager.c$468$1_0$301	= .
                                   2802 	.globl	C$_sms_manager.c$468$1_0$301
                                   2803 ;_sms_manager.c:468: return PORT_A_KEY_START;
      000589 21 10 00         [10] 2804 	ld	hl, #0x0010
                           00058C  2805 	C$_sms_manager.c$469$1_0$301	= .
                                   2806 	.globl	C$_sms_manager.c$469$1_0$301
                                   2807 ;_sms_manager.c:469: }
                           00058C  2808 	C$_sms_manager.c$469$1_0$301	= .
                                   2809 	.globl	C$_sms_manager.c$469$1_0$301
                           00058C  2810 	XG$devkit_PORT_A_KEY_START$0$0	= .
                                   2811 	.globl	XG$devkit_PORT_A_KEY_START$0$0
      00058C C9               [10] 2812 	ret
                           00058D  2813 	G$devkit_PORT_B_KEY_UP$0$0	= .
                                   2814 	.globl	G$devkit_PORT_B_KEY_UP$0$0
                           00058D  2815 	C$_sms_manager.c$471$1_0$302	= .
                                   2816 	.globl	C$_sms_manager.c$471$1_0$302
                                   2817 ;_sms_manager.c:471: unsigned int devkit_PORT_B_KEY_UP()
                                   2818 ;	---------------------------------
                                   2819 ; Function devkit_PORT_B_KEY_UP
                                   2820 ; ---------------------------------
      00058D                       2821 _devkit_PORT_B_KEY_UP::
                           00058D  2822 	C$_sms_manager.c$473$1_0$302	= .
                                   2823 	.globl	C$_sms_manager.c$473$1_0$302
                                   2824 ;_sms_manager.c:473: return PORT_B_KEY_UP;
      00058D 21 40 00         [10] 2825 	ld	hl, #0x0040
                           000590  2826 	C$_sms_manager.c$474$1_0$302	= .
                                   2827 	.globl	C$_sms_manager.c$474$1_0$302
                                   2828 ;_sms_manager.c:474: }
                           000590  2829 	C$_sms_manager.c$474$1_0$302	= .
                                   2830 	.globl	C$_sms_manager.c$474$1_0$302
                           000590  2831 	XG$devkit_PORT_B_KEY_UP$0$0	= .
                                   2832 	.globl	XG$devkit_PORT_B_KEY_UP$0$0
      000590 C9               [10] 2833 	ret
                           000591  2834 	G$devkit_PORT_B_KEY_DOWN$0$0	= .
                                   2835 	.globl	G$devkit_PORT_B_KEY_DOWN$0$0
                           000591  2836 	C$_sms_manager.c$475$1_0$303	= .
                                   2837 	.globl	C$_sms_manager.c$475$1_0$303
                                   2838 ;_sms_manager.c:475: unsigned int devkit_PORT_B_KEY_DOWN()
                                   2839 ;	---------------------------------
                                   2840 ; Function devkit_PORT_B_KEY_DOWN
                                   2841 ; ---------------------------------
      000591                       2842 _devkit_PORT_B_KEY_DOWN::
                           000591  2843 	C$_sms_manager.c$477$1_0$303	= .
                                   2844 	.globl	C$_sms_manager.c$477$1_0$303
                                   2845 ;_sms_manager.c:477: return PORT_B_KEY_DOWN;
      000591 21 80 00         [10] 2846 	ld	hl, #0x0080
                           000594  2847 	C$_sms_manager.c$478$1_0$303	= .
                                   2848 	.globl	C$_sms_manager.c$478$1_0$303
                                   2849 ;_sms_manager.c:478: }
                           000594  2850 	C$_sms_manager.c$478$1_0$303	= .
                                   2851 	.globl	C$_sms_manager.c$478$1_0$303
                           000594  2852 	XG$devkit_PORT_B_KEY_DOWN$0$0	= .
                                   2853 	.globl	XG$devkit_PORT_B_KEY_DOWN$0$0
      000594 C9               [10] 2854 	ret
                           000595  2855 	G$devkit_PORT_B_KEY_LEFT$0$0	= .
                                   2856 	.globl	G$devkit_PORT_B_KEY_LEFT$0$0
                           000595  2857 	C$_sms_manager.c$479$1_0$304	= .
                                   2858 	.globl	C$_sms_manager.c$479$1_0$304
                                   2859 ;_sms_manager.c:479: unsigned int devkit_PORT_B_KEY_LEFT()
                                   2860 ;	---------------------------------
                                   2861 ; Function devkit_PORT_B_KEY_LEFT
                                   2862 ; ---------------------------------
      000595                       2863 _devkit_PORT_B_KEY_LEFT::
                           000595  2864 	C$_sms_manager.c$481$1_0$304	= .
                                   2865 	.globl	C$_sms_manager.c$481$1_0$304
                                   2866 ;_sms_manager.c:481: return PORT_B_KEY_LEFT;
      000595 21 00 01         [10] 2867 	ld	hl, #0x0100
                           000598  2868 	C$_sms_manager.c$482$1_0$304	= .
                                   2869 	.globl	C$_sms_manager.c$482$1_0$304
                                   2870 ;_sms_manager.c:482: }
                           000598  2871 	C$_sms_manager.c$482$1_0$304	= .
                                   2872 	.globl	C$_sms_manager.c$482$1_0$304
                           000598  2873 	XG$devkit_PORT_B_KEY_LEFT$0$0	= .
                                   2874 	.globl	XG$devkit_PORT_B_KEY_LEFT$0$0
      000598 C9               [10] 2875 	ret
                           000599  2876 	G$devkit_PORT_B_KEY_RIGHT$0$0	= .
                                   2877 	.globl	G$devkit_PORT_B_KEY_RIGHT$0$0
                           000599  2878 	C$_sms_manager.c$483$1_0$305	= .
                                   2879 	.globl	C$_sms_manager.c$483$1_0$305
                                   2880 ;_sms_manager.c:483: unsigned int devkit_PORT_B_KEY_RIGHT()
                                   2881 ;	---------------------------------
                                   2882 ; Function devkit_PORT_B_KEY_RIGHT
                                   2883 ; ---------------------------------
      000599                       2884 _devkit_PORT_B_KEY_RIGHT::
                           000599  2885 	C$_sms_manager.c$485$1_0$305	= .
                                   2886 	.globl	C$_sms_manager.c$485$1_0$305
                                   2887 ;_sms_manager.c:485: return PORT_B_KEY_RIGHT;
      000599 21 00 02         [10] 2888 	ld	hl, #0x0200
                           00059C  2889 	C$_sms_manager.c$486$1_0$305	= .
                                   2890 	.globl	C$_sms_manager.c$486$1_0$305
                                   2891 ;_sms_manager.c:486: }
                           00059C  2892 	C$_sms_manager.c$486$1_0$305	= .
                                   2893 	.globl	C$_sms_manager.c$486$1_0$305
                           00059C  2894 	XG$devkit_PORT_B_KEY_RIGHT$0$0	= .
                                   2895 	.globl	XG$devkit_PORT_B_KEY_RIGHT$0$0
      00059C C9               [10] 2896 	ret
                           00059D  2897 	G$devkit_PORT_B_KEY_1$0$0	= .
                                   2898 	.globl	G$devkit_PORT_B_KEY_1$0$0
                           00059D  2899 	C$_sms_manager.c$487$1_0$306	= .
                                   2900 	.globl	C$_sms_manager.c$487$1_0$306
                                   2901 ;_sms_manager.c:487: unsigned int devkit_PORT_B_KEY_1()
                                   2902 ;	---------------------------------
                                   2903 ; Function devkit_PORT_B_KEY_1
                                   2904 ; ---------------------------------
      00059D                       2905 _devkit_PORT_B_KEY_1::
                           00059D  2906 	C$_sms_manager.c$489$1_0$306	= .
                                   2907 	.globl	C$_sms_manager.c$489$1_0$306
                                   2908 ;_sms_manager.c:489: return PORT_B_KEY_1;
      00059D 21 00 04         [10] 2909 	ld	hl, #0x0400
                           0005A0  2910 	C$_sms_manager.c$490$1_0$306	= .
                                   2911 	.globl	C$_sms_manager.c$490$1_0$306
                                   2912 ;_sms_manager.c:490: }
                           0005A0  2913 	C$_sms_manager.c$490$1_0$306	= .
                                   2914 	.globl	C$_sms_manager.c$490$1_0$306
                           0005A0  2915 	XG$devkit_PORT_B_KEY_1$0$0	= .
                                   2916 	.globl	XG$devkit_PORT_B_KEY_1$0$0
      0005A0 C9               [10] 2917 	ret
                           0005A1  2918 	G$devkit_PORT_B_KEY_2$0$0	= .
                                   2919 	.globl	G$devkit_PORT_B_KEY_2$0$0
                           0005A1  2920 	C$_sms_manager.c$491$1_0$307	= .
                                   2921 	.globl	C$_sms_manager.c$491$1_0$307
                                   2922 ;_sms_manager.c:491: unsigned int devkit_PORT_B_KEY_2()
                                   2923 ;	---------------------------------
                                   2924 ; Function devkit_PORT_B_KEY_2
                                   2925 ; ---------------------------------
      0005A1                       2926 _devkit_PORT_B_KEY_2::
                           0005A1  2927 	C$_sms_manager.c$493$1_0$307	= .
                                   2928 	.globl	C$_sms_manager.c$493$1_0$307
                                   2929 ;_sms_manager.c:493: return PORT_B_KEY_2;
      0005A1 21 00 08         [10] 2930 	ld	hl, #0x0800
                           0005A4  2931 	C$_sms_manager.c$494$1_0$307	= .
                                   2932 	.globl	C$_sms_manager.c$494$1_0$307
                                   2933 ;_sms_manager.c:494: }
                           0005A4  2934 	C$_sms_manager.c$494$1_0$307	= .
                                   2935 	.globl	C$_sms_manager.c$494$1_0$307
                           0005A4  2936 	XG$devkit_PORT_B_KEY_2$0$0	= .
                                   2937 	.globl	XG$devkit_PORT_B_KEY_2$0$0
      0005A4 C9               [10] 2938 	ret
                           0005A5  2939 	G$devkit_PORT_B_KEY_START$0$0	= .
                                   2940 	.globl	G$devkit_PORT_B_KEY_START$0$0
                           0005A5  2941 	C$_sms_manager.c$495$1_0$308	= .
                                   2942 	.globl	C$_sms_manager.c$495$1_0$308
                                   2943 ;_sms_manager.c:495: unsigned int devkit_PORT_B_KEY_START()
                                   2944 ;	---------------------------------
                                   2945 ; Function devkit_PORT_B_KEY_START
                                   2946 ; ---------------------------------
      0005A5                       2947 _devkit_PORT_B_KEY_START::
                           0005A5  2948 	C$_sms_manager.c$497$1_0$308	= .
                                   2949 	.globl	C$_sms_manager.c$497$1_0$308
                                   2950 ;_sms_manager.c:497: return PORT_B_KEY_START;
      0005A5 21 00 04         [10] 2951 	ld	hl, #0x0400
                           0005A8  2952 	C$_sms_manager.c$498$1_0$308	= .
                                   2953 	.globl	C$_sms_manager.c$498$1_0$308
                                   2954 ;_sms_manager.c:498: }
                           0005A8  2955 	C$_sms_manager.c$498$1_0$308	= .
                                   2956 	.globl	C$_sms_manager.c$498$1_0$308
                           0005A8  2957 	XG$devkit_PORT_B_KEY_START$0$0	= .
                                   2958 	.globl	XG$devkit_PORT_B_KEY_START$0$0
      0005A8 C9               [10] 2959 	ret
                           0005A9  2960 	G$devkit_RESET_KEY$0$0	= .
                                   2961 	.globl	G$devkit_RESET_KEY$0$0
                           0005A9  2962 	C$_sms_manager.c$500$1_0$309	= .
                                   2963 	.globl	C$_sms_manager.c$500$1_0$309
                                   2964 ;_sms_manager.c:500: unsigned int devkit_RESET_KEY()
                                   2965 ;	---------------------------------
                                   2966 ; Function devkit_RESET_KEY
                                   2967 ; ---------------------------------
      0005A9                       2968 _devkit_RESET_KEY::
                           0005A9  2969 	C$_sms_manager.c$502$1_0$309	= .
                                   2970 	.globl	C$_sms_manager.c$502$1_0$309
                                   2971 ;_sms_manager.c:502: return RESET_KEY; 
      0005A9 21 00 10         [10] 2972 	ld	hl, #0x1000
                           0005AC  2973 	C$_sms_manager.c$503$1_0$309	= .
                                   2974 	.globl	C$_sms_manager.c$503$1_0$309
                                   2975 ;_sms_manager.c:503: }
                           0005AC  2976 	C$_sms_manager.c$503$1_0$309	= .
                                   2977 	.globl	C$_sms_manager.c$503$1_0$309
                           0005AC  2978 	XG$devkit_RESET_KEY$0$0	= .
                                   2979 	.globl	XG$devkit_RESET_KEY$0$0
      0005AC C9               [10] 2980 	ret
                           0005AD  2981 	G$devkit_CARTRIDGE_SLOT$0$0	= .
                                   2982 	.globl	G$devkit_CARTRIDGE_SLOT$0$0
                           0005AD  2983 	C$_sms_manager.c$504$1_0$310	= .
                                   2984 	.globl	C$_sms_manager.c$504$1_0$310
                                   2985 ;_sms_manager.c:504: unsigned int devkit_CARTRIDGE_SLOT()
                                   2986 ;	---------------------------------
                                   2987 ; Function devkit_CARTRIDGE_SLOT
                                   2988 ; ---------------------------------
      0005AD                       2989 _devkit_CARTRIDGE_SLOT::
                           0005AD  2990 	C$_sms_manager.c$506$1_0$310	= .
                                   2991 	.globl	C$_sms_manager.c$506$1_0$310
                                   2992 ;_sms_manager.c:506: return CARTRIDGE_SLOT; 
      0005AD 21 00 20         [10] 2993 	ld	hl, #0x2000
                           0005B0  2994 	C$_sms_manager.c$507$1_0$310	= .
                                   2995 	.globl	C$_sms_manager.c$507$1_0$310
                                   2996 ;_sms_manager.c:507: }
                           0005B0  2997 	C$_sms_manager.c$507$1_0$310	= .
                                   2998 	.globl	C$_sms_manager.c$507$1_0$310
                           0005B0  2999 	XG$devkit_CARTRIDGE_SLOT$0$0	= .
                                   3000 	.globl	XG$devkit_CARTRIDGE_SLOT$0$0
      0005B0 C9               [10] 3001 	ret
                           0005B1  3002 	G$devkit_PORT_A_TH$0$0	= .
                                   3003 	.globl	G$devkit_PORT_A_TH$0$0
                           0005B1  3004 	C$_sms_manager.c$508$1_0$311	= .
                                   3005 	.globl	C$_sms_manager.c$508$1_0$311
                                   3006 ;_sms_manager.c:508: unsigned int devkit_PORT_A_TH()
                                   3007 ;	---------------------------------
                                   3008 ; Function devkit_PORT_A_TH
                                   3009 ; ---------------------------------
      0005B1                       3010 _devkit_PORT_A_TH::
                           0005B1  3011 	C$_sms_manager.c$510$1_0$311	= .
                                   3012 	.globl	C$_sms_manager.c$510$1_0$311
                                   3013 ;_sms_manager.c:510: return PORT_A_TH; 
      0005B1 21 00 40         [10] 3014 	ld	hl, #0x4000
                           0005B4  3015 	C$_sms_manager.c$511$1_0$311	= .
                                   3016 	.globl	C$_sms_manager.c$511$1_0$311
                                   3017 ;_sms_manager.c:511: }
                           0005B4  3018 	C$_sms_manager.c$511$1_0$311	= .
                                   3019 	.globl	C$_sms_manager.c$511$1_0$311
                           0005B4  3020 	XG$devkit_PORT_A_TH$0$0	= .
                                   3021 	.globl	XG$devkit_PORT_A_TH$0$0
      0005B4 C9               [10] 3022 	ret
                           0005B5  3023 	G$devkit_PORT_B_TH$0$0	= .
                                   3024 	.globl	G$devkit_PORT_B_TH$0$0
                           0005B5  3025 	C$_sms_manager.c$512$1_0$312	= .
                                   3026 	.globl	C$_sms_manager.c$512$1_0$312
                                   3027 ;_sms_manager.c:512: unsigned int devkit_PORT_B_TH()
                                   3028 ;	---------------------------------
                                   3029 ; Function devkit_PORT_B_TH
                                   3030 ; ---------------------------------
      0005B5                       3031 _devkit_PORT_B_TH::
                           0005B5  3032 	C$_sms_manager.c$514$1_0$312	= .
                                   3033 	.globl	C$_sms_manager.c$514$1_0$312
                                   3034 ;_sms_manager.c:514: return PORT_B_TH; 
      0005B5 21 00 80         [10] 3035 	ld	hl, #0x8000
                           0005B8  3036 	C$_sms_manager.c$515$1_0$312	= .
                                   3037 	.globl	C$_sms_manager.c$515$1_0$312
                                   3038 ;_sms_manager.c:515: }
                           0005B8  3039 	C$_sms_manager.c$515$1_0$312	= .
                                   3040 	.globl	C$_sms_manager.c$515$1_0$312
                           0005B8  3041 	XG$devkit_PORT_B_TH$0$0	= .
                                   3042 	.globl	XG$devkit_PORT_B_TH$0$0
      0005B8 C9               [10] 3043 	ret
                           0005B9  3044 	G$devkit_PORT_A$0$0	= .
                                   3045 	.globl	G$devkit_PORT_A$0$0
                           0005B9  3046 	C$_sms_manager.c$518$1_0$313	= .
                                   3047 	.globl	C$_sms_manager.c$518$1_0$313
                                   3048 ;_sms_manager.c:518: unsigned char devkit_PORT_A()
                                   3049 ;	---------------------------------
                                   3050 ; Function devkit_PORT_A
                                   3051 ; ---------------------------------
      0005B9                       3052 _devkit_PORT_A::
                           0005B9  3053 	C$_sms_manager.c$520$1_0$313	= .
                                   3054 	.globl	C$_sms_manager.c$520$1_0$313
                                   3055 ;_sms_manager.c:520: return PORT_A;
      0005B9 2E 00            [ 7] 3056 	ld	l, #0x00
                           0005BB  3057 	C$_sms_manager.c$521$1_0$313	= .
                                   3058 	.globl	C$_sms_manager.c$521$1_0$313
                                   3059 ;_sms_manager.c:521: }
                           0005BB  3060 	C$_sms_manager.c$521$1_0$313	= .
                                   3061 	.globl	C$_sms_manager.c$521$1_0$313
                           0005BB  3062 	XG$devkit_PORT_A$0$0	= .
                                   3063 	.globl	XG$devkit_PORT_A$0$0
      0005BB C9               [10] 3064 	ret
                           0005BC  3065 	G$devkit_PORT_B$0$0	= .
                                   3066 	.globl	G$devkit_PORT_B$0$0
                           0005BC  3067 	C$_sms_manager.c$522$1_0$314	= .
                                   3068 	.globl	C$_sms_manager.c$522$1_0$314
                                   3069 ;_sms_manager.c:522: unsigned char devkit_PORT_B()
                                   3070 ;	---------------------------------
                                   3071 ; Function devkit_PORT_B
                                   3072 ; ---------------------------------
      0005BC                       3073 _devkit_PORT_B::
                           0005BC  3074 	C$_sms_manager.c$524$1_0$314	= .
                                   3075 	.globl	C$_sms_manager.c$524$1_0$314
                                   3076 ;_sms_manager.c:524: return PORT_B;
      0005BC 2E 01            [ 7] 3077 	ld	l, #0x01
                           0005BE  3078 	C$_sms_manager.c$525$1_0$314	= .
                                   3079 	.globl	C$_sms_manager.c$525$1_0$314
                                   3080 ;_sms_manager.c:525: }
                           0005BE  3081 	C$_sms_manager.c$525$1_0$314	= .
                                   3082 	.globl	C$_sms_manager.c$525$1_0$314
                           0005BE  3083 	XG$devkit_PORT_B$0$0	= .
                                   3084 	.globl	XG$devkit_PORT_B$0$0
      0005BE C9               [10] 3085 	ret
                           0005BF  3086 	G$devkit_SMS_detectPaddle$0$0	= .
                                   3087 	.globl	G$devkit_SMS_detectPaddle$0$0
                           0005BF  3088 	C$_sms_manager.c$526$1_0$316	= .
                                   3089 	.globl	C$_sms_manager.c$526$1_0$316
                                   3090 ;_sms_manager.c:526: unsigned char devkit_SMS_detectPaddle( unsigned char port )
                                   3091 ;	---------------------------------
                                   3092 ; Function devkit_SMS_detectPaddle
                                   3093 ; ---------------------------------
      0005BF                       3094 _devkit_SMS_detectPaddle::
                           0005BF  3095 	C$_sms_manager.c$528$1_0$316	= .
                                   3096 	.globl	C$_sms_manager.c$528$1_0$316
                                   3097 ;_sms_manager.c:528: return SMS_detectPaddle( port );
      0005BF FD 21 02 00      [14] 3098 	ld	iy, #2
      0005C3 FD 39            [15] 3099 	add	iy, sp
      0005C5 FD 6E 00         [19] 3100 	ld	l, 0 (iy)
                           0005C8  3101 	C$_sms_manager.c$529$1_0$316	= .
                                   3102 	.globl	C$_sms_manager.c$529$1_0$316
                                   3103 ;_sms_manager.c:529: }
                           0005C8  3104 	C$_sms_manager.c$529$1_0$316	= .
                                   3105 	.globl	C$_sms_manager.c$529$1_0$316
                           0005C8  3106 	XG$devkit_SMS_detectPaddle$0$0	= .
                                   3107 	.globl	XG$devkit_SMS_detectPaddle$0$0
      0005C8 C3r00r00         [10] 3108 	jp  _SMS_detectPaddle
                           0005CB  3109 	G$devkit_SMS_readPaddle$0$0	= .
                                   3110 	.globl	G$devkit_SMS_readPaddle$0$0
                           0005CB  3111 	C$_sms_manager.c$530$1_0$318	= .
                                   3112 	.globl	C$_sms_manager.c$530$1_0$318
                                   3113 ;_sms_manager.c:530: unsigned char devkit_SMS_readPaddle( unsigned char port )
                                   3114 ;	---------------------------------
                                   3115 ; Function devkit_SMS_readPaddle
                                   3116 ; ---------------------------------
      0005CB                       3117 _devkit_SMS_readPaddle::
                           0005CB  3118 	C$_sms_manager.c$532$1_0$318	= .
                                   3119 	.globl	C$_sms_manager.c$532$1_0$318
                                   3120 ;_sms_manager.c:532: return SMS_readPaddle( port );
      0005CB FD 21 02 00      [14] 3121 	ld	iy, #2
      0005CF FD 39            [15] 3122 	add	iy, sp
      0005D1 FD 6E 00         [19] 3123 	ld	l, 0 (iy)
                           0005D4  3124 	C$_sms_manager.c$533$1_0$318	= .
                                   3125 	.globl	C$_sms_manager.c$533$1_0$318
                                   3126 ;_sms_manager.c:533: }
                           0005D4  3127 	C$_sms_manager.c$533$1_0$318	= .
                                   3128 	.globl	C$_sms_manager.c$533$1_0$318
                           0005D4  3129 	XG$devkit_SMS_readPaddle$0$0	= .
                                   3130 	.globl	XG$devkit_SMS_readPaddle$0$0
      0005D4 C3r00r00         [10] 3131 	jp	_SMS_readPaddle
                           0005D7  3132 	G$devkit_SMS_queryPauseRequested$0$0	= .
                                   3133 	.globl	G$devkit_SMS_queryPauseRequested$0$0
                           0005D7  3134 	C$_sms_manager.c$536$1_0$319	= .
                                   3135 	.globl	C$_sms_manager.c$536$1_0$319
                                   3136 ;_sms_manager.c:536: unsigned char devkit_SMS_queryPauseRequested()
                                   3137 ;	---------------------------------
                                   3138 ; Function devkit_SMS_queryPauseRequested
                                   3139 ; ---------------------------------
      0005D7                       3140 _devkit_SMS_queryPauseRequested::
                           0005D7  3141 	C$_sms_manager.c$538$1_0$319	= .
                                   3142 	.globl	C$_sms_manager.c$538$1_0$319
                                   3143 ;_sms_manager.c:538: return SMS_queryPauseRequested();
                           0005D7  3144 	C$_sms_manager.c$539$1_0$319	= .
                                   3145 	.globl	C$_sms_manager.c$539$1_0$319
                                   3146 ;_sms_manager.c:539: }
                           0005D7  3147 	C$_sms_manager.c$539$1_0$319	= .
                                   3148 	.globl	C$_sms_manager.c$539$1_0$319
                           0005D7  3149 	XG$devkit_SMS_queryPauseRequested$0$0	= .
                                   3150 	.globl	XG$devkit_SMS_queryPauseRequested$0$0
      0005D7 C3r00r00         [10] 3151 	jp  _SMS_queryPauseRequested
                           0005DA  3152 	G$devkit_SMS_resetPauseRequest$0$0	= .
                                   3153 	.globl	G$devkit_SMS_resetPauseRequest$0$0
                           0005DA  3154 	C$_sms_manager.c$540$1_0$320	= .
                                   3155 	.globl	C$_sms_manager.c$540$1_0$320
                                   3156 ;_sms_manager.c:540: void devkit_SMS_resetPauseRequest()
                                   3157 ;	---------------------------------
                                   3158 ; Function devkit_SMS_resetPauseRequest
                                   3159 ; ---------------------------------
      0005DA                       3160 _devkit_SMS_resetPauseRequest::
                           0005DA  3161 	C$_sms_manager.c$542$1_0$320	= .
                                   3162 	.globl	C$_sms_manager.c$542$1_0$320
                                   3163 ;_sms_manager.c:542: SMS_resetPauseRequest();
                           0005DA  3164 	C$_sms_manager.c$543$1_0$320	= .
                                   3165 	.globl	C$_sms_manager.c$543$1_0$320
                                   3166 ;_sms_manager.c:543: }
                           0005DA  3167 	C$_sms_manager.c$543$1_0$320	= .
                                   3168 	.globl	C$_sms_manager.c$543$1_0$320
                           0005DA  3169 	XG$devkit_SMS_resetPauseRequest$0$0	= .
                                   3170 	.globl	XG$devkit_SMS_resetPauseRequest$0$0
      0005DA C3r00r00         [10] 3171 	jp	_SMS_resetPauseRequest
                           0005DD  3172 	G$devkit_SMS_VDPFlags$0$0	= .
                                   3173 	.globl	G$devkit_SMS_VDPFlags$0$0
                           0005DD  3174 	C$_sms_manager.c$561$1_0$322	= .
                                   3175 	.globl	C$_sms_manager.c$561$1_0$322
                                   3176 ;_sms_manager.c:561: unsigned char devkit_SMS_VDPFlags( void )
                                   3177 ;	---------------------------------
                                   3178 ; Function devkit_SMS_VDPFlags
                                   3179 ; ---------------------------------
      0005DD                       3180 _devkit_SMS_VDPFlags::
                           0005DD  3181 	C$_sms_manager.c$563$1_0$322	= .
                                   3182 	.globl	C$_sms_manager.c$563$1_0$322
                                   3183 ;_sms_manager.c:563: return SMS_VDPFlags;
      0005DD 3Ar00r00         [13] 3184 	ld	a, (#_SMS_VDPFlags + 0)
      0005E0 6F               [ 4] 3185 	ld	l, a
                           0005E1  3186 	C$_sms_manager.c$564$1_0$322	= .
                                   3187 	.globl	C$_sms_manager.c$564$1_0$322
                                   3188 ;_sms_manager.c:564: }
                           0005E1  3189 	C$_sms_manager.c$564$1_0$322	= .
                                   3190 	.globl	C$_sms_manager.c$564$1_0$322
                           0005E1  3191 	XG$devkit_SMS_VDPFlags$0$0	= .
                                   3192 	.globl	XG$devkit_SMS_VDPFlags$0$0
      0005E1 C9               [10] 3193 	ret
                           0005E2  3194 	G$devkit_VDPFLAG_SPRITEOVERFLOW$0$0	= .
                                   3195 	.globl	G$devkit_VDPFLAG_SPRITEOVERFLOW$0$0
                           0005E2  3196 	C$_sms_manager.c$565$1_0$323	= .
                                   3197 	.globl	C$_sms_manager.c$565$1_0$323
                                   3198 ;_sms_manager.c:565: unsigned char devkit_VDPFLAG_SPRITEOVERFLOW()
                                   3199 ;	---------------------------------
                                   3200 ; Function devkit_VDPFLAG_SPRITEOVERFLOW
                                   3201 ; ---------------------------------
      0005E2                       3202 _devkit_VDPFLAG_SPRITEOVERFLOW::
                           0005E2  3203 	C$_sms_manager.c$567$1_0$323	= .
                                   3204 	.globl	C$_sms_manager.c$567$1_0$323
                                   3205 ;_sms_manager.c:567: return VDPFLAG_SPRITEOVERFLOW;
      0005E2 2E 40            [ 7] 3206 	ld	l, #0x40
                           0005E4  3207 	C$_sms_manager.c$568$1_0$323	= .
                                   3208 	.globl	C$_sms_manager.c$568$1_0$323
                                   3209 ;_sms_manager.c:568: }
                           0005E4  3210 	C$_sms_manager.c$568$1_0$323	= .
                                   3211 	.globl	C$_sms_manager.c$568$1_0$323
                           0005E4  3212 	XG$devkit_VDPFLAG_SPRITEOVERFLOW$0$0	= .
                                   3213 	.globl	XG$devkit_VDPFLAG_SPRITEOVERFLOW$0$0
      0005E4 C9               [10] 3214 	ret
                           0005E5  3215 	G$devkit_VDPFLAG_SPRITECOLLISION$0$0	= .
                                   3216 	.globl	G$devkit_VDPFLAG_SPRITECOLLISION$0$0
                           0005E5  3217 	C$_sms_manager.c$569$1_0$324	= .
                                   3218 	.globl	C$_sms_manager.c$569$1_0$324
                                   3219 ;_sms_manager.c:569: unsigned char devkit_VDPFLAG_SPRITECOLLISION()
                                   3220 ;	---------------------------------
                                   3221 ; Function devkit_VDPFLAG_SPRITECOLLISION
                                   3222 ; ---------------------------------
      0005E5                       3223 _devkit_VDPFLAG_SPRITECOLLISION::
                           0005E5  3224 	C$_sms_manager.c$571$1_0$324	= .
                                   3225 	.globl	C$_sms_manager.c$571$1_0$324
                                   3226 ;_sms_manager.c:571: return VDPFLAG_SPRITECOLLISION;
      0005E5 2E 20            [ 7] 3227 	ld	l, #0x20
                           0005E7  3228 	C$_sms_manager.c$572$1_0$324	= .
                                   3229 	.globl	C$_sms_manager.c$572$1_0$324
                                   3230 ;_sms_manager.c:572: }
                           0005E7  3231 	C$_sms_manager.c$572$1_0$324	= .
                                   3232 	.globl	C$_sms_manager.c$572$1_0$324
                           0005E7  3233 	XG$devkit_VDPFLAG_SPRITECOLLISION$0$0	= .
                                   3234 	.globl	XG$devkit_VDPFLAG_SPRITECOLLISION$0$0
      0005E7 C9               [10] 3235 	ret
                           0005E8  3236 	G$devkit_SMS_setLineInterruptHandler$0$0	= .
                                   3237 	.globl	G$devkit_SMS_setLineInterruptHandler$0$0
                           0005E8  3238 	C$_sms_manager.c$575$1_0$327	= .
                                   3239 	.globl	C$_sms_manager.c$575$1_0$327
                                   3240 ;_sms_manager.c:575: void devkit_SMS_setLineInterruptHandler( void( *theHandlerFunction )( void ) )
                                   3241 ;	---------------------------------
                                   3242 ; Function devkit_SMS_setLineInterruptHandler
                                   3243 ; ---------------------------------
      0005E8                       3244 _devkit_SMS_setLineInterruptHandler::
                           0005E8  3245 	C$_sms_manager.c$577$1_0$327	= .
                                   3246 	.globl	C$_sms_manager.c$577$1_0$327
                                   3247 ;_sms_manager.c:577: SMS_setLineInterruptHandler( theHandlerFunction );
      0005E8 C1               [10] 3248 	pop	bc
      0005E9 E1               [10] 3249 	pop	hl
      0005EA E5               [11] 3250 	push	hl
      0005EB C5               [11] 3251 	push	bc
                           0005EC  3252 	C$_sms_manager.c$578$1_0$327	= .
                                   3253 	.globl	C$_sms_manager.c$578$1_0$327
                                   3254 ;_sms_manager.c:578: }
                           0005EC  3255 	C$_sms_manager.c$578$1_0$327	= .
                                   3256 	.globl	C$_sms_manager.c$578$1_0$327
                           0005EC  3257 	XG$devkit_SMS_setLineInterruptHandler$0$0	= .
                                   3258 	.globl	XG$devkit_SMS_setLineInterruptHandler$0$0
      0005EC C3r00r00         [10] 3259 	jp	_SMS_setLineInterruptHandler
                           0005EF  3260 	G$devkit_SMS_setLineCounter$0$0	= .
                                   3261 	.globl	G$devkit_SMS_setLineCounter$0$0
                           0005EF  3262 	C$_sms_manager.c$579$1_0$329	= .
                                   3263 	.globl	C$_sms_manager.c$579$1_0$329
                                   3264 ;_sms_manager.c:579: void devkit_SMS_setLineCounter( unsigned char count )
                                   3265 ;	---------------------------------
                                   3266 ; Function devkit_SMS_setLineCounter
                                   3267 ; ---------------------------------
      0005EF                       3268 _devkit_SMS_setLineCounter::
                           0005EF  3269 	C$_sms_manager.c$581$1_0$329	= .
                                   3270 	.globl	C$_sms_manager.c$581$1_0$329
                                   3271 ;_sms_manager.c:581: SMS_setLineCounter( count );
      0005EF FD 21 02 00      [14] 3272 	ld	iy, #2
      0005F3 FD 39            [15] 3273 	add	iy, sp
      0005F5 FD 6E 00         [19] 3274 	ld	l, 0 (iy)
                           0005F8  3275 	C$_sms_manager.c$582$1_0$329	= .
                                   3276 	.globl	C$_sms_manager.c$582$1_0$329
                                   3277 ;_sms_manager.c:582: }
                           0005F8  3278 	C$_sms_manager.c$582$1_0$329	= .
                                   3279 	.globl	C$_sms_manager.c$582$1_0$329
                           0005F8  3280 	XG$devkit_SMS_setLineCounter$0$0	= .
                                   3281 	.globl	XG$devkit_SMS_setLineCounter$0$0
      0005F8 C3r00r00         [10] 3282 	jp	_SMS_setLineCounter
                           0005FB  3283 	G$devkit_SMS_enableLineInterrupt$0$0	= .
                                   3284 	.globl	G$devkit_SMS_enableLineInterrupt$0$0
                           0005FB  3285 	C$_sms_manager.c$583$1_0$330	= .
                                   3286 	.globl	C$_sms_manager.c$583$1_0$330
                                   3287 ;_sms_manager.c:583: void devkit_SMS_enableLineInterrupt()
                                   3288 ;	---------------------------------
                                   3289 ; Function devkit_SMS_enableLineInterrupt
                                   3290 ; ---------------------------------
      0005FB                       3291 _devkit_SMS_enableLineInterrupt::
                           0005FB  3292 	C$_sms_manager.c$585$1_0$330	= .
                                   3293 	.globl	C$_sms_manager.c$585$1_0$330
                                   3294 ;_sms_manager.c:585: SMS_enableLineInterrupt();
      0005FB 21 10 00         [10] 3295 	ld	hl, #0x0010
                           0005FE  3296 	C$_sms_manager.c$586$1_0$330	= .
                                   3297 	.globl	C$_sms_manager.c$586$1_0$330
                                   3298 ;_sms_manager.c:586: }
                           0005FE  3299 	C$_sms_manager.c$586$1_0$330	= .
                                   3300 	.globl	C$_sms_manager.c$586$1_0$330
                           0005FE  3301 	XG$devkit_SMS_enableLineInterrupt$0$0	= .
                                   3302 	.globl	XG$devkit_SMS_enableLineInterrupt$0$0
      0005FE C3r00r00         [10] 3303 	jp	_SMS_VDPturnOnFeature
                           000601  3304 	G$devkit_SMS_disableLineInterrupt$0$0	= .
                                   3305 	.globl	G$devkit_SMS_disableLineInterrupt$0$0
                           000601  3306 	C$_sms_manager.c$587$1_0$331	= .
                                   3307 	.globl	C$_sms_manager.c$587$1_0$331
                                   3308 ;_sms_manager.c:587: void devkit_SMS_disableLineInterrupt()
                                   3309 ;	---------------------------------
                                   3310 ; Function devkit_SMS_disableLineInterrupt
                                   3311 ; ---------------------------------
      000601                       3312 _devkit_SMS_disableLineInterrupt::
                           000601  3313 	C$_sms_manager.c$589$1_0$331	= .
                                   3314 	.globl	C$_sms_manager.c$589$1_0$331
                                   3315 ;_sms_manager.c:589: SMS_disableLineInterrupt();
      000601 21 10 00         [10] 3316 	ld	hl, #0x0010
                           000604  3317 	C$_sms_manager.c$590$1_0$331	= .
                                   3318 	.globl	C$_sms_manager.c$590$1_0$331
                                   3319 ;_sms_manager.c:590: }
                           000604  3320 	C$_sms_manager.c$590$1_0$331	= .
                                   3321 	.globl	C$_sms_manager.c$590$1_0$331
                           000604  3322 	XG$devkit_SMS_disableLineInterrupt$0$0	= .
                                   3323 	.globl	XG$devkit_SMS_disableLineInterrupt$0$0
      000604 C3r00r00         [10] 3324 	jp	_SMS_VDPturnOffFeature
                           000607  3325 	G$devkit_SMS_getVCount$0$0	= .
                                   3326 	.globl	G$devkit_SMS_getVCount$0$0
                           000607  3327 	C$_sms_manager.c$593$1_0$333	= .
                                   3328 	.globl	C$_sms_manager.c$593$1_0$333
                                   3329 ;_sms_manager.c:593: unsigned char devkit_SMS_getVCount( void )
                                   3330 ;	---------------------------------
                                   3331 ; Function devkit_SMS_getVCount
                                   3332 ; ---------------------------------
      000607                       3333 _devkit_SMS_getVCount::
                           000607  3334 	C$_sms_manager.c$595$1_0$333	= .
                                   3335 	.globl	C$_sms_manager.c$595$1_0$333
                                   3336 ;_sms_manager.c:595: return SMS_getVCount();
                           000607  3337 	C$_sms_manager.c$596$1_0$333	= .
                                   3338 	.globl	C$_sms_manager.c$596$1_0$333
                                   3339 ;_sms_manager.c:596: }
                           000607  3340 	C$_sms_manager.c$596$1_0$333	= .
                                   3341 	.globl	C$_sms_manager.c$596$1_0$333
                           000607  3342 	XG$devkit_SMS_getVCount$0$0	= .
                                   3343 	.globl	XG$devkit_SMS_getVCount$0$0
      000607 C3r00r00         [10] 3344 	jp	_SMS_getVCount
                           00060A  3345 	G$devkit_SMS_getHCount$0$0	= .
                                   3346 	.globl	G$devkit_SMS_getHCount$0$0
                           00060A  3347 	C$_sms_manager.c$598$1_0$335	= .
                                   3348 	.globl	C$_sms_manager.c$598$1_0$335
                                   3349 ;_sms_manager.c:598: unsigned char devkit_SMS_getHCount( void )
                                   3350 ;	---------------------------------
                                   3351 ; Function devkit_SMS_getHCount
                                   3352 ; ---------------------------------
      00060A                       3353 _devkit_SMS_getHCount::
                           00060A  3354 	C$_sms_manager.c$600$1_0$335	= .
                                   3355 	.globl	C$_sms_manager.c$600$1_0$335
                                   3356 ;_sms_manager.c:600: return SMS_getHCount();
                           00060A  3357 	C$_sms_manager.c$601$1_0$335	= .
                                   3358 	.globl	C$_sms_manager.c$601$1_0$335
                                   3359 ;_sms_manager.c:601: }
                           00060A  3360 	C$_sms_manager.c$601$1_0$335	= .
                                   3361 	.globl	C$_sms_manager.c$601$1_0$335
                           00060A  3362 	XG$devkit_SMS_getHCount$0$0	= .
                                   3363 	.globl	XG$devkit_SMS_getHCount$0$0
      00060A C3r00r00         [10] 3364 	jp	_SMS_getHCount
                           00060D  3365 	G$devkit_SMS_VRAMmemcpy$0$0	= .
                                   3366 	.globl	G$devkit_SMS_VRAMmemcpy$0$0
                           00060D  3367 	C$_sms_manager.c$604$1_0$337	= .
                                   3368 	.globl	C$_sms_manager.c$604$1_0$337
                                   3369 ;_sms_manager.c:604: void devkit_SMS_VRAMmemcpy( unsigned int dst, const void *src, unsigned int size )
                                   3370 ;	---------------------------------
                                   3371 ; Function devkit_SMS_VRAMmemcpy
                                   3372 ; ---------------------------------
      00060D                       3373 _devkit_SMS_VRAMmemcpy::
                           00060D  3374 	C$_sms_manager.c$606$1_0$337	= .
                                   3375 	.globl	C$_sms_manager.c$606$1_0$337
                                   3376 ;_sms_manager.c:606: SMS_VRAMmemcpy( dst, src, size );
      00060D FD 21 06 00      [14] 3377 	ld	iy, #6
      000611 FD 39            [15] 3378 	add	iy, sp
      000613 FD 6E 00         [19] 3379 	ld	l, 0 (iy)
      000616 FD 66 01         [19] 3380 	ld	h, 1 (iy)
      000619 E5               [11] 3381 	push	hl
      00061A FD 6E FE         [19] 3382 	ld	l, -2 (iy)
      00061D FD 66 FF         [19] 3383 	ld	h, -1 (iy)
      000620 FD 2B            [10] 3384 	dec	iy
      000622 FD 2B            [10] 3385 	dec	iy
      000624 E5               [11] 3386 	push	hl
      000625 FD 6E FE         [19] 3387 	ld	l, -2 (iy)
      000628 FD 66 FF         [19] 3388 	ld	h, -1 (iy)
      00062B E5               [11] 3389 	push	hl
      00062C CDr00r00         [17] 3390 	call	_SMS_VRAMmemcpy
                           00062F  3391 	C$_sms_manager.c$607$1_0$337	= .
                                   3392 	.globl	C$_sms_manager.c$607$1_0$337
                                   3393 ;_sms_manager.c:607: }
                           00062F  3394 	C$_sms_manager.c$607$1_0$337	= .
                                   3395 	.globl	C$_sms_manager.c$607$1_0$337
                           00062F  3396 	XG$devkit_SMS_VRAMmemcpy$0$0	= .
                                   3397 	.globl	XG$devkit_SMS_VRAMmemcpy$0$0
      00062F C9               [10] 3398 	ret
                           000630  3399 	G$devkit_SMS_VRAMmemcpy_brief$0$0	= .
                                   3400 	.globl	G$devkit_SMS_VRAMmemcpy_brief$0$0
                           000630  3401 	C$_sms_manager.c$608$1_0$339	= .
                                   3402 	.globl	C$_sms_manager.c$608$1_0$339
                                   3403 ;_sms_manager.c:608: void devkit_SMS_VRAMmemcpy_brief( unsigned int dst, const void *src, unsigned char size )
                                   3404 ;	---------------------------------
                                   3405 ; Function devkit_SMS_VRAMmemcpy_brief
                                   3406 ; ---------------------------------
      000630                       3407 _devkit_SMS_VRAMmemcpy_brief::
                           000630  3408 	C$_sms_manager.c$610$1_0$339	= .
                                   3409 	.globl	C$_sms_manager.c$610$1_0$339
                                   3410 ;_sms_manager.c:610: SMS_VRAMmemcpy_brief( dst, src, size );
      000630 FD 21 06 00      [14] 3411 	ld	iy, #6
      000634 FD 39            [15] 3412 	add	iy, sp
      000636 FD 7E 00         [19] 3413 	ld	a, 0 (iy)
      000639 F5               [11] 3414 	push	af
      00063A 33               [ 6] 3415 	inc	sp
      00063B FD 6E FE         [19] 3416 	ld	l, -2 (iy)
      00063E FD 66 FF         [19] 3417 	ld	h, -1 (iy)
      000641 FD 2B            [10] 3418 	dec	iy
      000643 FD 2B            [10] 3419 	dec	iy
      000645 E5               [11] 3420 	push	hl
      000646 FD 6E FE         [19] 3421 	ld	l, -2 (iy)
      000649 FD 66 FF         [19] 3422 	ld	h, -1 (iy)
      00064C E5               [11] 3423 	push	hl
      00064D CDr00r00         [17] 3424 	call	_SMS_VRAMmemcpy_brief
                           000650  3425 	C$_sms_manager.c$611$1_0$339	= .
                                   3426 	.globl	C$_sms_manager.c$611$1_0$339
                                   3427 ;_sms_manager.c:611: }
                           000650  3428 	C$_sms_manager.c$611$1_0$339	= .
                                   3429 	.globl	C$_sms_manager.c$611$1_0$339
                           000650  3430 	XG$devkit_SMS_VRAMmemcpy_brief$0$0	= .
                                   3431 	.globl	XG$devkit_SMS_VRAMmemcpy_brief$0$0
      000650 C9               [10] 3432 	ret
                           000651  3433 	G$devkit_SMS_VRAMmemset$0$0	= .
                                   3434 	.globl	G$devkit_SMS_VRAMmemset$0$0
                           000651  3435 	C$_sms_manager.c$612$1_0$341	= .
                                   3436 	.globl	C$_sms_manager.c$612$1_0$341
                                   3437 ;_sms_manager.c:612: void devkit_SMS_VRAMmemset( unsigned int dst, unsigned char value, unsigned int size )
                                   3438 ;	---------------------------------
                                   3439 ; Function devkit_SMS_VRAMmemset
                                   3440 ; ---------------------------------
      000651                       3441 _devkit_SMS_VRAMmemset::
                           000651  3442 	C$_sms_manager.c$614$1_0$341	= .
                                   3443 	.globl	C$_sms_manager.c$614$1_0$341
                                   3444 ;_sms_manager.c:614: SMS_VRAMmemset( dst, value, size );
      000651 FD 21 05 00      [14] 3445 	ld	iy, #5
      000655 FD 39            [15] 3446 	add	iy, sp
      000657 FD 6E 00         [19] 3447 	ld	l, 0 (iy)
      00065A FD 66 01         [19] 3448 	ld	h, 1 (iy)
      00065D E5               [11] 3449 	push	hl
      00065E FD 7E FF         [19] 3450 	ld	a, -1 (iy)
      000661 FD 2B            [10] 3451 	dec	iy
      000663 F5               [11] 3452 	push	af
      000664 33               [ 6] 3453 	inc	sp
      000665 FD 6E FE         [19] 3454 	ld	l, -2 (iy)
      000668 FD 66 FF         [19] 3455 	ld	h, -1 (iy)
      00066B E5               [11] 3456 	push	hl
      00066C CDr00r00         [17] 3457 	call	_SMS_VRAMmemset
      00066F F1               [10] 3458 	pop	af
      000670 F1               [10] 3459 	pop	af
      000671 33               [ 6] 3460 	inc	sp
                           000672  3461 	C$_sms_manager.c$615$1_0$341	= .
                                   3462 	.globl	C$_sms_manager.c$615$1_0$341
                                   3463 ;_sms_manager.c:615: }
                           000672  3464 	C$_sms_manager.c$615$1_0$341	= .
                                   3465 	.globl	C$_sms_manager.c$615$1_0$341
                           000672  3466 	XG$devkit_SMS_VRAMmemset$0$0	= .
                                   3467 	.globl	XG$devkit_SMS_VRAMmemset$0$0
      000672 C9               [10] 3468 	ret
                           000673  3469 	G$devkit_SMS_VRAMmemsetW$0$0	= .
                                   3470 	.globl	G$devkit_SMS_VRAMmemsetW$0$0
                           000673  3471 	C$_sms_manager.c$616$1_0$343	= .
                                   3472 	.globl	C$_sms_manager.c$616$1_0$343
                                   3473 ;_sms_manager.c:616: void devkit_SMS_VRAMmemsetW( unsigned int dst, unsigned int value, unsigned int size )
                                   3474 ;	---------------------------------
                                   3475 ; Function devkit_SMS_VRAMmemsetW
                                   3476 ; ---------------------------------
      000673                       3477 _devkit_SMS_VRAMmemsetW::
                           000673  3478 	C$_sms_manager.c$618$1_0$343	= .
                                   3479 	.globl	C$_sms_manager.c$618$1_0$343
                                   3480 ;_sms_manager.c:618: SMS_VRAMmemsetW( dst, value, size );
      000673 FD 21 06 00      [14] 3481 	ld	iy, #6
      000677 FD 39            [15] 3482 	add	iy, sp
      000679 FD 6E 00         [19] 3483 	ld	l, 0 (iy)
      00067C FD 66 01         [19] 3484 	ld	h, 1 (iy)
      00067F E5               [11] 3485 	push	hl
      000680 FD 6E FE         [19] 3486 	ld	l, -2 (iy)
      000683 FD 66 FF         [19] 3487 	ld	h, -1 (iy)
      000686 FD 2B            [10] 3488 	dec	iy
      000688 FD 2B            [10] 3489 	dec	iy
      00068A E5               [11] 3490 	push	hl
      00068B FD 6E FE         [19] 3491 	ld	l, -2 (iy)
      00068E FD 66 FF         [19] 3492 	ld	h, -1 (iy)
      000691 E5               [11] 3493 	push	hl
      000692 CDr00r00         [17] 3494 	call	_SMS_VRAMmemsetW
      000695 21 06 00         [10] 3495 	ld	hl, #6
      000698 39               [11] 3496 	add	hl, sp
      000699 F9               [ 6] 3497 	ld	sp, hl
                           00069A  3498 	C$_sms_manager.c$619$1_0$343	= .
                                   3499 	.globl	C$_sms_manager.c$619$1_0$343
                                   3500 ;_sms_manager.c:619: }
                           00069A  3501 	C$_sms_manager.c$619$1_0$343	= .
                                   3502 	.globl	C$_sms_manager.c$619$1_0$343
                           00069A  3503 	XG$devkit_SMS_VRAMmemsetW$0$0	= .
                                   3504 	.globl	XG$devkit_SMS_VRAMmemsetW$0$0
      00069A C9               [10] 3505 	ret
                           00069B  3506 	G$devkit_UNSAFE_SMS_copySpritestoSAT$0$0	= .
                                   3507 	.globl	G$devkit_UNSAFE_SMS_copySpritestoSAT$0$0
                           00069B  3508 	C$_sms_manager.c$622$1_0$345	= .
                                   3509 	.globl	C$_sms_manager.c$622$1_0$345
                                   3510 ;_sms_manager.c:622: void devkit_UNSAFE_SMS_copySpritestoSAT( void )
                                   3511 ;	---------------------------------
                                   3512 ; Function devkit_UNSAFE_SMS_copySpritestoSAT
                                   3513 ; ---------------------------------
      00069B                       3514 _devkit_UNSAFE_SMS_copySpritestoSAT::
                           00069B  3515 	C$_sms_manager.c$624$1_0$345	= .
                                   3516 	.globl	C$_sms_manager.c$624$1_0$345
                                   3517 ;_sms_manager.c:624: UNSAFE_SMS_copySpritestoSAT();
                           00069B  3518 	C$_sms_manager.c$625$1_0$345	= .
                                   3519 	.globl	C$_sms_manager.c$625$1_0$345
                                   3520 ;_sms_manager.c:625: }
                           00069B  3521 	C$_sms_manager.c$625$1_0$345	= .
                                   3522 	.globl	C$_sms_manager.c$625$1_0$345
                           00069B  3523 	XG$devkit_UNSAFE_SMS_copySpritestoSAT$0$0	= .
                                   3524 	.globl	XG$devkit_UNSAFE_SMS_copySpritestoSAT$0$0
      00069B C3r00r00         [10] 3525 	jp	_UNSAFE_SMS_copySpritestoSAT
                           00069E  3526 	G$devkit_UNSAFE_SMS_VRAMmemcpy32$0$0	= .
                                   3527 	.globl	G$devkit_UNSAFE_SMS_VRAMmemcpy32$0$0
                           00069E  3528 	C$_sms_manager.c$626$1_0$347	= .
                                   3529 	.globl	C$_sms_manager.c$626$1_0$347
                                   3530 ;_sms_manager.c:626: void devkit_UNSAFE_SMS_VRAMmemcpy32( unsigned int dst, void *src )
                                   3531 ;	---------------------------------
                                   3532 ; Function devkit_UNSAFE_SMS_VRAMmemcpy32
                                   3533 ; ---------------------------------
      00069E                       3534 _devkit_UNSAFE_SMS_VRAMmemcpy32::
                           00069E  3535 	C$_sms_manager.c$628$1_0$347	= .
                                   3536 	.globl	C$_sms_manager.c$628$1_0$347
                                   3537 ;_sms_manager.c:628: UNSAFE_SMS_VRAMmemcpy32( dst, src );
      00069E FD 21 04 00      [14] 3538 	ld	iy, #4
      0006A2 FD 39            [15] 3539 	add	iy, sp
      0006A4 FD 6E 00         [19] 3540 	ld	l, 0 (iy)
      0006A7 FD 66 01         [19] 3541 	ld	h, 1 (iy)
      0006AA E5               [11] 3542 	push	hl
      0006AB FD 6E FE         [19] 3543 	ld	l, -2 (iy)
      0006AE FD 66 FF         [19] 3544 	ld	h, -1 (iy)
      0006B1 E5               [11] 3545 	push	hl
      0006B2 CDr00r00         [17] 3546 	call	_UNSAFE_SMS_VRAMmemcpy32
      0006B5 F1               [10] 3547 	pop	af
      0006B6 F1               [10] 3548 	pop	af
                           0006B7  3549 	C$_sms_manager.c$629$1_0$347	= .
                                   3550 	.globl	C$_sms_manager.c$629$1_0$347
                                   3551 ;_sms_manager.c:629: }
                           0006B7  3552 	C$_sms_manager.c$629$1_0$347	= .
                                   3553 	.globl	C$_sms_manager.c$629$1_0$347
                           0006B7  3554 	XG$devkit_UNSAFE_SMS_VRAMmemcpy32$0$0	= .
                                   3555 	.globl	XG$devkit_UNSAFE_SMS_VRAMmemcpy32$0$0
      0006B7 C9               [10] 3556 	ret
                           0006B8  3557 	G$devkit_UNSAFE_SMS_VRAMmemcpy64$0$0	= .
                                   3558 	.globl	G$devkit_UNSAFE_SMS_VRAMmemcpy64$0$0
                           0006B8  3559 	C$_sms_manager.c$630$1_0$349	= .
                                   3560 	.globl	C$_sms_manager.c$630$1_0$349
                                   3561 ;_sms_manager.c:630: void devkit_UNSAFE_SMS_VRAMmemcpy64( unsigned int dst, void *src )
                                   3562 ;	---------------------------------
                                   3563 ; Function devkit_UNSAFE_SMS_VRAMmemcpy64
                                   3564 ; ---------------------------------
      0006B8                       3565 _devkit_UNSAFE_SMS_VRAMmemcpy64::
                           0006B8  3566 	C$_sms_manager.c$632$1_0$349	= .
                                   3567 	.globl	C$_sms_manager.c$632$1_0$349
                                   3568 ;_sms_manager.c:632: UNSAFE_SMS_VRAMmemcpy64( dst, src );
      0006B8 FD 21 04 00      [14] 3569 	ld	iy, #4
      0006BC FD 39            [15] 3570 	add	iy, sp
      0006BE FD 6E 00         [19] 3571 	ld	l, 0 (iy)
      0006C1 FD 66 01         [19] 3572 	ld	h, 1 (iy)
      0006C4 E5               [11] 3573 	push	hl
      0006C5 FD 6E FE         [19] 3574 	ld	l, -2 (iy)
      0006C8 FD 66 FF         [19] 3575 	ld	h, -1 (iy)
      0006CB E5               [11] 3576 	push	hl
      0006CC CDr00r00         [17] 3577 	call	_UNSAFE_SMS_VRAMmemcpy64
      0006CF F1               [10] 3578 	pop	af
      0006D0 F1               [10] 3579 	pop	af
                           0006D1  3580 	C$_sms_manager.c$633$1_0$349	= .
                                   3581 	.globl	C$_sms_manager.c$633$1_0$349
                                   3582 ;_sms_manager.c:633: }
                           0006D1  3583 	C$_sms_manager.c$633$1_0$349	= .
                                   3584 	.globl	C$_sms_manager.c$633$1_0$349
                           0006D1  3585 	XG$devkit_UNSAFE_SMS_VRAMmemcpy64$0$0	= .
                                   3586 	.globl	XG$devkit_UNSAFE_SMS_VRAMmemcpy64$0$0
      0006D1 C9               [10] 3587 	ret
                           0006D2  3588 	G$devkit_UNSAFE_SMS_VRAMmemcpy128$0$0	= .
                                   3589 	.globl	G$devkit_UNSAFE_SMS_VRAMmemcpy128$0$0
                           0006D2  3590 	C$_sms_manager.c$634$1_0$351	= .
                                   3591 	.globl	C$_sms_manager.c$634$1_0$351
                                   3592 ;_sms_manager.c:634: void devkit_UNSAFE_SMS_VRAMmemcpy128( unsigned int dst, void *src )
                                   3593 ;	---------------------------------
                                   3594 ; Function devkit_UNSAFE_SMS_VRAMmemcpy128
                                   3595 ; ---------------------------------
      0006D2                       3596 _devkit_UNSAFE_SMS_VRAMmemcpy128::
                           0006D2  3597 	C$_sms_manager.c$636$1_0$351	= .
                                   3598 	.globl	C$_sms_manager.c$636$1_0$351
                                   3599 ;_sms_manager.c:636: UNSAFE_SMS_VRAMmemcpy128( dst, src );
      0006D2 FD 21 04 00      [14] 3600 	ld	iy, #4
      0006D6 FD 39            [15] 3601 	add	iy, sp
      0006D8 FD 6E 00         [19] 3602 	ld	l, 0 (iy)
      0006DB FD 66 01         [19] 3603 	ld	h, 1 (iy)
      0006DE E5               [11] 3604 	push	hl
      0006DF FD 6E FE         [19] 3605 	ld	l, -2 (iy)
      0006E2 FD 66 FF         [19] 3606 	ld	h, -1 (iy)
      0006E5 E5               [11] 3607 	push	hl
      0006E6 CDr00r00         [17] 3608 	call	_UNSAFE_SMS_VRAMmemcpy128
      0006E9 F1               [10] 3609 	pop	af
      0006EA F1               [10] 3610 	pop	af
                           0006EB  3611 	C$_sms_manager.c$637$1_0$351	= .
                                   3612 	.globl	C$_sms_manager.c$637$1_0$351
                                   3613 ;_sms_manager.c:637: }
                           0006EB  3614 	C$_sms_manager.c$637$1_0$351	= .
                                   3615 	.globl	C$_sms_manager.c$637$1_0$351
                           0006EB  3616 	XG$devkit_UNSAFE_SMS_VRAMmemcpy128$0$0	= .
                                   3617 	.globl	XG$devkit_UNSAFE_SMS_VRAMmemcpy128$0$0
      0006EB C9               [10] 3618 	ret
                           0006EC  3619 	G$devkit_UNSAFE_SMS_load1Tile$0$0	= .
                                   3620 	.globl	G$devkit_UNSAFE_SMS_load1Tile$0$0
                           0006EC  3621 	C$_sms_manager.c$640$1_0$353	= .
                                   3622 	.globl	C$_sms_manager.c$640$1_0$353
                                   3623 ;_sms_manager.c:640: void devkit_UNSAFE_SMS_load1Tile( void *src, unsigned int theTile )
                                   3624 ;	---------------------------------
                                   3625 ; Function devkit_UNSAFE_SMS_load1Tile
                                   3626 ; ---------------------------------
      0006EC                       3627 _devkit_UNSAFE_SMS_load1Tile::
                           0006EC  3628 	C$_sms_manager.c$642$1_0$353	= .
                                   3629 	.globl	C$_sms_manager.c$642$1_0$353
                                   3630 ;_sms_manager.c:642: UNSAFE_SMS_VRAMmemcpy32( ( theTile ) * 32, ( src ) );
      0006EC 21 04 00         [10] 3631 	ld	hl, #4
      0006EF 39               [11] 3632 	add	hl, sp
      0006F0 7E               [ 7] 3633 	ld	a, (hl)
      0006F1 23               [ 6] 3634 	inc	hl
      0006F2 66               [ 7] 3635 	ld	h, (hl)
      0006F3 6F               [ 4] 3636 	ld	l, a
      0006F4 29               [11] 3637 	add	hl, hl
      0006F5 29               [11] 3638 	add	hl, hl
      0006F6 29               [11] 3639 	add	hl, hl
      0006F7 29               [11] 3640 	add	hl, hl
      0006F8 29               [11] 3641 	add	hl, hl
      0006F9 C1               [10] 3642 	pop	bc
      0006FA D1               [10] 3643 	pop	de
      0006FB D5               [11] 3644 	push	de
      0006FC C5               [11] 3645 	push	bc
      0006FD D5               [11] 3646 	push	de
      0006FE E5               [11] 3647 	push	hl
      0006FF CDr00r00         [17] 3648 	call	_UNSAFE_SMS_VRAMmemcpy32
      000702 F1               [10] 3649 	pop	af
      000703 F1               [10] 3650 	pop	af
                           000704  3651 	C$_sms_manager.c$643$1_0$353	= .
                                   3652 	.globl	C$_sms_manager.c$643$1_0$353
                                   3653 ;_sms_manager.c:643: }
                           000704  3654 	C$_sms_manager.c$643$1_0$353	= .
                                   3655 	.globl	C$_sms_manager.c$643$1_0$353
                           000704  3656 	XG$devkit_UNSAFE_SMS_load1Tile$0$0	= .
                                   3657 	.globl	XG$devkit_UNSAFE_SMS_load1Tile$0$0
      000704 C9               [10] 3658 	ret
                           000705  3659 	G$devkit_UNSAFE_SMS_load2Tiles$0$0	= .
                                   3660 	.globl	G$devkit_UNSAFE_SMS_load2Tiles$0$0
                           000705  3661 	C$_sms_manager.c$644$1_0$355	= .
                                   3662 	.globl	C$_sms_manager.c$644$1_0$355
                                   3663 ;_sms_manager.c:644: void devkit_UNSAFE_SMS_load2Tiles( void *src, unsigned int tilefrom )
                                   3664 ;	---------------------------------
                                   3665 ; Function devkit_UNSAFE_SMS_load2Tiles
                                   3666 ; ---------------------------------
      000705                       3667 _devkit_UNSAFE_SMS_load2Tiles::
                           000705  3668 	C$_sms_manager.c$646$1_0$355	= .
                                   3669 	.globl	C$_sms_manager.c$646$1_0$355
                                   3670 ;_sms_manager.c:646: UNSAFE_SMS_VRAMmemcpy64( ( tilefrom ) * 32, ( src ) );
      000705 21 04 00         [10] 3671 	ld	hl, #4
      000708 39               [11] 3672 	add	hl, sp
      000709 7E               [ 7] 3673 	ld	a, (hl)
      00070A 23               [ 6] 3674 	inc	hl
      00070B 66               [ 7] 3675 	ld	h, (hl)
      00070C 6F               [ 4] 3676 	ld	l, a
      00070D 29               [11] 3677 	add	hl, hl
      00070E 29               [11] 3678 	add	hl, hl
      00070F 29               [11] 3679 	add	hl, hl
      000710 29               [11] 3680 	add	hl, hl
      000711 29               [11] 3681 	add	hl, hl
      000712 C1               [10] 3682 	pop	bc
      000713 D1               [10] 3683 	pop	de
      000714 D5               [11] 3684 	push	de
      000715 C5               [11] 3685 	push	bc
      000716 D5               [11] 3686 	push	de
      000717 E5               [11] 3687 	push	hl
      000718 CDr00r00         [17] 3688 	call	_UNSAFE_SMS_VRAMmemcpy64
      00071B F1               [10] 3689 	pop	af
      00071C F1               [10] 3690 	pop	af
                           00071D  3691 	C$_sms_manager.c$647$1_0$355	= .
                                   3692 	.globl	C$_sms_manager.c$647$1_0$355
                                   3693 ;_sms_manager.c:647: }
                           00071D  3694 	C$_sms_manager.c$647$1_0$355	= .
                                   3695 	.globl	C$_sms_manager.c$647$1_0$355
                           00071D  3696 	XG$devkit_UNSAFE_SMS_load2Tiles$0$0	= .
                                   3697 	.globl	XG$devkit_UNSAFE_SMS_load2Tiles$0$0
      00071D C9               [10] 3698 	ret
                           00071E  3699 	G$devkit_UNSAFE_SMS_load4Tiles$0$0	= .
                                   3700 	.globl	G$devkit_UNSAFE_SMS_load4Tiles$0$0
                           00071E  3701 	C$_sms_manager.c$648$1_0$357	= .
                                   3702 	.globl	C$_sms_manager.c$648$1_0$357
                                   3703 ;_sms_manager.c:648: void devkit_UNSAFE_SMS_load4Tiles( void *src, unsigned int tilefrom )
                                   3704 ;	---------------------------------
                                   3705 ; Function devkit_UNSAFE_SMS_load4Tiles
                                   3706 ; ---------------------------------
      00071E                       3707 _devkit_UNSAFE_SMS_load4Tiles::
                           00071E  3708 	C$_sms_manager.c$650$1_0$357	= .
                                   3709 	.globl	C$_sms_manager.c$650$1_0$357
                                   3710 ;_sms_manager.c:650: UNSAFE_SMS_VRAMmemcpy128( ( tilefrom ) * 32, ( src ) );
      00071E 21 04 00         [10] 3711 	ld	hl, #4
      000721 39               [11] 3712 	add	hl, sp
      000722 7E               [ 7] 3713 	ld	a, (hl)
      000723 23               [ 6] 3714 	inc	hl
      000724 66               [ 7] 3715 	ld	h, (hl)
      000725 6F               [ 4] 3716 	ld	l, a
      000726 29               [11] 3717 	add	hl, hl
      000727 29               [11] 3718 	add	hl, hl
      000728 29               [11] 3719 	add	hl, hl
      000729 29               [11] 3720 	add	hl, hl
      00072A 29               [11] 3721 	add	hl, hl
      00072B C1               [10] 3722 	pop	bc
      00072C D1               [10] 3723 	pop	de
      00072D D5               [11] 3724 	push	de
      00072E C5               [11] 3725 	push	bc
      00072F D5               [11] 3726 	push	de
      000730 E5               [11] 3727 	push	hl
      000731 CDr00r00         [17] 3728 	call	_UNSAFE_SMS_VRAMmemcpy128
      000734 F1               [10] 3729 	pop	af
      000735 F1               [10] 3730 	pop	af
                           000736  3731 	C$_sms_manager.c$651$1_0$357	= .
                                   3732 	.globl	C$_sms_manager.c$651$1_0$357
                                   3733 ;_sms_manager.c:651: }
                           000736  3734 	C$_sms_manager.c$651$1_0$357	= .
                                   3735 	.globl	C$_sms_manager.c$651$1_0$357
                           000736  3736 	XG$devkit_UNSAFE_SMS_load4Tiles$0$0	= .
                                   3737 	.globl	XG$devkit_UNSAFE_SMS_load4Tiles$0$0
      000736 C9               [10] 3738 	ret
                           000737  3739 	G$dekvit_SMS_isr$0$0	= .
                                   3740 	.globl	G$dekvit_SMS_isr$0$0
                           000737  3741 	C$_sms_manager.c$655$1_0$359	= .
                                   3742 	.globl	C$_sms_manager.c$655$1_0$359
                                   3743 ;_sms_manager.c:655: void dekvit_SMS_isr( void )
                                   3744 ;	---------------------------------
                                   3745 ; Function dekvit_SMS_isr
                                   3746 ; ---------------------------------
      000737                       3747 _dekvit_SMS_isr::
                           000737  3748 	C$_sms_manager.c$657$1_0$359	= .
                                   3749 	.globl	C$_sms_manager.c$657$1_0$359
                                   3750 ;_sms_manager.c:657: SMS_isr();
                           000737  3751 	C$_sms_manager.c$658$1_0$359	= .
                                   3752 	.globl	C$_sms_manager.c$658$1_0$359
                                   3753 ;_sms_manager.c:658: }
                           000737  3754 	C$_sms_manager.c$658$1_0$359	= .
                                   3755 	.globl	C$_sms_manager.c$658$1_0$359
                           000737  3756 	XG$dekvit_SMS_isr$0$0	= .
                                   3757 	.globl	XG$dekvit_SMS_isr$0$0
      000737 C3r00r00         [10] 3758 	jp	_SMS_isr
                           00073A  3759 	G$dekvit_SMS_nmi_isr$0$0	= .
                                   3760 	.globl	G$dekvit_SMS_nmi_isr$0$0
                           00073A  3761 	C$_sms_manager.c$659$1_0$361	= .
                                   3762 	.globl	C$_sms_manager.c$659$1_0$361
                                   3763 ;_sms_manager.c:659: void dekvit_SMS_nmi_isr( void )
                                   3764 ;	---------------------------------
                                   3765 ; Function dekvit_SMS_nmi_isr
                                   3766 ; ---------------------------------
      00073A                       3767 _dekvit_SMS_nmi_isr::
                           00073A  3768 	C$_sms_manager.c$661$1_0$361	= .
                                   3769 	.globl	C$_sms_manager.c$661$1_0$361
                                   3770 ;_sms_manager.c:661: SMS_nmi_isr();
                           00073A  3771 	C$_sms_manager.c$662$1_0$361	= .
                                   3772 	.globl	C$_sms_manager.c$662$1_0$361
                                   3773 ;_sms_manager.c:662: }
                           00073A  3774 	C$_sms_manager.c$662$1_0$361	= .
                                   3775 	.globl	C$_sms_manager.c$662$1_0$361
                           00073A  3776 	XG$dekvit_SMS_nmi_isr$0$0	= .
                                   3777 	.globl	XG$dekvit_SMS_nmi_isr$0$0
      00073A C3r00r00         [10] 3778 	jp	_SMS_nmi_isr
                           00073D  3779 	G$devkit_SMS_addSprite_bulk8$0$0	= .
                                   3780 	.globl	G$devkit_SMS_addSprite_bulk8$0$0
                           00073D  3781 	C$_sms_manager.c$667$1_0$363	= .
                                   3782 	.globl	C$_sms_manager.c$667$1_0$363
                                   3783 ;_sms_manager.c:667: void devkit_SMS_addSprite_bulk8( unsigned char x, unsigned char y, int tile )
                                   3784 ;	---------------------------------
                                   3785 ; Function devkit_SMS_addSprite_bulk8
                                   3786 ; ---------------------------------
      00073D                       3787 _devkit_SMS_addSprite_bulk8::
      00073D DD E5            [15] 3788 	push	ix
      00073F DD 21 00 00      [14] 3789 	ld	ix,#0
      000743 DD 39            [15] 3790 	add	ix,sp
                           000745  3791 	C$_sms_manager.c$669$1_0$363	= .
                                   3792 	.globl	C$_sms_manager.c$669$1_0$363
                                   3793 ;_sms_manager.c:669: devkit_SMS_addSprite( x + 0, y + 0, tile + 0 );
      000745 DD 6E 06         [19] 3794 	ld	l, 6 (ix)
      000748 DD 66 07         [19] 3795 	ld	h, 7 (ix)
      00074B E5               [11] 3796 	push	hl
      00074C DD 66 05         [19] 3797 	ld	h, 5 (ix)
      00074F DD 6E 04         [19] 3798 	ld	l, 4 (ix)
      000752 E5               [11] 3799 	push	hl
      000753 CDr7Er03         [17] 3800 	call	_devkit_SMS_addSprite
      000756 F1               [10] 3801 	pop	af
      000757 F1               [10] 3802 	pop	af
                           000758  3803 	C$_sms_manager.c$670$1_0$363	= .
                                   3804 	.globl	C$_sms_manager.c$670$1_0$363
                                   3805 ;_sms_manager.c:670: devkit_SMS_addSprite( x + 8, y + 0, tile + 1 );
      000758 DD 4E 06         [19] 3806 	ld	c, 6 (ix)
      00075B DD 46 07         [19] 3807 	ld	b, 7 (ix)
      00075E 03               [ 6] 3808 	inc	bc
      00075F DD 7E 04         [19] 3809 	ld	a, 4 (ix)
      000762 C6 08            [ 7] 3810 	add	a, #0x08
      000764 57               [ 4] 3811 	ld	d, a
      000765 D5               [11] 3812 	push	de
      000766 C5               [11] 3813 	push	bc
      000767 DD 7E 05         [19] 3814 	ld	a, 5 (ix)
      00076A F5               [11] 3815 	push	af
      00076B 33               [ 6] 3816 	inc	sp
      00076C D5               [11] 3817 	push	de
      00076D 33               [ 6] 3818 	inc	sp
      00076E CDr7Er03         [17] 3819 	call	_devkit_SMS_addSprite
      000771 F1               [10] 3820 	pop	af
      000772 F1               [10] 3821 	pop	af
      000773 D1               [10] 3822 	pop	de
                           000774  3823 	C$_sms_manager.c$672$1_0$363	= .
                                   3824 	.globl	C$_sms_manager.c$672$1_0$363
                                   3825 ;_sms_manager.c:672: devkit_SMS_addSprite( x + 0, y + 8, tile + 2 );
      000774 DD 4E 06         [19] 3826 	ld	c, 6 (ix)
      000777 DD 46 07         [19] 3827 	ld	b, 7 (ix)
      00077A 03               [ 6] 3828 	inc	bc
      00077B 03               [ 6] 3829 	inc	bc
      00077C DD 5E 05         [19] 3830 	ld	e, 5 (ix)
      00077F 7B               [ 4] 3831 	ld	a, e
      000780 C6 08            [ 7] 3832 	add	a, #0x08
      000782 6F               [ 4] 3833 	ld	l, a
      000783 E5               [11] 3834 	push	hl
      000784 D5               [11] 3835 	push	de
      000785 C5               [11] 3836 	push	bc
      000786 65               [ 4] 3837 	ld	h, l
      000787 DD 6E 04         [19] 3838 	ld	l, 4 (ix)
      00078A E5               [11] 3839 	push	hl
      00078B CDr7Er03         [17] 3840 	call	_devkit_SMS_addSprite
      00078E F1               [10] 3841 	pop	af
      00078F F1               [10] 3842 	pop	af
      000790 D1               [10] 3843 	pop	de
      000791 E1               [10] 3844 	pop	hl
                           000792  3845 	C$_sms_manager.c$673$1_0$363	= .
                                   3846 	.globl	C$_sms_manager.c$673$1_0$363
                                   3847 ;_sms_manager.c:673: devkit_SMS_addSprite( x + 8, y + 8, tile + 3 );
      000792 DD 4E 06         [19] 3848 	ld	c, 6 (ix)
      000795 DD 46 07         [19] 3849 	ld	b, 7 (ix)
      000798 03               [ 6] 3850 	inc	bc
      000799 03               [ 6] 3851 	inc	bc
      00079A 03               [ 6] 3852 	inc	bc
      00079B D5               [11] 3853 	push	de
      00079C C5               [11] 3854 	push	bc
      00079D 7D               [ 4] 3855 	ld	a, l
      00079E F5               [11] 3856 	push	af
      00079F 33               [ 6] 3857 	inc	sp
      0007A0 D5               [11] 3858 	push	de
      0007A1 33               [ 6] 3859 	inc	sp
      0007A2 CDr7Er03         [17] 3860 	call	_devkit_SMS_addSprite
      0007A5 F1               [10] 3861 	pop	af
      0007A6 F1               [10] 3862 	pop	af
      0007A7 D1               [10] 3863 	pop	de
                           0007A8  3864 	C$_sms_manager.c$675$1_0$363	= .
                                   3865 	.globl	C$_sms_manager.c$675$1_0$363
                                   3866 ;_sms_manager.c:675: devkit_SMS_addSprite( x + 0, y + 16, tile + 4 );
      0007A8 DD 6E 06         [19] 3867 	ld	l, 6 (ix)
      0007AB DD 66 07         [19] 3868 	ld	h, 7 (ix)
      0007AE 01 04 00         [10] 3869 	ld	bc, #0x0004
      0007B1 09               [11] 3870 	add	hl, bc
      0007B2 7B               [ 4] 3871 	ld	a, e
      0007B3 C6 10            [ 7] 3872 	add	a, #0x10
      0007B5 4F               [ 4] 3873 	ld	c, a
      0007B6 C5               [11] 3874 	push	bc
      0007B7 D5               [11] 3875 	push	de
      0007B8 E5               [11] 3876 	push	hl
      0007B9 61               [ 4] 3877 	ld	h, c
      0007BA DD 6E 04         [19] 3878 	ld	l, 4 (ix)
      0007BD E5               [11] 3879 	push	hl
      0007BE CDr7Er03         [17] 3880 	call	_devkit_SMS_addSprite
      0007C1 F1               [10] 3881 	pop	af
      0007C2 F1               [10] 3882 	pop	af
      0007C3 D1               [10] 3883 	pop	de
      0007C4 C1               [10] 3884 	pop	bc
                           0007C5  3885 	C$_sms_manager.c$676$1_0$363	= .
                                   3886 	.globl	C$_sms_manager.c$676$1_0$363
                                   3887 ;_sms_manager.c:676: devkit_SMS_addSprite( x + 8, y + 16, tile + 5 );
      0007C5 DD 7E 06         [19] 3888 	ld	a, 6 (ix)
      0007C8 C6 05            [ 7] 3889 	add	a, #0x05
      0007CA 6F               [ 4] 3890 	ld	l, a
      0007CB DD 7E 07         [19] 3891 	ld	a, 7 (ix)
      0007CE CE 00            [ 7] 3892 	adc	a, #0x00
      0007D0 67               [ 4] 3893 	ld	h, a
      0007D1 D5               [11] 3894 	push	de
      0007D2 E5               [11] 3895 	push	hl
      0007D3 79               [ 4] 3896 	ld	a, c
      0007D4 F5               [11] 3897 	push	af
      0007D5 33               [ 6] 3898 	inc	sp
      0007D6 D5               [11] 3899 	push	de
      0007D7 33               [ 6] 3900 	inc	sp
      0007D8 CDr7Er03         [17] 3901 	call	_devkit_SMS_addSprite
      0007DB F1               [10] 3902 	pop	af
      0007DC F1               [10] 3903 	pop	af
      0007DD D1               [10] 3904 	pop	de
                           0007DE  3905 	C$_sms_manager.c$678$1_0$363	= .
                                   3906 	.globl	C$_sms_manager.c$678$1_0$363
                                   3907 ;_sms_manager.c:678: devkit_SMS_addSprite( x + 0, y + 24, tile + 6 );
      0007DE DD 6E 06         [19] 3908 	ld	l, 6 (ix)
      0007E1 DD 66 07         [19] 3909 	ld	h, 7 (ix)
      0007E4 01 06 00         [10] 3910 	ld	bc, #0x0006
      0007E7 09               [11] 3911 	add	hl, bc
      0007E8 7B               [ 4] 3912 	ld	a, e
      0007E9 C6 18            [ 7] 3913 	add	a, #0x18
      0007EB 5F               [ 4] 3914 	ld	e, a
      0007EC D5               [11] 3915 	push	de
      0007ED E5               [11] 3916 	push	hl
      0007EE 63               [ 4] 3917 	ld	h, e
      0007EF DD 6E 04         [19] 3918 	ld	l, 4 (ix)
      0007F2 E5               [11] 3919 	push	hl
      0007F3 CDr7Er03         [17] 3920 	call	_devkit_SMS_addSprite
      0007F6 F1               [10] 3921 	pop	af
      0007F7 F1               [10] 3922 	pop	af
      0007F8 D1               [10] 3923 	pop	de
                           0007F9  3924 	C$_sms_manager.c$679$1_0$363	= .
                                   3925 	.globl	C$_sms_manager.c$679$1_0$363
                                   3926 ;_sms_manager.c:679: devkit_SMS_addSprite( x + 8, y + 24, tile + 7 );
      0007F9 DD 6E 06         [19] 3927 	ld	l, 6 (ix)
      0007FC DD 66 07         [19] 3928 	ld	h, 7 (ix)
      0007FF 01 07 00         [10] 3929 	ld	bc, #0x0007
      000802 09               [11] 3930 	add	hl, bc
      000803 E5               [11] 3931 	push	hl
      000804 7B               [ 4] 3932 	ld	a, e
      000805 F5               [11] 3933 	push	af
      000806 33               [ 6] 3934 	inc	sp
      000807 D5               [11] 3935 	push	de
      000808 33               [ 6] 3936 	inc	sp
      000809 CDr7Er03         [17] 3937 	call	_devkit_SMS_addSprite
      00080C F1               [10] 3938 	pop	af
      00080D F1               [10] 3939 	pop	af
                           00080E  3940 	C$_sms_manager.c$680$1_0$363	= .
                                   3941 	.globl	C$_sms_manager.c$680$1_0$363
                                   3942 ;_sms_manager.c:680: }
      00080E DD E1            [14] 3943 	pop	ix
                           000810  3944 	C$_sms_manager.c$680$1_0$363	= .
                                   3945 	.globl	C$_sms_manager.c$680$1_0$363
                           000810  3946 	XG$devkit_SMS_addSprite_bulk8$0$0	= .
                                   3947 	.globl	XG$devkit_SMS_addSprite_bulk8$0$0
      000810 C9               [10] 3948 	ret
                           000811  3949 	G$devkit_SMS_addSprite_bulk12$0$0	= .
                                   3950 	.globl	G$devkit_SMS_addSprite_bulk12$0$0
                           000811  3951 	C$_sms_manager.c$681$1_0$365	= .
                                   3952 	.globl	C$_sms_manager.c$681$1_0$365
                                   3953 ;_sms_manager.c:681: void devkit_SMS_addSprite_bulk12( unsigned char x, unsigned char y, int tile )
                                   3954 ;	---------------------------------
                                   3955 ; Function devkit_SMS_addSprite_bulk12
                                   3956 ; ---------------------------------
      000811                       3957 _devkit_SMS_addSprite_bulk12::
      000811 DD E5            [15] 3958 	push	ix
      000813 DD 21 00 00      [14] 3959 	ld	ix,#0
      000817 DD 39            [15] 3960 	add	ix,sp
      000819 3B               [ 6] 3961 	dec	sp
                           00081A  3962 	C$_sms_manager.c$683$1_0$365	= .
                                   3963 	.globl	C$_sms_manager.c$683$1_0$365
                                   3964 ;_sms_manager.c:683: SMS_addSprite( x + 0, y + 0, tile + 0 );
      00081A DD 4E 06         [19] 3965 	ld	c, 6 (ix)
      00081D C5               [11] 3966 	push	bc
      00081E 61               [ 4] 3967 	ld	h, c
      00081F DD 6E 05         [19] 3968 	ld	l, 5 (ix)
      000822 E5               [11] 3969 	push	hl
      000823 DD 7E 04         [19] 3970 	ld	a, 4 (ix)
      000826 F5               [11] 3971 	push	af
      000827 33               [ 6] 3972 	inc	sp
      000828 CDr00r00         [17] 3973 	call	_SMS_addSprite
      00082B F1               [10] 3974 	pop	af
      00082C 33               [ 6] 3975 	inc	sp
      00082D C1               [10] 3976 	pop	bc
                           00082E  3977 	C$_sms_manager.c$684$1_0$365	= .
                                   3978 	.globl	C$_sms_manager.c$684$1_0$365
                                   3979 ;_sms_manager.c:684: SMS_addSprite( x + 8, y + 0, tile + 1 );
      00082E 51               [ 4] 3980 	ld	d, c
      00082F 14               [ 4] 3981 	inc	d
      000830 DD 46 04         [19] 3982 	ld	b, 4 (ix)
      000833 78               [ 4] 3983 	ld	a, b
      000834 C6 08            [ 7] 3984 	add	a, #0x08
      000836 DD 77 FF         [19] 3985 	ld	-1 (ix), a
      000839 C5               [11] 3986 	push	bc
      00083A D5               [11] 3987 	push	de
      00083B 33               [ 6] 3988 	inc	sp
      00083C DD 66 05         [19] 3989 	ld	h, 5 (ix)
      00083F DD 6E FF         [19] 3990 	ld	l, -1 (ix)
      000842 E5               [11] 3991 	push	hl
      000843 CDr00r00         [17] 3992 	call	_SMS_addSprite
      000846 F1               [10] 3993 	pop	af
      000847 33               [ 6] 3994 	inc	sp
      000848 C1               [10] 3995 	pop	bc
                           000849  3996 	C$_sms_manager.c$685$1_0$365	= .
                                   3997 	.globl	C$_sms_manager.c$685$1_0$365
                                   3998 ;_sms_manager.c:685: SMS_addSprite( x + 16, y + 0, tile + 2 );
      000849 59               [ 4] 3999 	ld	e, c
      00084A 1C               [ 4] 4000 	inc	e
      00084B 1C               [ 4] 4001 	inc	e
      00084C 78               [ 4] 4002 	ld	a, b
      00084D C6 10            [ 7] 4003 	add	a, #0x10
      00084F 47               [ 4] 4004 	ld	b, a
      000850 C5               [11] 4005 	push	bc
      000851 63               [ 4] 4006 	ld	h, e
      000852 DD 6E 05         [19] 4007 	ld	l, 5 (ix)
      000855 E5               [11] 4008 	push	hl
      000856 C5               [11] 4009 	push	bc
      000857 33               [ 6] 4010 	inc	sp
      000858 CDr00r00         [17] 4011 	call	_SMS_addSprite
      00085B F1               [10] 4012 	pop	af
      00085C 33               [ 6] 4013 	inc	sp
      00085D C1               [10] 4014 	pop	bc
                           00085E  4015 	C$_sms_manager.c$687$1_0$365	= .
                                   4016 	.globl	C$_sms_manager.c$687$1_0$365
                                   4017 ;_sms_manager.c:687: SMS_addSprite( x + 0, y + 8, tile + 3 );
      00085E 69               [ 4] 4018 	ld	l, c
      00085F 2C               [ 4] 4019 	inc	l
      000860 2C               [ 4] 4020 	inc	l
      000861 2C               [ 4] 4021 	inc	l
      000862 DD 5E 05         [19] 4022 	ld	e, 5 (ix)
      000865 7B               [ 4] 4023 	ld	a, e
      000866 C6 08            [ 7] 4024 	add	a, #0x08
      000868 57               [ 4] 4025 	ld	d, a
      000869 C5               [11] 4026 	push	bc
      00086A D5               [11] 4027 	push	de
      00086B 7D               [ 4] 4028 	ld	a, l
      00086C F5               [11] 4029 	push	af
      00086D 33               [ 6] 4030 	inc	sp
      00086E D5               [11] 4031 	push	de
      00086F 33               [ 6] 4032 	inc	sp
      000870 DD 7E 04         [19] 4033 	ld	a, 4 (ix)
      000873 F5               [11] 4034 	push	af
      000874 33               [ 6] 4035 	inc	sp
      000875 CDr00r00         [17] 4036 	call	_SMS_addSprite
      000878 F1               [10] 4037 	pop	af
      000879 33               [ 6] 4038 	inc	sp
      00087A D1               [10] 4039 	pop	de
      00087B C1               [10] 4040 	pop	bc
                           00087C  4041 	C$_sms_manager.c$688$1_0$365	= .
                                   4042 	.globl	C$_sms_manager.c$688$1_0$365
                                   4043 ;_sms_manager.c:688: SMS_addSprite( x + 8, y + 8, tile + 4 );
      00087C 79               [ 4] 4044 	ld	a, c
      00087D 3C               [ 4] 4045 	inc	a
      00087E 3C               [ 4] 4046 	inc	a
      00087F 3C               [ 4] 4047 	inc	a
      000880 3C               [ 4] 4048 	inc	a
      000881 C5               [11] 4049 	push	bc
      000882 D5               [11] 4050 	push	de
      000883 F5               [11] 4051 	push	af
      000884 33               [ 6] 4052 	inc	sp
      000885 D5               [11] 4053 	push	de
      000886 33               [ 6] 4054 	inc	sp
      000887 DD 7E FF         [19] 4055 	ld	a, -1 (ix)
      00088A F5               [11] 4056 	push	af
      00088B 33               [ 6] 4057 	inc	sp
      00088C CDr00r00         [17] 4058 	call	_SMS_addSprite
      00088F F1               [10] 4059 	pop	af
      000890 33               [ 6] 4060 	inc	sp
      000891 D1               [10] 4061 	pop	de
      000892 C1               [10] 4062 	pop	bc
                           000893  4063 	C$_sms_manager.c$689$1_0$365	= .
                                   4064 	.globl	C$_sms_manager.c$689$1_0$365
                                   4065 ;_sms_manager.c:689: SMS_addSprite( x + 16, y + 8, tile + 5 );
      000893 79               [ 4] 4066 	ld	a, c
      000894 C6 05            [ 7] 4067 	add	a, #0x05
      000896 C5               [11] 4068 	push	bc
      000897 D5               [11] 4069 	push	de
      000898 F5               [11] 4070 	push	af
      000899 33               [ 6] 4071 	inc	sp
      00089A 58               [ 4] 4072 	ld	e, b
      00089B D5               [11] 4073 	push	de
      00089C CDr00r00         [17] 4074 	call	_SMS_addSprite
      00089F F1               [10] 4075 	pop	af
      0008A0 33               [ 6] 4076 	inc	sp
      0008A1 D1               [10] 4077 	pop	de
      0008A2 C1               [10] 4078 	pop	bc
                           0008A3  4079 	C$_sms_manager.c$691$1_0$365	= .
                                   4080 	.globl	C$_sms_manager.c$691$1_0$365
                                   4081 ;_sms_manager.c:691: SMS_addSprite( x + 0, y + 16, tile + 6 );
      0008A3 79               [ 4] 4082 	ld	a, c
      0008A4 C6 06            [ 7] 4083 	add	a, #0x06
      0008A6 67               [ 4] 4084 	ld	h, a
      0008A7 7B               [ 4] 4085 	ld	a, e
      0008A8 C6 10            [ 7] 4086 	add	a, #0x10
      0008AA 57               [ 4] 4087 	ld	d, a
      0008AB C5               [11] 4088 	push	bc
      0008AC D5               [11] 4089 	push	de
      0008AD 6A               [ 4] 4090 	ld	l, d
      0008AE E5               [11] 4091 	push	hl
      0008AF DD 7E 04         [19] 4092 	ld	a, 4 (ix)
      0008B2 F5               [11] 4093 	push	af
      0008B3 33               [ 6] 4094 	inc	sp
      0008B4 CDr00r00         [17] 4095 	call	_SMS_addSprite
      0008B7 F1               [10] 4096 	pop	af
      0008B8 33               [ 6] 4097 	inc	sp
      0008B9 D1               [10] 4098 	pop	de
      0008BA C1               [10] 4099 	pop	bc
                           0008BB  4100 	C$_sms_manager.c$692$1_0$365	= .
                                   4101 	.globl	C$_sms_manager.c$692$1_0$365
                                   4102 ;_sms_manager.c:692: SMS_addSprite( x + 8, y + 16, tile + 7 );
      0008BB 79               [ 4] 4103 	ld	a, c
      0008BC C6 07            [ 7] 4104 	add	a, #0x07
      0008BE C5               [11] 4105 	push	bc
      0008BF D5               [11] 4106 	push	de
      0008C0 F5               [11] 4107 	push	af
      0008C1 33               [ 6] 4108 	inc	sp
      0008C2 D5               [11] 4109 	push	de
      0008C3 33               [ 6] 4110 	inc	sp
      0008C4 DD 7E FF         [19] 4111 	ld	a, -1 (ix)
      0008C7 F5               [11] 4112 	push	af
      0008C8 33               [ 6] 4113 	inc	sp
      0008C9 CDr00r00         [17] 4114 	call	_SMS_addSprite
      0008CC F1               [10] 4115 	pop	af
      0008CD 33               [ 6] 4116 	inc	sp
      0008CE D1               [10] 4117 	pop	de
      0008CF C1               [10] 4118 	pop	bc
                           0008D0  4119 	C$_sms_manager.c$693$1_0$365	= .
                                   4120 	.globl	C$_sms_manager.c$693$1_0$365
                                   4121 ;_sms_manager.c:693: SMS_addSprite( x + 16, y + 16, tile + 8 );
      0008D0 79               [ 4] 4122 	ld	a, c
      0008D1 C6 08            [ 7] 4123 	add	a, #0x08
      0008D3 C5               [11] 4124 	push	bc
      0008D4 D5               [11] 4125 	push	de
      0008D5 F5               [11] 4126 	push	af
      0008D6 33               [ 6] 4127 	inc	sp
      0008D7 58               [ 4] 4128 	ld	e, b
      0008D8 D5               [11] 4129 	push	de
      0008D9 CDr00r00         [17] 4130 	call	_SMS_addSprite
      0008DC F1               [10] 4131 	pop	af
      0008DD 33               [ 6] 4132 	inc	sp
      0008DE D1               [10] 4133 	pop	de
      0008DF C1               [10] 4134 	pop	bc
                           0008E0  4135 	C$_sms_manager.c$695$1_0$365	= .
                                   4136 	.globl	C$_sms_manager.c$695$1_0$365
                                   4137 ;_sms_manager.c:695: SMS_addSprite( x + 0, y + 24, tile + 9 );
      0008E0 79               [ 4] 4138 	ld	a, c
      0008E1 C6 09            [ 7] 4139 	add	a, #0x09
      0008E3 67               [ 4] 4140 	ld	h, a
      0008E4 7B               [ 4] 4141 	ld	a, e
      0008E5 C6 18            [ 7] 4142 	add	a, #0x18
      0008E7 57               [ 4] 4143 	ld	d, a
      0008E8 C5               [11] 4144 	push	bc
      0008E9 D5               [11] 4145 	push	de
      0008EA 6A               [ 4] 4146 	ld	l, d
      0008EB E5               [11] 4147 	push	hl
      0008EC DD 7E 04         [19] 4148 	ld	a, 4 (ix)
      0008EF F5               [11] 4149 	push	af
      0008F0 33               [ 6] 4150 	inc	sp
      0008F1 CDr00r00         [17] 4151 	call	_SMS_addSprite
      0008F4 F1               [10] 4152 	pop	af
      0008F5 33               [ 6] 4153 	inc	sp
      0008F6 D1               [10] 4154 	pop	de
      0008F7 C1               [10] 4155 	pop	bc
                           0008F8  4156 	C$_sms_manager.c$696$1_0$365	= .
                                   4157 	.globl	C$_sms_manager.c$696$1_0$365
                                   4158 ;_sms_manager.c:696: SMS_addSprite( x + 8, y + 24, tile + 10 );
      0008F8 79               [ 4] 4159 	ld	a, c
      0008F9 C6 0A            [ 7] 4160 	add	a, #0x0a
      0008FB C5               [11] 4161 	push	bc
      0008FC D5               [11] 4162 	push	de
      0008FD F5               [11] 4163 	push	af
      0008FE 33               [ 6] 4164 	inc	sp
      0008FF D5               [11] 4165 	push	de
      000900 33               [ 6] 4166 	inc	sp
      000901 DD 7E FF         [19] 4167 	ld	a, -1 (ix)
      000904 F5               [11] 4168 	push	af
      000905 33               [ 6] 4169 	inc	sp
      000906 CDr00r00         [17] 4170 	call	_SMS_addSprite
      000909 F1               [10] 4171 	pop	af
      00090A 33               [ 6] 4172 	inc	sp
      00090B D1               [10] 4173 	pop	de
      00090C C1               [10] 4174 	pop	bc
                           00090D  4175 	C$_sms_manager.c$697$1_0$365	= .
                                   4176 	.globl	C$_sms_manager.c$697$1_0$365
                                   4177 ;_sms_manager.c:697: SMS_addSprite( x + 16, y + 24, tile + 11 );
      00090D 79               [ 4] 4178 	ld	a, c
      00090E C6 0B            [ 7] 4179 	add	a, #0x0b
      000910 F5               [11] 4180 	push	af
      000911 33               [ 6] 4181 	inc	sp
      000912 58               [ 4] 4182 	ld	e, b
      000913 D5               [11] 4183 	push	de
      000914 CDr00r00         [17] 4184 	call	_SMS_addSprite
      000917 F1               [10] 4185 	pop	af
      000918 33               [ 6] 4186 	inc	sp
                           000919  4187 	C$_sms_manager.c$698$1_0$365	= .
                                   4188 	.globl	C$_sms_manager.c$698$1_0$365
                                   4189 ;_sms_manager.c:698: }
      000919 33               [ 6] 4190 	inc	sp
      00091A DD E1            [14] 4191 	pop	ix
                           00091C  4192 	C$_sms_manager.c$698$1_0$365	= .
                                   4193 	.globl	C$_sms_manager.c$698$1_0$365
                           00091C  4194 	XG$devkit_SMS_addSprite_bulk12$0$0	= .
                                   4195 	.globl	XG$devkit_SMS_addSprite_bulk12$0$0
      00091C C9               [10] 4196 	ret
                           00091D  4197 	G$devkit_SMS_setTilePriority$0$0	= .
                                   4198 	.globl	G$devkit_SMS_setTilePriority$0$0
                           00091D  4199 	C$_sms_manager.c$700$1_0$367	= .
                                   4200 	.globl	C$_sms_manager.c$700$1_0$367
                                   4201 ;_sms_manager.c:700: void devkit_SMS_setTilePriority( const unsigned char tile )
                                   4202 ;	---------------------------------
                                   4203 ; Function devkit_SMS_setTilePriority
                                   4204 ; ---------------------------------
      00091D                       4205 _devkit_SMS_setTilePriority::
                           00091D  4206 	C$_sms_manager.c$702$1_0$367	= .
                                   4207 	.globl	C$_sms_manager.c$702$1_0$367
                                   4208 ;_sms_manager.c:702: SMS_setTile( tile | TILE_PRIORITY | TILE_USE_SPRITE_PALETTE );
      00091D FD 21 02 00      [14] 4209 	ld	iy, #2
      000921 FD 39            [15] 4210 	add	iy, sp
      000923 FD 6E 00         [19] 4211 	ld	l, 0 (iy)
      000926 AF               [ 4] 4212 	xor	a, a
      000927 F6 18            [ 7] 4213 	or	a, #0x18
      000929 67               [ 4] 4214 	ld	h, a
                           00092A  4215 	C$_sms_manager.c$703$1_0$367	= .
                                   4216 	.globl	C$_sms_manager.c$703$1_0$367
                                   4217 ;_sms_manager.c:703: }
                           00092A  4218 	C$_sms_manager.c$703$1_0$367	= .
                                   4219 	.globl	C$_sms_manager.c$703$1_0$367
                           00092A  4220 	XG$devkit_SMS_setTilePriority$0$0	= .
                                   4221 	.globl	XG$devkit_SMS_setTilePriority$0$0
      00092A C3r00r00         [10] 4222 	jp	_SMS_crt0_RST18
                           00092D  4223 	G$devkit_isCollisionDetected$0$0	= .
                                   4224 	.globl	G$devkit_isCollisionDetected$0$0
                           00092D  4225 	C$_sms_manager.c$704$1_0$368	= .
                                   4226 	.globl	C$_sms_manager.c$704$1_0$368
                                   4227 ;_sms_manager.c:704: unsigned char devkit_isCollisionDetected()
                                   4228 ;	---------------------------------
                                   4229 ; Function devkit_isCollisionDetected
                                   4230 ; ---------------------------------
      00092D                       4231 _devkit_isCollisionDetected::
                           00092D  4232 	C$_sms_manager.c$706$1_0$368	= .
                                   4233 	.globl	C$_sms_manager.c$706$1_0$368
                                   4234 ;_sms_manager.c:706: return ( SMS_VDPFlags & VDPFLAG_SPRITECOLLISION );
      00092D 3Ar00r00         [13] 4235 	ld	a,(#_SMS_VDPFlags + 0)
      000930 E6 20            [ 7] 4236 	and	a, #0x20
      000932 6F               [ 4] 4237 	ld	l, a
                           000933  4238 	C$_sms_manager.c$707$1_0$368	= .
                                   4239 	.globl	C$_sms_manager.c$707$1_0$368
                                   4240 ;_sms_manager.c:707: }
                           000933  4241 	C$_sms_manager.c$707$1_0$368	= .
                                   4242 	.globl	C$_sms_manager.c$707$1_0$368
                           000933  4243 	XG$devkit_isCollisionDetected$0$0	= .
                                   4244 	.globl	XG$devkit_isCollisionDetected$0$0
      000933 C9               [10] 4245 	ret
                                   4246 	.area _CODE
                           000934  4247 F_sms_manager$__str_0$0_0$0 == .
      000934                       4248 __str_0:
      000934 73 74 65 76 65 70 72  4249 	.ascii "stevepro"
             6F
      00093C 00                    4250 	.db 0x00
                           00093D  4251 F_sms_manager$__str_1$0_0$0 == .
      00093D                       4252 __str_1:
      00093D 47 53 4C 64 65 6D 6F  4253 	.ascii "GSLdemo"
      000944 00                    4254 	.db 0x00
                           000945  4255 F_sms_manager$__str_2$0_0$0 == .
      000945                       4256 __str_2:
      000945 53 4D 53 20 50 6F 77  4257 	.ascii "SMS Power tutorial for General Scroll Library"
             65 72 20 74 75 74 6F
             72 69 61 6C 20 66 6F
             72 20 47 65 6E 65 72
             61 6C 20 53 63 72 6F
             6C 6C 20 4C 69 62 72
             61 72 79
      000972 00                    4258 	.db 0x00
                                   4259 	.area _INITIALIZER
                                   4260 	.area _CABS (ABS)
      007FF0                       4261 	.org 0x7FF0
                           007FF0  4262 G$__SMS__SEGA_signature$0_0$0 == .
      007FF0                       4263 ___SMS__SEGA_signature:
      007FF0 54                    4264 	.db #0x54	; 84	'T'
      007FF1 4D                    4265 	.db #0x4d	; 77	'M'
      007FF2 52                    4266 	.db #0x52	; 82	'R'
      007FF3 20                    4267 	.db #0x20	; 32
      007FF4 53                    4268 	.db #0x53	; 83	'S'
      007FF5 45                    4269 	.db #0x45	; 69	'E'
      007FF6 47                    4270 	.db #0x47	; 71	'G'
      007FF7 41                    4271 	.db #0x41	; 65	'A'
      007FF8 FF                    4272 	.db #0xff	; 255
      007FF9 FF                    4273 	.db #0xff	; 255
      007FFA FF                    4274 	.db #0xff	; 255
      007FFB FF                    4275 	.db #0xff	; 255
      007FFC 99                    4276 	.db #0x99	; 153
      007FFD 99                    4277 	.db #0x99	; 153
      007FFE 00                    4278 	.db #0x00	; 0
      007FFF 4C                    4279 	.db #0x4c	; 76	'L'
      007FD7                       4280 	.org 0x7FD7
                           007FD7  4281 G$__SMS__SDSC_author$0_0$0 == .
      007FD7                       4282 ___SMS__SDSC_author:
      007FD7 73 74 65 76 65 70 72  4283 	.ascii "stevepro"
             6F
      007FDF 00                    4284 	.db 0x00
      007FCF                       4285 	.org 0x7FCF
                           007FCF  4286 G$__SMS__SDSC_name$0_0$0 == .
      007FCF                       4287 ___SMS__SDSC_name:
      007FCF 47 53 4C 64 65 6D 6F  4288 	.ascii "GSLdemo"
      007FD6 00                    4289 	.db 0x00
      007FA1                       4290 	.org 0x7FA1
                           007FA1  4291 G$__SMS__SDSC_descr$0_0$0 == .
      007FA1                       4292 ___SMS__SDSC_descr:
      007FA1 53 4D 53 20 50 6F 77  4293 	.ascii "SMS Power tutorial for General Scroll Library"
             65 72 20 74 75 74 6F
             72 69 61 6C 20 66 6F
             72 20 47 65 6E 65 72
             61 6C 20 53 63 72 6F
             6C 6C 20 4C 69 62 72
             61 72 79
      007FCE 00                    4294 	.db 0x00
      007FE0                       4295 	.org 0x7FE0
                           007FE0  4296 G$__SMS__SDSC_signature$0_0$0 == .
      007FE0                       4297 ___SMS__SDSC_signature:
      007FE0 53                    4298 	.db #0x53	; 83	'S'
      007FE1 44                    4299 	.db #0x44	; 68	'D'
      007FE2 53                    4300 	.db #0x53	; 83	'S'
      007FE3 43                    4301 	.db #0x43	; 67	'C'
      007FE4 01                    4302 	.db #0x01	; 1
      007FE5 00                    4303 	.db #0x00	; 0
      007FE6 21                    4304 	.db #0x21	; 33
      007FE7 07                    4305 	.db #0x07	; 7
      007FE8 22                    4306 	.db #0x22	; 34
      007FE9 20                    4307 	.db #0x20	; 32
      007FEA D7                    4308 	.db #0xd7	; 215
      007FEB 7F                    4309 	.db #0x7f	; 127
      007FEC CF                    4310 	.db #0xcf	; 207
      007FED 7F                    4311 	.db #0x7f	; 127
      007FEE A1                    4312 	.db #0xa1	; 161
      007FEF 7F                    4313 	.db #0x7f	; 127
