ASxxxx Linker V03.00 + NoICE + sdld,  page 1.
Hexadecimal  [32-Bits]

Area                                    Addr        Size        Decimal Bytes (Attributes)
--------------------------------        ----        ----        ------- ----- ------------
.  .ABS.                            00000000    00000000 =           0. bytes (ABS,CON)

      Value  Global                              Global Defined In Module
      -----  --------------------------------   ------------------------
     00000000  .__.ABS.                           SMSlib_loadTileMap
     00000000  l__BSEG                         
     00000000  l__BSS                          
     00000000  l__CABS                         
     00000000  l__DABS                         
     00000000  l__HEADER                       
     00000000  l__HEAP                         
     00000000  l__HOME                         
     00000000  s__CABS                         
     00000000  s__CABS0                        
     00000000  s__CABS1                        
     00000000  s__CABS2                        
     00000000  s__CABS3                        
     00000000  s__CABS4                        
     00000000  s__DABS                         
     00000000  s__HEADER                       
     00000000  s__HEADER0                      
     00000000  s__HEADER1                      
     00000000  s__HEADER2                      
     00000000  s__HEADER3                      
     00000000  s__HEADER4                      
     00000000  s__HEADER5                      
     00000001  l__GSFINAL                      
     00000003  l__HEADER3                      
     00000003  l__HEADER4                      
     00000004  l__INITIALIZED                  
     00000004  l__INITIALIZER                  
     00000006  l__HEADER0                      
     00000009  l__HEADER1                      
     0000000A  l__HEADER2                      
     0000000E  l__CABS1                        
     0000000E  l__CABS2                        
     0000000F  l__GSINIT                       
     00000010  l__CABS0                        
     00000010  l__CABS4                        
     00000038  l__CABS3                        
     000000EB  l__DATA                         
     0000012A  l__HEADER5                      
     00000200  s__CODE                         
     00001326  l__CODE                         
     00001526  s__HOME                         
     00001526  s__INITIALIZER                  
     0000152A  s__GSINIT                       
     00001539  s__GSFINAL                      
     00008000  _SMS_SRAM                          SMSlib_loadTileMap
     0000C000  s__DATA                         
     0000C0EB  s__INITIALIZED                  
     0000C0EF  s__BSEG                         
     0000C0EF  s__BSS                          
     0000C0EF  s__HEAP                         
ASxxxx Linker V03.00 + NoICE + sdld,  page 2.
Hexadecimal  [32-Bits]

Area                                    Addr        Size        Decimal Bytes (Attributes)
--------------------------------        ----        ----        ------- ----- ------------
.  .ABS.                            00000000    00000000 =           0. bytes (ABS,CON)

      Value  Global                              Global Defined In Module
      -----  --------------------------------   ------------------------
     0000FFFC  _SRAM_bank_to_be_mapped_on_slot2   SMSlib_loadTileMap
     0000FFFF  _ROM_bank_to_be_mapped_on_slot2    SMSlib_loadTileMap

ASxxxx Linker V03.00 + NoICE + sdld,  page 3.
Hexadecimal  [32-Bits]

Area                                    Addr        Size        Decimal Bytes (Attributes)
--------------------------------        ----        ----        ------- ----- ------------
_CODE                               00000200    00001326 =        4902. bytes (REL,CON)

      Value  Global                              Global Defined In Module
      -----  --------------------------------   ------------------------
     00000200  __clock                            crt0
     00000204  _exit                              crt0
     0000020A  _main                              main
     00000221  _devkit_SMS_init                   _sms_manager
     00000224  _devkit_SMS_displayOn              _sms_manager
     0000022A  _devkit_SMS_displayOff             _sms_manager
     00000230  _devkit_SMS_mapROMBank             _sms_manager
     0000023D  _devkit_SMS_setBGScrollX           _sms_manager
     00000249  _devkit_SMS_setBGScrollY           _sms_manager
     00000255  _devkit_SMS_enableSRAM             _sms_manager
     0000025B  _devkit_SMS_enableSRAMBank         _sms_manager
     0000026E  _devkit_SMS_disableSRAM            _sms_manager
     00000274  _devkit_SMS_setSpriteMode          _sms_manager
     00000280  _devkit_SMS_useFirstHalfTilesfor   _sms_manager
     00000285  _devkit_SMS_useFirstHalfTilesfor   _sms_manager
     0000028A  _devkit_SMS_VDPturnOnFeature       _sms_manager
     00000299  _devkit_SMS_loadPSGaidencompress   _sms_manager
     000002B3  _devkit_SMS_loadSTMcompressedTil   _sms_manager
     000002D7  _devkit_SMS_loadBGPalette          _sms_manager
     000002E6  _devkit_SMS_loadSpritePalette      _sms_manager
     000002F5  _devkit_SMS_setSpritePaletteColo   _sms_manager
     0000031E  _devkit_SMS_setNextTileatXY        _sms_manager
     00000348  _devkit_SMS_setTile                _sms_manager
     00000356  _devkit_SMS_loadTileMap            _sms_manager
     00000387  _devkit_SMS_addSprite              _sms_manager
     000003A4  _devkit_SMS_addSprite_bulk8        _sms_manager
     00000478  _devkit_SMS_addSprite_bulk12       _sms_manager
     00000584  _devkit_SMS_initSprites            _sms_manager
     00000587  _devkit_SMS_finalizeSprites        _sms_manager
     0000058A  _devkit_SMS_waitForVBlank          _sms_manager
     0000058D  _devkit_SMS_copySpritestoSAT       _sms_manager
     00000590  _devkit_UNSAFE_SMS_copySpritesto   _sms_manager
     00000593  _devkit_SMS_queryPauseRequested    _sms_manager
     00000596  _devkit_SMS_resetPauseRequest      _sms_manager
     00000599  _devkit_isCollisionDetected        _sms_manager
     000005A0  _devkit_SMS_getKeysStatus          _sms_manager
     000005A3  _devkit_PORT_A_KEY_UP              _sms_manager
     000005A7  _devkit_PORT_A_KEY_DOWN            _sms_manager
     000005AB  _devkit_PORT_A_KEY_LEFT            _sms_manager
     000005AF  _devkit_PORT_A_KEY_RIGHT           _sms_manager
     000005B3  _devkit_PORT_A_KEY_1               _sms_manager
     000005B7  _devkit_PORT_A_KEY_2               _sms_manager
     000005BB  _devkit_SPRITEMODE_NORMAL          _sms_manager
     000005BE  _devkit_VDPFEATURE_HIDEFIRSTCOL    _sms_manager
     00000616  _engine_asm_manager_clear_VRAM     asm_manager
     0000062C  _engine_content_manager_load_spr   content_manager
     0000063E  _engine_content_manager_load_spl   content_manager
     00000661  _splash__palette__bin              gfx
     00000671  _splash__tilemap__stmcompr         gfx
     000006B8  _splash__tiles__psgcompr           gfx
ASxxxx Linker V03.00 + NoICE + sdld,  page 4.
Hexadecimal  [32-Bits]

Area                                    Addr        Size        Decimal Bytes (Attributes)
--------------------------------        ----        ----        ------- ----- ------------
_CODE                               00000200    00001326 =        4902. bytes (REL,CON)

      Value  Global                              Global Defined In Module
      -----  --------------------------------   ------------------------
     00000EE1  _UNSAFE_SMS_copySpritestoSAT       SMSlib_UNSAFE
     00000EF9  _UNSAFE_SMS_VRAMmemcpy32           SMSlib_UNSAFE
     00000F16  _UNSAFE_SMS_VRAMmemcpy64           SMSlib_UNSAFE
     00000F33  _UNSAFE_SMS_VRAMmemcpy128          SMSlib_UNSAFE
     00000F50  _SMS_init                          SMSlib
     00000FA4  _VDPReg_init                       SMSlib
     00000FAF  _SMS_VDPType                       SMSlib
     00000FB7  _SMS_VDPturnOnFeature              SMSlib
     00000FCE  _SMS_VDPturnOffFeature             SMSlib
     00000FE7  _SMS_setBGScrollX                  SMSlib
     00000FF1  _SMS_setBGScrollY                  SMSlib
     00000FFB  _SMS_setBackdropColor              SMSlib
     00001005  _SMS_useFirstHalfTilesforSprites   SMSlib
     00001019  _SMS_setSpriteMode                 SMSlib
     0000105E  _SMS_setBGPaletteColor             SMSlib
     00001072  _SMS_setSpritePaletteColor         SMSlib
     00001086  _SMS_loadBGPalette                 SMSlib
     0000109A  _SMS_loadSpritePalette             SMSlib
     000010AE  _SMS_setColor                      SMSlib
     000010B2  _SMS_initSprites                   SMSlib
     000010B8  _SMS_addSprite                     SMSlib
     0000110D  _SMS_finalizeSprites               SMSlib
     0000111F  _SMS_copySpritestoSAT              SMSlib
     00001148  _SMS_waitForVBlank                 SMSlib
     00001155  _SMS_getKeysStatus                 SMSlib
     00001159  _SMS_getKeysPressed                SMSlib
     00001176  _SMS_getKeysHeld                   SMSlib
     0000118D  _SMS_getKeysReleased               SMSlib
     000011AA  _SMS_queryPauseRequested           SMSlib
     000011B2  _SMS_resetPauseRequest             SMSlib
     000011B8  _SMS_setLineInterruptHandler       SMSlib
     000011C9  _SMS_setLineCounter                SMSlib
     000011D8  _SMS_getVCount                     SMSlib
     000011DC  _SMS_getHCount                     SMSlib
     000011E0  _SMS_isr                           SMSlib
     00001216  _SMS_nmi_isr                       SMSlib
     00001229  _SMS_loadSTMcompressedTileMapAre   SMSlib_STMcomp
     0000140A  ___sdcc_call_hl                    
     0000140B  _SMS_loadPSGaidencompressedTiles   SMSlib_PSGaiden
     000014ED  _SMS_loadTileMap                   SMSlib_loadTileMap
ASxxxx Linker V03.00 + NoICE + sdld,  page 5.
Hexadecimal  [32-Bits]

Area                                    Addr        Size        Decimal Bytes (Attributes)
--------------------------------        ----        ----        ------- ----- ------------
_HEADER0                            00000000    00000006 =           6. bytes (ABS,CON)

      Value  Global                              Global Defined In Module
      -----  --------------------------------   ------------------------
     00000006  _SMS_crt0_RST08                    crt0

ASxxxx Linker V03.00 + NoICE + sdld,  page 6.
Hexadecimal  [32-Bits]

Area                                    Addr        Size        Decimal Bytes (Attributes)
--------------------------------        ----        ----        ------- ----- ------------
_HEADER1                            00000000    00000009 =           9. bytes (ABS,CON)

      Value  Global                              Global Defined In Module
      -----  --------------------------------   ------------------------
     00000011  _SMS_crt0_RST18                    crt0

ASxxxx Linker V03.00 + NoICE + sdld,  page 7.
Hexadecimal  [32-Bits]

Area                                    Addr        Size        Decimal Bytes (Attributes)
--------------------------------        ----        ----        ------- ----- ------------
_HEADER2                            00000000    0000000A =          10. bytes (ABS,CON)

      Value  Global                              Global Defined In Module
      -----  --------------------------------   ------------------------
ASxxxx Linker V03.00 + NoICE + sdld,  page 8.
Hexadecimal  [32-Bits]

Area                                    Addr        Size        Decimal Bytes (Attributes)
--------------------------------        ----        ----        ------- ----- ------------
_HEADER3                            00000000    00000003 =           3. bytes (ABS,CON)

      Value  Global                              Global Defined In Module
      -----  --------------------------------   ------------------------
ASxxxx Linker V03.00 + NoICE + sdld,  page 9.
Hexadecimal  [32-Bits]

Area                                    Addr        Size        Decimal Bytes (Attributes)
--------------------------------        ----        ----        ------- ----- ------------
_HEADER4                            00000000    00000003 =           3. bytes (ABS,CON)

      Value  Global                              Global Defined In Module
      -----  --------------------------------   ------------------------
ASxxxx Linker V03.00 + NoICE + sdld,  page 10.
Hexadecimal  [32-Bits]

Area                                    Addr        Size        Decimal Bytes (Attributes)
--------------------------------        ----        ----        ------- ----- ------------
_HEADER5                            00000000    0000012A =         298. bytes (ABS,CON)

      Value  Global                              Global Defined In Module
      -----  --------------------------------   ------------------------
     00000099  _OUTI128                           crt0
     00000119  _OUTI64                            crt0
     00000159  _OUTI32                            crt0
     00000199  _outi_block                        crt0

ASxxxx Linker V03.00 + NoICE + sdld,  page 11.
Hexadecimal  [32-Bits]

Area                                    Addr        Size        Decimal Bytes (Attributes)
--------------------------------        ----        ----        ------- ----- ------------
_INITIALIZER                        00001526    00000004 =           4. bytes (REL,CON)

      Value  Global                              Global Defined In Module
      -----  --------------------------------   ------------------------
ASxxxx Linker V03.00 + NoICE + sdld,  page 12.
Hexadecimal  [32-Bits]

Area                                    Addr        Size        Decimal Bytes (Attributes)
--------------------------------        ----        ----        ------- ----- ------------
_GSINIT                             0000152A    0000000F =          15. bytes (REL,CON)

      Value  Global                              Global Defined In Module
      -----  --------------------------------   ------------------------
     0000152A  gsinit                             crt0

ASxxxx Linker V03.00 + NoICE + sdld,  page 13.
Hexadecimal  [32-Bits]

Area                                    Addr        Size        Decimal Bytes (Attributes)
--------------------------------        ----        ----        ------- ----- ------------
_GSFINAL                            00001539    00000001 =           1. bytes (REL,CON)

      Value  Global                              Global Defined In Module
      -----  --------------------------------   ------------------------
ASxxxx Linker V03.00 + NoICE + sdld,  page 14.
Hexadecimal  [32-Bits]

Area                                    Addr        Size        Decimal Bytes (Attributes)
--------------------------------        ----        ----        ------- ----- ------------
_DATA                               0000C000    000000EB =         235. bytes (REL,CON)

      Value  Global                              Global Defined In Module
      -----  --------------------------------   ------------------------
     0000C000  _VDPBlank                          SMSlib
     0000C001  _SMS_VDPFlags                      SMSlib
     0000C002  _PauseRequested                    SMSlib
     0000C003  _VDPType                           SMSlib
     0000C004  _KeysStatus                        SMSlib
     0000C006  _PreviousKeysStatus                SMSlib
     0000C008  _SpriteTableY                      SMSlib
     0000C048  _SpriteTableXN                     SMSlib
     0000C0C8  _SpriteNextFree                    SMSlib
     0000C0C9  _SMS_theLineInterruptHandler       SMSlib
     0000C0CB  _decompBuffer                      SMSlib_PSGaiden

ASxxxx Linker V03.00 + NoICE + sdld,  page 15.
Hexadecimal  [32-Bits]

Area                                    Addr        Size        Decimal Bytes (Attributes)
--------------------------------        ----        ----        ------- ----- ------------
_INITIALIZED                        0000C0EB    00000004 =           4. bytes (REL,CON)

      Value  Global                              Global Defined In Module
      -----  --------------------------------   ------------------------
     0000C0EB  _VDPReg                            SMSlib
     0000C0ED  _spritesHeight                     SMSlib
     0000C0EE  _spritesWidth                      SMSlib
ASxxxx Linker V03.00 + NoICE + sdld,  page 16.
Hexadecimal  [32-Bits]

Area                                    Addr        Size        Decimal Bytes (Attributes)
--------------------------------        ----        ----        ------- ----- ------------
_CABS0                              00000000    00000010 =          16. bytes (ABS,CON)

      Value  Global                              Global Defined In Module
      -----  --------------------------------   ------------------------
     00007FF0  ___SMS__SEGA_signature             _sms_manager

ASxxxx Linker V03.00 + NoICE + sdld,  page 17.
Hexadecimal  [32-Bits]

Area                                    Addr        Size        Decimal Bytes (Attributes)
--------------------------------        ----        ----        ------- ----- ------------
_CABS1                              00000000    0000000E =          14. bytes (ABS,CON)

      Value  Global                              Global Defined In Module
      -----  --------------------------------   ------------------------
     00007FD2  ___SMS__SDSC_author                _sms_manager

ASxxxx Linker V03.00 + NoICE + sdld,  page 18.
Hexadecimal  [32-Bits]

Area                                    Addr        Size        Decimal Bytes (Attributes)
--------------------------------        ----        ----        ------- ----- ------------
_CABS2                              00000000    0000000E =          14. bytes (ABS,CON)

      Value  Global                              Global Defined In Module
      -----  --------------------------------   ------------------------
     00007FC4  ___SMS__SDSC_name                  _sms_manager

ASxxxx Linker V03.00 + NoICE + sdld,  page 19.
Hexadecimal  [32-Bits]

Area                                    Addr        Size        Decimal Bytes (Attributes)
--------------------------------        ----        ----        ------- ----- ------------
_CABS3                              00000000    00000038 =          56. bytes (ABS,CON)

      Value  Global                              Global Defined In Module
      -----  --------------------------------   ------------------------
     00007F8C  ___SMS__SDSC_descr                 _sms_manager

ASxxxx Linker V03.00 + NoICE + sdld,  page 20.
Hexadecimal  [32-Bits]

Area                                    Addr        Size        Decimal Bytes (Attributes)
--------------------------------        ----        ----        ------- ----- ------------
_CABS4                              00000000    00000010 =          16. bytes (ABS,CON)

      Value  Global                              Global Defined In Module
      -----  --------------------------------   ------------------------
     00007FE0  ___SMS__SDSC_signature             _sms_manager

ASxxxx Linker V03.00 + NoICE + sdld,  page 21.

Files Linked                              [ module(s) ]

../crt0/crt0_sms.rel                      [ crt0 ]
main.rel                                  [ main ]
devkit/_sms_manager.rel                   [ _sms_manager ]
engine/asm_manager.rel                    [ asm_manager ]
engine/content_manager.rel                [ content_manager ]
gfx.rel                                   [ gfx ]


Libraries Linked                          [ object file ]

../lib/SMSlib.lib                         [ SMSlib_UNSAFE.rel ]
../lib/SMSlib.lib                         [ SMSlib.rel ]
../lib/SMSlib.lib                         [ SMSlib_STMcomp.rel ]
/home/stevepro/sdcc/bin/../share/sdcc/lib/z80/z80.lib
                                          [ __sdcc_call_hl.rel ]
../lib/SMSlib.lib                         [ SMSlib_PSGaiden.rel ]
../lib/SMSlib.lib                         [ SMSlib_loadTileMap.rel ]

ASxxxx Linker V03.00 + NoICE + sdld,  page 22.

User Base Address Definitions

_CODE = 0x0200
_DATA = 0xc000

