ASxxxx Linker V03.00 + NoICE + sdld,  page 1.
Hexadecimal  [32-Bits]

Area                                    Addr        Size        Decimal Bytes (Attributes)
--------------------------------        ----        ----        ------- ----- ------------
.  .ABS.                            00000000    00000000 =           0. bytes (ABS,CON)

      Value  Global                              Global Defined In Module
      -----  --------------------------------   ------------------------
     00000000  .__.ABS.                           
     00000000  l__BSEG                         
     00000000  l__BSS                          
     00000000  l__CABS                         
     00000000  l__DABS                         
     00000000  l__HEADER                       
     00000000  l__HEAP                         
     00000000  l__HOME                         
     00000000  s__CABS                         
     00000000  s__CABS0                        
     00000000  s__CABS1                        
     00000000  s__CABS2                        
     00000000  s__CABS3                        
     00000000  s__CABS4                        
     00000000  s__DABS                         
     00000000  s__HEADER                       
     00000000  s__HEADER0                      
     00000000  s__HEADER1                      
     00000000  s__HEADER2                      
     00000000  s__HEADER3                      
     00000000  s__HEADER4                      
     00000000  s__HEADER5                      
     00000001  l__GSFINAL                      
     00000003  l__HEADER3                      
     00000003  l__HEADER4                      
     00000006  l__HEADER0                      
     00000009  l__HEADER1                      
     0000000A  l__HEADER2                      
     0000000C  l__INITIALIZED                  
     0000000C  l__INITIALIZER                  
     0000000E  l__CABS1                        
     0000000F  l__GSINIT                       
     00000010  l__CABS0                        
     00000010  l__CABS2                        
     00000010  l__CABS4                        
     00000038  l__CABS3                        
     000000BE  G$VDPDataPort$0_0$0                asm_manager
     000000BF  G$VDPControlPort$0_0$0             asm_manager
     0000012A  l__HEADER5                      
     00000200  s__CODE                         
     0000031C  l__DATA                         
     00003D43  l__CODE                         
     00003F43  s__HOME                         
     00003F43  s__INITIALIZER                  
     00003F4F  s__GSINIT                       
     00003F5E  s__GSFINAL                      
     00008000  G$SMS_SRAM$0_0$0                   _sms_manager
     00008000  _SMS_SRAM                          SMSlib_loadTileMap
     0000C000  s__DATA                         
     0000C31C  s__INITIALIZED                  
ASxxxx Linker V03.00 + NoICE + sdld,  page 2.
Hexadecimal  [32-Bits]

Area                                    Addr        Size        Decimal Bytes (Attributes)
--------------------------------        ----        ----        ------- ----- ------------
.  .ABS.                            00000000    00000000 =           0. bytes (ABS,CON)

      Value  Global                              Global Defined In Module
      -----  --------------------------------   ------------------------
     0000C328  s__BSEG                         
     0000C328  s__BSS                          
     0000C328  s__HEAP                         
     0000FFFC  G$SRAM_bank_to_be_mapped_on_slot   _sms_manager
     0000FFFC  _SRAM_bank_to_be_mapped_on_slot2   SMSlib_loadTileMap
     0000FFFF  G$ROM_bank_to_be_mapped_on_slot2   _sms_manager
     0000FFFF  _ROM_bank_to_be_mapped_on_slot2    SMSlib_loadTileMap
ASxxxx Linker V03.00 + NoICE + sdld,  page 3.
Hexadecimal  [32-Bits]

Area                                    Addr        Size        Decimal Bytes (Attributes)
--------------------------------        ----        ----        ------- ----- ------------
_CODE                               00000200    00003D43 =       15683. bytes (REL,CON)

      Value  Global                              Global Defined In Module
      -----  --------------------------------   ------------------------
     00000200  __clock                            crt0
     00000204  _exit                              crt0
     0000020A  A$main$83                          main
     0000020A  C$main.c$3$0_0$66                  main
     0000020A  C$main.c$9$1_0$66                  main
     0000020A  G$main$0$0                         main
     0000020A  _main                              main
     0000020D  A$main$87                          main
     0000020D  C$main.c$10$1_0$66                 main
     00000210  A$main$91                          main
     00000210  C$main.c$11$1_0$66                 main
     00000213  A$main$95                          main
     00000213  C$main.c$13$1_0$66                 main
     00000216  A$main$96                          main
     00000217  A$main$97                          main
     00000218  A$main$98                          main
     00000219  A$main$99                          main
     0000021C  A$main$100                         main
     0000021D  A$main$104                         main
     0000021D  C$main.c$14$1_0$66                 main
     00000220  A$main$108                         main
     00000220  C$main.c$15$1_0$66                 main
     00000223  A$main$109                         main
     00000224  A$main$110                         main
     00000227  A$main$111                         main
     00000228  A$main$115                         main
     00000228  C$main.c$17$1_0$66                 main
     0000022B  A$main$119                         main
     0000022B  C$main.c$18$1_0$66                 main
     0000022E  A$main$123                         main
     0000022E  C$main.c$21$1_0$66                 main
     00000230  A$main$124                         main
     00000231  A$main$125                         main
     00000232  A$main$126                         main
     00000235  A$main$127                         main
     00000236  A$main$131                         main
     00000236  C$main.c$23$1_0$66                 main
     00000239  A$main$136                         main
     00000239  C$main.c$26$3_0$68                 main
     0000023C  A$main$137                         main
     0000023D  A$main$138                         main
     0000023E  A$main$139                         main
     00000240  A$main$143                         main
     00000240  C$main.c$28$4_0$69                 main
     00000243  A$main$147                         main
     00000243  C$main.c$29$4_0$69                 main
     00000247  A$main$148                         main
     0000024A  A$main$149                         main
     0000024C  A$main$150                         main
     0000024F  A$main$154                         main
ASxxxx Linker V03.00 + NoICE + sdld,  page 4.
Hexadecimal  [32-Bits]

Area                                    Addr        Size        Decimal Bytes (Attributes)
--------------------------------        ----        ----        ------- ----- ------------
_CODE                               00000200    00003D43 =       15683. bytes (REL,CON)

      Value  Global                              Global Defined In Module
      -----  --------------------------------   ------------------------
     0000024F  C$main.c$30$4_0$69                 main
     00000253  A$main$155                         main
     00000255  A$main$159                         main
     00000255  C$main.c$32$5_0$70                 main
     00000258  A$main$160                         main
     00000259  A$main$161                         main
     0000025C  A$main$162                         main
     0000025D  A$main$163                         main
     00000260  A$main$164                         main
     00000261  A$main$165                         main
     00000262  A$main$169                         main
     00000262  C$main.c$33$5_0$70                 main
     00000265  A$main$170                         main
     00000267  A$main$175                         main
     00000267  C$main.c$37$5_0$71                 main
     0000026A  A$main$176                         main
     0000026B  A$main$177                         main
     0000026E  A$main$178                         main
     0000026F  A$main$179                         main
     00000272  A$main$180                         main
     00000273  A$main$181                         main
     00000274  A$main$185                         main
     00000274  C$main.c$38$5_0$71                 main
     00000277  A$main$190                         main
     00000277  C$main.c$42$3_0$68                 main
     0000027A  A$main$191                         main
     0000027C  A$main$192                         main
     0000027E  A$main$196                         main
     0000027E  C$main.c$47$3_0$68                 main
     00000281  A$main$200                         main
     00000281  C$main.c$48$3_0$68                 main
     00000284  A$main$204                         main
     00000284  C$main.c$49$3_0$68                 main
     00000287  A$main$208                         main
     00000287  C$main.c$51$3_0$68                 main
     0000028A  A$main$212                         main
     0000028A  C$main.c$52$3_0$68                 main
     0000028D  A$main$216                         main
     0000028D  C$main.c$53$3_0$68                 main
     00000290  A$main$220                         main
     00000290  C$main.c$55$3_0$68                 main
     00000293  A$main$224                         main
     00000293  C$main.c$56$3_0$68                 main
     00000296  A$main$232                         main
     00000296  C$main.c$58$2_0$66                 main
     00000296  XG$main$0$0                        main
     00000298  Fmain$__str_0$0_0$0                main
     000002A1  Fmain$__str_1$0_0$0                main
     000002AA  _PSGStop                           PSGlib
     000002D1  _PSGResume                         PSGlib
     0000031D  _PSGPlay                           PSGlib
ASxxxx Linker V03.00 + NoICE + sdld,  page 5.
Hexadecimal  [32-Bits]

Area                                    Addr        Size        Decimal Bytes (Attributes)
--------------------------------        ----        ----        ------- ----- ------------
_CODE                               00000200    00003D43 =       15683. bytes (REL,CON)

      Value  Global                              Global Defined In Module
      -----  --------------------------------   ------------------------
     0000034A  _PSGCancelLoop                     PSGlib
     00000350  _PSGPlayNoRepeat                   PSGlib
     0000035F  _PSGGetStatus                      PSGlib
     00000367  _PSGSilenceChannels                PSGlib
     00000378  _PSGRestoreVolumes                 PSGlib
     00000449  _PSGSetMusicVolumeAttenuation      PSGlib
     0000050E  _PSGSFXStop                        PSGlib
     000005C7  _PSGSFXPlay                        PSGlib
     00000614  _PSGSFXCancelLoop                  PSGlib
     0000061A  _PSGSFXGetStatus                   PSGlib
     00000622  _PSGSFXPlayLoop                    PSGlib
     0000063C  _PSGFrame                          PSGlib
     00000755  _PSGSFXFrame                       PSGlib
     000007DB  A$_sms_manager$139                 _sms_manager
     000007DB  C$_sms_manager.c$12$0_0$75         _sms_manager
     000007DB  C$_sms_manager.c$14$1_0$75         _sms_manager
     000007DB  C$_sms_manager.c$15$1_0$75         _sms_manager
     000007DB  G$devkit_SMS_init$0$0              _sms_manager
     000007DB  XG$devkit_SMS_init$0$0             _sms_manager
     000007DB  _devkit_SMS_init                   _sms_manager
     000007DE  A$_sms_manager$152                 _sms_manager
     000007DE  C$_sms_manager.c$16$1_0$76         _sms_manager
     000007DE  C$_sms_manager.c$18$1_0$76         _sms_manager
     000007DE  G$devkit_SMS_displayOn$0$0         _sms_manager
     000007DE  _devkit_SMS_displayOn              _sms_manager
     000007E1  A$_sms_manager$160                 _sms_manager
     000007E1  C$_sms_manager.c$19$1_0$76         _sms_manager
     000007E1  XG$devkit_SMS_displayOn$0$0        _sms_manager
     000007E4  A$_sms_manager$173                 _sms_manager
     000007E4  C$_sms_manager.c$20$1_0$77         _sms_manager
     000007E4  C$_sms_manager.c$22$1_0$77         _sms_manager
     000007E4  G$devkit_SMS_displayOff$0$0        _sms_manager
     000007E4  _devkit_SMS_displayOff             _sms_manager
     000007E7  A$_sms_manager$181                 _sms_manager
     000007E7  C$_sms_manager.c$23$1_0$77         _sms_manager
     000007E7  XG$devkit_SMS_displayOff$0$0       _sms_manager
     000007EA  A$_sms_manager$194                 _sms_manager
     000007EA  C$_sms_manager.c$24$1_0$79         _sms_manager
     000007EA  C$_sms_manager.c$26$1_0$79         _sms_manager
     000007EA  G$devkit_SMS_mapROMBank$0$0        _sms_manager
     000007EA  _devkit_SMS_mapROMBank             _sms_manager
     000007EE  A$_sms_manager$195                 _sms_manager
     000007F0  A$_sms_manager$196                 _sms_manager
     000007F3  A$_sms_manager$197                 _sms_manager
     000007F6  A$_sms_manager$205                 _sms_manager
     000007F6  C$_sms_manager.c$27$1_0$79         _sms_manager
     000007F6  XG$devkit_SMS_mapROMBank$0$0       _sms_manager
     000007F7  A$_sms_manager$218                 _sms_manager
     000007F7  C$_sms_manager.c$29$1_0$81         _sms_manager
     000007F7  C$_sms_manager.c$31$1_0$81         _sms_manager
     000007F7  G$devkit_SMS_setBGScrollX$0$0      _sms_manager
ASxxxx Linker V03.00 + NoICE + sdld,  page 6.
Hexadecimal  [32-Bits]

Area                                    Addr        Size        Decimal Bytes (Attributes)
--------------------------------        ----        ----        ------- ----- ------------
_CODE                               00000200    00003D43 =       15683. bytes (REL,CON)

      Value  Global                              Global Defined In Module
      -----  --------------------------------   ------------------------
     000007F7  _devkit_SMS_setBGScrollX           _sms_manager
     000007FB  A$_sms_manager$219                 _sms_manager
     000007FD  A$_sms_manager$220                 _sms_manager
     00000800  A$_sms_manager$228                 _sms_manager
     00000800  C$_sms_manager.c$32$1_0$81         _sms_manager
     00000800  XG$devkit_SMS_setBGScrollX$0$0     _sms_manager
     00000803  A$_sms_manager$241                 _sms_manager
     00000803  C$_sms_manager.c$33$1_0$83         _sms_manager
     00000803  C$_sms_manager.c$35$1_0$83         _sms_manager
     00000803  G$devkit_SMS_setBGScrollY$0$0      _sms_manager
     00000803  _devkit_SMS_setBGScrollY           _sms_manager
     00000807  A$_sms_manager$242                 _sms_manager
     00000809  A$_sms_manager$243                 _sms_manager
     0000080C  A$_sms_manager$251                 _sms_manager
     0000080C  C$_sms_manager.c$36$1_0$83         _sms_manager
     0000080C  XG$devkit_SMS_setBGScrollY$0$0     _sms_manager
     0000080F  A$_sms_manager$264                 _sms_manager
     0000080F  C$_sms_manager.c$38$1_0$84         _sms_manager
     0000080F  C$_sms_manager.c$40$1_0$84         _sms_manager
     0000080F  G$devkit_SMS_enableSRAM$0$0        _sms_manager
     0000080F  _devkit_SMS_enableSRAM             _sms_manager
     00000811  A$_sms_manager$265                 _sms_manager
     00000814  A$_sms_manager$273                 _sms_manager
     00000814  C$_sms_manager.c$41$1_0$84         _sms_manager
     00000814  XG$devkit_SMS_enableSRAM$0$0       _sms_manager
     00000815  A$_sms_manager$286                 _sms_manager
     00000815  C$_sms_manager.c$42$1_0$86         _sms_manager
     00000815  C$_sms_manager.c$44$1_0$86         _sms_manager
     00000815  G$devkit_SMS_enableSRAMBank$0$0    _sms_manager
     00000815  _devkit_SMS_enableSRAMBank         _sms_manager
     00000819  A$_sms_manager$287                 _sms_manager
     0000081B  A$_sms_manager$288                 _sms_manager
     0000081E  A$_sms_manager$289                 _sms_manager
     0000081F  A$_sms_manager$290                 _sms_manager
     00000820  A$_sms_manager$291                 _sms_manager
     00000822  A$_sms_manager$292                 _sms_manager
     00000824  A$_sms_manager$293                 _sms_manager
     00000827  A$_sms_manager$301                 _sms_manager
     00000827  C$_sms_manager.c$45$1_0$86         _sms_manager
     00000827  XG$devkit_SMS_enableSRAMBank$0$0   _sms_manager
     00000828  A$_sms_manager$314                 _sms_manager
     00000828  C$_sms_manager.c$46$1_0$87         _sms_manager
     00000828  C$_sms_manager.c$48$1_0$87         _sms_manager
     00000828  G$devkit_SMS_disableSRAM$0$0       _sms_manager
     00000828  _devkit_SMS_disableSRAM            _sms_manager
     0000082A  A$_sms_manager$315                 _sms_manager
     0000082D  A$_sms_manager$323                 _sms_manager
     0000082D  C$_sms_manager.c$49$1_0$87         _sms_manager
     0000082D  XG$devkit_SMS_disableSRAM$0$0      _sms_manager
     0000082E  A$_sms_manager$336                 _sms_manager
     0000082E  C$_sms_manager.c$52$1_0$89         _sms_manager
ASxxxx Linker V03.00 + NoICE + sdld,  page 7.
Hexadecimal  [32-Bits]

Area                                    Addr        Size        Decimal Bytes (Attributes)
--------------------------------        ----        ----        ------- ----- ------------
_CODE                               00000200    00003D43 =       15683. bytes (REL,CON)

      Value  Global                              Global Defined In Module
      -----  --------------------------------   ------------------------
     0000082E  C$_sms_manager.c$54$1_0$89         _sms_manager
     0000082E  G$devkit_SMS_setSpriteMode$0$0     _sms_manager
     0000082E  _devkit_SMS_setSpriteMode          _sms_manager
     00000832  A$_sms_manager$337                 _sms_manager
     00000834  A$_sms_manager$338                 _sms_manager
     00000837  A$_sms_manager$346                 _sms_manager
     00000837  C$_sms_manager.c$55$1_0$89         _sms_manager
     00000837  XG$devkit_SMS_setSpriteMode$0$0    _sms_manager
     0000083A  A$_sms_manager$359                 _sms_manager
     0000083A  C$_sms_manager.c$56$1_0$90         _sms_manager
     0000083A  C$_sms_manager.c$58$1_0$90         _sms_manager
     0000083A  G$devkit_SMS_useFirstHalfTilesfo   _sms_manager
     0000083A  _devkit_SMS_useFirstHalfTilesfor   _sms_manager
     0000083C  A$_sms_manager$367                 _sms_manager
     0000083C  C$_sms_manager.c$59$1_0$90         _sms_manager
     0000083C  XG$devkit_SMS_useFirstHalfTilesf   _sms_manager
     0000083F  A$_sms_manager$380                 _sms_manager
     0000083F  C$_sms_manager.c$60$1_0$91         _sms_manager
     0000083F  C$_sms_manager.c$62$1_0$91         _sms_manager
     0000083F  G$devkit_SMS_useFirstHalfTilesfo   _sms_manager
     0000083F  _devkit_SMS_useFirstHalfTilesfor   _sms_manager
     00000841  A$_sms_manager$388                 _sms_manager
     00000841  C$_sms_manager.c$63$1_0$91         _sms_manager
     00000841  XG$devkit_SMS_useFirstHalfTilesf   _sms_manager
     00000844  A$_sms_manager$401                 _sms_manager
     00000844  C$_sms_manager.c$64$1_0$93         _sms_manager
     00000844  C$_sms_manager.c$66$1_0$93         _sms_manager
     00000844  G$devkit_SMS_VDPturnOnFeature$0$   _sms_manager
     00000844  _devkit_SMS_VDPturnOnFeature       _sms_manager
     00000848  A$_sms_manager$402                 _sms_manager
     0000084A  A$_sms_manager$403                 _sms_manager
     0000084D  A$_sms_manager$404                 _sms_manager
     00000850  A$_sms_manager$412                 _sms_manager
     00000850  C$_sms_manager.c$67$1_0$93         _sms_manager
     00000850  XG$devkit_SMS_VDPturnOnFeature$0   _sms_manager
     00000853  A$_sms_manager$425                 _sms_manager
     00000853  C$_sms_manager.c$69$1_0$95         _sms_manager
     00000853  C$_sms_manager.c$71$1_0$95         _sms_manager
     00000853  G$devkit_SMS_loadPSGaidencompres   _sms_manager
     00000853  _devkit_SMS_loadPSGaidencompress   _sms_manager
     00000857  A$_sms_manager$426                 _sms_manager
     00000859  A$_sms_manager$427                 _sms_manager
     0000085C  A$_sms_manager$428                 _sms_manager
     0000085F  A$_sms_manager$429                 _sms_manager
     00000860  A$_sms_manager$430                 _sms_manager
     00000863  A$_sms_manager$431                 _sms_manager
     00000866  A$_sms_manager$432                 _sms_manager
     00000867  A$_sms_manager$433                 _sms_manager
     0000086A  A$_sms_manager$434                 _sms_manager
     0000086B  A$_sms_manager$435                 _sms_manager
     0000086C  A$_sms_manager$443                 _sms_manager
ASxxxx Linker V03.00 + NoICE + sdld,  page 8.
Hexadecimal  [32-Bits]

Area                                    Addr        Size        Decimal Bytes (Attributes)
--------------------------------        ----        ----        ------- ----- ------------
_CODE                               00000200    00003D43 =       15683. bytes (REL,CON)

      Value  Global                              Global Defined In Module
      -----  --------------------------------   ------------------------
     0000086C  C$_sms_manager.c$72$1_0$95         _sms_manager
     0000086C  XG$devkit_SMS_loadPSGaidencompre   _sms_manager
     0000086D  A$_sms_manager$456                 _sms_manager
     0000086D  C$_sms_manager.c$73$1_0$97         _sms_manager
     0000086D  C$_sms_manager.c$75$1_0$97         _sms_manager
     0000086D  G$devkit_SMS_loadSTMcompressedTi   _sms_manager
     0000086D  _devkit_SMS_loadSTMcompressedTil   _sms_manager
     0000086F  A$_sms_manager$457                 _sms_manager
     00000870  A$_sms_manager$458                 _sms_manager
     00000871  A$_sms_manager$459                 _sms_manager
     00000875  A$_sms_manager$460                 _sms_manager
     00000877  A$_sms_manager$461                 _sms_manager
     0000087A  A$_sms_manager$462                 _sms_manager
     0000087D  A$_sms_manager$463                 _sms_manager
     0000087E  A$_sms_manager$464                 _sms_manager
     00000881  A$_sms_manager$465                 _sms_manager
     00000883  A$_sms_manager$466                 _sms_manager
     00000884  A$_sms_manager$467                 _sms_manager
     00000885  A$_sms_manager$468                 _sms_manager
     00000888  A$_sms_manager$469                 _sms_manager
     00000889  A$_sms_manager$470                 _sms_manager
     0000088A  A$_sms_manager$471                 _sms_manager
     0000088D  A$_sms_manager$472                 _sms_manager
     0000088E  A$_sms_manager$473                 _sms_manager
     0000088F  A$_sms_manager$474                 _sms_manager
     00000890  A$_sms_manager$482                 _sms_manager
     00000890  C$_sms_manager.c$76$1_0$97         _sms_manager
     00000890  XG$devkit_SMS_loadSTMcompressedT   _sms_manager
     00000891  A$_sms_manager$495                 _sms_manager
     00000891  C$_sms_manager.c$78$1_0$99         _sms_manager
     00000891  C$_sms_manager.c$80$1_0$99         _sms_manager
     00000891  G$devkit_SMS_loadBGPalette$0$0     _sms_manager
     00000891  _devkit_SMS_loadBGPalette          _sms_manager
     00000895  A$_sms_manager$496                 _sms_manager
     00000897  A$_sms_manager$497                 _sms_manager
     0000089A  A$_sms_manager$498                 _sms_manager
     0000089D  A$_sms_manager$506                 _sms_manager
     0000089D  C$_sms_manager.c$81$1_0$99         _sms_manager
     0000089D  XG$devkit_SMS_loadBGPalette$0$0    _sms_manager
     000008A0  A$_sms_manager$519                 _sms_manager
     000008A0  C$_sms_manager.c$82$1_0$101        _sms_manager
     000008A0  C$_sms_manager.c$84$1_0$101        _sms_manager
     000008A0  G$devkit_SMS_loadSpritePalette$0   _sms_manager
     000008A0  _devkit_SMS_loadSpritePalette      _sms_manager
     000008A4  A$_sms_manager$520                 _sms_manager
     000008A6  A$_sms_manager$521                 _sms_manager
     000008A9  A$_sms_manager$522                 _sms_manager
     000008AC  A$_sms_manager$530                 _sms_manager
     000008AC  C$_sms_manager.c$85$1_0$101        _sms_manager
     000008AC  XG$devkit_SMS_loadSpritePalette$   _sms_manager
     000008AF  A$_sms_manager$543                 _sms_manager
ASxxxx Linker V03.00 + NoICE + sdld,  page 9.
Hexadecimal  [32-Bits]

Area                                    Addr        Size        Decimal Bytes (Attributes)
--------------------------------        ----        ----        ------- ----- ------------
_CODE                               00000200    00003D43 =       15683. bytes (REL,CON)

      Value  Global                              Global Defined In Module
      -----  --------------------------------   ------------------------
     000008AF  C$_sms_manager.c$86$1_0$103        _sms_manager
     000008AF  C$_sms_manager.c$88$1_0$103        _sms_manager
     000008AF  G$devkit_SMS_setSpritePaletteCol   _sms_manager
     000008AF  _devkit_SMS_setSpritePaletteColo   _sms_manager
     000008B3  A$_sms_manager$544                 _sms_manager
     000008B5  A$_sms_manager$545                 _sms_manager
     000008B8  A$_sms_manager$546                 _sms_manager
     000008B9  A$_sms_manager$547                 _sms_manager
     000008BA  A$_sms_manager$548                 _sms_manager
     000008BC  A$_sms_manager$549                 _sms_manager
     000008BF  A$_sms_manager$550                 _sms_manager
     000008C0  A$_sms_manager$551                 _sms_manager
     000008C3  A$_sms_manager$552                 _sms_manager
     000008C5  A$_sms_manager$553                 _sms_manager
     000008C7  A$_sms_manager$554                 _sms_manager
     000008C8  A$_sms_manager$555                 _sms_manager
     000008C9  A$_sms_manager$556                 _sms_manager
     000008CA  A$_sms_manager$557                 _sms_manager
     000008CB  A$_sms_manager$558                 _sms_manager
     000008CC  A$_sms_manager$562                 _sms_manager
     000008CC  C$_sms_manager.c$89$1_0$103        _sms_manager
     000008CD  A$_sms_manager$563                 _sms_manager
     000008CE  A$_sms_manager$564                 _sms_manager
     000008D1  A$_sms_manager$565                 _sms_manager
     000008D2  A$_sms_manager$566                 _sms_manager
     000008D3  A$_sms_manager$567                 _sms_manager
     000008D6  A$_sms_manager$568                 _sms_manager
     000008D7  A$_sms_manager$576                 _sms_manager
     000008D7  C$_sms_manager.c$90$1_0$103        _sms_manager
     000008D7  XG$devkit_SMS_setSpritePaletteCo   _sms_manager
     000008D8  A$_sms_manager$586                 _sms_manager
     000008D8  C$_sms_manager.c$92$1_0$105        _sms_manager
     000008D8  G$devkit_SMS_setNextTileatXY$0$0   _sms_manager
     000008D8  _devkit_SMS_setNextTileatXY        _sms_manager
     000008DA  A$_sms_manager$587                 _sms_manager
     000008DE  A$_sms_manager$588                 _sms_manager
     000008E0  A$_sms_manager$592                 _sms_manager
     000008E0  C$_sms_manager.c$94$1_0$105        _sms_manager
     000008E3  A$_sms_manager$593                 _sms_manager
     000008E5  A$_sms_manager$594                 _sms_manager
     000008E6  A$_sms_manager$595                 _sms_manager
     000008E7  A$_sms_manager$596                 _sms_manager
     000008E8  A$_sms_manager$597                 _sms_manager
     000008E9  A$_sms_manager$598                 _sms_manager
     000008EA  A$_sms_manager$599                 _sms_manager
     000008EB  A$_sms_manager$600                 _sms_manager
     000008EC  A$_sms_manager$601                 _sms_manager
     000008ED  A$_sms_manager$602                 _sms_manager
     000008EE  A$_sms_manager$603                 _sms_manager
     000008F0  A$_sms_manager$604                 _sms_manager
     000008F1  A$_sms_manager$605                 _sms_manager
ASxxxx Linker V03.00 + NoICE + sdld,  page 10.
Hexadecimal  [32-Bits]

Area                                    Addr        Size        Decimal Bytes (Attributes)
--------------------------------        ----        ----        ------- ----- ------------
_CODE                               00000200    00003D43 =       15683. bytes (REL,CON)

      Value  Global                              Global Defined In Module
      -----  --------------------------------   ------------------------
     000008F2  A$_sms_manager$606                 _sms_manager
     000008F5  A$_sms_manager$607                 _sms_manager
     000008F7  A$_sms_manager$608                 _sms_manager
     000008F8  A$_sms_manager$609                 _sms_manager
     000008F9  A$_sms_manager$610                 _sms_manager
     000008FA  A$_sms_manager$611                 _sms_manager
     000008FB  A$_sms_manager$612                 _sms_manager
     000008FC  A$_sms_manager$613                 _sms_manager
     000008FD  A$_sms_manager$621                 _sms_manager
     000008FD  C$_sms_manager.c$95$1_0$105        _sms_manager
     000008FD  XG$devkit_SMS_setNextTileatXY$0$   _sms_manager
     000008FF  A$_sms_manager$622                 _sms_manager
     00000902  A$_sms_manager$635                 _sms_manager
     00000902  C$_sms_manager.c$96$1_0$107        _sms_manager
     00000902  C$_sms_manager.c$98$1_0$107        _sms_manager
     00000902  G$devkit_SMS_setTile$0$0           _sms_manager
     00000902  _devkit_SMS_setTile                _sms_manager
     00000906  A$_sms_manager$636                 _sms_manager
     00000908  A$_sms_manager$637                 _sms_manager
     0000090B  A$_sms_manager$638                 _sms_manager
     0000090D  A$_sms_manager$646                 _sms_manager
     0000090D  C$_sms_manager.c$99$1_0$107        _sms_manager
     0000090D  XG$devkit_SMS_setTile$0$0          _sms_manager
     00000910  A$_sms_manager$659                 _sms_manager
     00000910  C$_sms_manager.c$100$1_0$109       _sms_manager
     00000910  C$_sms_manager.c$102$1_0$109       _sms_manager
     00000910  G$devkit_SMS_loadTileMap$0$0       _sms_manager
     00000910  _devkit_SMS_loadTileMap            _sms_manager
     00000914  A$_sms_manager$660                 _sms_manager
     00000916  A$_sms_manager$661                 _sms_manager
     00000919  A$_sms_manager$662                 _sms_manager
     0000091C  A$_sms_manager$663                 _sms_manager
     0000091F  A$_sms_manager$664                 _sms_manager
     00000922  A$_sms_manager$665                 _sms_manager
     00000924  A$_sms_manager$666                 _sms_manager
     00000926  A$_sms_manager$667                 _sms_manager
     00000927  A$_sms_manager$668                 _sms_manager
     00000928  A$_sms_manager$669                 _sms_manager
     0000092B  A$_sms_manager$670                 _sms_manager
     0000092D  A$_sms_manager$671                 _sms_manager
     0000092F  A$_sms_manager$672                 _sms_manager
     00000931  A$_sms_manager$673                 _sms_manager
     00000932  A$_sms_manager$674                 _sms_manager
     00000933  A$_sms_manager$675                 _sms_manager
     00000936  A$_sms_manager$676                 _sms_manager
     00000937  A$_sms_manager$677                 _sms_manager
     00000938  A$_sms_manager$678                 _sms_manager
     0000093B  A$_sms_manager$679                 _sms_manager
     0000093E  A$_sms_manager$680                 _sms_manager
     0000093F  A$_sms_manager$681                 _sms_manager
     00000940  A$_sms_manager$689                 _sms_manager
ASxxxx Linker V03.00 + NoICE + sdld,  page 11.
Hexadecimal  [32-Bits]

Area                                    Addr        Size        Decimal Bytes (Attributes)
--------------------------------        ----        ----        ------- ----- ------------
_CODE                               00000200    00003D43 =       15683. bytes (REL,CON)

      Value  Global                              Global Defined In Module
      -----  --------------------------------   ------------------------
     00000940  C$_sms_manager.c$103$1_0$109       _sms_manager
     00000940  XG$devkit_SMS_loadTileMap$0$0      _sms_manager
     00000941  A$_sms_manager$702                 _sms_manager
     00000941  C$_sms_manager.c$105$1_0$111       _sms_manager
     00000941  C$_sms_manager.c$107$1_0$111       _sms_manager
     00000941  G$devkit_SMS_addSprite$0$0         _sms_manager
     00000941  _devkit_SMS_addSprite              _sms_manager
     00000945  A$_sms_manager$703                 _sms_manager
     00000947  A$_sms_manager$704                 _sms_manager
     0000094A  A$_sms_manager$705                 _sms_manager
     0000094B  A$_sms_manager$706                 _sms_manager
     0000094C  A$_sms_manager$707                 _sms_manager
     0000094F  A$_sms_manager$708                 _sms_manager
     00000951  A$_sms_manager$709                 _sms_manager
     00000952  A$_sms_manager$710                 _sms_manager
     00000953  A$_sms_manager$711                 _sms_manager
     00000956  A$_sms_manager$712                 _sms_manager
     00000957  A$_sms_manager$713                 _sms_manager
     00000958  A$_sms_manager$714                 _sms_manager
     0000095B  A$_sms_manager$715                 _sms_manager
     0000095C  A$_sms_manager$716                 _sms_manager
     0000095D  A$_sms_manager$724                 _sms_manager
     0000095D  C$_sms_manager.c$108$1_0$111       _sms_manager
     0000095D  XG$devkit_SMS_addSprite$0$0        _sms_manager
     0000095E  A$_sms_manager$734                 _sms_manager
     0000095E  C$_sms_manager.c$109$1_0$113       _sms_manager
     0000095E  G$devkit_SMS_addSprite_bulk8$0$0   _sms_manager
     0000095E  _devkit_SMS_addSprite_bulk8        _sms_manager
     00000960  A$_sms_manager$735                 _sms_manager
     00000964  A$_sms_manager$736                 _sms_manager
     00000966  A$_sms_manager$740                 _sms_manager
     00000966  C$_sms_manager.c$111$1_0$113       _sms_manager
     00000969  A$_sms_manager$741                 _sms_manager
     0000096C  A$_sms_manager$742                 _sms_manager
     0000096D  A$_sms_manager$743                 _sms_manager
     00000970  A$_sms_manager$744                 _sms_manager
     00000973  A$_sms_manager$745                 _sms_manager
     00000974  A$_sms_manager$746                 _sms_manager
     00000977  A$_sms_manager$747                 _sms_manager
     00000978  A$_sms_manager$748                 _sms_manager
     00000979  A$_sms_manager$752                 _sms_manager
     00000979  C$_sms_manager.c$112$1_0$113       _sms_manager
     0000097C  A$_sms_manager$753                 _sms_manager
     0000097F  A$_sms_manager$754                 _sms_manager
     00000980  A$_sms_manager$755                 _sms_manager
     00000983  A$_sms_manager$756                 _sms_manager
     00000985  A$_sms_manager$757                 _sms_manager
     00000986  A$_sms_manager$758                 _sms_manager
     00000987  A$_sms_manager$759                 _sms_manager
     00000988  A$_sms_manager$760                 _sms_manager
     0000098B  A$_sms_manager$761                 _sms_manager
ASxxxx Linker V03.00 + NoICE + sdld,  page 12.
Hexadecimal  [32-Bits]

Area                                    Addr        Size        Decimal Bytes (Attributes)
--------------------------------        ----        ----        ------- ----- ------------
_CODE                               00000200    00003D43 =       15683. bytes (REL,CON)

      Value  Global                              Global Defined In Module
      -----  --------------------------------   ------------------------
     0000098C  A$_sms_manager$762                 _sms_manager
     0000098D  A$_sms_manager$763                 _sms_manager
     0000098E  A$_sms_manager$764                 _sms_manager
     0000098F  A$_sms_manager$765                 _sms_manager
     00000992  A$_sms_manager$766                 _sms_manager
     00000993  A$_sms_manager$767                 _sms_manager
     00000994  A$_sms_manager$768                 _sms_manager
     00000995  A$_sms_manager$772                 _sms_manager
     00000995  C$_sms_manager.c$114$1_0$113       _sms_manager
     00000998  A$_sms_manager$773                 _sms_manager
     0000099B  A$_sms_manager$774                 _sms_manager
     0000099C  A$_sms_manager$775                 _sms_manager
     0000099D  A$_sms_manager$776                 _sms_manager
     000009A0  A$_sms_manager$777                 _sms_manager
     000009A1  A$_sms_manager$778                 _sms_manager
     000009A3  A$_sms_manager$779                 _sms_manager
     000009A4  A$_sms_manager$780                 _sms_manager
     000009A5  A$_sms_manager$781                 _sms_manager
     000009A6  A$_sms_manager$782                 _sms_manager
     000009A7  A$_sms_manager$783                 _sms_manager
     000009A8  A$_sms_manager$784                 _sms_manager
     000009AB  A$_sms_manager$785                 _sms_manager
     000009AC  A$_sms_manager$786                 _sms_manager
     000009AF  A$_sms_manager$787                 _sms_manager
     000009B0  A$_sms_manager$788                 _sms_manager
     000009B1  A$_sms_manager$789                 _sms_manager
     000009B2  A$_sms_manager$790                 _sms_manager
     000009B3  A$_sms_manager$794                 _sms_manager
     000009B3  C$_sms_manager.c$115$1_0$113       _sms_manager
     000009B6  A$_sms_manager$795                 _sms_manager
     000009B9  A$_sms_manager$796                 _sms_manager
     000009BA  A$_sms_manager$797                 _sms_manager
     000009BB  A$_sms_manager$798                 _sms_manager
     000009BC  A$_sms_manager$799                 _sms_manager
     000009BD  A$_sms_manager$800                 _sms_manager
     000009BE  A$_sms_manager$801                 _sms_manager
     000009BF  A$_sms_manager$802                 _sms_manager
     000009C0  A$_sms_manager$803                 _sms_manager
     000009C1  A$_sms_manager$804                 _sms_manager
     000009C2  A$_sms_manager$805                 _sms_manager
     000009C3  A$_sms_manager$806                 _sms_manager
     000009C6  A$_sms_manager$807                 _sms_manager
     000009C7  A$_sms_manager$808                 _sms_manager
     000009C8  A$_sms_manager$809                 _sms_manager
     000009C9  A$_sms_manager$813                 _sms_manager
     000009C9  C$_sms_manager.c$117$1_0$113       _sms_manager
     000009CC  A$_sms_manager$814                 _sms_manager
     000009CF  A$_sms_manager$815                 _sms_manager
     000009D2  A$_sms_manager$816                 _sms_manager
     000009D3  A$_sms_manager$817                 _sms_manager
     000009D4  A$_sms_manager$818                 _sms_manager
ASxxxx Linker V03.00 + NoICE + sdld,  page 13.
Hexadecimal  [32-Bits]

Area                                    Addr        Size        Decimal Bytes (Attributes)
--------------------------------        ----        ----        ------- ----- ------------
_CODE                               00000200    00003D43 =       15683. bytes (REL,CON)

      Value  Global                              Global Defined In Module
      -----  --------------------------------   ------------------------
     000009D6  A$_sms_manager$819                 _sms_manager
     000009D7  A$_sms_manager$820                 _sms_manager
     000009D8  A$_sms_manager$821                 _sms_manager
     000009D9  A$_sms_manager$822                 _sms_manager
     000009DA  A$_sms_manager$823                 _sms_manager
     000009DB  A$_sms_manager$824                 _sms_manager
     000009DE  A$_sms_manager$825                 _sms_manager
     000009DF  A$_sms_manager$826                 _sms_manager
     000009E2  A$_sms_manager$827                 _sms_manager
     000009E3  A$_sms_manager$828                 _sms_manager
     000009E4  A$_sms_manager$829                 _sms_manager
     000009E5  A$_sms_manager$830                 _sms_manager
     000009E6  A$_sms_manager$834                 _sms_manager
     000009E6  C$_sms_manager.c$118$1_0$113       _sms_manager
     000009E9  A$_sms_manager$835                 _sms_manager
     000009EB  A$_sms_manager$836                 _sms_manager
     000009EC  A$_sms_manager$837                 _sms_manager
     000009EF  A$_sms_manager$838                 _sms_manager
     000009F1  A$_sms_manager$839                 _sms_manager
     000009F2  A$_sms_manager$840                 _sms_manager
     000009F3  A$_sms_manager$841                 _sms_manager
     000009F4  A$_sms_manager$842                 _sms_manager
     000009F5  A$_sms_manager$843                 _sms_manager
     000009F6  A$_sms_manager$844                 _sms_manager
     000009F7  A$_sms_manager$845                 _sms_manager
     000009F8  A$_sms_manager$846                 _sms_manager
     000009F9  A$_sms_manager$847                 _sms_manager
     000009FC  A$_sms_manager$848                 _sms_manager
     000009FD  A$_sms_manager$849                 _sms_manager
     000009FE  A$_sms_manager$850                 _sms_manager
     000009FF  A$_sms_manager$854                 _sms_manager
     000009FF  C$_sms_manager.c$120$1_0$113       _sms_manager
     00000A02  A$_sms_manager$855                 _sms_manager
     00000A05  A$_sms_manager$856                 _sms_manager
     00000A08  A$_sms_manager$857                 _sms_manager
     00000A09  A$_sms_manager$858                 _sms_manager
     00000A0A  A$_sms_manager$859                 _sms_manager
     00000A0C  A$_sms_manager$860                 _sms_manager
     00000A0D  A$_sms_manager$861                 _sms_manager
     00000A0E  A$_sms_manager$862                 _sms_manager
     00000A0F  A$_sms_manager$863                 _sms_manager
     00000A10  A$_sms_manager$864                 _sms_manager
     00000A13  A$_sms_manager$865                 _sms_manager
     00000A14  A$_sms_manager$866                 _sms_manager
     00000A17  A$_sms_manager$867                 _sms_manager
     00000A18  A$_sms_manager$868                 _sms_manager
     00000A19  A$_sms_manager$869                 _sms_manager
     00000A1A  A$_sms_manager$873                 _sms_manager
     00000A1A  C$_sms_manager.c$121$1_0$113       _sms_manager
     00000A1D  A$_sms_manager$874                 _sms_manager
     00000A20  A$_sms_manager$875                 _sms_manager
ASxxxx Linker V03.00 + NoICE + sdld,  page 14.
Hexadecimal  [32-Bits]

Area                                    Addr        Size        Decimal Bytes (Attributes)
--------------------------------        ----        ----        ------- ----- ------------
_CODE                               00000200    00003D43 =       15683. bytes (REL,CON)

      Value  Global                              Global Defined In Module
      -----  --------------------------------   ------------------------
     00000A23  A$_sms_manager$876                 _sms_manager
     00000A24  A$_sms_manager$877                 _sms_manager
     00000A25  A$_sms_manager$878                 _sms_manager
     00000A26  A$_sms_manager$879                 _sms_manager
     00000A27  A$_sms_manager$880                 _sms_manager
     00000A28  A$_sms_manager$881                 _sms_manager
     00000A29  A$_sms_manager$882                 _sms_manager
     00000A2A  A$_sms_manager$883                 _sms_manager
     00000A2D  A$_sms_manager$884                 _sms_manager
     00000A2E  A$_sms_manager$885                 _sms_manager
     00000A2F  A$_sms_manager$889                 _sms_manager
     00000A31  A$_sms_manager$894                 _sms_manager
     00000A31  C$_sms_manager.c$122$1_0$113       _sms_manager
     00000A31  XG$devkit_SMS_addSprite_bulk8$0$   _sms_manager
     00000A32  A$_sms_manager$904                 _sms_manager
     00000A32  C$_sms_manager.c$123$1_0$115       _sms_manager
     00000A32  G$devkit_SMS_addSprite_bulk12$0$   _sms_manager
     00000A32  _devkit_SMS_addSprite_bulk12       _sms_manager
     00000A34  A$_sms_manager$905                 _sms_manager
     00000A38  A$_sms_manager$906                 _sms_manager
     00000A3A  A$_sms_manager$907                 _sms_manager
     00000A3B  A$_sms_manager$911                 _sms_manager
     00000A3B  C$_sms_manager.c$125$1_0$115       _sms_manager
     00000A3E  A$_sms_manager$912                 _sms_manager
     00000A3F  A$_sms_manager$913                 _sms_manager
     00000A40  A$_sms_manager$914                 _sms_manager
     00000A43  A$_sms_manager$915                 _sms_manager
     00000A44  A$_sms_manager$916                 _sms_manager
     00000A47  A$_sms_manager$917                 _sms_manager
     00000A48  A$_sms_manager$918                 _sms_manager
     00000A49  A$_sms_manager$919                 _sms_manager
     00000A4C  A$_sms_manager$920                 _sms_manager
     00000A4D  A$_sms_manager$921                 _sms_manager
     00000A4E  A$_sms_manager$922                 _sms_manager
     00000A4F  A$_sms_manager$926                 _sms_manager
     00000A4F  C$_sms_manager.c$126$1_0$115       _sms_manager
     00000A50  A$_sms_manager$927                 _sms_manager
     00000A51  A$_sms_manager$928                 _sms_manager
     00000A54  A$_sms_manager$929                 _sms_manager
     00000A55  A$_sms_manager$930                 _sms_manager
     00000A57  A$_sms_manager$931                 _sms_manager
     00000A5A  A$_sms_manager$932                 _sms_manager
     00000A5B  A$_sms_manager$933                 _sms_manager
     00000A5C  A$_sms_manager$934                 _sms_manager
     00000A5D  A$_sms_manager$935                 _sms_manager
     00000A60  A$_sms_manager$936                 _sms_manager
     00000A63  A$_sms_manager$937                 _sms_manager
     00000A64  A$_sms_manager$938                 _sms_manager
     00000A67  A$_sms_manager$939                 _sms_manager
     00000A68  A$_sms_manager$940                 _sms_manager
     00000A69  A$_sms_manager$941                 _sms_manager
ASxxxx Linker V03.00 + NoICE + sdld,  page 15.
Hexadecimal  [32-Bits]

Area                                    Addr        Size        Decimal Bytes (Attributes)
--------------------------------        ----        ----        ------- ----- ------------
_CODE                               00000200    00003D43 =       15683. bytes (REL,CON)

      Value  Global                              Global Defined In Module
      -----  --------------------------------   ------------------------
     00000A6A  A$_sms_manager$945                 _sms_manager
     00000A6A  C$_sms_manager.c$127$1_0$115       _sms_manager
     00000A6B  A$_sms_manager$946                 _sms_manager
     00000A6C  A$_sms_manager$947                 _sms_manager
     00000A6D  A$_sms_manager$948                 _sms_manager
     00000A6E  A$_sms_manager$949                 _sms_manager
     00000A70  A$_sms_manager$950                 _sms_manager
     00000A71  A$_sms_manager$951                 _sms_manager
     00000A72  A$_sms_manager$952                 _sms_manager
     00000A73  A$_sms_manager$953                 _sms_manager
     00000A76  A$_sms_manager$954                 _sms_manager
     00000A77  A$_sms_manager$955                 _sms_manager
     00000A78  A$_sms_manager$956                 _sms_manager
     00000A79  A$_sms_manager$957                 _sms_manager
     00000A7C  A$_sms_manager$958                 _sms_manager
     00000A7D  A$_sms_manager$959                 _sms_manager
     00000A7E  A$_sms_manager$960                 _sms_manager
     00000A7F  A$_sms_manager$964                 _sms_manager
     00000A7F  C$_sms_manager.c$129$1_0$115       _sms_manager
     00000A80  A$_sms_manager$965                 _sms_manager
     00000A81  A$_sms_manager$966                 _sms_manager
     00000A82  A$_sms_manager$967                 _sms_manager
     00000A83  A$_sms_manager$968                 _sms_manager
     00000A86  A$_sms_manager$969                 _sms_manager
     00000A87  A$_sms_manager$970                 _sms_manager
     00000A89  A$_sms_manager$971                 _sms_manager
     00000A8A  A$_sms_manager$972                 _sms_manager
     00000A8B  A$_sms_manager$973                 _sms_manager
     00000A8C  A$_sms_manager$974                 _sms_manager
     00000A8D  A$_sms_manager$975                 _sms_manager
     00000A8E  A$_sms_manager$976                 _sms_manager
     00000A8F  A$_sms_manager$977                 _sms_manager
     00000A90  A$_sms_manager$978                 _sms_manager
     00000A91  A$_sms_manager$979                 _sms_manager
     00000A94  A$_sms_manager$980                 _sms_manager
     00000A95  A$_sms_manager$981                 _sms_manager
     00000A96  A$_sms_manager$982                 _sms_manager
     00000A99  A$_sms_manager$983                 _sms_manager
     00000A9A  A$_sms_manager$984                 _sms_manager
     00000A9B  A$_sms_manager$985                 _sms_manager
     00000A9C  A$_sms_manager$986                 _sms_manager
     00000A9D  A$_sms_manager$990                 _sms_manager
     00000A9D  C$_sms_manager.c$130$1_0$115       _sms_manager
     00000A9E  A$_sms_manager$991                 _sms_manager
     00000A9F  A$_sms_manager$992                 _sms_manager
     00000AA0  A$_sms_manager$993                 _sms_manager
     00000AA1  A$_sms_manager$994                 _sms_manager
     00000AA2  A$_sms_manager$995                 _sms_manager
     00000AA3  A$_sms_manager$996                 _sms_manager
     00000AA4  A$_sms_manager$997                 _sms_manager
     00000AA5  A$_sms_manager$998                 _sms_manager
ASxxxx Linker V03.00 + NoICE + sdld,  page 16.
Hexadecimal  [32-Bits]

Area                                    Addr        Size        Decimal Bytes (Attributes)
--------------------------------        ----        ----        ------- ----- ------------
_CODE                               00000200    00003D43 =       15683. bytes (REL,CON)

      Value  Global                              Global Defined In Module
      -----  --------------------------------   ------------------------
     00000AA6  A$_sms_manager$999                 _sms_manager
     00000AA7  A$_sms_manager$1000                _sms_manager
     00000AA8  A$_sms_manager$1001                _sms_manager
     00000AAB  A$_sms_manager$1002                _sms_manager
     00000AAC  A$_sms_manager$1003                _sms_manager
     00000AAD  A$_sms_manager$1004                _sms_manager
     00000AB0  A$_sms_manager$1005                _sms_manager
     00000AB1  A$_sms_manager$1006                _sms_manager
     00000AB2  A$_sms_manager$1007                _sms_manager
     00000AB3  A$_sms_manager$1008                _sms_manager
     00000AB4  A$_sms_manager$1012                _sms_manager
     00000AB4  C$_sms_manager.c$131$1_0$115       _sms_manager
     00000AB5  A$_sms_manager$1013                _sms_manager
     00000AB7  A$_sms_manager$1014                _sms_manager
     00000AB8  A$_sms_manager$1015                _sms_manager
     00000AB9  A$_sms_manager$1016                _sms_manager
     00000ABA  A$_sms_manager$1017                _sms_manager
     00000ABB  A$_sms_manager$1018                _sms_manager
     00000ABC  A$_sms_manager$1019                _sms_manager
     00000ABD  A$_sms_manager$1020                _sms_manager
     00000AC0  A$_sms_manager$1021                _sms_manager
     00000AC1  A$_sms_manager$1022                _sms_manager
     00000AC2  A$_sms_manager$1023                _sms_manager
     00000AC3  A$_sms_manager$1024                _sms_manager
     00000AC4  A$_sms_manager$1028                _sms_manager
     00000AC4  C$_sms_manager.c$133$1_0$115       _sms_manager
     00000AC5  A$_sms_manager$1029                _sms_manager
     00000AC7  A$_sms_manager$1030                _sms_manager
     00000AC8  A$_sms_manager$1031                _sms_manager
     00000AC9  A$_sms_manager$1032                _sms_manager
     00000ACB  A$_sms_manager$1033                _sms_manager
     00000ACC  A$_sms_manager$1034                _sms_manager
     00000ACD  A$_sms_manager$1035                _sms_manager
     00000ACE  A$_sms_manager$1036                _sms_manager
     00000ACF  A$_sms_manager$1037                _sms_manager
     00000AD0  A$_sms_manager$1038                _sms_manager
     00000AD3  A$_sms_manager$1039                _sms_manager
     00000AD4  A$_sms_manager$1040                _sms_manager
     00000AD5  A$_sms_manager$1041                _sms_manager
     00000AD8  A$_sms_manager$1042                _sms_manager
     00000AD9  A$_sms_manager$1043                _sms_manager
     00000ADA  A$_sms_manager$1044                _sms_manager
     00000ADB  A$_sms_manager$1045                _sms_manager
     00000ADC  A$_sms_manager$1049                _sms_manager
     00000ADC  C$_sms_manager.c$134$1_0$115       _sms_manager
     00000ADD  A$_sms_manager$1050                _sms_manager
     00000ADF  A$_sms_manager$1051                _sms_manager
     00000AE0  A$_sms_manager$1052                _sms_manager
     00000AE1  A$_sms_manager$1053                _sms_manager
     00000AE2  A$_sms_manager$1054                _sms_manager
     00000AE3  A$_sms_manager$1055                _sms_manager
ASxxxx Linker V03.00 + NoICE + sdld,  page 17.
Hexadecimal  [32-Bits]

Area                                    Addr        Size        Decimal Bytes (Attributes)
--------------------------------        ----        ----        ------- ----- ------------
_CODE                               00000200    00003D43 =       15683. bytes (REL,CON)

      Value  Global                              Global Defined In Module
      -----  --------------------------------   ------------------------
     00000AE4  A$_sms_manager$1056                _sms_manager
     00000AE5  A$_sms_manager$1057                _sms_manager
     00000AE8  A$_sms_manager$1058                _sms_manager
     00000AE9  A$_sms_manager$1059                _sms_manager
     00000AEA  A$_sms_manager$1060                _sms_manager
     00000AED  A$_sms_manager$1061                _sms_manager
     00000AEE  A$_sms_manager$1062                _sms_manager
     00000AEF  A$_sms_manager$1063                _sms_manager
     00000AF0  A$_sms_manager$1064                _sms_manager
     00000AF1  A$_sms_manager$1068                _sms_manager
     00000AF1  C$_sms_manager.c$135$1_0$115       _sms_manager
     00000AF2  A$_sms_manager$1069                _sms_manager
     00000AF4  A$_sms_manager$1070                _sms_manager
     00000AF5  A$_sms_manager$1071                _sms_manager
     00000AF6  A$_sms_manager$1072                _sms_manager
     00000AF7  A$_sms_manager$1073                _sms_manager
     00000AF8  A$_sms_manager$1074                _sms_manager
     00000AF9  A$_sms_manager$1075                _sms_manager
     00000AFA  A$_sms_manager$1076                _sms_manager
     00000AFD  A$_sms_manager$1077                _sms_manager
     00000AFE  A$_sms_manager$1078                _sms_manager
     00000AFF  A$_sms_manager$1079                _sms_manager
     00000B00  A$_sms_manager$1080                _sms_manager
     00000B01  A$_sms_manager$1084                _sms_manager
     00000B01  C$_sms_manager.c$137$1_0$115       _sms_manager
     00000B02  A$_sms_manager$1085                _sms_manager
     00000B04  A$_sms_manager$1086                _sms_manager
     00000B05  A$_sms_manager$1087                _sms_manager
     00000B06  A$_sms_manager$1088                _sms_manager
     00000B08  A$_sms_manager$1089                _sms_manager
     00000B09  A$_sms_manager$1090                _sms_manager
     00000B0A  A$_sms_manager$1091                _sms_manager
     00000B0B  A$_sms_manager$1092                _sms_manager
     00000B0C  A$_sms_manager$1093                _sms_manager
     00000B0D  A$_sms_manager$1094                _sms_manager
     00000B10  A$_sms_manager$1095                _sms_manager
     00000B11  A$_sms_manager$1096                _sms_manager
     00000B12  A$_sms_manager$1097                _sms_manager
     00000B15  A$_sms_manager$1098                _sms_manager
     00000B16  A$_sms_manager$1099                _sms_manager
     00000B17  A$_sms_manager$1100                _sms_manager
     00000B18  A$_sms_manager$1101                _sms_manager
     00000B19  A$_sms_manager$1105                _sms_manager
     00000B19  C$_sms_manager.c$138$1_0$115       _sms_manager
     00000B1A  A$_sms_manager$1106                _sms_manager
     00000B1C  A$_sms_manager$1107                _sms_manager
     00000B1D  A$_sms_manager$1108                _sms_manager
     00000B1E  A$_sms_manager$1109                _sms_manager
     00000B1F  A$_sms_manager$1110                _sms_manager
     00000B20  A$_sms_manager$1111                _sms_manager
     00000B21  A$_sms_manager$1112                _sms_manager
ASxxxx Linker V03.00 + NoICE + sdld,  page 18.
Hexadecimal  [32-Bits]

Area                                    Addr        Size        Decimal Bytes (Attributes)
--------------------------------        ----        ----        ------- ----- ------------
_CODE                               00000200    00003D43 =       15683. bytes (REL,CON)

      Value  Global                              Global Defined In Module
      -----  --------------------------------   ------------------------
     00000B22  A$_sms_manager$1113                _sms_manager
     00000B25  A$_sms_manager$1114                _sms_manager
     00000B26  A$_sms_manager$1115                _sms_manager
     00000B27  A$_sms_manager$1116                _sms_manager
     00000B2A  A$_sms_manager$1117                _sms_manager
     00000B2B  A$_sms_manager$1118                _sms_manager
     00000B2C  A$_sms_manager$1119                _sms_manager
     00000B2D  A$_sms_manager$1120                _sms_manager
     00000B2E  A$_sms_manager$1124                _sms_manager
     00000B2E  C$_sms_manager.c$139$1_0$115       _sms_manager
     00000B2F  A$_sms_manager$1125                _sms_manager
     00000B31  A$_sms_manager$1126                _sms_manager
     00000B32  A$_sms_manager$1127                _sms_manager
     00000B33  A$_sms_manager$1128                _sms_manager
     00000B34  A$_sms_manager$1129                _sms_manager
     00000B35  A$_sms_manager$1130                _sms_manager
     00000B38  A$_sms_manager$1131                _sms_manager
     00000B39  A$_sms_manager$1132                _sms_manager
     00000B3A  A$_sms_manager$1136                _sms_manager
     00000B3B  A$_sms_manager$1137                _sms_manager
     00000B3D  A$_sms_manager$1142                _sms_manager
     00000B3D  C$_sms_manager.c$140$1_0$115       _sms_manager
     00000B3D  XG$devkit_SMS_addSprite_bulk12$0   _sms_manager
     00000B3E  A$_sms_manager$1162                _sms_manager
     00000B3E  C$_sms_manager.c$142$1_0$116       _sms_manager
     00000B3E  C$_sms_manager.c$144$1_0$116       _sms_manager
     00000B3E  C$_sms_manager.c$145$1_0$116       _sms_manager
     00000B3E  G$devkit_SMS_initSprites$0$0       _sms_manager
     00000B3E  XG$devkit_SMS_initSprites$0$0      _sms_manager
     00000B3E  _devkit_SMS_initSprites            _sms_manager
     00000B41  A$_sms_manager$1182                _sms_manager
     00000B41  C$_sms_manager.c$146$1_0$117       _sms_manager
     00000B41  C$_sms_manager.c$148$1_0$117       _sms_manager
     00000B41  C$_sms_manager.c$149$1_0$117       _sms_manager
     00000B41  G$devkit_SMS_finalizeSprites$0$0   _sms_manager
     00000B41  XG$devkit_SMS_finalizeSprites$0$   _sms_manager
     00000B41  _devkit_SMS_finalizeSprites        _sms_manager
     00000B44  A$_sms_manager$1202                _sms_manager
     00000B44  C$_sms_manager.c$150$1_0$118       _sms_manager
     00000B44  C$_sms_manager.c$152$1_0$118       _sms_manager
     00000B44  C$_sms_manager.c$153$1_0$118       _sms_manager
     00000B44  G$devkit_SMS_waitForVBlank$0$0     _sms_manager
     00000B44  XG$devkit_SMS_waitForVBlank$0$0    _sms_manager
     00000B44  _devkit_SMS_waitForVBlank          _sms_manager
     00000B47  A$_sms_manager$1222                _sms_manager
     00000B47  C$_sms_manager.c$154$1_0$119       _sms_manager
     00000B47  C$_sms_manager.c$156$1_0$119       _sms_manager
     00000B47  C$_sms_manager.c$157$1_0$119       _sms_manager
     00000B47  G$devkit_SMS_copySpritestoSAT$0$   _sms_manager
     00000B47  XG$devkit_SMS_copySpritestoSAT$0   _sms_manager
     00000B47  _devkit_SMS_copySpritestoSAT       _sms_manager
ASxxxx Linker V03.00 + NoICE + sdld,  page 19.
Hexadecimal  [32-Bits]

Area                                    Addr        Size        Decimal Bytes (Attributes)
--------------------------------        ----        ----        ------- ----- ------------
_CODE                               00000200    00003D43 =       15683. bytes (REL,CON)

      Value  Global                              Global Defined In Module
      -----  --------------------------------   ------------------------
     00000B4A  A$_sms_manager$1242                _sms_manager
     00000B4A  C$_sms_manager.c$158$1_0$120       _sms_manager
     00000B4A  C$_sms_manager.c$160$1_0$120       _sms_manager
     00000B4A  C$_sms_manager.c$161$1_0$120       _sms_manager
     00000B4A  G$devkit_UNSAFE_SMS_copySpritest   _sms_manager
     00000B4A  XG$devkit_UNSAFE_SMS_copySprites   _sms_manager
     00000B4A  _devkit_UNSAFE_SMS_copySpritesto   _sms_manager
     00000B4D  A$_sms_manager$1262                _sms_manager
     00000B4D  C$_sms_manager.c$163$1_0$121       _sms_manager
     00000B4D  C$_sms_manager.c$165$1_0$121       _sms_manager
     00000B4D  C$_sms_manager.c$166$1_0$121       _sms_manager
     00000B4D  G$devkit_SMS_queryPauseRequested   _sms_manager
     00000B4D  XG$devkit_SMS_queryPauseRequeste   _sms_manager
     00000B4D  _devkit_SMS_queryPauseRequested    _sms_manager
     00000B50  A$_sms_manager$1282                _sms_manager
     00000B50  C$_sms_manager.c$167$1_0$122       _sms_manager
     00000B50  C$_sms_manager.c$169$1_0$122       _sms_manager
     00000B50  C$_sms_manager.c$170$1_0$122       _sms_manager
     00000B50  G$devkit_SMS_resetPauseRequest$0   _sms_manager
     00000B50  XG$devkit_SMS_resetPauseRequest$   _sms_manager
     00000B50  _devkit_SMS_resetPauseRequest      _sms_manager
     00000B53  A$_sms_manager$1295                _sms_manager
     00000B53  C$_sms_manager.c$172$1_0$123       _sms_manager
     00000B53  C$_sms_manager.c$174$1_0$123       _sms_manager
     00000B53  G$devkit_isCollisionDetected$0$0   _sms_manager
     00000B53  _devkit_isCollisionDetected        _sms_manager
     00000B56  A$_sms_manager$1296                _sms_manager
     00000B58  A$_sms_manager$1297                _sms_manager
     00000B59  A$_sms_manager$1305                _sms_manager
     00000B59  C$_sms_manager.c$175$1_0$123       _sms_manager
     00000B59  XG$devkit_isCollisionDetected$0$   _sms_manager
     00000B5A  A$_sms_manager$1325                _sms_manager
     00000B5A  C$_sms_manager.c$178$1_0$124       _sms_manager
     00000B5A  C$_sms_manager.c$180$1_0$124       _sms_manager
     00000B5A  C$_sms_manager.c$181$1_0$124       _sms_manager
     00000B5A  G$devkit_SMS_getKeysStatus$0$0     _sms_manager
     00000B5A  XG$devkit_SMS_getKeysStatus$0$0    _sms_manager
     00000B5A  _devkit_SMS_getKeysStatus          _sms_manager
     00000B5D  A$_sms_manager$1338                _sms_manager
     00000B5D  C$_sms_manager.c$182$1_0$125       _sms_manager
     00000B5D  C$_sms_manager.c$184$1_0$125       _sms_manager
     00000B5D  G$devkit_PORT_A_KEY_UP$0$0         _sms_manager
     00000B5D  _devkit_PORT_A_KEY_UP              _sms_manager
     00000B60  A$_sms_manager$1346                _sms_manager
     00000B60  C$_sms_manager.c$185$1_0$125       _sms_manager
     00000B60  XG$devkit_PORT_A_KEY_UP$0$0        _sms_manager
     00000B61  A$_sms_manager$1359                _sms_manager
     00000B61  C$_sms_manager.c$186$1_0$126       _sms_manager
     00000B61  C$_sms_manager.c$188$1_0$126       _sms_manager
     00000B61  G$devkit_PORT_A_KEY_DOWN$0$0       _sms_manager
     00000B61  _devkit_PORT_A_KEY_DOWN            _sms_manager
ASxxxx Linker V03.00 + NoICE + sdld,  page 20.
Hexadecimal  [32-Bits]

Area                                    Addr        Size        Decimal Bytes (Attributes)
--------------------------------        ----        ----        ------- ----- ------------
_CODE                               00000200    00003D43 =       15683. bytes (REL,CON)

      Value  Global                              Global Defined In Module
      -----  --------------------------------   ------------------------
     00000B64  A$_sms_manager$1367                _sms_manager
     00000B64  C$_sms_manager.c$189$1_0$126       _sms_manager
     00000B64  XG$devkit_PORT_A_KEY_DOWN$0$0      _sms_manager
     00000B65  A$_sms_manager$1380                _sms_manager
     00000B65  C$_sms_manager.c$190$1_0$127       _sms_manager
     00000B65  C$_sms_manager.c$192$1_0$127       _sms_manager
     00000B65  G$devkit_PORT_A_KEY_LEFT$0$0       _sms_manager
     00000B65  _devkit_PORT_A_KEY_LEFT            _sms_manager
     00000B68  A$_sms_manager$1388                _sms_manager
     00000B68  C$_sms_manager.c$193$1_0$127       _sms_manager
     00000B68  XG$devkit_PORT_A_KEY_LEFT$0$0      _sms_manager
     00000B69  A$_sms_manager$1401                _sms_manager
     00000B69  C$_sms_manager.c$194$1_0$128       _sms_manager
     00000B69  C$_sms_manager.c$196$1_0$128       _sms_manager
     00000B69  G$devkit_PORT_A_KEY_RIGHT$0$0      _sms_manager
     00000B69  _devkit_PORT_A_KEY_RIGHT           _sms_manager
     00000B6C  A$_sms_manager$1409                _sms_manager
     00000B6C  C$_sms_manager.c$197$1_0$128       _sms_manager
     00000B6C  XG$devkit_PORT_A_KEY_RIGHT$0$0     _sms_manager
     00000B6D  A$_sms_manager$1422                _sms_manager
     00000B6D  C$_sms_manager.c$198$1_0$129       _sms_manager
     00000B6D  C$_sms_manager.c$200$1_0$129       _sms_manager
     00000B6D  G$devkit_PORT_A_KEY_1$0$0          _sms_manager
     00000B6D  _devkit_PORT_A_KEY_1               _sms_manager
     00000B70  A$_sms_manager$1430                _sms_manager
     00000B70  C$_sms_manager.c$201$1_0$129       _sms_manager
     00000B70  XG$devkit_PORT_A_KEY_1$0$0         _sms_manager
     00000B71  A$_sms_manager$1443                _sms_manager
     00000B71  C$_sms_manager.c$202$1_0$130       _sms_manager
     00000B71  C$_sms_manager.c$204$1_0$130       _sms_manager
     00000B71  G$devkit_PORT_A_KEY_2$0$0          _sms_manager
     00000B71  _devkit_PORT_A_KEY_2               _sms_manager
     00000B74  A$_sms_manager$1451                _sms_manager
     00000B74  C$_sms_manager.c$205$1_0$130       _sms_manager
     00000B74  XG$devkit_PORT_A_KEY_2$0$0         _sms_manager
     00000B75  A$_sms_manager$1464                _sms_manager
     00000B75  C$_sms_manager.c$208$1_0$131       _sms_manager
     00000B75  C$_sms_manager.c$210$1_0$131       _sms_manager
     00000B75  G$devkit_SPRITEMODE_NORMAL$0$0     _sms_manager
     00000B75  _devkit_SPRITEMODE_NORMAL          _sms_manager
     00000B77  A$_sms_manager$1472                _sms_manager
     00000B77  C$_sms_manager.c$211$1_0$131       _sms_manager
     00000B77  XG$devkit_SPRITEMODE_NORMAL$0$0    _sms_manager
     00000B78  A$_sms_manager$1485                _sms_manager
     00000B78  C$_sms_manager.c$212$1_0$132       _sms_manager
     00000B78  C$_sms_manager.c$214$1_0$132       _sms_manager
     00000B78  G$devkit_VDPFEATURE_HIDEFIRSTCOL   _sms_manager
     00000B78  _devkit_VDPFEATURE_HIDEFIRSTCOL    _sms_manager
     00000B7B  A$_sms_manager$1493                _sms_manager
     00000B7B  C$_sms_manager.c$215$1_0$132       _sms_manager
     00000B7B  XG$devkit_VDPFEATURE_HIDEFIRSTCO   _sms_manager
ASxxxx Linker V03.00 + NoICE + sdld,  page 21.
Hexadecimal  [32-Bits]

Area                                    Addr        Size        Decimal Bytes (Attributes)
--------------------------------        ----        ----        ------- ----- ------------
_CODE                               00000200    00003D43 =       15683. bytes (REL,CON)

      Value  Global                              Global Defined In Module
      -----  --------------------------------   ------------------------
     00000B7C  F_sms_manager$__str_0$0_0$0        _sms_manager
     00000B8A  F_sms_manager$__str_1$0_0$0        _sms_manager
     00000B9A  F_sms_manager$__str_2$0_0$0        _sms_manager
     00000BD2  A$_snd_manager$89                  _snd_manager
     00000BD2  C$_snd_manager.c$11$1_0$34         _snd_manager
     00000BD2  C$_snd_manager.c$9$0_0$34          _snd_manager
     00000BD2  G$devkit_PSGPlay$0$0               _snd_manager
     00000BD2  _devkit_PSGPlay                    _snd_manager
     00000BD3  A$_snd_manager$90                  _snd_manager
     00000BD4  A$_snd_manager$91                  _snd_manager
     00000BD5  A$_snd_manager$92                  _snd_manager
     00000BD6  A$_snd_manager$93                  _snd_manager
     00000BD7  A$_snd_manager$94                  _snd_manager
     00000BDA  A$_snd_manager$95                  _snd_manager
     00000BDB  A$_snd_manager$103                 _snd_manager
     00000BDB  C$_snd_manager.c$12$1_0$34         _snd_manager
     00000BDB  XG$devkit_PSGPlay$0$0              _snd_manager
     00000BDC  A$_snd_manager$123                 _snd_manager
     00000BDC  C$_snd_manager.c$13$1_0$36         _snd_manager
     00000BDC  C$_snd_manager.c$15$1_0$36         _snd_manager
     00000BDC  C$_snd_manager.c$16$1_0$36         _snd_manager
     00000BDC  G$devkit_PSGCancelLoop$0$0         _snd_manager
     00000BDC  XG$devkit_PSGCancelLoop$0$0        _snd_manager
     00000BDC  _devkit_PSGCancelLoop              _snd_manager
     00000BDF  A$_snd_manager$136                 _snd_manager
     00000BDF  C$_snd_manager.c$17$1_0$38         _snd_manager
     00000BDF  C$_snd_manager.c$19$1_0$38         _snd_manager
     00000BDF  G$devkit_PSGPlayNoRepeat$0$0       _snd_manager
     00000BDF  _devkit_PSGPlayNoRepeat            _snd_manager
     00000BE0  A$_snd_manager$137                 _snd_manager
     00000BE1  A$_snd_manager$138                 _snd_manager
     00000BE2  A$_snd_manager$139                 _snd_manager
     00000BE3  A$_snd_manager$140                 _snd_manager
     00000BE4  A$_snd_manager$141                 _snd_manager
     00000BE7  A$_snd_manager$142                 _snd_manager
     00000BE8  A$_snd_manager$150                 _snd_manager
     00000BE8  C$_snd_manager.c$20$1_0$38         _snd_manager
     00000BE8  XG$devkit_PSGPlayNoRepeat$0$0      _snd_manager
     00000BE9  A$_snd_manager$170                 _snd_manager
     00000BE9  C$_snd_manager.c$21$1_0$40         _snd_manager
     00000BE9  C$_snd_manager.c$23$1_0$40         _snd_manager
     00000BE9  C$_snd_manager.c$24$1_0$40         _snd_manager
     00000BE9  G$devkit_PSGStop$0$0               _snd_manager
     00000BE9  XG$devkit_PSGStop$0$0              _snd_manager
     00000BE9  _devkit_PSGStop                    _snd_manager
     00000BEC  A$_snd_manager$190                 _snd_manager
     00000BEC  C$_snd_manager.c$25$1_0$42         _snd_manager
     00000BEC  C$_snd_manager.c$27$1_0$42         _snd_manager
     00000BEC  C$_snd_manager.c$28$1_0$42         _snd_manager
     00000BEC  G$devkit_PSGResume$0$0             _snd_manager
     00000BEC  XG$devkit_PSGResume$0$0            _snd_manager
ASxxxx Linker V03.00 + NoICE + sdld,  page 22.
Hexadecimal  [32-Bits]

Area                                    Addr        Size        Decimal Bytes (Attributes)
--------------------------------        ----        ----        ------- ----- ------------
_CODE                               00000200    00003D43 =       15683. bytes (REL,CON)

      Value  Global                              Global Defined In Module
      -----  --------------------------------   ------------------------
     00000BEC  _devkit_PSGResume                  _snd_manager
     00000BEF  A$_snd_manager$210                 _snd_manager
     00000BEF  C$_snd_manager.c$29$1_0$44         _snd_manager
     00000BEF  C$_snd_manager.c$31$1_0$44         _snd_manager
     00000BEF  C$_snd_manager.c$32$1_0$44         _snd_manager
     00000BEF  G$devkit_PSGGetStatus$0$0          _snd_manager
     00000BEF  XG$devkit_PSGGetStatus$0$0         _snd_manager
     00000BEF  _devkit_PSGGetStatus               _snd_manager
     00000BF2  A$_snd_manager$223                 _snd_manager
     00000BF2  C$_snd_manager.c$33$1_0$46         _snd_manager
     00000BF2  C$_snd_manager.c$35$1_0$46         _snd_manager
     00000BF2  G$devkit_PSGSetMusicVolumeAttenu   _snd_manager
     00000BF2  _devkit_PSGSetMusicVolumeAttenua   _snd_manager
     00000BF5  A$_snd_manager$224                 _snd_manager
     00000BF6  A$_snd_manager$225                 _snd_manager
     00000BF7  A$_snd_manager$226                 _snd_manager
     00000BF8  A$_snd_manager$227                 _snd_manager
     00000BF9  A$_snd_manager$228                 _snd_manager
     00000BFC  A$_snd_manager$229                 _snd_manager
     00000BFD  A$_snd_manager$237                 _snd_manager
     00000BFD  C$_snd_manager.c$36$1_0$46         _snd_manager
     00000BFD  XG$devkit_PSGSetMusicVolumeAtten   _snd_manager
     00000BFE  A$_snd_manager$250                 _snd_manager
     00000BFE  C$_snd_manager.c$38$1_0$48         _snd_manager
     00000BFE  C$_snd_manager.c$40$1_0$48         _snd_manager
     00000BFE  G$devkit_PSGSFXPlay$0$0            _snd_manager
     00000BFE  _devkit_PSGSFXPlay                 _snd_manager
     00000C02  A$_snd_manager$251                 _snd_manager
     00000C04  A$_snd_manager$252                 _snd_manager
     00000C07  A$_snd_manager$253                 _snd_manager
     00000C08  A$_snd_manager$254                 _snd_manager
     00000C09  A$_snd_manager$255                 _snd_manager
     00000C0C  A$_snd_manager$256                 _snd_manager
     00000C0F  A$_snd_manager$257                 _snd_manager
     00000C10  A$_snd_manager$258                 _snd_manager
     00000C13  A$_snd_manager$259                 _snd_manager
     00000C14  A$_snd_manager$260                 _snd_manager
     00000C15  A$_snd_manager$268                 _snd_manager
     00000C15  C$_snd_manager.c$41$1_0$48         _snd_manager
     00000C15  XG$devkit_PSGSFXPlay$0$0           _snd_manager
     00000C16  A$_snd_manager$281                 _snd_manager
     00000C16  C$_snd_manager.c$42$1_0$50         _snd_manager
     00000C16  C$_snd_manager.c$44$1_0$50         _snd_manager
     00000C16  G$devkit_PSGSFXPlayLoop$0$0        _snd_manager
     00000C16  _devkit_PSGSFXPlayLoop             _snd_manager
     00000C1A  A$_snd_manager$282                 _snd_manager
     00000C1C  A$_snd_manager$283                 _snd_manager
     00000C1F  A$_snd_manager$284                 _snd_manager
     00000C20  A$_snd_manager$285                 _snd_manager
     00000C21  A$_snd_manager$286                 _snd_manager
     00000C24  A$_snd_manager$287                 _snd_manager
ASxxxx Linker V03.00 + NoICE + sdld,  page 23.
Hexadecimal  [32-Bits]

Area                                    Addr        Size        Decimal Bytes (Attributes)
--------------------------------        ----        ----        ------- ----- ------------
_CODE                               00000200    00003D43 =       15683. bytes (REL,CON)

      Value  Global                              Global Defined In Module
      -----  --------------------------------   ------------------------
     00000C27  A$_snd_manager$288                 _snd_manager
     00000C28  A$_snd_manager$289                 _snd_manager
     00000C2B  A$_snd_manager$290                 _snd_manager
     00000C2C  A$_snd_manager$291                 _snd_manager
     00000C2D  A$_snd_manager$299                 _snd_manager
     00000C2D  C$_snd_manager.c$45$1_0$50         _snd_manager
     00000C2D  XG$devkit_PSGSFXPlayLoop$0$0       _snd_manager
     00000C2E  A$_snd_manager$319                 _snd_manager
     00000C2E  C$_snd_manager.c$46$1_0$52         _snd_manager
     00000C2E  C$_snd_manager.c$48$1_0$52         _snd_manager
     00000C2E  C$_snd_manager.c$49$1_0$52         _snd_manager
     00000C2E  G$devkit_PSGSFXCancelLoop$0$0      _snd_manager
     00000C2E  XG$devkit_PSGSFXCancelLoop$0$0     _snd_manager
     00000C2E  _devkit_PSGSFXCancelLoop           _snd_manager
     00000C31  A$_snd_manager$339                 _snd_manager
     00000C31  C$_snd_manager.c$50$1_0$54         _snd_manager
     00000C31  C$_snd_manager.c$52$1_0$54         _snd_manager
     00000C31  C$_snd_manager.c$53$1_0$54         _snd_manager
     00000C31  G$devkit_PSGSFXStop$0$0            _snd_manager
     00000C31  XG$devkit_PSGSFXStop$0$0           _snd_manager
     00000C31  _devkit_PSGSFXStop                 _snd_manager
     00000C34  A$_snd_manager$359                 _snd_manager
     00000C34  C$_snd_manager.c$54$1_0$56         _snd_manager
     00000C34  C$_snd_manager.c$56$1_0$56         _snd_manager
     00000C34  C$_snd_manager.c$57$1_0$56         _snd_manager
     00000C34  G$devkit_PSGSFXGetStatus$0$0       _snd_manager
     00000C34  XG$devkit_PSGSFXGetStatus$0$0      _snd_manager
     00000C34  _devkit_PSGSFXGetStatus            _snd_manager
     00000C37  A$_snd_manager$379                 _snd_manager
     00000C37  C$_snd_manager.c$59$1_0$58         _snd_manager
     00000C37  C$_snd_manager.c$61$1_0$58         _snd_manager
     00000C37  C$_snd_manager.c$62$1_0$58         _snd_manager
     00000C37  G$devkit_PSGSilenceChannels$0$0    _snd_manager
     00000C37  XG$devkit_PSGSilenceChannels$0$0   _snd_manager
     00000C37  _devkit_PSGSilenceChannels         _snd_manager
     00000C3A  A$_snd_manager$399                 _snd_manager
     00000C3A  C$_snd_manager.c$63$1_0$60         _snd_manager
     00000C3A  C$_snd_manager.c$65$1_0$60         _snd_manager
     00000C3A  C$_snd_manager.c$66$1_0$60         _snd_manager
     00000C3A  G$devkit_PSGRestoreVolumes$0$0     _snd_manager
     00000C3A  XG$devkit_PSGRestoreVolumes$0$0    _snd_manager
     00000C3A  _devkit_PSGRestoreVolumes          _snd_manager
     00000C3D  A$_snd_manager$419                 _snd_manager
     00000C3D  C$_snd_manager.c$68$1_0$62         _snd_manager
     00000C3D  C$_snd_manager.c$70$1_0$62         _snd_manager
     00000C3D  C$_snd_manager.c$71$1_0$62         _snd_manager
     00000C3D  G$devkit_PSGFrame$0$0              _snd_manager
     00000C3D  XG$devkit_PSGFrame$0$0             _snd_manager
     00000C3D  _devkit_PSGFrame                   _snd_manager
     00000C40  A$_snd_manager$439                 _snd_manager
     00000C40  C$_snd_manager.c$72$1_0$64         _snd_manager
ASxxxx Linker V03.00 + NoICE + sdld,  page 24.
Hexadecimal  [32-Bits]

Area                                    Addr        Size        Decimal Bytes (Attributes)
--------------------------------        ----        ----        ------- ----- ------------
_CODE                               00000200    00003D43 =       15683. bytes (REL,CON)

      Value  Global                              Global Defined In Module
      -----  --------------------------------   ------------------------
     00000C40  C$_snd_manager.c$74$1_0$64         _snd_manager
     00000C40  C$_snd_manager.c$75$1_0$64         _snd_manager
     00000C40  G$devkit_PSGSFXFrame$0$0           _snd_manager
     00000C40  XG$devkit_PSGSFXFrame$0$0          _snd_manager
     00000C40  _devkit_PSGSFXFrame                _snd_manager
     00000C43  A$_snd_manager$452                 _snd_manager
     00000C43  C$_snd_manager.c$78$1_0$65         _snd_manager
     00000C43  C$_snd_manager.c$80$1_0$65         _snd_manager
     00000C43  G$devkit_SFX_CHANNEL2$0$0          _snd_manager
     00000C43  _devkit_SFX_CHANNEL2               _snd_manager
     00000C45  A$_snd_manager$460                 _snd_manager
     00000C45  C$_snd_manager.c$81$1_0$65         _snd_manager
     00000C45  XG$devkit_SFX_CHANNEL2$0$0         _snd_manager
     00000C46  A$_snd_manager$473                 _snd_manager
     00000C46  C$_snd_manager.c$82$1_0$66         _snd_manager
     00000C46  C$_snd_manager.c$84$1_0$66         _snd_manager
     00000C46  G$devkit_SFX_CHANNEL3$0$0          _snd_manager
     00000C46  _devkit_SFX_CHANNEL3               _snd_manager
     00000C48  A$_snd_manager$481                 _snd_manager
     00000C48  C$_snd_manager.c$85$1_0$66         _snd_manager
     00000C48  XG$devkit_SFX_CHANNEL3$0$0         _snd_manager
     00000C49  A$_snd_manager$494                 _snd_manager
     00000C49  C$_snd_manager.c$86$1_0$67         _snd_manager
     00000C49  C$_snd_manager.c$88$1_0$67         _snd_manager
     00000C49  G$devkit_SFX_CHANNELS2AND3$0$0     _snd_manager
     00000C49  _devkit_SFX_CHANNELS2AND3          _snd_manager
     00000C4B  A$_snd_manager$502                 _snd_manager
     00000C4B  C$_snd_manager.c$89$1_0$67         _snd_manager
     00000C4B  XG$devkit_SFX_CHANNELS2AND3$0$0    _snd_manager
     00000C4C  A$asm_manager$59                   asm_manager
     00000C4C  C$asm_manager.c$11$0_0$1           asm_manager
     00000C4C  C$asm_manager.c$30$1_0$1           asm_manager
     00000C4C  G$engine_asm_manager_clear_VRAM$   asm_manager
     00000C4C  _engine_asm_manager_clear_VRAM     asm_manager
     00000C4E  A$asm_manager$60                   asm_manager
     00000C50  A$asm_manager$61                   asm_manager
     00000C52  A$asm_manager$62                   asm_manager
     00000C54  A$asm_manager$63                   asm_manager
     00000C57  A$asm_manager$65                   asm_manager
     00000C59  A$asm_manager$66                   asm_manager
     00000C5B  A$asm_manager$67                   asm_manager
     00000C5C  A$asm_manager$68                   asm_manager
     00000C5D  A$asm_manager$69                   asm_manager
     00000C5E  A$asm_manager$70                   asm_manager
     00000C61  A$asm_manager$78                   asm_manager
     00000C61  C$asm_manager.c$33$1_0$1           asm_manager
     00000C61  XG$engine_asm_manager_clear_VRAM   asm_manager
     00000C62  A$content_manager$61               content_manager
     00000C62  C$content_manager.c$10$0_0$18      content_manager
     00000C62  C$content_manager.c$13$1_0$18      content_manager
     00000C62  G$engine_content_manager_load_ti   content_manager
ASxxxx Linker V03.00 + NoICE + sdld,  page 25.
Hexadecimal  [32-Bits]

Area                                    Addr        Size        Decimal Bytes (Attributes)
--------------------------------        ----        ----        ------- ----- ------------
_CODE                               00000200    00003D43 =       15683. bytes (REL,CON)

      Value  Global                              Global Defined In Module
      -----  --------------------------------   ------------------------
     00000C62  _engine_content_manager_load_til   content_manager
     00000C65  A$content_manager$62               content_manager
     00000C66  A$content_manager$63               content_manager
     00000C69  A$content_manager$64               content_manager
     00000C6A  A$content_manager$65               content_manager
     00000C6D  A$content_manager$66               content_manager
     00000C6E  A$content_manager$70               content_manager
     00000C6E  C$content_manager.c$14$1_0$18      content_manager
     00000C71  A$content_manager$71               content_manager
     00000C72  A$content_manager$72               content_manager
     00000C75  A$content_manager$76               content_manager
     00000C75  C$content_manager.c$17$1_0$18      content_manager
     00000C78  A$content_manager$77               content_manager
     00000C79  A$content_manager$78               content_manager
     00000C7C  A$content_manager$79               content_manager
     00000C7D  A$content_manager$80               content_manager
     00000C80  A$content_manager$81               content_manager
     00000C81  A$content_manager$85               content_manager
     00000C81  C$content_manager.c$18$1_0$18      content_manager
     00000C84  A$content_manager$86               content_manager
     00000C85  A$content_manager$87               content_manager
     00000C88  A$content_manager$88               content_manager
     00000C89  A$content_manager$96               content_manager
     00000C89  C$content_manager.c$19$1_0$18      content_manager
     00000C89  XG$engine_content_manager_load_t   content_manager
     00000C8A  A$content_manager$109              content_manager
     00000C8A  C$content_manager.c$21$1_0$19      content_manager
     00000C8A  C$content_manager.c$24$1_0$19      content_manager
     00000C8A  G$engine_content_manager_load_sp   content_manager
     00000C8A  _engine_content_manager_load_spr   content_manager
     00000C8D  A$content_manager$110              content_manager
     00000C8E  A$content_manager$111              content_manager
     00000C91  A$content_manager$112              content_manager
     00000C92  A$content_manager$113              content_manager
     00000C95  A$content_manager$114              content_manager
     00000C96  A$content_manager$118              content_manager
     00000C96  C$content_manager.c$25$1_0$19      content_manager
     00000C99  A$content_manager$119              content_manager
     00000C9A  A$content_manager$120              content_manager
     00000C9D  A$content_manager$121              content_manager
     00000C9E  A$content_manager$129              content_manager
     00000C9E  C$content_manager.c$26$1_0$19      content_manager
     00000C9E  XG$engine_content_manager_load_s   content_manager
     00000C9F  A$content_manager$142              content_manager
     00000C9F  C$content_manager.c$28$1_0$20      content_manager
     00000C9F  C$content_manager.c$30$1_0$20      content_manager
     00000C9F  G$engine_content_manager_load_sp   content_manager
     00000C9F  _engine_content_manager_load_spl   content_manager
     00000CA2  A$content_manager$143              content_manager
     00000CA3  A$content_manager$144              content_manager
     00000CA6  A$content_manager$145              content_manager
ASxxxx Linker V03.00 + NoICE + sdld,  page 26.
Hexadecimal  [32-Bits]

Area                                    Addr        Size        Decimal Bytes (Attributes)
--------------------------------        ----        ----        ------- ----- ------------
_CODE                               00000200    00003D43 =       15683. bytes (REL,CON)

      Value  Global                              Global Defined In Module
      -----  --------------------------------   ------------------------
     00000CA7  A$content_manager$146              content_manager
     00000CAA  A$content_manager$147              content_manager
     00000CAB  A$content_manager$151              content_manager
     00000CAB  C$content_manager.c$31$1_0$20      content_manager
     00000CAE  A$content_manager$152              content_manager
     00000CAF  A$content_manager$153              content_manager
     00000CB0  A$content_manager$154              content_manager
     00000CB1  A$content_manager$155              content_manager
     00000CB2  A$content_manager$156              content_manager
     00000CB3  A$content_manager$157              content_manager
     00000CB4  A$content_manager$158              content_manager
     00000CB5  A$content_manager$159              content_manager
     00000CB8  A$content_manager$160              content_manager
     00000CB9  A$content_manager$164              content_manager
     00000CB9  C$content_manager.c$32$1_0$20      content_manager
     00000CBC  A$content_manager$165              content_manager
     00000CBD  A$content_manager$166              content_manager
     00000CC0  A$content_manager$167              content_manager
     00000CC1  A$content_manager$175              content_manager
     00000CC1  C$content_manager.c$33$1_0$20      content_manager
     00000CC1  XG$engine_content_manager_load_s   content_manager
     00000CC2  A$enemy_manager$69                 enemy_manager
     00000CC2  C$enemy_manager.c$16$0_0$6         enemy_manager
     00000CC2  C$enemy_manager.c$18$1_0$6         enemy_manager
     00000CC2  C$enemy_manager.c$19$1_0$6         enemy_manager
     00000CC2  G$engine_enemy_manager_load$0$0    enemy_manager
     00000CC2  _engine_enemy_manager_load         enemy_manager
     00000CC5  A$enemy_manager$70                 enemy_manager
     00000CC6  A$enemy_manager$74                 enemy_manager
     00000CC6  C$enemy_manager.c$22$1_0$6         enemy_manager
     00000CC7  A$enemy_manager$75                 enemy_manager
     00000CCA  A$enemy_manager$76                 enemy_manager
     00000CCB  A$enemy_manager$77                 enemy_manager
     00000CCC  A$enemy_manager$78                 enemy_manager
     00000CCD  A$enemy_manager$79                 enemy_manager
     00000CD0  A$enemy_manager$80                 enemy_manager
     00000CD1  A$enemy_manager$81                 enemy_manager
     00000CD2  A$enemy_manager$82                 enemy_manager
     00000CD3  A$enemy_manager$83                 enemy_manager
     00000CD4  A$enemy_manager$84                 enemy_manager
     00000CD7  A$enemy_manager$85                 enemy_manager
     00000CDA  A$enemy_manager$86                 enemy_manager
     00000CDB  A$enemy_manager$87                 enemy_manager
     00000CDC  A$enemy_manager$88                 enemy_manager
     00000CDD  A$enemy_manager$92                 enemy_manager
     00000CDD  C$enemy_manager.c$23$1_0$6         enemy_manager
     00000CDE  A$enemy_manager$93                 enemy_manager
     00000CE1  A$enemy_manager$94                 enemy_manager
     00000CE2  A$enemy_manager$95                 enemy_manager
     00000CE3  A$enemy_manager$96                 enemy_manager
     00000CE4  A$enemy_manager$97                 enemy_manager
ASxxxx Linker V03.00 + NoICE + sdld,  page 27.
Hexadecimal  [32-Bits]

Area                                    Addr        Size        Decimal Bytes (Attributes)
--------------------------------        ----        ----        ------- ----- ------------
_CODE                               00000200    00003D43 =       15683. bytes (REL,CON)

      Value  Global                              Global Defined In Module
      -----  --------------------------------   ------------------------
     00000CE7  A$enemy_manager$98                 enemy_manager
     00000CE8  A$enemy_manager$99                 enemy_manager
     00000CEA  A$enemy_manager$100                enemy_manager
     00000CEB  A$enemy_manager$101                enemy_manager
     00000CEC  A$enemy_manager$102                enemy_manager
     00000CEF  A$enemy_manager$103                enemy_manager
     00000CF2  A$enemy_manager$104                enemy_manager
     00000CF3  A$enemy_manager$105                enemy_manager
     00000CF4  A$enemy_manager$106                enemy_manager
     00000CF5  A$enemy_manager$110                enemy_manager
     00000CF5  C$enemy_manager.c$24$1_0$6         enemy_manager
     00000CF8  A$enemy_manager$111                enemy_manager
     00000CF9  A$enemy_manager$112                enemy_manager
     00000CFA  A$enemy_manager$113                enemy_manager
     00000CFB  A$enemy_manager$114                enemy_manager
     00000CFE  A$enemy_manager$115                enemy_manager
     00000CFF  A$enemy_manager$116                enemy_manager
     00000D01  A$enemy_manager$117                enemy_manager
     00000D02  A$enemy_manager$118                enemy_manager
     00000D03  A$enemy_manager$119                enemy_manager
     00000D06  A$enemy_manager$120                enemy_manager
     00000D09  A$enemy_manager$121                enemy_manager
     00000D0A  A$enemy_manager$122                enemy_manager
     00000D0B  A$enemy_manager$126                enemy_manager
     00000D0B  C$enemy_manager.c$26$2_0$6         enemy_manager
     00000D0D  A$enemy_manager$131                enemy_manager
     00000D0D  C$enemy_manager.c$28$3_0$8         enemy_manager
     00000D0E  A$enemy_manager$132                enemy_manager
     00000D0F  A$enemy_manager$133                enemy_manager
     00000D10  A$enemy_manager$134                enemy_manager
     00000D13  A$enemy_manager$135                enemy_manager
     00000D14  A$enemy_manager$136                enemy_manager
     00000D15  A$enemy_manager$140                enemy_manager
     00000D15  C$enemy_manager.c$26$2_0$7         enemy_manager
     00000D16  A$enemy_manager$141                enemy_manager
     00000D17  A$enemy_manager$142                enemy_manager
     00000D19  A$enemy_manager$143                enemy_manager
     00000D1B  A$enemy_manager$151                enemy_manager
     00000D1B  C$enemy_manager.c$30$2_0$6         enemy_manager
     00000D1B  XG$engine_enemy_manager_load$0$0   enemy_manager
     00000D1C  A$enemy_manager$164                enemy_manager
     00000D1C  C$enemy_manager.c$32$2_0$9         enemy_manager
     00000D1C  C$enemy_manager.c$34$1_0$9         enemy_manager
     00000D1C  G$engine_enemy_manager_toggle_co   enemy_manager
     00000D1C  _engine_enemy_manager_toggle_col   enemy_manager
     00000D1F  A$enemy_manager$165                enemy_manager
     00000D20  A$enemy_manager$169                enemy_manager
     00000D20  C$enemy_manager.c$35$1_0$9         enemy_manager
     00000D21  A$enemy_manager$170                enemy_manager
     00000D23  A$enemy_manager$174                enemy_manager
     00000D23  C$enemy_manager.c$37$2_0$10        enemy_manager
ASxxxx Linker V03.00 + NoICE + sdld,  page 28.
Hexadecimal  [32-Bits]

Area                                    Addr        Size        Decimal Bytes (Attributes)
--------------------------------        ----        ----        ------- ----- ------------
_CODE                               00000200    00003D43 =       15683. bytes (REL,CON)

      Value  Global                              Global Defined In Module
      -----  --------------------------------   ------------------------
     00000D24  A$enemy_manager$175                enemy_manager
     00000D25  A$enemy_manager$176                enemy_manager
     00000D26  A$enemy_manager$177                enemy_manager
     00000D29  A$enemy_manager$178                enemy_manager
     00000D2A  A$enemy_manager$183                enemy_manager
     00000D2A  C$enemy_manager.c$39$1_0$9         enemy_manager
     00000D2D  A$enemy_manager$184                enemy_manager
     00000D2E  A$enemy_manager$188                enemy_manager
     00000D2E  C$enemy_manager.c$40$1_0$9         enemy_manager
     00000D2F  A$enemy_manager$189                enemy_manager
     00000D31  A$enemy_manager$193                enemy_manager
     00000D31  C$enemy_manager.c$42$2_0$11        enemy_manager
     00000D33  A$enemy_manager$194                enemy_manager
     00000D34  A$enemy_manager$195                enemy_manager
     00000D35  A$enemy_manager$196                enemy_manager
     00000D38  A$enemy_manager$197                enemy_manager
     00000D39  A$enemy_manager$202                enemy_manager
     00000D39  C$enemy_manager.c$44$1_0$9         enemy_manager
     00000D3C  A$enemy_manager$203                enemy_manager
     00000D3D  A$enemy_manager$207                enemy_manager
     00000D3D  C$enemy_manager.c$45$1_0$9         enemy_manager
     00000D3E  A$enemy_manager$208                enemy_manager
     00000D3F  A$enemy_manager$212                enemy_manager
     00000D3F  C$enemy_manager.c$47$2_0$12        enemy_manager
     00000D41  A$enemy_manager$213                enemy_manager
     00000D42  A$enemy_manager$214                enemy_manager
     00000D43  A$enemy_manager$215                enemy_manager
     00000D46  A$enemy_manager$216                enemy_manager
     00000D47  A$enemy_manager$224                enemy_manager
     00000D47  C$enemy_manager.c$49$1_0$9         enemy_manager
     00000D47  XG$engine_enemy_manager_toggle_c   enemy_manager
     00000D48  A$enemy_manager$234                enemy_manager
     00000D48  C$enemy_manager.c$51$1_0$13        enemy_manager
     00000D48  G$engine_enemy_manager_toggle_fr   enemy_manager
     00000D48  _engine_enemy_manager_toggle_fra   enemy_manager
     00000D4A  A$enemy_manager$235                enemy_manager
     00000D4E  A$enemy_manager$236                enemy_manager
     00000D50  A$enemy_manager$237                enemy_manager
     00000D51  A$enemy_manager$244                enemy_manager
     00000D51  C$enemy_manager.c$53$1_0$13        enemy_manager
     00000D51  C$enemy_manager.c$57$1_0$13        enemy_manager
     00000D54  A$enemy_manager$245                enemy_manager
     00000D55  A$enemy_manager$252                enemy_manager
     00000D55  C$enemy_manager.c$59$2_0$14        enemy_manager
     00000D55  C$enemy_manager.c$62$2_0$13        enemy_manager
     00000D57  A$enemy_manager$253                enemy_manager
     00000D59  A$enemy_manager$258                enemy_manager
     00000D59  C$enemy_manager.c$64$3_0$16        enemy_manager
     00000D5B  A$enemy_manager$259                enemy_manager
     00000D5C  A$enemy_manager$260                enemy_manager
     00000D5D  A$enemy_manager$261                enemy_manager
ASxxxx Linker V03.00 + NoICE + sdld,  page 29.
Hexadecimal  [32-Bits]

Area                                    Addr        Size        Decimal Bytes (Attributes)
--------------------------------        ----        ----        ------- ----- ------------
_CODE                               00000200    00003D43 =       15683. bytes (REL,CON)

      Value  Global                              Global Defined In Module
      -----  --------------------------------   ------------------------
     00000D5E  A$enemy_manager$262                enemy_manager
     00000D5F  A$enemy_manager$263                enemy_manager
     00000D60  A$enemy_manager$264                enemy_manager
     00000D61  A$enemy_manager$265                enemy_manager
     00000D62  A$enemy_manager$266                enemy_manager
     00000D65  A$enemy_manager$267                enemy_manager
     00000D66  A$enemy_manager$268                enemy_manager
     00000D67  A$enemy_manager$272                enemy_manager
     00000D67  C$enemy_manager.c$65$3_0$16        enemy_manager
     00000D6A  A$enemy_manager$273                enemy_manager
     00000D6C  A$enemy_manager$274                enemy_manager
     00000D6D  A$enemy_manager$275                enemy_manager
     00000D70  A$enemy_manager$276                enemy_manager
     00000D72  A$enemy_manager$277                enemy_manager
     00000D73  A$enemy_manager$278                enemy_manager
     00000D74  A$enemy_manager$279                enemy_manager
     00000D75  A$enemy_manager$280                enemy_manager
     00000D76  A$enemy_manager$281                enemy_manager
     00000D77  A$enemy_manager$282                enemy_manager
     00000D78  A$enemy_manager$286                enemy_manager
     00000D78  C$enemy_manager.c$67$3_0$16        enemy_manager
     00000D79  A$enemy_manager$287                enemy_manager
     00000D7A  A$enemy_manager$288                enemy_manager
     00000D7B  A$enemy_manager$289                enemy_manager
     00000D7C  A$enemy_manager$290                enemy_manager
     00000D7D  A$enemy_manager$291                enemy_manager
     00000D7E  A$enemy_manager$292                enemy_manager
     00000D7F  A$enemy_manager$293                enemy_manager
     00000D80  A$enemy_manager$294                enemy_manager
     00000D81  A$enemy_manager$295                enemy_manager
     00000D82  A$enemy_manager$296                enemy_manager
     00000D84  A$enemy_manager$300                enemy_manager
     00000D84  C$enemy_manager.c$69$4_0$17        enemy_manager
     00000D85  A$enemy_manager$301                enemy_manager
     00000D86  A$enemy_manager$305                enemy_manager
     00000D86  C$enemy_manager.c$70$4_0$17        enemy_manager
     00000D87  A$enemy_manager$306                enemy_manager
     00000D88  A$enemy_manager$307                enemy_manager
     00000D89  A$enemy_manager$308                enemy_manager
     00000D8A  A$enemy_manager$309                enemy_manager
     00000D8D  A$enemy_manager$310                enemy_manager
     00000D8E  A$enemy_manager$311                enemy_manager
     00000D8F  A$enemy_manager$316                enemy_manager
     00000D8F  C$enemy_manager.c$62$2_0$15        enemy_manager
     00000D90  A$enemy_manager$317                enemy_manager
     00000D91  A$enemy_manager$318                enemy_manager
     00000D93  A$enemy_manager$319                enemy_manager
     00000D95  A$enemy_manager$324                enemy_manager
     00000D97  A$enemy_manager$325                enemy_manager
     00000D99  A$enemy_manager$330                enemy_manager
     00000D99  C$enemy_manager.c$73$2_0$13        enemy_manager
ASxxxx Linker V03.00 + NoICE + sdld,  page 30.
Hexadecimal  [32-Bits]

Area                                    Addr        Size        Decimal Bytes (Attributes)
--------------------------------        ----        ----        ------- ----- ------------
_CODE                               00000200    00003D43 =       15683. bytes (REL,CON)

      Value  Global                              Global Defined In Module
      -----  --------------------------------   ------------------------
     00000D99  XG$engine_enemy_manager_toggle_f   enemy_manager
     00000D9A  A$enemy_manager$343                enemy_manager
     00000D9A  C$enemy_manager.c$75$2_0$19        enemy_manager
     00000D9A  C$enemy_manager.c$80$3_0$20        enemy_manager
     00000D9A  G$engine_enemy_manager_draw$0$0    enemy_manager
     00000D9A  _engine_enemy_manager_draw         enemy_manager
     00000D9C  A$enemy_manager$348                enemy_manager
     00000D9C  C$enemy_manager.c$82$3_0$20        enemy_manager
     00000D9E  A$enemy_manager$349                enemy_manager
     00000D9F  A$enemy_manager$350                enemy_manager
     00000DA0  A$enemy_manager$351                enemy_manager
     00000DA1  A$enemy_manager$352                enemy_manager
     00000DA2  A$enemy_manager$353                enemy_manager
     00000DA3  A$enemy_manager$354                enemy_manager
     00000DA4  A$enemy_manager$355                enemy_manager
     00000DA5  A$enemy_manager$356                enemy_manager
     00000DA8  A$enemy_manager$357                enemy_manager
     00000DA9  A$enemy_manager$361                enemy_manager
     00000DA9  C$enemy_manager.c$83$3_0$20        enemy_manager
     00000DAA  A$enemy_manager$362                enemy_manager
     00000DAB  A$enemy_manager$363                enemy_manager
     00000DAC  A$enemy_manager$364                enemy_manager
     00000DAF  A$enemy_manager$365                enemy_manager
     00000DB0  A$enemy_manager$366                enemy_manager
     00000DB1  A$enemy_manager$367                enemy_manager
     00000DB2  A$enemy_manager$368                enemy_manager
     00000DB3  A$enemy_manager$369                enemy_manager
     00000DB4  A$enemy_manager$370                enemy_manager
     00000DB5  A$enemy_manager$371                enemy_manager
     00000DB6  A$enemy_manager$372                enemy_manager
     00000DB7  A$enemy_manager$373                enemy_manager
     00000DB8  A$enemy_manager$374                enemy_manager
     00000DB9  A$enemy_manager$375                enemy_manager
     00000DBA  A$enemy_manager$376                enemy_manager
     00000DBB  A$enemy_manager$377                enemy_manager
     00000DBC  A$enemy_manager$378                enemy_manager
     00000DBD  A$enemy_manager$379                enemy_manager
     00000DBE  A$enemy_manager$380                enemy_manager
     00000DBF  A$enemy_manager$381                enemy_manager
     00000DC0  A$enemy_manager$382                enemy_manager
     00000DC1  A$enemy_manager$383                enemy_manager
     00000DC2  A$enemy_manager$384                enemy_manager
     00000DC5  A$enemy_manager$385                enemy_manager
     00000DC6  A$enemy_manager$386                enemy_manager
     00000DC7  A$enemy_manager$387                enemy_manager
     00000DC8  A$enemy_manager$391                enemy_manager
     00000DC8  C$enemy_manager.c$80$2_0$19        enemy_manager
     00000DC9  A$enemy_manager$392                enemy_manager
     00000DCA  A$enemy_manager$393                enemy_manager
     00000DCC  A$enemy_manager$394                enemy_manager
     00000DCE  A$enemy_manager$402                enemy_manager
ASxxxx Linker V03.00 + NoICE + sdld,  page 31.
Hexadecimal  [32-Bits]

Area                                    Addr        Size        Decimal Bytes (Attributes)
--------------------------------        ----        ----        ------- ----- ------------
_CODE                               00000200    00003D43 =       15683. bytes (REL,CON)

      Value  Global                              Global Defined In Module
      -----  --------------------------------   ------------------------
     00000DCE  C$enemy_manager.c$85$2_0$19        enemy_manager
     00000DCE  XG$engine_enemy_manager_draw$0$0   enemy_manager
     00000DCF  A$enemy_manager$412                enemy_manager
     00000DCF  C$enemy_manager.c$87$2_0$22        enemy_manager
     00000DCF  Fenemy_manager$construction$0$0    enemy_manager
     00000DD1  A$enemy_manager$413                enemy_manager
     00000DD5  A$enemy_manager$414                enemy_manager
     00000DD7  A$enemy_manager$418                enemy_manager
     00000DD7  C$enemy_manager.c$89$1_0$22        enemy_manager
     00000DDA  A$enemy_manager$419                enemy_manager
     00000DDD  A$enemy_manager$420                enemy_manager
     00000DDF  A$enemy_manager$421                enemy_manager
     00000DE0  A$enemy_manager$422                enemy_manager
     00000DE1  A$enemy_manager$423                enemy_manager
     00000DE2  A$enemy_manager$424                enemy_manager
     00000DE3  A$enemy_manager$425                enemy_manager
     00000DE4  A$enemy_manager$426                enemy_manager
     00000DE5  A$enemy_manager$427                enemy_manager
     00000DE6  A$enemy_manager$428                enemy_manager
     00000DE7  A$enemy_manager$429                enemy_manager
     00000DE8  A$enemy_manager$433                enemy_manager
     00000DE8  C$enemy_manager.c$91$1_0$22        enemy_manager
     00000DEB  A$enemy_manager$434                enemy_manager
     00000DEC  A$enemy_manager$438                enemy_manager
     00000DEC  C$enemy_manager.c$92$1_0$22        enemy_manager
     00000DED  A$enemy_manager$439                enemy_manager
     00000DEE  A$enemy_manager$440                enemy_manager
     00000DEF  A$enemy_manager$441                enemy_manager
     00000DF2  A$enemy_manager$442                enemy_manager
     00000DF3  A$enemy_manager$446                enemy_manager
     00000DF3  C$enemy_manager.c$93$1_0$22        enemy_manager
     00000DF4  A$enemy_manager$447                enemy_manager
     00000DF5  A$enemy_manager$448                enemy_manager
     00000DF6  A$enemy_manager$449                enemy_manager
     00000DF7  A$enemy_manager$450                enemy_manager
     00000DFA  A$enemy_manager$451                enemy_manager
     00000DFB  A$enemy_manager$455                enemy_manager
     00000DFB  C$enemy_manager.c$94$1_0$22        enemy_manager
     00000DFC  A$enemy_manager$456                enemy_manager
     00000DFD  A$enemy_manager$457                enemy_manager
     00000DFE  A$enemy_manager$458                enemy_manager
     00000DFF  A$enemy_manager$459                enemy_manager
     00000E00  A$enemy_manager$460                enemy_manager
     00000E01  A$enemy_manager$461                enemy_manager
     00000E02  A$enemy_manager$465                enemy_manager
     00000E02  C$enemy_manager.c$95$1_0$22        enemy_manager
     00000E05  A$enemy_manager$466                enemy_manager
     00000E06  A$enemy_manager$467                enemy_manager
     00000E08  A$enemy_manager$471                enemy_manager
     00000E08  C$enemy_manager.c$96$1_0$22        enemy_manager
     00000E0B  A$enemy_manager$472                enemy_manager
ASxxxx Linker V03.00 + NoICE + sdld,  page 32.
Hexadecimal  [32-Bits]

Area                                    Addr        Size        Decimal Bytes (Attributes)
--------------------------------        ----        ----        ------- ----- ------------
_CODE                               00000200    00003D43 =       15683. bytes (REL,CON)

      Value  Global                              Global Defined In Module
      -----  --------------------------------   ------------------------
     00000E0C  A$enemy_manager$473                enemy_manager
     00000E0F  A$enemy_manager$474                enemy_manager
     00000E10  A$enemy_manager$478                enemy_manager
     00000E10  C$enemy_manager.c$97$1_0$22        enemy_manager
     00000E13  A$enemy_manager$479                enemy_manager
     00000E14  A$enemy_manager$480                enemy_manager
     00000E16  A$enemy_manager$484                enemy_manager
     00000E16  C$enemy_manager.c$98$1_0$22        enemy_manager
     00000E19  A$enemy_manager$485                enemy_manager
     00000E1A  A$enemy_manager$486                enemy_manager
     00000E1D  A$enemy_manager$487                enemy_manager
     00000E20  A$enemy_manager$488                enemy_manager
     00000E21  A$enemy_manager$489                enemy_manager
     00000E22  A$enemy_manager$490                enemy_manager
     00000E23  A$enemy_manager$491                enemy_manager
     00000E24  A$enemy_manager$495                enemy_manager
     00000E26  A$enemy_manager$500                enemy_manager
     00000E26  C$enemy_manager.c$99$1_0$22        enemy_manager
     00000E26  XFenemy_manager$construction$0$0   enemy_manager
     00000E27  A$enemy_manager$510                enemy_manager
     00000E27  C$enemy_manager.c$101$1_0$24       enemy_manager
     00000E27  Fenemy_manager$toggle_color$0$0    enemy_manager
     00000E29  A$enemy_manager$511                enemy_manager
     00000E2D  A$enemy_manager$512                enemy_manager
     00000E2F  A$enemy_manager$516                enemy_manager
     00000E2F  C$enemy_manager.c$103$1_0$24       enemy_manager
     00000E32  A$enemy_manager$517                enemy_manager
     00000E35  A$enemy_manager$518                enemy_manager
     00000E37  A$enemy_manager$519                enemy_manager
     00000E38  A$enemy_manager$520                enemy_manager
     00000E39  A$enemy_manager$521                enemy_manager
     00000E3A  A$enemy_manager$522                enemy_manager
     00000E3B  A$enemy_manager$523                enemy_manager
     00000E3C  A$enemy_manager$524                enemy_manager
     00000E3D  A$enemy_manager$525                enemy_manager
     00000E3E  A$enemy_manager$526                enemy_manager
     00000E3F  A$enemy_manager$530                enemy_manager
     00000E3F  C$enemy_manager.c$104$1_0$24       enemy_manager
     00000E40  A$enemy_manager$531                enemy_manager
     00000E41  A$enemy_manager$532                enemy_manager
     00000E42  A$enemy_manager$533                enemy_manager
     00000E43  A$enemy_manager$534                enemy_manager
     00000E45  A$enemy_manager$535                enemy_manager
     00000E46  A$enemy_manager$536                enemy_manager
     00000E47  A$enemy_manager$540                enemy_manager
     00000E47  C$enemy_manager.c$105$1_0$24       enemy_manager
     00000E4A  A$enemy_manager$541                enemy_manager
     00000E4B  A$enemy_manager$542                enemy_manager
     00000E4C  A$enemy_manager$543                enemy_manager
     00000E4F  A$enemy_manager$544                enemy_manager
     00000E50  A$enemy_manager$548                enemy_manager
ASxxxx Linker V03.00 + NoICE + sdld,  page 33.
Hexadecimal  [32-Bits]

Area                                    Addr        Size        Decimal Bytes (Attributes)
--------------------------------        ----        ----        ------- ----- ------------
_CODE                               00000200    00003D43 =       15683. bytes (REL,CON)

      Value  Global                              Global Defined In Module
      -----  --------------------------------   ------------------------
     00000E52  A$enemy_manager$553                enemy_manager
     00000E52  C$enemy_manager.c$106$1_0$24       enemy_manager
     00000E52  XFenemy_manager$toggle_color$0$0   enemy_manager
     00000E53  A$enemy_manager$563                enemy_manager
     00000E53  C$enemy_manager.c$107$1_0$26       enemy_manager
     00000E53  Fenemy_manager$toggle_frame$0$0    enemy_manager
     00000E55  A$enemy_manager$564                enemy_manager
     00000E59  A$enemy_manager$565                enemy_manager
     00000E5B  A$enemy_manager$569                enemy_manager
     00000E5B  C$enemy_manager.c$109$1_0$26       enemy_manager
     00000E5E  A$enemy_manager$570                enemy_manager
     00000E61  A$enemy_manager$571                enemy_manager
     00000E63  A$enemy_manager$572                enemy_manager
     00000E64  A$enemy_manager$573                enemy_manager
     00000E65  A$enemy_manager$574                enemy_manager
     00000E66  A$enemy_manager$575                enemy_manager
     00000E67  A$enemy_manager$576                enemy_manager
     00000E68  A$enemy_manager$577                enemy_manager
     00000E69  A$enemy_manager$578                enemy_manager
     00000E6A  A$enemy_manager$579                enemy_manager
     00000E6B  A$enemy_manager$583                enemy_manager
     00000E6B  C$enemy_manager.c$110$1_0$26       enemy_manager
     00000E6E  A$enemy_manager$584                enemy_manager
     00000E6F  A$enemy_manager$585                enemy_manager
     00000E70  A$enemy_manager$586                enemy_manager
     00000E72  A$enemy_manager$587                enemy_manager
     00000E73  A$enemy_manager$588                enemy_manager
     00000E74  A$enemy_manager$592                enemy_manager
     00000E74  C$enemy_manager.c$111$1_0$26       enemy_manager
     00000E77  A$enemy_manager$593                enemy_manager
     00000E78  A$enemy_manager$594                enemy_manager
     00000E79  A$enemy_manager$595                enemy_manager
     00000E7C  A$enemy_manager$596                enemy_manager
     00000E7D  A$enemy_manager$600                enemy_manager
     00000E7F  A$enemy_manager$605                enemy_manager
     00000E7F  C$enemy_manager.c$112$1_0$26       enemy_manager
     00000E7F  XFenemy_manager$toggle_frame$0$0   enemy_manager
     00000E80  A$enemy_manager$615                enemy_manager
     00000E80  C$enemy_manager.c$113$1_0$28       enemy_manager
     00000E80  Fenemy_manager$calculate_tile$0$   enemy_manager
     00000E82  A$enemy_manager$616                enemy_manager
     00000E86  A$enemy_manager$617                enemy_manager
     00000E88  A$enemy_manager$618                enemy_manager
     00000E89  A$enemy_manager$619                enemy_manager
     00000E8A  A$enemy_manager$623                enemy_manager
     00000E8A  C$enemy_manager.c$115$1_0$28       enemy_manager
     00000E8D  A$enemy_manager$624                enemy_manager
     00000E90  A$enemy_manager$625                enemy_manager
     00000E92  A$enemy_manager$626                enemy_manager
     00000E93  A$enemy_manager$627                enemy_manager
     00000E94  A$enemy_manager$628                enemy_manager
ASxxxx Linker V03.00 + NoICE + sdld,  page 34.
Hexadecimal  [32-Bits]

Area                                    Addr        Size        Decimal Bytes (Attributes)
--------------------------------        ----        ----        ------- ----- ------------
_CODE                               00000200    00003D43 =       15683. bytes (REL,CON)

      Value  Global                              Global Defined In Module
      -----  --------------------------------   ------------------------
     00000E95  A$enemy_manager$629                enemy_manager
     00000E96  A$enemy_manager$630                enemy_manager
     00000E97  A$enemy_manager$631                enemy_manager
     00000E98  A$enemy_manager$632                enemy_manager
     00000E99  A$enemy_manager$633                enemy_manager
     00000E9A  A$enemy_manager$634                enemy_manager
     00000E9B  A$enemy_manager$638                enemy_manager
     00000E9B  C$enemy_manager.c$116$1_0$28       enemy_manager
     00000E9E  A$enemy_manager$639                enemy_manager
     00000E9F  A$enemy_manager$640                enemy_manager
     00000EA0  A$enemy_manager$641                enemy_manager
     00000EA1  A$enemy_manager$642                enemy_manager
     00000EA2  A$enemy_manager$643                enemy_manager
     00000EA5  A$enemy_manager$644                enemy_manager
     00000EA6  A$enemy_manager$645                enemy_manager
     00000EA7  A$enemy_manager$646                enemy_manager
     00000EA8  A$enemy_manager$647                enemy_manager
     00000EA9  A$enemy_manager$648                enemy_manager
     00000EAA  A$enemy_manager$649                enemy_manager
     00000EAB  A$enemy_manager$650                enemy_manager
     00000EAC  A$enemy_manager$651                enemy_manager
     00000EAD  A$enemy_manager$652                enemy_manager
     00000EAE  A$enemy_manager$653                enemy_manager
     00000EAF  A$enemy_manager$654                enemy_manager
     00000EB1  A$enemy_manager$655                enemy_manager
     00000EB2  A$enemy_manager$656                enemy_manager
     00000EB5  A$enemy_manager$657                enemy_manager
     00000EB8  A$enemy_manager$658                enemy_manager
     00000EBB  A$enemy_manager$659                enemy_manager
     00000EBC  A$enemy_manager$660                enemy_manager
     00000EBD  A$enemy_manager$661                enemy_manager
     00000EBF  A$enemy_manager$662                enemy_manager
     00000EC2  A$enemy_manager$663                enemy_manager
     00000EC5  A$enemy_manager$664                enemy_manager
     00000EC6  A$enemy_manager$665                enemy_manager
     00000EC7  A$enemy_manager$666                enemy_manager
     00000EC8  A$enemy_manager$667                enemy_manager
     00000EC9  A$enemy_manager$668                enemy_manager
     00000ECA  A$enemy_manager$669                enemy_manager
     00000ECB  A$enemy_manager$670                enemy_manager
     00000ECC  A$enemy_manager$671                enemy_manager
     00000ECD  A$enemy_manager$672                enemy_manager
     00000ECE  A$enemy_manager$676                enemy_manager
     00000ED0  A$enemy_manager$677                enemy_manager
     00000ED2  A$enemy_manager$682                enemy_manager
     00000ED2  C$enemy_manager.c$117$1_0$28       enemy_manager
     00000ED2  XFenemy_manager$calculate_tile$0   enemy_manager
     00000ED3  A$font_manager$63                  font_manager
     00000ED3  C$font_manager.c$10$0_0$23         font_manager
     00000ED3  C$font_manager.c$12$2_0$23         font_manager
     00000ED3  C$font_manager.c$13$1_0$23         font_manager
ASxxxx Linker V03.00 + NoICE + sdld,  page 35.
Hexadecimal  [32-Bits]

Area                                    Addr        Size        Decimal Bytes (Attributes)
--------------------------------        ----        ----        ------- ----- ------------
_CODE                               00000200    00003D43 =       15683. bytes (REL,CON)

      Value  Global                              Global Defined In Module
      -----  --------------------------------   ------------------------
     00000ED3  G$engine_font_manager_draw_char$   font_manager
     00000ED3  _engine_font_manager_draw_char     font_manager
     00000ED7  A$font_manager$64                  font_manager
     00000ED9  A$font_manager$65                  font_manager
     00000EDC  A$font_manager$66                  font_manager
     00000EDE  A$font_manager$67                  font_manager
     00000EDF  A$font_manager$71                  font_manager
     00000EDF  C$font_manager.c$14$1_0$23         font_manager
     00000EE0  A$font_manager$72                  font_manager
     00000EE3  A$font_manager$73                  font_manager
     00000EE5  A$font_manager$74                  font_manager
     00000EE7  A$font_manager$75                  font_manager
     00000EE8  A$font_manager$76                  font_manager
     00000EE9  A$font_manager$77                  font_manager
     00000EEC  A$font_manager$78                  font_manager
     00000EED  A$font_manager$79                  font_manager
     00000EEE  A$font_manager$80                  font_manager
     00000EF1  A$font_manager$81                  font_manager
     00000EF2  A$font_manager$82                  font_manager
     00000EF3  A$font_manager$86                  font_manager
     00000EF3  C$font_manager.c$15$1_0$23         font_manager
     00000EF6  A$font_manager$87                  font_manager
     00000EF7  A$font_manager$88                  font_manager
     00000EF8  A$font_manager$89                  font_manager
     00000EF9  A$font_manager$90                  font_manager
     00000EFC  A$font_manager$91                  font_manager
     00000EFD  A$font_manager$99                  font_manager
     00000EFD  C$font_manager.c$16$1_0$23         font_manager
     00000EFD  XG$engine_font_manager_draw_char   font_manager
     00000EFE  A$font_manager$109                 font_manager
     00000EFE  C$font_manager.c$18$1_0$25         font_manager
     00000EFE  G$engine_font_manager_draw_text$   font_manager
     00000EFE  _engine_font_manager_draw_text     font_manager
     00000F00  A$font_manager$110                 font_manager
     00000F04  A$font_manager$111                 font_manager
     00000F06  A$font_manager$112                 font_manager
     00000F07  A$font_manager$119                 font_manager
     00000F07  C$font_manager.c$20$2_0$25         font_manager
     00000F07  C$font_manager.c$23$1_0$25         font_manager
     00000F0A  A$font_manager$120                 font_manager
     00000F0C  A$font_manager$122                 font_manager
     00000F0F  A$font_manager$123                 font_manager
     00000F12  A$font_manager$124                 font_manager
     00000F14  A$font_manager$125                 font_manager
     00000F15  A$font_manager$126                 font_manager
     00000F16  A$font_manager$127                 font_manager
     00000F17  A$font_manager$128                 font_manager
     00000F19  A$font_manager$132                 font_manager
     00000F19  C$font_manager.c$25$2_0$26         font_manager
     00000F1B  A$font_manager$133                 font_manager
     00000F1E  A$font_manager$137                 font_manager
ASxxxx Linker V03.00 + NoICE + sdld,  page 36.
Hexadecimal  [32-Bits]

Area                                    Addr        Size        Decimal Bytes (Attributes)
--------------------------------        ----        ----        ------- ----- ------------
_CODE                               00000200    00003D43 =       15683. bytes (REL,CON)

      Value  Global                              Global Defined In Module
      -----  --------------------------------   ------------------------
     00000F1E  C$font_manager.c$26$2_0$26         font_manager
     00000F1F  A$font_manager$138                 font_manager
     00000F20  A$font_manager$139                 font_manager
     00000F23  A$font_manager$140                 font_manager
     00000F24  A$font_manager$141                 font_manager
     00000F25  A$font_manager$142                 font_manager
     00000F28  A$font_manager$143                 font_manager
     00000F29  A$font_manager$144                 font_manager
     00000F2A  A$font_manager$145                 font_manager
     00000F2B  A$font_manager$146                 font_manager
     00000F2C  A$font_manager$147                 font_manager
     00000F2F  A$font_manager$148                 font_manager
     00000F30  A$font_manager$149                 font_manager
     00000F31  A$font_manager$150                 font_manager
     00000F32  A$font_manager$154                 font_manager
     00000F32  C$font_manager.c$27$2_0$26         font_manager
     00000F35  A$font_manager$155                 font_manager
     00000F38  A$font_manager$156                 font_manager
     00000F39  A$font_manager$157                 font_manager
     00000F3A  A$font_manager$158                 font_manager
     00000F3B  A$font_manager$159                 font_manager
     00000F3C  A$font_manager$160                 font_manager
     00000F3F  A$font_manager$161                 font_manager
     00000F40  A$font_manager$162                 font_manager
     00000F41  A$font_manager$163                 font_manager
     00000F42  A$font_manager$167                 font_manager
     00000F42  C$font_manager.c$28$2_0$26         font_manager
     00000F43  A$font_manager$168                 font_manager
     00000F45  A$font_manager$173                 font_manager
     00000F46  A$font_manager$174                 font_manager
     00000F48  A$font_manager$179                 font_manager
     00000F48  C$font_manager.c$30$1_0$25         font_manager
     00000F48  XG$engine_font_manager_draw_text   font_manager
     00000F49  A$font_manager$189                 font_manager
     00000F49  C$font_manager.c$32$1_0$29         font_manager
     00000F49  G$engine_font_manager_draw_data$   font_manager
     00000F49  _engine_font_manager_draw_data     font_manager
     00000F4B  A$font_manager$190                 font_manager
     00000F4F  A$font_manager$191                 font_manager
     00000F51  A$font_manager$192                 font_manager
     00000F54  A$font_manager$193                 font_manager
     00000F55  A$font_manager$194                 font_manager
     00000F56  A$font_manager$201                 font_manager
     00000F56  C$font_manager.c$34$2_0$29         font_manager
     00000F56  C$font_manager.c$43$3_0$30         font_manager
     00000F59  A$font_manager$202                 font_manager
     00000F5A  A$font_manager$203                 font_manager
     00000F5B  A$font_manager$204                 font_manager
     00000F5C  A$font_manager$205                 font_manager
     00000F5F  A$font_manager$206                 font_manager
     00000F62  A$font_manager$207                 font_manager
ASxxxx Linker V03.00 + NoICE + sdld,  page 37.
Hexadecimal  [32-Bits]

Area                                    Addr        Size        Decimal Bytes (Attributes)
--------------------------------        ----        ----        ------- ----- ------------
_CODE                               00000200    00003D43 =       15683. bytes (REL,CON)

      Value  Global                              Global Defined In Module
      -----  --------------------------------   ------------------------
     00000F66  A$font_manager$212                 font_manager
     00000F66  C$font_manager.c$45$2_0$29         font_manager
     00000F67  A$font_manager$213                 font_manager
     00000F6A  A$font_manager$214                 font_manager
     00000F6B  A$font_manager$215                 font_manager
     00000F6E  A$font_manager$216                 font_manager
     00000F71  A$font_manager$217                 font_manager
     00000F72  A$font_manager$218                 font_manager
     00000F75  A$font_manager$219                 font_manager
     00000F76  A$font_manager$220                 font_manager
     00000F77  A$font_manager$221                 font_manager
     00000F78  A$font_manager$222                 font_manager
     00000F79  A$font_manager$223                 font_manager
     00000F7C  A$font_manager$224                 font_manager
     00000F7F  A$font_manager$228                 font_manager
     00000F7F  C$font_manager.c$46$2_0$29         font_manager
     00000F80  A$font_manager$229                 font_manager
     00000F81  A$font_manager$230                 font_manager
     00000F84  A$font_manager$231                 font_manager
     00000F85  A$font_manager$232                 font_manager
     00000F88  A$font_manager$233                 font_manager
     00000F8B  A$font_manager$234                 font_manager
     00000F8C  A$font_manager$235                 font_manager
     00000F8F  A$font_manager$236                 font_manager
     00000F90  A$font_manager$237                 font_manager
     00000F91  A$font_manager$238                 font_manager
     00000F92  A$font_manager$239                 font_manager
     00000F93  A$font_manager$240                 font_manager
     00000F96  A$font_manager$244                 font_manager
     00000F96  C$font_manager.c$48$3_0$30         font_manager
     00000F99  A$font_manager$245                 font_manager
     00000F9B  A$font_manager$246                 font_manager
     00000F9C  A$font_manager$247                 font_manager
     00000F9F  A$font_manager$248                 font_manager
     00000FA0  A$font_manager$252                 font_manager
     00000FA0  C$font_manager.c$49$3_0$30         font_manager
     00000FA3  A$font_manager$253                 font_manager
     00000FA6  A$font_manager$257                 font_manager
     00000FA6  C$font_manager.c$51$3_0$30         font_manager
     00000FA9  A$font_manager$258                 font_manager
     00000FAB  A$font_manager$259                 font_manager
     00000FAC  A$font_manager$263                 font_manager
     00000FAC  C$font_manager.c$52$3_0$30         font_manager
     00000FAF  A$font_manager$264                 font_manager
     00000FB2  A$font_manager$265                 font_manager
     00000FB4  A$font_manager$266                 font_manager
     00000FB7  A$font_manager$267                 font_manager
     00000FB8  A$font_manager$268                 font_manager
     00000FBA  A$font_manager$269                 font_manager
     00000FBD  A$font_manager$270                 font_manager
     00000FBE  A$font_manager$271                 font_manager
ASxxxx Linker V03.00 + NoICE + sdld,  page 38.
Hexadecimal  [32-Bits]

Area                                    Addr        Size        Decimal Bytes (Attributes)
--------------------------------        ----        ----        ------- ----- ------------
_CODE                               00000200    00003D43 =       15683. bytes (REL,CON)

      Value  Global                              Global Defined In Module
      -----  --------------------------------   ------------------------
     00000FC0  A$font_manager$275                 font_manager
     00000FC0  C$font_manager.c$55$4_0$31         font_manager
     00000FC2  A$font_manager$280                 font_manager
     00000FC2  C$font_manager.c$58$3_0$30         font_manager
     00000FC5  A$font_manager$281                 font_manager
     00000FC8  A$font_manager$282                 font_manager
     00000FCB  A$font_manager$283                 font_manager
     00000FCE  A$font_manager$284                 font_manager
     00000FCF  A$font_manager$285                 font_manager
     00000FD0  A$font_manager$286                 font_manager
     00000FD3  A$font_manager$287                 font_manager
     00000FD4  A$font_manager$288                 font_manager
     00000FD5  A$font_manager$289                 font_manager
     00000FD6  A$font_manager$290                 font_manager
     00000FD7  A$font_manager$291                 font_manager
     00000FDA  A$font_manager$292                 font_manager
     00000FDB  A$font_manager$293                 font_manager
     00000FDC  A$font_manager$294                 font_manager
     00000FDD  A$font_manager$298                 font_manager
     00000FDD  C$font_manager.c$59$3_0$30         font_manager
     00000FE0  A$font_manager$299                 font_manager
     00000FE1  A$font_manager$300                 font_manager
     00000FE2  A$font_manager$301                 font_manager
     00000FE3  A$font_manager$302                 font_manager
     00000FE4  A$font_manager$303                 font_manager
     00000FE7  A$font_manager$304                 font_manager
     00000FE8  A$font_manager$305                 font_manager
     00000FE9  A$font_manager$309                 font_manager
     00000FE9  C$font_manager.c$43$2_0$29         font_manager
     00000FEC  A$font_manager$310                 font_manager
     00000FEF  A$font_manager$311                 font_manager
     00000FF1  A$font_manager$312                 font_manager
     00000FF4  A$font_manager$316                 font_manager
     00000FF6  A$font_manager$317                 font_manager
     00000FF8  A$font_manager$322                 font_manager
     00000FF8  C$font_manager.c$61$2_0$29         font_manager
     00000FF8  XG$engine_font_manager_draw_data   font_manager
     00000FF9  A$font_manager$332                 font_manager
     00000FF9  C$font_manager.c$63$2_0$34         font_manager
     00000FF9  G$engine_font_manager_draw_data_   font_manager
     00000FF9  _engine_font_manager_draw_data_Z   font_manager
     00000FFB  A$font_manager$333                 font_manager
     00000FFF  A$font_manager$334                 font_manager
     00001001  A$font_manager$335                 font_manager
     00001004  A$font_manager$336                 font_manager
     00001005  A$font_manager$337                 font_manager
     00001006  A$font_manager$344                 font_manager
     00001006  C$font_manager.c$65$2_0$34         font_manager
     00001006  C$font_manager.c$72$3_0$35         font_manager
     00001009  A$font_manager$345                 font_manager
     0000100A  A$font_manager$346                 font_manager
ASxxxx Linker V03.00 + NoICE + sdld,  page 39.
Hexadecimal  [32-Bits]

Area                                    Addr        Size        Decimal Bytes (Attributes)
--------------------------------        ----        ----        ------- ----- ------------
_CODE                               00000200    00003D43 =       15683. bytes (REL,CON)

      Value  Global                              Global Defined In Module
      -----  --------------------------------   ------------------------
     0000100D  A$font_manager$347                 font_manager
     00001010  A$font_manager$348                 font_manager
     00001013  A$font_manager$349                 font_manager
     00001016  A$font_manager$350                 font_manager
     00001018  A$font_manager$355                 font_manager
     00001018  C$font_manager.c$74$3_0$35         font_manager
     0000101B  A$font_manager$356                 font_manager
     0000101E  A$font_manager$357                 font_manager
     00001020  A$font_manager$358                 font_manager
     00001021  A$font_manager$359                 font_manager
     00001022  A$font_manager$360                 font_manager
     00001023  A$font_manager$361                 font_manager
     00001026  A$font_manager$362                 font_manager
     00001027  A$font_manager$363                 font_manager
     0000102A  A$font_manager$364                 font_manager
     0000102D  A$font_manager$365                 font_manager
     0000102E  A$font_manager$366                 font_manager
     00001031  A$font_manager$367                 font_manager
     00001032  A$font_manager$368                 font_manager
     00001033  A$font_manager$369                 font_manager
     00001034  A$font_manager$370                 font_manager
     00001035  A$font_manager$371                 font_manager
     00001036  A$font_manager$372                 font_manager
     00001037  A$font_manager$373                 font_manager
     00001038  A$font_manager$377                 font_manager
     00001038  C$font_manager.c$75$2_0$34         font_manager
     00001039  A$font_manager$378                 font_manager
     0000103C  A$font_manager$379                 font_manager
     0000103D  A$font_manager$380                 font_manager
     00001040  A$font_manager$381                 font_manager
     00001043  A$font_manager$382                 font_manager
     00001044  A$font_manager$383                 font_manager
     00001047  A$font_manager$384                 font_manager
     00001048  A$font_manager$385                 font_manager
     00001049  A$font_manager$386                 font_manager
     0000104A  A$font_manager$387                 font_manager
     0000104D  A$font_manager$388                 font_manager
     00001050  A$font_manager$392                 font_manager
     00001050  C$font_manager.c$77$3_0$35         font_manager
     00001051  A$font_manager$393                 font_manager
     00001053  A$font_manager$394                 font_manager
     00001054  A$font_manager$398                 font_manager
     00001054  C$font_manager.c$79$3_0$35         font_manager
     00001057  A$font_manager$399                 font_manager
     0000105A  A$font_manager$400                 font_manager
     0000105D  A$font_manager$401                 font_manager
     00001060  A$font_manager$402                 font_manager
     00001061  A$font_manager$403                 font_manager
     00001064  A$font_manager$404                 font_manager
     00001065  A$font_manager$405                 font_manager
     00001066  A$font_manager$406                 font_manager
ASxxxx Linker V03.00 + NoICE + sdld,  page 40.
Hexadecimal  [32-Bits]

Area                                    Addr        Size        Decimal Bytes (Attributes)
--------------------------------        ----        ----        ------- ----- ------------
_CODE                               00000200    00003D43 =       15683. bytes (REL,CON)

      Value  Global                              Global Defined In Module
      -----  --------------------------------   ------------------------
     00001067  A$font_manager$407                 font_manager
     00001068  A$font_manager$408                 font_manager
     0000106B  A$font_manager$409                 font_manager
     0000106C  A$font_manager$410                 font_manager
     0000106D  A$font_manager$414                 font_manager
     0000106D  C$font_manager.c$80$3_0$35         font_manager
     00001070  A$font_manager$415                 font_manager
     00001071  A$font_manager$416                 font_manager
     00001072  A$font_manager$417                 font_manager
     00001073  A$font_manager$418                 font_manager
     00001074  A$font_manager$419                 font_manager
     00001077  A$font_manager$420                 font_manager
     00001078  A$font_manager$421                 font_manager
     00001079  A$font_manager$425                 font_manager
     00001079  C$font_manager.c$72$2_0$34         font_manager
     0000107A  A$font_manager$426                 font_manager
     0000107B  A$font_manager$427                 font_manager
     0000107D  A$font_manager$428                 font_manager
     0000107F  A$font_manager$432                 font_manager
     00001081  A$font_manager$433                 font_manager
     00001083  A$font_manager$438                 font_manager
     00001083  C$font_manager.c$82$2_0$34         font_manager
     00001083  XG$engine_font_manager_draw_data   font_manager
     00001084  A$gamer_manager$75                 gamer_manager
     00001084  C$gamer_manager.c$14$0_0$29        gamer_manager
     00001084  C$gamer_manager.c$16$1_0$29        gamer_manager
     00001084  C$gamer_manager.c$17$1_0$29        gamer_manager
     00001084  C$gamer_manager.c$18$1_0$29        gamer_manager
     00001084  G$engine_gamer_manager_load$0$0    gamer_manager
     00001084  _engine_gamer_manager_load         gamer_manager
     00001086  A$gamer_manager$79                 gamer_manager
     00001086  C$gamer_manager.c$20$1_0$29        gamer_manager
     00001089  A$gamer_manager$80                 gamer_manager
     0000108B  A$gamer_manager$84                 gamer_manager
     0000108B  C$gamer_manager.c$21$1_0$29        gamer_manager
     0000108E  A$gamer_manager$85                 gamer_manager
     00001090  A$gamer_manager$89                 gamer_manager
     00001090  C$gamer_manager.c$22$1_0$29        gamer_manager
     00001093  A$gamer_manager$90                 gamer_manager
     00001095  A$gamer_manager$94                 gamer_manager
     00001095  C$gamer_manager.c$23$1_0$29        gamer_manager
     00001098  A$gamer_manager$95                 gamer_manager
     0000109A  A$gamer_manager$99                 gamer_manager
     0000109A  C$gamer_manager.c$24$1_0$29        gamer_manager
     0000109D  A$gamer_manager$100                gamer_manager
     000010A0  A$gamer_manager$101                gamer_manager
     000010A1  A$gamer_manager$105                gamer_manager
     000010A1  C$gamer_manager.c$25$1_0$29        gamer_manager
     000010A4  A$gamer_manager$106                gamer_manager
     000010A6  A$gamer_manager$110                gamer_manager
     000010A6  C$gamer_manager.c$26$1_0$29        gamer_manager
ASxxxx Linker V03.00 + NoICE + sdld,  page 41.
Hexadecimal  [32-Bits]

Area                                    Addr        Size        Decimal Bytes (Attributes)
--------------------------------        ----        ----        ------- ----- ------------
_CODE                               00000200    00003D43 =       15683. bytes (REL,CON)

      Value  Global                              Global Defined In Module
      -----  --------------------------------   ------------------------
     000010A7  A$gamer_manager$111                gamer_manager
     000010AA  A$gamer_manager$112                gamer_manager
     000010AB  A$gamer_manager$116                gamer_manager
     000010AB  C$gamer_manager.c$27$1_0$29        gamer_manager
     000010AE  A$gamer_manager$117                gamer_manager
     000010B0  A$gamer_manager$121                gamer_manager
     000010B0  C$gamer_manager.c$28$1_0$29        gamer_manager
     000010B3  A$gamer_manager$122                gamer_manager
     000010B5  A$gamer_manager$126                gamer_manager
     000010B5  C$gamer_manager.c$30$1_0$29        gamer_manager
     000010B8  A$gamer_manager$127                gamer_manager
     000010BA  A$gamer_manager$131                gamer_manager
     000010BA  C$gamer_manager.c$31$1_0$29        gamer_manager
     000010BD  A$gamer_manager$132                gamer_manager
     000010BE  A$gamer_manager$133                gamer_manager
     000010BF  A$gamer_manager$134                gamer_manager
     000010C0  A$gamer_manager$135                gamer_manager
     000010C2  A$gamer_manager$139                gamer_manager
     000010C2  C$gamer_manager.c$33$2_0$30        gamer_manager
     000010C5  A$gamer_manager$140                gamer_manager
     000010C6  A$gamer_manager$141                gamer_manager
     000010C7  A$gamer_manager$142                gamer_manager
     000010C8  A$gamer_manager$148                gamer_manager
     000010C8  C$gamer_manager.c$38$1_0$29        gamer_manager
     000010CB  A$gamer_manager$149                gamer_manager
     000010CC  A$gamer_manager$150                gamer_manager
     000010CD  A$gamer_manager$151                gamer_manager
     000010CE  A$gamer_manager$152                gamer_manager
     000010D0  A$gamer_manager$156                gamer_manager
     000010D0  C$gamer_manager.c$41$3_0$32        gamer_manager
     000010D3  A$gamer_manager$157                gamer_manager
     000010D6  A$gamer_manager$158                gamer_manager
     000010D7  A$gamer_manager$159                gamer_manager
     000010D8  A$gamer_manager$160                gamer_manager
     000010DB  A$gamer_manager$161                gamer_manager
     000010DC  A$gamer_manager$162                gamer_manager
     000010DD  A$gamer_manager$163                gamer_manager
     000010DE  A$gamer_manager$164                gamer_manager
     000010E0  A$gamer_manager$169                gamer_manager
     000010E0  C$gamer_manager.c$44$2_0$31        gamer_manager
     000010E3  A$gamer_manager$170                gamer_manager
     000010E4  A$gamer_manager$174                gamer_manager
     000010E4  C$gamer_manager.c$45$2_0$31        gamer_manager
     000010E7  A$gamer_manager$175                gamer_manager
     000010E8  A$gamer_manager$183                gamer_manager
     000010E8  C$gamer_manager.c$47$1_0$29        gamer_manager
     000010E8  XG$engine_gamer_manager_load$0$0   gamer_manager
     000010E9  A$gamer_manager$199                gamer_manager
     000010E9  C$gamer_manager.c$49$1_0$33        gamer_manager
     000010E9  C$gamer_manager.c$51$1_0$33        gamer_manager
     000010E9  C$gamer_manager.c$53$1_0$33        gamer_manager
ASxxxx Linker V03.00 + NoICE + sdld,  page 42.
Hexadecimal  [32-Bits]

Area                                    Addr        Size        Decimal Bytes (Attributes)
--------------------------------        ----        ----        ------- ----- ------------
_CODE                               00000200    00003D43 =       15683. bytes (REL,CON)

      Value  Global                              Global Defined In Module
      -----  --------------------------------   ------------------------
     000010E9  G$engine_gamer_manager_toggle_co   gamer_manager
     000010E9  _engine_gamer_manager_toggle_col   gamer_manager
     000010EC  A$gamer_manager$200                gamer_manager
     000010ED  A$gamer_manager$204                gamer_manager
     000010ED  C$gamer_manager.c$54$1_0$33        gamer_manager
     000010EE  A$gamer_manager$208                gamer_manager
     000010EE  C$gamer_manager.c$56$2_0$34        gamer_manager
     000010EF  A$gamer_manager$212                gamer_manager
     000010EF  C$gamer_manager.c$59$1_0$33        gamer_manager
     000010F2  A$gamer_manager$213                gamer_manager
     000010F3  A$gamer_manager$214                gamer_manager
     000010F5  A$gamer_manager$215                gamer_manager
     000010F6  A$gamer_manager$216                gamer_manager
     000010F7  A$gamer_manager$227                gamer_manager
     000010F7  C$gamer_manager.c$60$1_0$33        gamer_manager
     000010F7  C$gamer_manager.c$61$1_0$33        gamer_manager
     000010F7  XG$engine_gamer_manager_toggle_c   gamer_manager
     000010FA  A$gamer_manager$243                gamer_manager
     000010FA  C$gamer_manager.c$63$1_0$35        gamer_manager
     000010FA  C$gamer_manager.c$65$1_0$35        gamer_manager
     000010FA  C$gamer_manager.c$66$1_0$35        gamer_manager
     000010FA  G$engine_gamer_manager_toggle_fr   gamer_manager
     000010FA  _engine_gamer_manager_toggle_fra   gamer_manager
     000010FD  A$gamer_manager$244                gamer_manager
     000010FE  A$gamer_manager$245                gamer_manager
     00001100  A$gamer_manager$246                gamer_manager
     00001101  A$gamer_manager$247                gamer_manager
     00001102  A$gamer_manager$258                gamer_manager
     00001102  C$gamer_manager.c$67$1_0$35        gamer_manager
     00001102  C$gamer_manager.c$68$1_0$35        gamer_manager
     00001102  XG$engine_gamer_manager_toggle_f   gamer_manager
     00001105  A$gamer_manager$274                gamer_manager
     00001105  C$gamer_manager.c$70$1_0$37        gamer_manager
     00001105  C$gamer_manager.c$72$1_0$37        gamer_manager
     00001105  C$gamer_manager.c$73$1_0$37        gamer_manager
     00001105  G$engine_gamer_manager_setdirect   gamer_manager
     00001105  _engine_gamer_manager_setdirecti   gamer_manager
     00001108  A$gamer_manager$275                gamer_manager
     0000110C  A$gamer_manager$276                gamer_manager
     0000110E  A$gamer_manager$277                gamer_manager
     00001111  A$gamer_manager$278                gamer_manager
     00001112  A$gamer_manager$286                gamer_manager
     00001112  C$gamer_manager.c$74$1_0$37        gamer_manager
     00001112  XG$engine_gamer_manager_setdirec   gamer_manager
     00001113  A$gamer_manager$302                gamer_manager
     00001113  C$gamer_manager.c$76$1_0$38        gamer_manager
     00001113  C$gamer_manager.c$78$1_0$38        gamer_manager
     00001113  C$gamer_manager.c$79$1_0$38        gamer_manager
     00001113  G$engine_gamer_manager_incmoveme   gamer_manager
     00001113  _engine_gamer_manager_incmovemen   gamer_manager
     00001116  A$gamer_manager$303                gamer_manager
ASxxxx Linker V03.00 + NoICE + sdld,  page 43.
Hexadecimal  [32-Bits]

Area                                    Addr        Size        Decimal Bytes (Attributes)
--------------------------------        ----        ----        ------- ----- ------------
_CODE                               00000200    00003D43 =       15683. bytes (REL,CON)

      Value  Global                              Global Defined In Module
      -----  --------------------------------   ------------------------
     00001117  A$gamer_manager$304                gamer_manager
     00001118  A$gamer_manager$305                gamer_manager
     00001119  A$gamer_manager$313                gamer_manager
     00001119  C$gamer_manager.c$80$1_0$38        gamer_manager
     00001119  XG$engine_gamer_manager_incmovem   gamer_manager
     0000111A  A$gamer_manager$329                gamer_manager
     0000111A  C$gamer_manager.c$82$1_0$39        gamer_manager
     0000111A  C$gamer_manager.c$84$1_0$39        gamer_manager
     0000111A  C$gamer_manager.c$85$1_0$39        gamer_manager
     0000111A  G$engine_gamer_manager_setlifecy   gamer_manager
     0000111A  _engine_gamer_manager_setlifecyc   gamer_manager
     0000111D  A$gamer_manager$330                gamer_manager
     0000111F  A$gamer_manager$341                gamer_manager
     0000111F  C$gamer_manager.c$86$1_0$39        gamer_manager
     0000111F  C$gamer_manager.c$87$1_0$39        gamer_manager
     0000111F  XG$engine_gamer_manager_setlifec   gamer_manager
     00001122  A$gamer_manager$357                gamer_manager
     00001122  C$gamer_manager.c$89$1_0$40        gamer_manager
     00001122  C$gamer_manager.c$91$1_0$40        gamer_manager
     00001122  C$gamer_manager.c$92$1_0$40        gamer_manager
     00001122  G$engine_gamer_manager_update$0$   gamer_manager
     00001122  _engine_gamer_manager_update       gamer_manager
     00001125  A$gamer_manager$358                gamer_manager
     00001126  A$gamer_manager$359                gamer_manager
     00001129  A$gamer_manager$360                gamer_manager
     0000112A  A$gamer_manager$361                gamer_manager
     0000112B  A$gamer_manager$362                gamer_manager
     0000112C  A$gamer_manager$366                gamer_manager
     0000112C  C$gamer_manager.c$93$1_0$40        gamer_manager
     0000112E  A$gamer_manager$367                gamer_manager
     00001130  A$gamer_manager$371                gamer_manager
     00001130  C$gamer_manager.c$95$2_0$41        gamer_manager
     00001132  A$gamer_manager$375                gamer_manager
     00001132  C$gamer_manager.c$96$2_0$41        gamer_manager
     00001135  A$gamer_manager$376                gamer_manager
     00001136  A$gamer_manager$377                gamer_manager
     00001138  A$gamer_manager$381                gamer_manager
     00001138  C$gamer_manager.c$98$3_0$42        gamer_manager
     00001139  A$gamer_manager$382                gamer_manager
     0000113C  A$gamer_manager$383                gamer_manager
     0000113D  A$gamer_manager$384                gamer_manager
     0000113F  A$gamer_manager$389                gamer_manager
     0000113F  C$gamer_manager.c$102$3_0$43       gamer_manager
     00001142  A$gamer_manager$390                gamer_manager
     00001144  A$gamer_manager$395                gamer_manager
     00001144  C$gamer_manager.c$106$1_0$40       gamer_manager
     00001147  A$gamer_manager$396                gamer_manager
     00001149  A$gamer_manager$397                gamer_manager
     0000114B  A$gamer_manager$401                gamer_manager
     0000114B  C$gamer_manager.c$108$2_0$44       gamer_manager
     0000114E  A$gamer_manager$402                gamer_manager
ASxxxx Linker V03.00 + NoICE + sdld,  page 44.
Hexadecimal  [32-Bits]

Area                                    Addr        Size        Decimal Bytes (Attributes)
--------------------------------        ----        ----        ------- ----- ------------
_CODE                               00000200    00003D43 =       15683. bytes (REL,CON)

      Value  Global                              Global Defined In Module
      -----  --------------------------------   ------------------------
     0000114F  A$gamer_manager$403                gamer_manager
     00001150  A$gamer_manager$404                gamer_manager
     00001151  A$gamer_manager$405                gamer_manager
     00001152  A$gamer_manager$406                gamer_manager
     00001153  A$gamer_manager$407                gamer_manager
     00001154  A$gamer_manager$408                gamer_manager
     00001155  A$gamer_manager$413                gamer_manager
     00001155  C$gamer_manager.c$110$1_0$40       gamer_manager
     00001157  A$gamer_manager$414                gamer_manager
     00001159  A$gamer_manager$418                gamer_manager
     00001159  C$gamer_manager.c$112$2_0$45       gamer_manager
     0000115C  A$gamer_manager$419                gamer_manager
     0000115D  A$gamer_manager$420                gamer_manager
     0000115E  A$gamer_manager$421                gamer_manager
     0000115F  A$gamer_manager$422                gamer_manager
     00001160  A$gamer_manager$423                gamer_manager
     00001161  A$gamer_manager$428                gamer_manager
     00001161  C$gamer_manager.c$114$1_0$40       gamer_manager
     00001163  A$gamer_manager$429                gamer_manager
     00001165  A$gamer_manager$433                gamer_manager
     00001165  C$gamer_manager.c$116$2_0$46       gamer_manager
     00001168  A$gamer_manager$434                gamer_manager
     00001169  A$gamer_manager$435                gamer_manager
     0000116A  A$gamer_manager$436                gamer_manager
     0000116B  A$gamer_manager$437                gamer_manager
     0000116C  A$gamer_manager$438                gamer_manager
     0000116D  A$gamer_manager$439                gamer_manager
     00001170  A$gamer_manager$440                gamer_manager
     00001171  A$gamer_manager$441                gamer_manager
     00001172  A$gamer_manager$446                gamer_manager
     00001172  C$gamer_manager.c$118$1_0$40       gamer_manager
     00001174  A$gamer_manager$447                gamer_manager
     00001175  A$gamer_manager$451                gamer_manager
     00001175  C$gamer_manager.c$120$2_0$47       gamer_manager
     00001178  A$gamer_manager$452                gamer_manager
     00001179  A$gamer_manager$453                gamer_manager
     0000117A  A$gamer_manager$454                gamer_manager
     0000117B  A$gamer_manager$455                gamer_manager
     0000117E  A$gamer_manager$456                gamer_manager
     0000117F  A$gamer_manager$464                gamer_manager
     0000117F  C$gamer_manager.c$122$1_0$40       gamer_manager
     0000117F  XG$engine_gamer_manager_update$0   gamer_manager
     00001180  A$gamer_manager$480                gamer_manager
     00001180  C$gamer_manager.c$124$1_0$48       gamer_manager
     00001180  C$gamer_manager.c$126$1_0$48       gamer_manager
     00001180  C$gamer_manager.c$127$1_0$48       gamer_manager
     00001180  G$engine_gamer_manager_draw$0$0    gamer_manager
     00001180  _engine_gamer_manager_draw         gamer_manager
     00001183  A$gamer_manager$481                gamer_manager
     00001184  A$gamer_manager$482                gamer_manager
     00001187  A$gamer_manager$483                gamer_manager
ASxxxx Linker V03.00 + NoICE + sdld,  page 45.
Hexadecimal  [32-Bits]

Area                                    Addr        Size        Decimal Bytes (Attributes)
--------------------------------        ----        ----        ------- ----- ------------
_CODE                               00000200    00003D43 =       15683. bytes (REL,CON)

      Value  Global                              Global Defined In Module
      -----  --------------------------------   ------------------------
     0000118A  A$gamer_manager$484                gamer_manager
     0000118B  A$gamer_manager$485                gamer_manager
     0000118C  A$gamer_manager$486                gamer_manager
     0000118D  A$gamer_manager$487                gamer_manager
     0000118E  A$gamer_manager$488                gamer_manager
     0000118F  A$gamer_manager$489                gamer_manager
     00001190  A$gamer_manager$490                gamer_manager
     00001193  A$gamer_manager$491                gamer_manager
     00001194  A$gamer_manager$492                gamer_manager
     00001195  A$gamer_manager$500                gamer_manager
     00001195  C$gamer_manager.c$128$1_0$48       gamer_manager
     00001195  XG$engine_gamer_manager_draw$0$0   gamer_manager
     00001196  A$gamer_manager$516                gamer_manager
     00001196  C$gamer_manager.c$130$1_0$49       gamer_manager
     00001196  C$gamer_manager.c$132$1_0$49       gamer_manager
     00001196  C$gamer_manager.c$133$1_0$49       gamer_manager
     00001196  Fgamer_manager$kid_calculate_til   gamer_manager
     00001199  A$gamer_manager$517                gamer_manager
     0000119A  A$gamer_manager$518                gamer_manager
     0000119C  A$gamer_manager$519                gamer_manager
     0000119D  A$gamer_manager$520                gamer_manager
     0000119E  A$gamer_manager$521                gamer_manager
     0000119F  A$gamer_manager$522                gamer_manager
     000011A2  A$gamer_manager$523                gamer_manager
     000011A3  A$gamer_manager$524                gamer_manager
     000011A5  A$gamer_manager$525                gamer_manager
     000011A6  A$gamer_manager$526                gamer_manager
     000011A7  A$gamer_manager$527                gamer_manager
     000011A8  A$gamer_manager$528                gamer_manager
     000011A9  A$gamer_manager$529                gamer_manager
     000011AA  A$gamer_manager$530                gamer_manager
     000011AB  A$gamer_manager$531                gamer_manager
     000011AF  A$gamer_manager$539                gamer_manager
     000011AF  C$gamer_manager.c$134$1_0$49       gamer_manager
     000011AF  XFgamer_manager$kid_calculate_ti   gamer_manager
     000011B0  A$hack_manager$63                  hack_manager
     000011B0  C$hack_manager.c$12$0_0$1          hack_manager
     000011B0  C$hack_manager.c$14$1_0$1          hack_manager
     000011B0  C$hack_manager.c$16$1_0$1          hack_manager
     000011B0  G$engine_hack_manager_init$0$0     hack_manager
     000011B0  _engine_hack_manager_init          hack_manager
     000011B3  A$hack_manager$64                  hack_manager
     000011B5  A$hack_manager$68                  hack_manager
     000011B5  C$hack_manager.c$17$1_0$1          hack_manager
     000011B8  A$hack_manager$69                  hack_manager
     000011BA  A$hack_manager$73                  hack_manager
     000011BA  C$hack_manager.c$18$1_0$1          hack_manager
     000011BD  A$hack_manager$74                  hack_manager
     000011BF  A$hack_manager$78                  hack_manager
     000011BF  C$hack_manager.c$19$1_0$1          hack_manager
     000011C2  A$hack_manager$79                  hack_manager
ASxxxx Linker V03.00 + NoICE + sdld,  page 46.
Hexadecimal  [32-Bits]

Area                                    Addr        Size        Decimal Bytes (Attributes)
--------------------------------        ----        ----        ------- ----- ------------
_CODE                               00000200    00003D43 =       15683. bytes (REL,CON)

      Value  Global                              Global Defined In Module
      -----  --------------------------------   ------------------------
     000011C4  A$hack_manager$83                  hack_manager
     000011C4  C$hack_manager.c$20$1_0$1          hack_manager
     000011C7  A$hack_manager$84                  hack_manager
     000011C8  A$hack_manager$85                  hack_manager
     000011C9  A$hack_manager$89                  hack_manager
     000011C9  C$hack_manager.c$21$1_0$1          hack_manager
     000011CC  A$hack_manager$90                  hack_manager
     000011CD  A$hack_manager$91                  hack_manager
     000011CE  A$hack_manager$95                  hack_manager
     000011CE  C$hack_manager.c$25$1_0$1          hack_manager
     000011D1  A$hack_manager$96                  hack_manager
     000011D4  A$hack_manager$100                 hack_manager
     000011D4  C$hack_manager.c$26$1_0$1          hack_manager
     000011D7  A$hack_manager$101                 hack_manager
     000011DA  A$hack_manager$105                 hack_manager
     000011DA  C$hack_manager.c$27$1_0$1          hack_manager
     000011DD  A$hack_manager$106                 hack_manager
     000011E0  A$hack_manager$110                 hack_manager
     000011E0  C$hack_manager.c$28$1_0$1          hack_manager
     000011E3  A$hack_manager$111                 hack_manager
     000011E6  A$hack_manager$115                 hack_manager
     000011E6  C$hack_manager.c$29$1_0$1          hack_manager
     000011E9  A$hack_manager$116                 hack_manager
     000011EA  A$hack_manager$120                 hack_manager
     000011EA  C$hack_manager.c$30$1_0$1          hack_manager
     000011ED  A$hack_manager$121                 hack_manager
     000011EE  A$hack_manager$122                 hack_manager
     000011EF  A$hack_manager$130                 hack_manager
     000011EF  C$hack_manager.c$34$1_0$1          hack_manager
     000011EF  XG$engine_hack_manager_init$0$0    hack_manager
     000011F0  A$hack_manager$143                 hack_manager
     000011F0  C$hack_manager.c$36$1_0$2          hack_manager
     000011F0  C$hack_manager.c$38$1_0$2          hack_manager
     000011F0  G$engine_hack_manager_update$0$0   hack_manager
     000011F0  _engine_hack_manager_update        hack_manager
     000011F3  A$hack_manager$147                 hack_manager
     000011F3  C$hack_manager.c$41$1_0$2          hack_manager
     000011F4  A$hack_manager$148                 hack_manager
     000011F5  A$hack_manager$149                 hack_manager
     000011F6  A$hack_manager$150                 hack_manager
     000011F7  A$hack_manager$151                 hack_manager
     000011F8  A$hack_manager$152                 hack_manager
     000011FA  A$hack_manager$153                 hack_manager
     000011FC  A$hack_manager$154                 hack_manager
     000011FD  A$hack_manager$155                 hack_manager
     000011FE  A$hack_manager$159                 hack_manager
     000011FE  C$hack_manager.c$42$1_0$2          hack_manager
     000011FF  A$hack_manager$160                 hack_manager
     00001200  A$hack_manager$161                 hack_manager
     00001201  A$hack_manager$162                 hack_manager
     00001202  A$hack_manager$163                 hack_manager
ASxxxx Linker V03.00 + NoICE + sdld,  page 47.
Hexadecimal  [32-Bits]

Area                                    Addr        Size        Decimal Bytes (Attributes)
--------------------------------        ----        ----        ------- ----- ------------
_CODE                               00000200    00003D43 =       15683. bytes (REL,CON)

      Value  Global                              Global Defined In Module
      -----  --------------------------------   ------------------------
     00001203  A$hack_manager$164                 hack_manager
     00001204  A$hack_manager$165                 hack_manager
     00001206  A$hack_manager$166                 hack_manager
     00001208  A$hack_manager$167                 hack_manager
     00001209  A$hack_manager$168                 hack_manager
     0000120A  A$hack_manager$172                 hack_manager
     0000120A  C$hack_manager.c$43$1_0$2          hack_manager
     0000120D  A$hack_manager$173                 hack_manager
     0000120E  A$hack_manager$174                 hack_manager
     0000120F  A$hack_manager$175                 hack_manager
     00001211  A$hack_manager$176                 hack_manager
     00001213  A$hack_manager$177                 hack_manager
     00001214  A$hack_manager$178                 hack_manager
     00001215  A$hack_manager$182                 hack_manager
     00001215  C$hack_manager.c$46$1_0$2          hack_manager
     00001216  A$hack_manager$183                 hack_manager
     00001218  A$hack_manager$184                 hack_manager
     0000121A  A$hack_manager$188                 hack_manager
     0000121A  C$hack_manager.c$48$2_0$3          hack_manager
     0000121C  A$hack_manager$189                 hack_manager
     0000121D  A$hack_manager$190                 hack_manager
     0000121F  A$hack_manager$195                 hack_manager
     0000121F  C$hack_manager.c$50$1_0$2          hack_manager
     00001221  A$hack_manager$196                 hack_manager
     00001223  A$hack_manager$200                 hack_manager
     00001223  C$hack_manager.c$52$2_0$4          hack_manager
     00001225  A$hack_manager$201                 hack_manager
     00001226  A$hack_manager$202                 hack_manager
     00001228  A$hack_manager$207                 hack_manager
     00001228  C$hack_manager.c$54$1_0$2          hack_manager
     0000122A  A$hack_manager$208                 hack_manager
     0000122C  A$hack_manager$212                 hack_manager
     0000122C  C$hack_manager.c$56$2_0$5          hack_manager
     0000122E  A$hack_manager$213                 hack_manager
     0000122F  A$hack_manager$214                 hack_manager
     00001231  A$hack_manager$219                 hack_manager
     00001231  C$hack_manager.c$58$1_0$2          hack_manager
     00001232  A$hack_manager$220                 hack_manager
     00001234  A$hack_manager$224                 hack_manager
     00001234  C$hack_manager.c$60$2_0$6          hack_manager
     00001236  A$hack_manager$225                 hack_manager
     00001237  A$hack_manager$230                 hack_manager
     00001237  C$hack_manager.c$64$1_0$2          hack_manager
     00001238  A$hack_manager$231                 hack_manager
     00001239  A$hack_manager$232                 hack_manager
     0000123A  A$hack_manager$233                 hack_manager
     0000123B  A$hack_manager$234                 hack_manager
     0000123C  A$hack_manager$235                 hack_manager
     0000123E  A$hack_manager$239                 hack_manager
     0000123E  C$hack_manager.c$66$2_0$7          hack_manager
     00001240  A$hack_manager$244                 hack_manager
ASxxxx Linker V03.00 + NoICE + sdld,  page 48.
Hexadecimal  [32-Bits]

Area                                    Addr        Size        Decimal Bytes (Attributes)
--------------------------------        ----        ----        ------- ----- ------------
_CODE                               00000200    00003D43 =       15683. bytes (REL,CON)

      Value  Global                              Global Defined In Module
      -----  --------------------------------   ------------------------
     00001240  C$hack_manager.c$68$1_0$2          hack_manager
     00001241  A$hack_manager$245                 hack_manager
     00001243  A$hack_manager$246                 hack_manager
     00001245  A$hack_manager$250                 hack_manager
     00001245  C$hack_manager.c$70$2_0$8          hack_manager
     00001247  A$hack_manager$255                 hack_manager
     00001247  C$hack_manager.c$74$1_0$2          hack_manager
     0000124A  A$hack_manager$256                 hack_manager
     0000124B  A$hack_manager$257                 hack_manager
     0000124C  A$hack_manager$258                 hack_manager
     0000124D  A$hack_manager$259                 hack_manager
     0000124E  A$hack_manager$260                 hack_manager
     0000124F  A$hack_manager$264                 hack_manager
     0000124F  C$hack_manager.c$76$2_0$9          hack_manager
     00001251  A$hack_manager$265                 hack_manager
     00001252  A$hack_manager$266                 hack_manager
     00001253  A$hack_manager$270                 hack_manager
     00001253  C$hack_manager.c$78$3_0$10         hack_manager
     00001255  A$hack_manager$278                 hack_manager
     00001255  C$hack_manager.c$81$1_0$2          hack_manager
     00001255  XG$engine_hack_manager_update$0$   hack_manager
     00001256  A$input_manager$80                 input_manager
     00001256  C$input_manager.c$13$0_0$20        input_manager
     00001256  C$input_manager.c$15$1_0$20        input_manager
     00001256  G$engine_input_manager_update$0$   input_manager
     00001256  _engine_input_manager_update       input_manager
     00001259  A$input_manager$81                 input_manager
     0000125C  A$input_manager$85                 input_manager
     0000125C  C$input_manager.c$16$1_0$20        input_manager
     0000125F  A$input_manager$86                 input_manager
     00001262  A$input_manager$94                 input_manager
     00001262  C$input_manager.c$17$1_0$20        input_manager
     00001262  XG$engine_input_manager_update$0   input_manager
     00001263  A$input_manager$107                input_manager
     00001263  C$input_manager.c$20$1_0$21        input_manager
     00001263  C$input_manager.c$22$1_0$21        input_manager
     00001263  G$engine_input_manager_hold_up$0   input_manager
     00001263  _engine_input_manager_hold_up      input_manager
     00001266  A$input_manager$108                input_manager
     00001267  A$input_manager$109                input_manager
     0000126A  A$input_manager$110                input_manager
     0000126B  A$input_manager$118                input_manager
     0000126B  C$input_manager.c$23$1_0$21        input_manager
     0000126B  XG$engine_input_manager_hold_up$   input_manager
     0000126C  A$input_manager$131                input_manager
     0000126C  C$input_manager.c$24$1_0$22        input_manager
     0000126C  C$input_manager.c$26$1_0$22        input_manager
     0000126C  G$engine_input_manager_hold_down   input_manager
     0000126C  _engine_input_manager_hold_down    input_manager
     0000126F  A$input_manager$132                input_manager
     00001270  A$input_manager$133                input_manager
ASxxxx Linker V03.00 + NoICE + sdld,  page 49.
Hexadecimal  [32-Bits]

Area                                    Addr        Size        Decimal Bytes (Attributes)
--------------------------------        ----        ----        ------- ----- ------------
_CODE                               00000200    00003D43 =       15683. bytes (REL,CON)

      Value  Global                              Global Defined In Module
      -----  --------------------------------   ------------------------
     00001273  A$input_manager$134                input_manager
     00001274  A$input_manager$142                input_manager
     00001274  C$input_manager.c$27$1_0$22        input_manager
     00001274  XG$engine_input_manager_hold_dow   input_manager
     00001275  A$input_manager$155                input_manager
     00001275  C$input_manager.c$28$1_0$23        input_manager
     00001275  C$input_manager.c$30$1_0$23        input_manager
     00001275  G$engine_input_manager_hold_left   input_manager
     00001275  _engine_input_manager_hold_left    input_manager
     00001278  A$input_manager$156                input_manager
     00001279  A$input_manager$157                input_manager
     0000127C  A$input_manager$158                input_manager
     0000127D  A$input_manager$166                input_manager
     0000127D  C$input_manager.c$31$1_0$23        input_manager
     0000127D  XG$engine_input_manager_hold_lef   input_manager
     0000127E  A$input_manager$179                input_manager
     0000127E  C$input_manager.c$32$1_0$24        input_manager
     0000127E  C$input_manager.c$34$1_0$24        input_manager
     0000127E  G$engine_input_manager_hold_righ   input_manager
     0000127E  _engine_input_manager_hold_right   input_manager
     00001281  A$input_manager$180                input_manager
     00001282  A$input_manager$181                input_manager
     00001285  A$input_manager$182                input_manager
     00001286  A$input_manager$190                input_manager
     00001286  C$input_manager.c$35$1_0$24        input_manager
     00001286  XG$engine_input_manager_hold_rig   input_manager
     00001287  A$input_manager$203                input_manager
     00001287  C$input_manager.c$36$1_0$25        input_manager
     00001287  C$input_manager.c$38$1_0$25        input_manager
     00001287  G$engine_input_manager_hold_fire   input_manager
     00001287  _engine_input_manager_hold_fire1   input_manager
     0000128A  A$input_manager$204                input_manager
     0000128B  A$input_manager$205                input_manager
     0000128E  A$input_manager$206                input_manager
     0000128F  A$input_manager$214                input_manager
     0000128F  C$input_manager.c$39$1_0$25        input_manager
     0000128F  XG$engine_input_manager_hold_fir   input_manager
     00001290  A$input_manager$227                input_manager
     00001290  C$input_manager.c$40$1_0$26        input_manager
     00001290  C$input_manager.c$42$1_0$26        input_manager
     00001290  G$engine_input_manager_hold_fire   input_manager
     00001290  _engine_input_manager_hold_fire2   input_manager
     00001293  A$input_manager$228                input_manager
     00001294  A$input_manager$229                input_manager
     00001297  A$input_manager$230                input_manager
     00001298  A$input_manager$238                input_manager
     00001298  C$input_manager.c$43$1_0$26        input_manager
     00001298  XG$engine_input_manager_hold_fir   input_manager
     00001299  A$input_manager$251                input_manager
     00001299  C$input_manager.c$46$1_0$27        input_manager
     00001299  C$input_manager.c$48$1_0$27        input_manager
ASxxxx Linker V03.00 + NoICE + sdld,  page 50.
Hexadecimal  [32-Bits]

Area                                    Addr        Size        Decimal Bytes (Attributes)
--------------------------------        ----        ----        ------- ----- ------------
_CODE                               00000200    00003D43 =       15683. bytes (REL,CON)

      Value  Global                              Global Defined In Module
      -----  --------------------------------   ------------------------
     00001299  G$engine_input_manager_move_up$0   input_manager
     00001299  _engine_input_manager_move_up      input_manager
     0000129C  A$input_manager$252                input_manager
     0000129D  A$input_manager$253                input_manager
     000012A0  A$input_manager$254                input_manager
     000012A1  A$input_manager$262                input_manager
     000012A1  C$input_manager.c$49$1_0$27        input_manager
     000012A1  XG$engine_input_manager_move_up$   input_manager
     000012A2  A$input_manager$275                input_manager
     000012A2  C$input_manager.c$50$1_0$28        input_manager
     000012A2  C$input_manager.c$52$1_0$28        input_manager
     000012A2  G$engine_input_manager_move_down   input_manager
     000012A2  _engine_input_manager_move_down    input_manager
     000012A5  A$input_manager$276                input_manager
     000012A6  A$input_manager$277                input_manager
     000012A9  A$input_manager$278                input_manager
     000012AA  A$input_manager$286                input_manager
     000012AA  C$input_manager.c$53$1_0$28        input_manager
     000012AA  XG$engine_input_manager_move_dow   input_manager
     000012AB  A$input_manager$299                input_manager
     000012AB  C$input_manager.c$54$1_0$29        input_manager
     000012AB  C$input_manager.c$56$1_0$29        input_manager
     000012AB  G$engine_input_manager_move_left   input_manager
     000012AB  _engine_input_manager_move_left    input_manager
     000012AE  A$input_manager$300                input_manager
     000012AF  A$input_manager$301                input_manager
     000012B2  A$input_manager$302                input_manager
     000012B3  A$input_manager$310                input_manager
     000012B3  C$input_manager.c$57$1_0$29        input_manager
     000012B3  XG$engine_input_manager_move_lef   input_manager
     000012B4  A$input_manager$323                input_manager
     000012B4  C$input_manager.c$58$1_0$30        input_manager
     000012B4  C$input_manager.c$60$1_0$30        input_manager
     000012B4  G$engine_input_manager_move_righ   input_manager
     000012B4  _engine_input_manager_move_right   input_manager
     000012B7  A$input_manager$324                input_manager
     000012B8  A$input_manager$325                input_manager
     000012BB  A$input_manager$326                input_manager
     000012BC  A$input_manager$334                input_manager
     000012BC  C$input_manager.c$61$1_0$30        input_manager
     000012BC  XG$engine_input_manager_move_rig   input_manager
     000012BD  A$input_manager$347                input_manager
     000012BD  C$input_manager.c$62$1_0$31        input_manager
     000012BD  C$input_manager.c$64$1_0$31        input_manager
     000012BD  G$engine_input_manager_move_fire   input_manager
     000012BD  _engine_input_manager_move_fire1   input_manager
     000012C0  A$input_manager$348                input_manager
     000012C1  A$input_manager$349                input_manager
     000012C4  A$input_manager$350                input_manager
     000012C5  A$input_manager$358                input_manager
     000012C5  C$input_manager.c$65$1_0$31        input_manager
ASxxxx Linker V03.00 + NoICE + sdld,  page 51.
Hexadecimal  [32-Bits]

Area                                    Addr        Size        Decimal Bytes (Attributes)
--------------------------------        ----        ----        ------- ----- ------------
_CODE                               00000200    00003D43 =       15683. bytes (REL,CON)

      Value  Global                              Global Defined In Module
      -----  --------------------------------   ------------------------
     000012C5  XG$engine_input_manager_move_fir   input_manager
     000012C6  A$input_manager$371                input_manager
     000012C6  C$input_manager.c$66$1_0$32        input_manager
     000012C6  C$input_manager.c$68$1_0$32        input_manager
     000012C6  G$engine_input_manager_move_fire   input_manager
     000012C6  _engine_input_manager_move_fire2   input_manager
     000012C9  A$input_manager$372                input_manager
     000012CA  A$input_manager$373                input_manager
     000012CD  A$input_manager$374                input_manager
     000012CE  A$input_manager$382                input_manager
     000012CE  C$input_manager.c$69$1_0$32        input_manager
     000012CE  XG$engine_input_manager_move_fir   input_manager
     000012CF  A$input_manager$395                input_manager
     000012CF  C$input_manager.c$72$1_0$34        input_manager
     000012CF  C$input_manager.c$74$1_0$34        input_manager
     000012CF  Finput_manager$engine_input_mana   input_manager
     000012D2  A$input_manager$396                input_manager
     000012D6  A$input_manager$397                input_manager
     000012D8  A$input_manager$398                input_manager
     000012DB  A$input_manager$399                input_manager
     000012DC  A$input_manager$400                input_manager
     000012DF  A$input_manager$401                input_manager
     000012E3  A$input_manager$402                input_manager
     000012E5  A$input_manager$403                input_manager
     000012E8  A$input_manager$404                input_manager
     000012E9  A$input_manager$405                input_manager
     000012EB  A$input_manager$406                input_manager
     000012EE  A$input_manager$407                input_manager
     000012F2  A$input_manager$408                input_manager
     000012F4  A$input_manager$409                input_manager
     000012F7  A$input_manager$410                input_manager
     000012F8  A$input_manager$411                input_manager
     000012FB  A$input_manager$412                input_manager
     000012FF  A$input_manager$413                input_manager
     00001301  A$input_manager$414                input_manager
     00001304  A$input_manager$415                input_manager
     00001305  A$input_manager$416                input_manager
     00001307  A$input_manager$418                input_manager
     00001309  A$input_manager$419                input_manager
     0000130A  A$input_manager$421                input_manager
     0000130C  A$input_manager$429                input_manager
     0000130C  C$input_manager.c$75$1_0$34        input_manager
     0000130C  XFinput_manager$engine_input_man   input_manager
     0000130D  A$input_manager$442                input_manager
     0000130D  C$input_manager.c$76$1_0$36        input_manager
     0000130D  C$input_manager.c$78$1_0$36        input_manager
     0000130D  Finput_manager$engine_input_mana   input_manager
     00001310  A$input_manager$443                input_manager
     00001314  A$input_manager$444                input_manager
     00001316  A$input_manager$445                input_manager
     00001319  A$input_manager$446                input_manager
ASxxxx Linker V03.00 + NoICE + sdld,  page 52.
Hexadecimal  [32-Bits]

Area                                    Addr        Size        Decimal Bytes (Attributes)
--------------------------------        ----        ----        ------- ----- ------------
_CODE                               00000200    00003D43 =       15683. bytes (REL,CON)

      Value  Global                              Global Defined In Module
      -----  --------------------------------   ------------------------
     0000131A  A$input_manager$447                input_manager
     0000131B  A$input_manager$455                input_manager
     0000131B  C$input_manager.c$79$1_0$36        input_manager
     0000131B  XFinput_manager$engine_input_man   input_manager
     0000131C  A$path_manager$62                  path_manager
     0000131C  C$path_manager.c$12$1_0$1          path_manager
     0000131C  C$path_manager.c$7$0_0$1           path_manager
     0000131C  C$path_manager.c$9$1_0$1           path_manager
     0000131C  G$engine_path_manager_init$0$0     path_manager
     0000131C  _engine_path_manager_init          path_manager
     0000131F  A$path_manager$63                  path_manager
     00001321  A$path_manager$64                  path_manager
     00001324  A$path_manager$65                  path_manager
     00001326  A$path_manager$66                  path_manager
     00001329  A$path_manager$67                  path_manager
     0000132B  A$path_manager$68                  path_manager
     0000132E  A$path_manager$69                  path_manager
     00001330  A$path_manager$70                  path_manager
     00001333  A$path_manager$71                  path_manager
     00001335  A$path_manager$72                  path_manager
     00001338  A$path_manager$73                  path_manager
     0000133A  A$path_manager$74                  path_manager
     0000133D  A$path_manager$75                  path_manager
     0000133F  A$path_manager$79                  path_manager
     0000133F  C$path_manager.c$13$1_0$1          path_manager
     00001342  A$path_manager$80                  path_manager
     00001344  A$path_manager$81                  path_manager
     00001347  A$path_manager$82                  path_manager
     00001349  A$path_manager$83                  path_manager
     0000134C  A$path_manager$84                  path_manager
     0000134E  A$path_manager$85                  path_manager
     00001351  A$path_manager$86                  path_manager
     00001353  A$path_manager$87                  path_manager
     00001356  A$path_manager$88                  path_manager
     00001358  A$path_manager$89                  path_manager
     0000135B  A$path_manager$90                  path_manager
     0000135D  A$path_manager$91                  path_manager
     00001360  A$path_manager$92                  path_manager
     00001362  A$path_manager$96                  path_manager
     00001362  C$path_manager.c$14$1_0$1          path_manager
     00001365  A$path_manager$97                  path_manager
     00001367  A$path_manager$98                  path_manager
     0000136A  A$path_manager$99                  path_manager
     0000136C  A$path_manager$100                 path_manager
     0000136F  A$path_manager$101                 path_manager
     00001371  A$path_manager$102                 path_manager
     00001374  A$path_manager$103                 path_manager
     00001376  A$path_manager$104                 path_manager
     00001379  A$path_manager$105                 path_manager
     0000137B  A$path_manager$106                 path_manager
     0000137E  A$path_manager$107                 path_manager
ASxxxx Linker V03.00 + NoICE + sdld,  page 53.
Hexadecimal  [32-Bits]

Area                                    Addr        Size        Decimal Bytes (Attributes)
--------------------------------        ----        ----        ------- ----- ------------
_CODE                               00000200    00003D43 =       15683. bytes (REL,CON)

      Value  Global                              Global Defined In Module
      -----  --------------------------------   ------------------------
     00001380  A$path_manager$108                 path_manager
     00001383  A$path_manager$109                 path_manager
     00001385  A$path_manager$113                 path_manager
     00001385  C$path_manager.c$15$1_0$1          path_manager
     00001388  A$path_manager$114                 path_manager
     0000138A  A$path_manager$115                 path_manager
     0000138D  A$path_manager$116                 path_manager
     0000138F  A$path_manager$117                 path_manager
     00001392  A$path_manager$118                 path_manager
     00001394  A$path_manager$119                 path_manager
     00001397  A$path_manager$120                 path_manager
     00001399  A$path_manager$121                 path_manager
     0000139C  A$path_manager$122                 path_manager
     0000139E  A$path_manager$123                 path_manager
     000013A1  A$path_manager$124                 path_manager
     000013A3  A$path_manager$125                 path_manager
     000013A6  A$path_manager$126                 path_manager
     000013A8  A$path_manager$130                 path_manager
     000013A8  C$path_manager.c$16$1_0$1          path_manager
     000013AB  A$path_manager$131                 path_manager
     000013AD  A$path_manager$132                 path_manager
     000013B0  A$path_manager$133                 path_manager
     000013B2  A$path_manager$134                 path_manager
     000013B5  A$path_manager$135                 path_manager
     000013B7  A$path_manager$136                 path_manager
     000013BA  A$path_manager$137                 path_manager
     000013BC  A$path_manager$138                 path_manager
     000013BF  A$path_manager$139                 path_manager
     000013C1  A$path_manager$140                 path_manager
     000013C4  A$path_manager$141                 path_manager
     000013C6  A$path_manager$142                 path_manager
     000013C9  A$path_manager$143                 path_manager
     000013CB  A$path_manager$147                 path_manager
     000013CB  C$path_manager.c$17$1_0$1          path_manager
     000013CE  A$path_manager$148                 path_manager
     000013D0  A$path_manager$149                 path_manager
     000013D3  A$path_manager$150                 path_manager
     000013D5  A$path_manager$151                 path_manager
     000013D8  A$path_manager$152                 path_manager
     000013DA  A$path_manager$153                 path_manager
     000013DD  A$path_manager$154                 path_manager
     000013DF  A$path_manager$155                 path_manager
     000013E2  A$path_manager$156                 path_manager
     000013E4  A$path_manager$157                 path_manager
     000013E7  A$path_manager$158                 path_manager
     000013E9  A$path_manager$159                 path_manager
     000013EC  A$path_manager$160                 path_manager
     000013EE  A$path_manager$164                 path_manager
     000013EE  C$path_manager.c$18$1_0$1          path_manager
     000013F1  A$path_manager$165                 path_manager
     000013F3  A$path_manager$166                 path_manager
ASxxxx Linker V03.00 + NoICE + sdld,  page 54.
Hexadecimal  [32-Bits]

Area                                    Addr        Size        Decimal Bytes (Attributes)
--------------------------------        ----        ----        ------- ----- ------------
_CODE                               00000200    00003D43 =       15683. bytes (REL,CON)

      Value  Global                              Global Defined In Module
      -----  --------------------------------   ------------------------
     000013F6  A$path_manager$167                 path_manager
     000013F8  A$path_manager$168                 path_manager
     000013FB  A$path_manager$169                 path_manager
     000013FD  A$path_manager$170                 path_manager
     00001400  A$path_manager$171                 path_manager
     00001402  A$path_manager$172                 path_manager
     00001405  A$path_manager$173                 path_manager
     00001407  A$path_manager$174                 path_manager
     0000140A  A$path_manager$175                 path_manager
     0000140C  A$path_manager$176                 path_manager
     0000140F  A$path_manager$177                 path_manager
     00001411  A$path_manager$181                 path_manager
     00001411  C$path_manager.c$19$1_0$1          path_manager
     00001414  A$path_manager$182                 path_manager
     00001416  A$path_manager$183                 path_manager
     00001419  A$path_manager$184                 path_manager
     0000141B  A$path_manager$185                 path_manager
     0000141E  A$path_manager$186                 path_manager
     00001420  A$path_manager$187                 path_manager
     00001423  A$path_manager$188                 path_manager
     00001425  A$path_manager$189                 path_manager
     00001428  A$path_manager$190                 path_manager
     0000142A  A$path_manager$191                 path_manager
     0000142D  A$path_manager$192                 path_manager
     0000142F  A$path_manager$193                 path_manager
     00001432  A$path_manager$194                 path_manager
     00001434  A$path_manager$198                 path_manager
     00001434  C$path_manager.c$22$1_0$1          path_manager
     00001437  A$path_manager$199                 path_manager
     00001439  A$path_manager$200                 path_manager
     0000143C  A$path_manager$201                 path_manager
     0000143E  A$path_manager$202                 path_manager
     00001441  A$path_manager$203                 path_manager
     00001443  A$path_manager$204                 path_manager
     00001446  A$path_manager$205                 path_manager
     00001448  A$path_manager$206                 path_manager
     0000144B  A$path_manager$207                 path_manager
     0000144D  A$path_manager$208                 path_manager
     00001450  A$path_manager$209                 path_manager
     00001452  A$path_manager$210                 path_manager
     00001455  A$path_manager$211                 path_manager
     00001457  A$path_manager$215                 path_manager
     00001457  C$path_manager.c$23$1_0$1          path_manager
     0000145A  A$path_manager$216                 path_manager
     0000145C  A$path_manager$217                 path_manager
     0000145F  A$path_manager$218                 path_manager
     00001461  A$path_manager$219                 path_manager
     00001464  A$path_manager$220                 path_manager
     00001466  A$path_manager$221                 path_manager
     00001469  A$path_manager$222                 path_manager
     0000146B  A$path_manager$223                 path_manager
ASxxxx Linker V03.00 + NoICE + sdld,  page 55.
Hexadecimal  [32-Bits]

Area                                    Addr        Size        Decimal Bytes (Attributes)
--------------------------------        ----        ----        ------- ----- ------------
_CODE                               00000200    00003D43 =       15683. bytes (REL,CON)

      Value  Global                              Global Defined In Module
      -----  --------------------------------   ------------------------
     0000146E  A$path_manager$224                 path_manager
     00001470  A$path_manager$225                 path_manager
     00001473  A$path_manager$226                 path_manager
     00001475  A$path_manager$227                 path_manager
     00001478  A$path_manager$228                 path_manager
     0000147A  A$path_manager$232                 path_manager
     0000147A  C$path_manager.c$24$1_0$1          path_manager
     0000147D  A$path_manager$233                 path_manager
     0000147F  A$path_manager$234                 path_manager
     00001482  A$path_manager$235                 path_manager
     00001484  A$path_manager$236                 path_manager
     00001487  A$path_manager$237                 path_manager
     00001489  A$path_manager$238                 path_manager
     0000148C  A$path_manager$239                 path_manager
     0000148E  A$path_manager$240                 path_manager
     00001491  A$path_manager$241                 path_manager
     00001493  A$path_manager$242                 path_manager
     00001496  A$path_manager$243                 path_manager
     00001498  A$path_manager$244                 path_manager
     0000149B  A$path_manager$245                 path_manager
     0000149D  A$path_manager$249                 path_manager
     0000149D  C$path_manager.c$25$1_0$1          path_manager
     000014A0  A$path_manager$250                 path_manager
     000014A2  A$path_manager$251                 path_manager
     000014A5  A$path_manager$252                 path_manager
     000014A7  A$path_manager$253                 path_manager
     000014AA  A$path_manager$254                 path_manager
     000014AC  A$path_manager$255                 path_manager
     000014AF  A$path_manager$256                 path_manager
     000014B1  A$path_manager$257                 path_manager
     000014B4  A$path_manager$258                 path_manager
     000014B6  A$path_manager$259                 path_manager
     000014B9  A$path_manager$260                 path_manager
     000014BB  A$path_manager$261                 path_manager
     000014BE  A$path_manager$262                 path_manager
     000014C0  A$path_manager$266                 path_manager
     000014C0  C$path_manager.c$26$1_0$1          path_manager
     000014C3  A$path_manager$267                 path_manager
     000014C5  A$path_manager$268                 path_manager
     000014C8  A$path_manager$269                 path_manager
     000014CA  A$path_manager$270                 path_manager
     000014CD  A$path_manager$271                 path_manager
     000014CF  A$path_manager$272                 path_manager
     000014D2  A$path_manager$273                 path_manager
     000014D4  A$path_manager$274                 path_manager
     000014D7  A$path_manager$275                 path_manager
     000014D9  A$path_manager$276                 path_manager
     000014DC  A$path_manager$277                 path_manager
     000014DE  A$path_manager$278                 path_manager
     000014E1  A$path_manager$279                 path_manager
     000014E3  A$path_manager$283                 path_manager
ASxxxx Linker V03.00 + NoICE + sdld,  page 56.
Hexadecimal  [32-Bits]

Area                                    Addr        Size        Decimal Bytes (Attributes)
--------------------------------        ----        ----        ------- ----- ------------
_CODE                               00000200    00003D43 =       15683. bytes (REL,CON)

      Value  Global                              Global Defined In Module
      -----  --------------------------------   ------------------------
     000014E3  C$path_manager.c$27$1_0$1          path_manager
     000014E6  A$path_manager$284                 path_manager
     000014E8  A$path_manager$285                 path_manager
     000014EB  A$path_manager$286                 path_manager
     000014ED  A$path_manager$287                 path_manager
     000014F0  A$path_manager$288                 path_manager
     000014F2  A$path_manager$289                 path_manager
     000014F5  A$path_manager$290                 path_manager
     000014F7  A$path_manager$291                 path_manager
     000014FA  A$path_manager$292                 path_manager
     000014FC  A$path_manager$293                 path_manager
     000014FF  A$path_manager$294                 path_manager
     00001501  A$path_manager$295                 path_manager
     00001504  A$path_manager$296                 path_manager
     00001506  A$path_manager$300                 path_manager
     00001506  C$path_manager.c$28$1_0$1          path_manager
     00001509  A$path_manager$301                 path_manager
     0000150B  A$path_manager$302                 path_manager
     0000150E  A$path_manager$303                 path_manager
     00001510  A$path_manager$304                 path_manager
     00001513  A$path_manager$305                 path_manager
     00001515  A$path_manager$306                 path_manager
     00001518  A$path_manager$307                 path_manager
     0000151A  A$path_manager$308                 path_manager
     0000151D  A$path_manager$309                 path_manager
     0000151F  A$path_manager$310                 path_manager
     00001522  A$path_manager$311                 path_manager
     00001524  A$path_manager$312                 path_manager
     00001527  A$path_manager$313                 path_manager
     00001529  A$path_manager$317                 path_manager
     00001529  C$path_manager.c$29$1_0$1          path_manager
     0000152C  A$path_manager$318                 path_manager
     0000152E  A$path_manager$319                 path_manager
     00001531  A$path_manager$320                 path_manager
     00001533  A$path_manager$321                 path_manager
     00001536  A$path_manager$322                 path_manager
     00001538  A$path_manager$323                 path_manager
     0000153B  A$path_manager$324                 path_manager
     0000153D  A$path_manager$325                 path_manager
     00001540  A$path_manager$326                 path_manager
     00001542  A$path_manager$327                 path_manager
     00001545  A$path_manager$328                 path_manager
     00001547  A$path_manager$329                 path_manager
     0000154A  A$path_manager$330                 path_manager
     0000154C  A$path_manager$334                 path_manager
     0000154C  C$path_manager.c$32$1_0$1          path_manager
     0000154F  A$path_manager$335                 path_manager
     00001551  A$path_manager$336                 path_manager
     00001554  A$path_manager$337                 path_manager
     00001556  A$path_manager$338                 path_manager
     00001559  A$path_manager$339                 path_manager
ASxxxx Linker V03.00 + NoICE + sdld,  page 57.
Hexadecimal  [32-Bits]

Area                                    Addr        Size        Decimal Bytes (Attributes)
--------------------------------        ----        ----        ------- ----- ------------
_CODE                               00000200    00003D43 =       15683. bytes (REL,CON)

      Value  Global                              Global Defined In Module
      -----  --------------------------------   ------------------------
     0000155B  A$path_manager$340                 path_manager
     0000155E  A$path_manager$341                 path_manager
     00001560  A$path_manager$342                 path_manager
     00001563  A$path_manager$343                 path_manager
     00001565  A$path_manager$344                 path_manager
     00001568  A$path_manager$345                 path_manager
     0000156A  A$path_manager$346                 path_manager
     0000156D  A$path_manager$347                 path_manager
     0000156F  A$path_manager$351                 path_manager
     0000156F  C$path_manager.c$33$1_0$1          path_manager
     00001572  A$path_manager$352                 path_manager
     00001574  A$path_manager$353                 path_manager
     00001577  A$path_manager$354                 path_manager
     00001579  A$path_manager$355                 path_manager
     0000157C  A$path_manager$356                 path_manager
     0000157E  A$path_manager$357                 path_manager
     00001581  A$path_manager$358                 path_manager
     00001583  A$path_manager$359                 path_manager
     00001586  A$path_manager$360                 path_manager
     00001588  A$path_manager$361                 path_manager
     0000158B  A$path_manager$362                 path_manager
     0000158D  A$path_manager$363                 path_manager
     00001590  A$path_manager$364                 path_manager
     00001592  A$path_manager$368                 path_manager
     00001592  C$path_manager.c$34$1_0$1          path_manager
     00001595  A$path_manager$369                 path_manager
     00001597  A$path_manager$370                 path_manager
     0000159A  A$path_manager$371                 path_manager
     0000159C  A$path_manager$372                 path_manager
     0000159F  A$path_manager$373                 path_manager
     000015A1  A$path_manager$374                 path_manager
     000015A4  A$path_manager$375                 path_manager
     000015A6  A$path_manager$376                 path_manager
     000015A9  A$path_manager$377                 path_manager
     000015AB  A$path_manager$378                 path_manager
     000015AE  A$path_manager$379                 path_manager
     000015B0  A$path_manager$380                 path_manager
     000015B3  A$path_manager$381                 path_manager
     000015B5  A$path_manager$385                 path_manager
     000015B5  C$path_manager.c$35$1_0$1          path_manager
     000015B8  A$path_manager$386                 path_manager
     000015BA  A$path_manager$387                 path_manager
     000015BD  A$path_manager$388                 path_manager
     000015BF  A$path_manager$389                 path_manager
     000015C2  A$path_manager$390                 path_manager
     000015C4  A$path_manager$391                 path_manager
     000015C7  A$path_manager$392                 path_manager
     000015C9  A$path_manager$393                 path_manager
     000015CC  A$path_manager$394                 path_manager
     000015CE  A$path_manager$395                 path_manager
     000015D1  A$path_manager$396                 path_manager
ASxxxx Linker V03.00 + NoICE + sdld,  page 58.
Hexadecimal  [32-Bits]

Area                                    Addr        Size        Decimal Bytes (Attributes)
--------------------------------        ----        ----        ------- ----- ------------
_CODE                               00000200    00003D43 =       15683. bytes (REL,CON)

      Value  Global                              Global Defined In Module
      -----  --------------------------------   ------------------------
     000015D3  A$path_manager$397                 path_manager
     000015D6  A$path_manager$398                 path_manager
     000015D8  A$path_manager$402                 path_manager
     000015D8  C$path_manager.c$36$1_0$1          path_manager
     000015DB  A$path_manager$403                 path_manager
     000015DD  A$path_manager$404                 path_manager
     000015E0  A$path_manager$405                 path_manager
     000015E2  A$path_manager$406                 path_manager
     000015E5  A$path_manager$407                 path_manager
     000015E7  A$path_manager$408                 path_manager
     000015EA  A$path_manager$409                 path_manager
     000015EC  A$path_manager$410                 path_manager
     000015EF  A$path_manager$411                 path_manager
     000015F1  A$path_manager$412                 path_manager
     000015F4  A$path_manager$413                 path_manager
     000015F6  A$path_manager$414                 path_manager
     000015F9  A$path_manager$415                 path_manager
     000015FB  A$path_manager$419                 path_manager
     000015FB  C$path_manager.c$37$1_0$1          path_manager
     000015FE  A$path_manager$420                 path_manager
     00001600  A$path_manager$421                 path_manager
     00001603  A$path_manager$422                 path_manager
     00001605  A$path_manager$423                 path_manager
     00001608  A$path_manager$424                 path_manager
     0000160A  A$path_manager$425                 path_manager
     0000160D  A$path_manager$426                 path_manager
     0000160F  A$path_manager$427                 path_manager
     00001612  A$path_manager$428                 path_manager
     00001614  A$path_manager$429                 path_manager
     00001617  A$path_manager$430                 path_manager
     00001619  A$path_manager$431                 path_manager
     0000161C  A$path_manager$432                 path_manager
     0000161E  A$path_manager$436                 path_manager
     0000161E  C$path_manager.c$38$1_0$1          path_manager
     00001621  A$path_manager$437                 path_manager
     00001623  A$path_manager$438                 path_manager
     00001626  A$path_manager$439                 path_manager
     00001628  A$path_manager$440                 path_manager
     0000162B  A$path_manager$441                 path_manager
     0000162D  A$path_manager$442                 path_manager
     00001630  A$path_manager$443                 path_manager
     00001632  A$path_manager$444                 path_manager
     00001635  A$path_manager$445                 path_manager
     00001637  A$path_manager$446                 path_manager
     0000163A  A$path_manager$447                 path_manager
     0000163C  A$path_manager$448                 path_manager
     0000163F  A$path_manager$449                 path_manager
     00001641  A$path_manager$453                 path_manager
     00001641  C$path_manager.c$39$1_0$1          path_manager
     00001644  A$path_manager$454                 path_manager
     00001646  A$path_manager$455                 path_manager
ASxxxx Linker V03.00 + NoICE + sdld,  page 59.
Hexadecimal  [32-Bits]

Area                                    Addr        Size        Decimal Bytes (Attributes)
--------------------------------        ----        ----        ------- ----- ------------
_CODE                               00000200    00003D43 =       15683. bytes (REL,CON)

      Value  Global                              Global Defined In Module
      -----  --------------------------------   ------------------------
     00001649  A$path_manager$456                 path_manager
     0000164B  A$path_manager$457                 path_manager
     0000164E  A$path_manager$458                 path_manager
     00001650  A$path_manager$459                 path_manager
     00001653  A$path_manager$460                 path_manager
     00001655  A$path_manager$461                 path_manager
     00001658  A$path_manager$462                 path_manager
     0000165A  A$path_manager$463                 path_manager
     0000165D  A$path_manager$464                 path_manager
     0000165F  A$path_manager$465                 path_manager
     00001662  A$path_manager$466                 path_manager
     00001664  A$path_manager$470                 path_manager
     00001664  C$path_manager.c$42$1_0$1          path_manager
     00001667  A$path_manager$471                 path_manager
     00001669  A$path_manager$472                 path_manager
     0000166C  A$path_manager$473                 path_manager
     0000166E  A$path_manager$474                 path_manager
     00001671  A$path_manager$475                 path_manager
     00001673  A$path_manager$476                 path_manager
     00001676  A$path_manager$477                 path_manager
     00001678  A$path_manager$478                 path_manager
     0000167B  A$path_manager$479                 path_manager
     0000167D  A$path_manager$480                 path_manager
     00001680  A$path_manager$481                 path_manager
     00001682  A$path_manager$482                 path_manager
     00001685  A$path_manager$483                 path_manager
     00001687  A$path_manager$487                 path_manager
     00001687  C$path_manager.c$43$1_0$1          path_manager
     0000168A  A$path_manager$488                 path_manager
     0000168C  A$path_manager$489                 path_manager
     0000168F  A$path_manager$490                 path_manager
     00001691  A$path_manager$491                 path_manager
     00001694  A$path_manager$492                 path_manager
     00001696  A$path_manager$493                 path_manager
     00001699  A$path_manager$494                 path_manager
     0000169B  A$path_manager$495                 path_manager
     0000169E  A$path_manager$496                 path_manager
     000016A0  A$path_manager$497                 path_manager
     000016A3  A$path_manager$498                 path_manager
     000016A5  A$path_manager$499                 path_manager
     000016A8  A$path_manager$500                 path_manager
     000016AA  A$path_manager$504                 path_manager
     000016AA  C$path_manager.c$44$1_0$1          path_manager
     000016AD  A$path_manager$505                 path_manager
     000016AF  A$path_manager$506                 path_manager
     000016B2  A$path_manager$507                 path_manager
     000016B4  A$path_manager$508                 path_manager
     000016B7  A$path_manager$509                 path_manager
     000016B9  A$path_manager$510                 path_manager
     000016BC  A$path_manager$511                 path_manager
     000016BE  A$path_manager$512                 path_manager
ASxxxx Linker V03.00 + NoICE + sdld,  page 60.
Hexadecimal  [32-Bits]

Area                                    Addr        Size        Decimal Bytes (Attributes)
--------------------------------        ----        ----        ------- ----- ------------
_CODE                               00000200    00003D43 =       15683. bytes (REL,CON)

      Value  Global                              Global Defined In Module
      -----  --------------------------------   ------------------------
     000016C1  A$path_manager$513                 path_manager
     000016C3  A$path_manager$514                 path_manager
     000016C6  A$path_manager$515                 path_manager
     000016C8  A$path_manager$516                 path_manager
     000016CB  A$path_manager$517                 path_manager
     000016CD  A$path_manager$521                 path_manager
     000016CD  C$path_manager.c$45$1_0$1          path_manager
     000016D0  A$path_manager$522                 path_manager
     000016D2  A$path_manager$523                 path_manager
     000016D5  A$path_manager$524                 path_manager
     000016D7  A$path_manager$525                 path_manager
     000016DA  A$path_manager$526                 path_manager
     000016DC  A$path_manager$527                 path_manager
     000016DF  A$path_manager$528                 path_manager
     000016E1  A$path_manager$529                 path_manager
     000016E4  A$path_manager$530                 path_manager
     000016E6  A$path_manager$531                 path_manager
     000016E9  A$path_manager$532                 path_manager
     000016EB  A$path_manager$533                 path_manager
     000016EE  A$path_manager$534                 path_manager
     000016F0  A$path_manager$538                 path_manager
     000016F0  C$path_manager.c$46$1_0$1          path_manager
     000016F3  A$path_manager$539                 path_manager
     000016F5  A$path_manager$540                 path_manager
     000016F8  A$path_manager$541                 path_manager
     000016FA  A$path_manager$542                 path_manager
     000016FD  A$path_manager$543                 path_manager
     000016FF  A$path_manager$544                 path_manager
     00001702  A$path_manager$545                 path_manager
     00001704  A$path_manager$546                 path_manager
     00001707  A$path_manager$547                 path_manager
     00001709  A$path_manager$548                 path_manager
     0000170C  A$path_manager$549                 path_manager
     0000170E  A$path_manager$550                 path_manager
     00001711  A$path_manager$551                 path_manager
     00001713  A$path_manager$555                 path_manager
     00001713  C$path_manager.c$47$1_0$1          path_manager
     00001716  A$path_manager$556                 path_manager
     00001718  A$path_manager$557                 path_manager
     0000171B  A$path_manager$558                 path_manager
     0000171D  A$path_manager$559                 path_manager
     00001720  A$path_manager$560                 path_manager
     00001722  A$path_manager$561                 path_manager
     00001725  A$path_manager$562                 path_manager
     00001727  A$path_manager$563                 path_manager
     0000172A  A$path_manager$564                 path_manager
     0000172C  A$path_manager$565                 path_manager
     0000172F  A$path_manager$566                 path_manager
     00001731  A$path_manager$567                 path_manager
     00001734  A$path_manager$568                 path_manager
     00001736  A$path_manager$572                 path_manager
ASxxxx Linker V03.00 + NoICE + sdld,  page 61.
Hexadecimal  [32-Bits]

Area                                    Addr        Size        Decimal Bytes (Attributes)
--------------------------------        ----        ----        ------- ----- ------------
_CODE                               00000200    00003D43 =       15683. bytes (REL,CON)

      Value  Global                              Global Defined In Module
      -----  --------------------------------   ------------------------
     00001736  C$path_manager.c$48$1_0$1          path_manager
     00001739  A$path_manager$573                 path_manager
     0000173B  A$path_manager$574                 path_manager
     0000173E  A$path_manager$575                 path_manager
     00001740  A$path_manager$576                 path_manager
     00001743  A$path_manager$577                 path_manager
     00001745  A$path_manager$578                 path_manager
     00001748  A$path_manager$579                 path_manager
     0000174A  A$path_manager$580                 path_manager
     0000174D  A$path_manager$581                 path_manager
     0000174F  A$path_manager$582                 path_manager
     00001752  A$path_manager$583                 path_manager
     00001754  A$path_manager$584                 path_manager
     00001757  A$path_manager$585                 path_manager
     00001759  A$path_manager$589                 path_manager
     00001759  C$path_manager.c$49$1_0$1          path_manager
     0000175C  A$path_manager$590                 path_manager
     0000175E  A$path_manager$591                 path_manager
     00001761  A$path_manager$592                 path_manager
     00001763  A$path_manager$593                 path_manager
     00001766  A$path_manager$594                 path_manager
     00001768  A$path_manager$595                 path_manager
     0000176B  A$path_manager$596                 path_manager
     0000176D  A$path_manager$597                 path_manager
     00001770  A$path_manager$598                 path_manager
     00001772  A$path_manager$599                 path_manager
     00001775  A$path_manager$600                 path_manager
     00001777  A$path_manager$601                 path_manager
     0000177A  A$path_manager$602                 path_manager
     0000177C  A$path_manager$606                 path_manager
     0000177C  C$path_manager.c$52$1_0$1          path_manager
     0000177F  A$path_manager$607                 path_manager
     00001781  A$path_manager$608                 path_manager
     00001784  A$path_manager$609                 path_manager
     00001786  A$path_manager$610                 path_manager
     00001789  A$path_manager$611                 path_manager
     0000178B  A$path_manager$612                 path_manager
     0000178E  A$path_manager$613                 path_manager
     00001790  A$path_manager$614                 path_manager
     00001793  A$path_manager$615                 path_manager
     00001795  A$path_manager$616                 path_manager
     00001798  A$path_manager$617                 path_manager
     0000179A  A$path_manager$618                 path_manager
     0000179D  A$path_manager$619                 path_manager
     0000179F  A$path_manager$623                 path_manager
     0000179F  C$path_manager.c$53$1_0$1          path_manager
     000017A2  A$path_manager$624                 path_manager
     000017A4  A$path_manager$625                 path_manager
     000017A7  A$path_manager$626                 path_manager
     000017A9  A$path_manager$627                 path_manager
     000017AC  A$path_manager$628                 path_manager
ASxxxx Linker V03.00 + NoICE + sdld,  page 62.
Hexadecimal  [32-Bits]

Area                                    Addr        Size        Decimal Bytes (Attributes)
--------------------------------        ----        ----        ------- ----- ------------
_CODE                               00000200    00003D43 =       15683. bytes (REL,CON)

      Value  Global                              Global Defined In Module
      -----  --------------------------------   ------------------------
     000017AE  A$path_manager$629                 path_manager
     000017B1  A$path_manager$630                 path_manager
     000017B3  A$path_manager$631                 path_manager
     000017B6  A$path_manager$632                 path_manager
     000017B8  A$path_manager$633                 path_manager
     000017BB  A$path_manager$634                 path_manager
     000017BD  A$path_manager$635                 path_manager
     000017C0  A$path_manager$636                 path_manager
     000017C2  A$path_manager$640                 path_manager
     000017C2  C$path_manager.c$54$1_0$1          path_manager
     000017C5  A$path_manager$641                 path_manager
     000017C7  A$path_manager$642                 path_manager
     000017CA  A$path_manager$643                 path_manager
     000017CC  A$path_manager$644                 path_manager
     000017CF  A$path_manager$645                 path_manager
     000017D1  A$path_manager$646                 path_manager
     000017D4  A$path_manager$647                 path_manager
     000017D6  A$path_manager$648                 path_manager
     000017D9  A$path_manager$649                 path_manager
     000017DB  A$path_manager$650                 path_manager
     000017DE  A$path_manager$651                 path_manager
     000017E0  A$path_manager$652                 path_manager
     000017E3  A$path_manager$653                 path_manager
     000017E5  A$path_manager$657                 path_manager
     000017E5  C$path_manager.c$55$1_0$1          path_manager
     000017E8  A$path_manager$658                 path_manager
     000017EA  A$path_manager$659                 path_manager
     000017ED  A$path_manager$660                 path_manager
     000017EF  A$path_manager$661                 path_manager
     000017F2  A$path_manager$662                 path_manager
     000017F4  A$path_manager$663                 path_manager
     000017F7  A$path_manager$664                 path_manager
     000017F9  A$path_manager$665                 path_manager
     000017FC  A$path_manager$666                 path_manager
     000017FE  A$path_manager$667                 path_manager
     00001801  A$path_manager$668                 path_manager
     00001803  A$path_manager$669                 path_manager
     00001806  A$path_manager$670                 path_manager
     00001808  A$path_manager$674                 path_manager
     00001808  C$path_manager.c$56$1_0$1          path_manager
     0000180B  A$path_manager$675                 path_manager
     0000180D  A$path_manager$676                 path_manager
     00001810  A$path_manager$677                 path_manager
     00001812  A$path_manager$678                 path_manager
     00001815  A$path_manager$679                 path_manager
     00001817  A$path_manager$680                 path_manager
     0000181A  A$path_manager$681                 path_manager
     0000181C  A$path_manager$682                 path_manager
     0000181F  A$path_manager$683                 path_manager
     00001821  A$path_manager$684                 path_manager
     00001824  A$path_manager$685                 path_manager
ASxxxx Linker V03.00 + NoICE + sdld,  page 63.
Hexadecimal  [32-Bits]

Area                                    Addr        Size        Decimal Bytes (Attributes)
--------------------------------        ----        ----        ------- ----- ------------
_CODE                               00000200    00003D43 =       15683. bytes (REL,CON)

      Value  Global                              Global Defined In Module
      -----  --------------------------------   ------------------------
     00001826  A$path_manager$686                 path_manager
     00001829  A$path_manager$687                 path_manager
     0000182B  A$path_manager$691                 path_manager
     0000182B  C$path_manager.c$57$1_0$1          path_manager
     0000182E  A$path_manager$692                 path_manager
     00001830  A$path_manager$693                 path_manager
     00001833  A$path_manager$694                 path_manager
     00001835  A$path_manager$695                 path_manager
     00001838  A$path_manager$696                 path_manager
     0000183A  A$path_manager$697                 path_manager
     0000183D  A$path_manager$698                 path_manager
     0000183F  A$path_manager$699                 path_manager
     00001842  A$path_manager$700                 path_manager
     00001844  A$path_manager$701                 path_manager
     00001847  A$path_manager$702                 path_manager
     00001849  A$path_manager$703                 path_manager
     0000184C  A$path_manager$704                 path_manager
     0000184E  A$path_manager$708                 path_manager
     0000184E  C$path_manager.c$58$1_0$1          path_manager
     00001851  A$path_manager$709                 path_manager
     00001853  A$path_manager$710                 path_manager
     00001856  A$path_manager$711                 path_manager
     00001858  A$path_manager$712                 path_manager
     0000185B  A$path_manager$713                 path_manager
     0000185D  A$path_manager$714                 path_manager
     00001860  A$path_manager$715                 path_manager
     00001862  A$path_manager$716                 path_manager
     00001865  A$path_manager$717                 path_manager
     00001867  A$path_manager$718                 path_manager
     0000186A  A$path_manager$719                 path_manager
     0000186C  A$path_manager$720                 path_manager
     0000186F  A$path_manager$721                 path_manager
     00001871  A$path_manager$725                 path_manager
     00001871  C$path_manager.c$59$1_0$1          path_manager
     00001874  A$path_manager$726                 path_manager
     00001876  A$path_manager$727                 path_manager
     00001879  A$path_manager$728                 path_manager
     0000187B  A$path_manager$729                 path_manager
     0000187E  A$path_manager$730                 path_manager
     00001880  A$path_manager$731                 path_manager
     00001883  A$path_manager$732                 path_manager
     00001885  A$path_manager$733                 path_manager
     00001888  A$path_manager$734                 path_manager
     0000188A  A$path_manager$735                 path_manager
     0000188D  A$path_manager$736                 path_manager
     0000188F  A$path_manager$737                 path_manager
     00001892  A$path_manager$738                 path_manager
     00001894  A$path_manager$742                 path_manager
     00001894  C$path_manager.c$62$1_0$1          path_manager
     00001897  A$path_manager$743                 path_manager
     00001899  A$path_manager$744                 path_manager
ASxxxx Linker V03.00 + NoICE + sdld,  page 64.
Hexadecimal  [32-Bits]

Area                                    Addr        Size        Decimal Bytes (Attributes)
--------------------------------        ----        ----        ------- ----- ------------
_CODE                               00000200    00003D43 =       15683. bytes (REL,CON)

      Value  Global                              Global Defined In Module
      -----  --------------------------------   ------------------------
     0000189C  A$path_manager$745                 path_manager
     0000189E  A$path_manager$746                 path_manager
     000018A1  A$path_manager$747                 path_manager
     000018A3  A$path_manager$748                 path_manager
     000018A6  A$path_manager$749                 path_manager
     000018A8  A$path_manager$750                 path_manager
     000018AB  A$path_manager$751                 path_manager
     000018AD  A$path_manager$752                 path_manager
     000018B0  A$path_manager$753                 path_manager
     000018B2  A$path_manager$754                 path_manager
     000018B5  A$path_manager$755                 path_manager
     000018B7  A$path_manager$759                 path_manager
     000018B7  C$path_manager.c$63$1_0$1          path_manager
     000018BA  A$path_manager$760                 path_manager
     000018BC  A$path_manager$761                 path_manager
     000018BF  A$path_manager$762                 path_manager
     000018C1  A$path_manager$763                 path_manager
     000018C4  A$path_manager$764                 path_manager
     000018C6  A$path_manager$765                 path_manager
     000018C9  A$path_manager$766                 path_manager
     000018CB  A$path_manager$767                 path_manager
     000018CE  A$path_manager$768                 path_manager
     000018D0  A$path_manager$769                 path_manager
     000018D3  A$path_manager$770                 path_manager
     000018D5  A$path_manager$771                 path_manager
     000018D8  A$path_manager$772                 path_manager
     000018DA  A$path_manager$776                 path_manager
     000018DA  C$path_manager.c$64$1_0$1          path_manager
     000018DD  A$path_manager$777                 path_manager
     000018DF  A$path_manager$778                 path_manager
     000018E2  A$path_manager$779                 path_manager
     000018E4  A$path_manager$780                 path_manager
     000018E7  A$path_manager$781                 path_manager
     000018E9  A$path_manager$782                 path_manager
     000018EC  A$path_manager$783                 path_manager
     000018EE  A$path_manager$784                 path_manager
     000018F1  A$path_manager$785                 path_manager
     000018F3  A$path_manager$786                 path_manager
     000018F6  A$path_manager$787                 path_manager
     000018F8  A$path_manager$788                 path_manager
     000018FB  A$path_manager$789                 path_manager
     000018FD  A$path_manager$793                 path_manager
     000018FD  C$path_manager.c$65$1_0$1          path_manager
     00001900  A$path_manager$794                 path_manager
     00001902  A$path_manager$795                 path_manager
     00001905  A$path_manager$796                 path_manager
     00001907  A$path_manager$797                 path_manager
     0000190A  A$path_manager$798                 path_manager
     0000190C  A$path_manager$799                 path_manager
     0000190F  A$path_manager$800                 path_manager
     00001911  A$path_manager$801                 path_manager
ASxxxx Linker V03.00 + NoICE + sdld,  page 65.
Hexadecimal  [32-Bits]

Area                                    Addr        Size        Decimal Bytes (Attributes)
--------------------------------        ----        ----        ------- ----- ------------
_CODE                               00000200    00003D43 =       15683. bytes (REL,CON)

      Value  Global                              Global Defined In Module
      -----  --------------------------------   ------------------------
     00001914  A$path_manager$802                 path_manager
     00001916  A$path_manager$803                 path_manager
     00001919  A$path_manager$804                 path_manager
     0000191B  A$path_manager$805                 path_manager
     0000191E  A$path_manager$806                 path_manager
     00001920  A$path_manager$810                 path_manager
     00001920  C$path_manager.c$66$1_0$1          path_manager
     00001923  A$path_manager$811                 path_manager
     00001925  A$path_manager$812                 path_manager
     00001928  A$path_manager$813                 path_manager
     0000192A  A$path_manager$814                 path_manager
     0000192D  A$path_manager$815                 path_manager
     0000192F  A$path_manager$816                 path_manager
     00001932  A$path_manager$817                 path_manager
     00001934  A$path_manager$818                 path_manager
     00001937  A$path_manager$819                 path_manager
     00001939  A$path_manager$820                 path_manager
     0000193C  A$path_manager$821                 path_manager
     0000193E  A$path_manager$822                 path_manager
     00001941  A$path_manager$823                 path_manager
     00001943  A$path_manager$827                 path_manager
     00001943  C$path_manager.c$67$1_0$1          path_manager
     00001946  A$path_manager$828                 path_manager
     00001948  A$path_manager$829                 path_manager
     0000194B  A$path_manager$830                 path_manager
     0000194D  A$path_manager$831                 path_manager
     00001950  A$path_manager$832                 path_manager
     00001952  A$path_manager$833                 path_manager
     00001955  A$path_manager$834                 path_manager
     00001957  A$path_manager$835                 path_manager
     0000195A  A$path_manager$836                 path_manager
     0000195C  A$path_manager$837                 path_manager
     0000195F  A$path_manager$838                 path_manager
     00001961  A$path_manager$839                 path_manager
     00001964  A$path_manager$840                 path_manager
     00001966  A$path_manager$844                 path_manager
     00001966  C$path_manager.c$68$1_0$1          path_manager
     00001969  A$path_manager$845                 path_manager
     0000196B  A$path_manager$846                 path_manager
     0000196E  A$path_manager$847                 path_manager
     00001970  A$path_manager$848                 path_manager
     00001973  A$path_manager$849                 path_manager
     00001975  A$path_manager$850                 path_manager
     00001978  A$path_manager$851                 path_manager
     0000197A  A$path_manager$852                 path_manager
     0000197D  A$path_manager$853                 path_manager
     0000197F  A$path_manager$854                 path_manager
     00001982  A$path_manager$855                 path_manager
     00001984  A$path_manager$856                 path_manager
     00001987  A$path_manager$857                 path_manager
     00001989  A$path_manager$861                 path_manager
ASxxxx Linker V03.00 + NoICE + sdld,  page 66.
Hexadecimal  [32-Bits]

Area                                    Addr        Size        Decimal Bytes (Attributes)
--------------------------------        ----        ----        ------- ----- ------------
_CODE                               00000200    00003D43 =       15683. bytes (REL,CON)

      Value  Global                              Global Defined In Module
      -----  --------------------------------   ------------------------
     00001989  C$path_manager.c$69$1_0$1          path_manager
     0000198C  A$path_manager$862                 path_manager
     0000198E  A$path_manager$863                 path_manager
     00001991  A$path_manager$864                 path_manager
     00001993  A$path_manager$865                 path_manager
     00001996  A$path_manager$866                 path_manager
     00001998  A$path_manager$867                 path_manager
     0000199B  A$path_manager$868                 path_manager
     0000199D  A$path_manager$869                 path_manager
     000019A0  A$path_manager$870                 path_manager
     000019A2  A$path_manager$871                 path_manager
     000019A5  A$path_manager$872                 path_manager
     000019A7  A$path_manager$873                 path_manager
     000019AA  A$path_manager$874                 path_manager
     000019AC  A$path_manager$878                 path_manager
     000019AC  C$path_manager.c$72$1_0$1          path_manager
     000019AF  A$path_manager$879                 path_manager
     000019B1  A$path_manager$880                 path_manager
     000019B4  A$path_manager$881                 path_manager
     000019B6  A$path_manager$882                 path_manager
     000019B9  A$path_manager$883                 path_manager
     000019BB  A$path_manager$884                 path_manager
     000019BE  A$path_manager$885                 path_manager
     000019C0  A$path_manager$886                 path_manager
     000019C3  A$path_manager$887                 path_manager
     000019C5  A$path_manager$888                 path_manager
     000019C8  A$path_manager$889                 path_manager
     000019CA  A$path_manager$890                 path_manager
     000019CD  A$path_manager$891                 path_manager
     000019CF  A$path_manager$895                 path_manager
     000019CF  C$path_manager.c$73$1_0$1          path_manager
     000019D2  A$path_manager$896                 path_manager
     000019D4  A$path_manager$897                 path_manager
     000019D7  A$path_manager$898                 path_manager
     000019D9  A$path_manager$899                 path_manager
     000019DC  A$path_manager$900                 path_manager
     000019DE  A$path_manager$901                 path_manager
     000019E1  A$path_manager$902                 path_manager
     000019E3  A$path_manager$903                 path_manager
     000019E6  A$path_manager$904                 path_manager
     000019E8  A$path_manager$905                 path_manager
     000019EB  A$path_manager$906                 path_manager
     000019ED  A$path_manager$907                 path_manager
     000019F0  A$path_manager$908                 path_manager
     000019F2  A$path_manager$912                 path_manager
     000019F2  C$path_manager.c$74$1_0$1          path_manager
     000019F5  A$path_manager$913                 path_manager
     000019F7  A$path_manager$914                 path_manager
     000019FA  A$path_manager$915                 path_manager
     000019FC  A$path_manager$916                 path_manager
     000019FF  A$path_manager$917                 path_manager
ASxxxx Linker V03.00 + NoICE + sdld,  page 67.
Hexadecimal  [32-Bits]

Area                                    Addr        Size        Decimal Bytes (Attributes)
--------------------------------        ----        ----        ------- ----- ------------
_CODE                               00000200    00003D43 =       15683. bytes (REL,CON)

      Value  Global                              Global Defined In Module
      -----  --------------------------------   ------------------------
     00001A01  A$path_manager$918                 path_manager
     00001A04  A$path_manager$919                 path_manager
     00001A06  A$path_manager$920                 path_manager
     00001A09  A$path_manager$921                 path_manager
     00001A0B  A$path_manager$922                 path_manager
     00001A0E  A$path_manager$923                 path_manager
     00001A10  A$path_manager$924                 path_manager
     00001A13  A$path_manager$925                 path_manager
     00001A15  A$path_manager$929                 path_manager
     00001A15  C$path_manager.c$75$1_0$1          path_manager
     00001A18  A$path_manager$930                 path_manager
     00001A1A  A$path_manager$931                 path_manager
     00001A1D  A$path_manager$932                 path_manager
     00001A1F  A$path_manager$933                 path_manager
     00001A22  A$path_manager$934                 path_manager
     00001A24  A$path_manager$935                 path_manager
     00001A27  A$path_manager$936                 path_manager
     00001A29  A$path_manager$937                 path_manager
     00001A2C  A$path_manager$938                 path_manager
     00001A2E  A$path_manager$939                 path_manager
     00001A31  A$path_manager$940                 path_manager
     00001A33  A$path_manager$941                 path_manager
     00001A36  A$path_manager$942                 path_manager
     00001A38  A$path_manager$946                 path_manager
     00001A38  C$path_manager.c$76$1_0$1          path_manager
     00001A3B  A$path_manager$947                 path_manager
     00001A3D  A$path_manager$948                 path_manager
     00001A40  A$path_manager$949                 path_manager
     00001A42  A$path_manager$950                 path_manager
     00001A45  A$path_manager$951                 path_manager
     00001A47  A$path_manager$952                 path_manager
     00001A4A  A$path_manager$953                 path_manager
     00001A4C  A$path_manager$954                 path_manager
     00001A4F  A$path_manager$955                 path_manager
     00001A51  A$path_manager$956                 path_manager
     00001A54  A$path_manager$957                 path_manager
     00001A56  A$path_manager$958                 path_manager
     00001A59  A$path_manager$959                 path_manager
     00001A5B  A$path_manager$963                 path_manager
     00001A5B  C$path_manager.c$77$1_0$1          path_manager
     00001A5E  A$path_manager$964                 path_manager
     00001A60  A$path_manager$965                 path_manager
     00001A63  A$path_manager$966                 path_manager
     00001A65  A$path_manager$967                 path_manager
     00001A68  A$path_manager$968                 path_manager
     00001A6A  A$path_manager$969                 path_manager
     00001A6D  A$path_manager$970                 path_manager
     00001A6F  A$path_manager$971                 path_manager
     00001A72  A$path_manager$972                 path_manager
     00001A74  A$path_manager$973                 path_manager
     00001A77  A$path_manager$974                 path_manager
ASxxxx Linker V03.00 + NoICE + sdld,  page 68.
Hexadecimal  [32-Bits]

Area                                    Addr        Size        Decimal Bytes (Attributes)
--------------------------------        ----        ----        ------- ----- ------------
_CODE                               00000200    00003D43 =       15683. bytes (REL,CON)

      Value  Global                              Global Defined In Module
      -----  --------------------------------   ------------------------
     00001A79  A$path_manager$975                 path_manager
     00001A7C  A$path_manager$976                 path_manager
     00001A7E  A$path_manager$980                 path_manager
     00001A7E  C$path_manager.c$78$1_0$1          path_manager
     00001A81  A$path_manager$981                 path_manager
     00001A83  A$path_manager$982                 path_manager
     00001A86  A$path_manager$983                 path_manager
     00001A88  A$path_manager$984                 path_manager
     00001A8B  A$path_manager$985                 path_manager
     00001A8D  A$path_manager$986                 path_manager
     00001A90  A$path_manager$987                 path_manager
     00001A92  A$path_manager$988                 path_manager
     00001A95  A$path_manager$989                 path_manager
     00001A97  A$path_manager$990                 path_manager
     00001A9A  A$path_manager$991                 path_manager
     00001A9C  A$path_manager$992                 path_manager
     00001A9F  A$path_manager$993                 path_manager
     00001AA1  A$path_manager$997                 path_manager
     00001AA1  C$path_manager.c$79$1_0$1          path_manager
     00001AA4  A$path_manager$998                 path_manager
     00001AA6  A$path_manager$999                 path_manager
     00001AA9  A$path_manager$1000                path_manager
     00001AAB  A$path_manager$1001                path_manager
     00001AAE  A$path_manager$1002                path_manager
     00001AB0  A$path_manager$1003                path_manager
     00001AB3  A$path_manager$1004                path_manager
     00001AB5  A$path_manager$1005                path_manager
     00001AB8  A$path_manager$1006                path_manager
     00001ABA  A$path_manager$1007                path_manager
     00001ABD  A$path_manager$1008                path_manager
     00001ABF  A$path_manager$1009                path_manager
     00001AC2  A$path_manager$1010                path_manager
     00001AC4  A$path_manager$1014                path_manager
     00001AC4  C$path_manager.c$82$1_0$1          path_manager
     00001AC7  A$path_manager$1015                path_manager
     00001AC9  A$path_manager$1016                path_manager
     00001ACC  A$path_manager$1017                path_manager
     00001ACE  A$path_manager$1018                path_manager
     00001AD1  A$path_manager$1019                path_manager
     00001AD3  A$path_manager$1020                path_manager
     00001AD6  A$path_manager$1021                path_manager
     00001AD8  A$path_manager$1022                path_manager
     00001ADB  A$path_manager$1023                path_manager
     00001ADD  A$path_manager$1024                path_manager
     00001AE0  A$path_manager$1025                path_manager
     00001AE2  A$path_manager$1026                path_manager
     00001AE5  A$path_manager$1027                path_manager
     00001AE7  A$path_manager$1031                path_manager
     00001AE7  C$path_manager.c$83$1_0$1          path_manager
     00001AEA  A$path_manager$1032                path_manager
     00001AEC  A$path_manager$1033                path_manager
ASxxxx Linker V03.00 + NoICE + sdld,  page 69.
Hexadecimal  [32-Bits]

Area                                    Addr        Size        Decimal Bytes (Attributes)
--------------------------------        ----        ----        ------- ----- ------------
_CODE                               00000200    00003D43 =       15683. bytes (REL,CON)

      Value  Global                              Global Defined In Module
      -----  --------------------------------   ------------------------
     00001AEF  A$path_manager$1034                path_manager
     00001AF1  A$path_manager$1035                path_manager
     00001AF4  A$path_manager$1036                path_manager
     00001AF6  A$path_manager$1037                path_manager
     00001AF9  A$path_manager$1038                path_manager
     00001AFB  A$path_manager$1039                path_manager
     00001AFE  A$path_manager$1040                path_manager
     00001B00  A$path_manager$1041                path_manager
     00001B03  A$path_manager$1042                path_manager
     00001B05  A$path_manager$1043                path_manager
     00001B08  A$path_manager$1044                path_manager
     00001B0A  A$path_manager$1048                path_manager
     00001B0A  C$path_manager.c$84$1_0$1          path_manager
     00001B0D  A$path_manager$1049                path_manager
     00001B0F  A$path_manager$1050                path_manager
     00001B12  A$path_manager$1051                path_manager
     00001B14  A$path_manager$1052                path_manager
     00001B17  A$path_manager$1053                path_manager
     00001B19  A$path_manager$1054                path_manager
     00001B1C  A$path_manager$1055                path_manager
     00001B1E  A$path_manager$1056                path_manager
     00001B21  A$path_manager$1057                path_manager
     00001B23  A$path_manager$1058                path_manager
     00001B26  A$path_manager$1059                path_manager
     00001B28  A$path_manager$1060                path_manager
     00001B2B  A$path_manager$1061                path_manager
     00001B2D  A$path_manager$1065                path_manager
     00001B2D  C$path_manager.c$85$1_0$1          path_manager
     00001B30  A$path_manager$1066                path_manager
     00001B32  A$path_manager$1067                path_manager
     00001B35  A$path_manager$1068                path_manager
     00001B37  A$path_manager$1069                path_manager
     00001B3A  A$path_manager$1070                path_manager
     00001B3C  A$path_manager$1071                path_manager
     00001B3F  A$path_manager$1072                path_manager
     00001B41  A$path_manager$1073                path_manager
     00001B44  A$path_manager$1074                path_manager
     00001B46  A$path_manager$1075                path_manager
     00001B49  A$path_manager$1076                path_manager
     00001B4B  A$path_manager$1077                path_manager
     00001B4E  A$path_manager$1078                path_manager
     00001B50  A$path_manager$1082                path_manager
     00001B50  C$path_manager.c$86$1_0$1          path_manager
     00001B53  A$path_manager$1083                path_manager
     00001B55  A$path_manager$1084                path_manager
     00001B58  A$path_manager$1085                path_manager
     00001B5A  A$path_manager$1086                path_manager
     00001B5D  A$path_manager$1087                path_manager
     00001B5F  A$path_manager$1088                path_manager
     00001B62  A$path_manager$1089                path_manager
     00001B64  A$path_manager$1090                path_manager
ASxxxx Linker V03.00 + NoICE + sdld,  page 70.
Hexadecimal  [32-Bits]

Area                                    Addr        Size        Decimal Bytes (Attributes)
--------------------------------        ----        ----        ------- ----- ------------
_CODE                               00000200    00003D43 =       15683. bytes (REL,CON)

      Value  Global                              Global Defined In Module
      -----  --------------------------------   ------------------------
     00001B67  A$path_manager$1091                path_manager
     00001B69  A$path_manager$1092                path_manager
     00001B6C  A$path_manager$1093                path_manager
     00001B6E  A$path_manager$1094                path_manager
     00001B71  A$path_manager$1095                path_manager
     00001B73  A$path_manager$1099                path_manager
     00001B73  C$path_manager.c$87$1_0$1          path_manager
     00001B76  A$path_manager$1100                path_manager
     00001B78  A$path_manager$1101                path_manager
     00001B7B  A$path_manager$1102                path_manager
     00001B7D  A$path_manager$1103                path_manager
     00001B80  A$path_manager$1104                path_manager
     00001B82  A$path_manager$1105                path_manager
     00001B85  A$path_manager$1106                path_manager
     00001B87  A$path_manager$1107                path_manager
     00001B8A  A$path_manager$1108                path_manager
     00001B8C  A$path_manager$1109                path_manager
     00001B8F  A$path_manager$1110                path_manager
     00001B91  A$path_manager$1111                path_manager
     00001B94  A$path_manager$1112                path_manager
     00001B96  A$path_manager$1116                path_manager
     00001B96  C$path_manager.c$88$1_0$1          path_manager
     00001B99  A$path_manager$1117                path_manager
     00001B9B  A$path_manager$1118                path_manager
     00001B9E  A$path_manager$1119                path_manager
     00001BA0  A$path_manager$1120                path_manager
     00001BA3  A$path_manager$1121                path_manager
     00001BA5  A$path_manager$1122                path_manager
     00001BA8  A$path_manager$1123                path_manager
     00001BAA  A$path_manager$1124                path_manager
     00001BAD  A$path_manager$1125                path_manager
     00001BAF  A$path_manager$1126                path_manager
     00001BB2  A$path_manager$1127                path_manager
     00001BB4  A$path_manager$1128                path_manager
     00001BB7  A$path_manager$1129                path_manager
     00001BB9  A$path_manager$1133                path_manager
     00001BB9  C$path_manager.c$89$1_0$1          path_manager
     00001BBC  A$path_manager$1134                path_manager
     00001BBE  A$path_manager$1135                path_manager
     00001BC1  A$path_manager$1136                path_manager
     00001BC3  A$path_manager$1137                path_manager
     00001BC6  A$path_manager$1138                path_manager
     00001BC8  A$path_manager$1139                path_manager
     00001BCB  A$path_manager$1140                path_manager
     00001BCD  A$path_manager$1141                path_manager
     00001BD0  A$path_manager$1142                path_manager
     00001BD2  A$path_manager$1143                path_manager
     00001BD5  A$path_manager$1144                path_manager
     00001BD7  A$path_manager$1145                path_manager
     00001BDA  A$path_manager$1146                path_manager
     00001BDC  A$path_manager$1154                path_manager
ASxxxx Linker V03.00 + NoICE + sdld,  page 71.
Hexadecimal  [32-Bits]

Area                                    Addr        Size        Decimal Bytes (Attributes)
--------------------------------        ----        ----        ------- ----- ------------
_CODE                               00000200    00003D43 =       15683. bytes (REL,CON)

      Value  Global                              Global Defined In Module
      -----  --------------------------------   ------------------------
     00001BDC  C$path_manager.c$90$1_0$1          path_manager
     00001BDC  XG$engine_path_manager_init$0$0    path_manager
     00001BDD  A$screen_manager$78                screen_manager
     00001BDD  C$screen_manager.c$20$0_0$9        screen_manager
     00001BDD  C$screen_manager.c$22$1_0$9        screen_manager
     00001BDD  G$engine_screen_manager_init$0$0   screen_manager
     00001BDD  _engine_screen_manager_init        screen_manager
     00001BE0  A$screen_manager$79                screen_manager
     00001BE2  A$screen_manager$83                screen_manager
     00001BE2  C$screen_manager.c$23$1_0$9        screen_manager
     00001BE5  A$screen_manager$84                screen_manager
     00001BE6  A$screen_manager$85                screen_manager
     00001BE7  A$screen_manager$86                screen_manager
     00001BEA  A$screen_manager$90                screen_manager
     00001BEA  C$screen_manager.c$26$1_0$9        screen_manager
     00001BED  A$screen_manager$91                screen_manager
     00001BF0  A$screen_manager$95                screen_manager
     00001BF0  C$screen_manager.c$27$1_0$9        screen_manager
     00001BF3  A$screen_manager$96                screen_manager
     00001BF6  A$screen_manager$100               screen_manager
     00001BF6  C$screen_manager.c$28$1_0$9        screen_manager
     00001BF9  A$screen_manager$101               screen_manager
     00001BFC  A$screen_manager$105               screen_manager
     00001BFC  C$screen_manager.c$29$1_0$9        screen_manager
     00001BFF  A$screen_manager$106               screen_manager
     00001C02  A$screen_manager$110               screen_manager
     00001C02  C$screen_manager.c$30$1_0$9        screen_manager
     00001C05  A$screen_manager$111               screen_manager
     00001C08  A$screen_manager$115               screen_manager
     00001C08  C$screen_manager.c$33$1_0$9        screen_manager
     00001C0B  A$screen_manager$116               screen_manager
     00001C0E  A$screen_manager$120               screen_manager
     00001C0E  C$screen_manager.c$34$1_0$9        screen_manager
     00001C11  A$screen_manager$121               screen_manager
     00001C14  A$screen_manager$125               screen_manager
     00001C14  C$screen_manager.c$35$1_0$9        screen_manager
     00001C17  A$screen_manager$126               screen_manager
     00001C1A  A$screen_manager$130               screen_manager
     00001C1A  C$screen_manager.c$36$1_0$9        screen_manager
     00001C1D  A$screen_manager$131               screen_manager
     00001C20  A$screen_manager$135               screen_manager
     00001C20  C$screen_manager.c$37$1_0$9        screen_manager
     00001C23  A$screen_manager$136               screen_manager
     00001C26  A$screen_manager$144               screen_manager
     00001C26  C$screen_manager.c$38$1_0$9        screen_manager
     00001C26  XG$engine_screen_manager_init$0$   screen_manager
     00001C27  A$screen_manager$157               screen_manager
     00001C27  C$screen_manager.c$40$1_0$10       screen_manager
     00001C27  C$screen_manager.c$42$1_0$10       screen_manager
     00001C27  G$engine_screen_manager_update$0   screen_manager
     00001C27  _engine_screen_manager_update      screen_manager
ASxxxx Linker V03.00 + NoICE + sdld,  page 72.
Hexadecimal  [32-Bits]

Area                                    Addr        Size        Decimal Bytes (Attributes)
--------------------------------        ----        ----        ------- ----- ------------
_CODE                               00000200    00003D43 =       15683. bytes (REL,CON)

      Value  Global                              Global Defined In Module
      -----  --------------------------------   ------------------------
     00001C2A  A$screen_manager$158               screen_manager
     00001C2E  A$screen_manager$159               screen_manager
     00001C31  A$screen_manager$160               screen_manager
     00001C33  A$screen_manager$164               screen_manager
     00001C33  C$screen_manager.c$44$2_0$11       screen_manager
     00001C36  A$screen_manager$165               screen_manager
     00001C3A  A$screen_manager$166               screen_manager
     00001C3D  A$screen_manager$170               screen_manager
     00001C3D  C$screen_manager.c$45$2_0$11       screen_manager
     00001C40  A$screen_manager$171               screen_manager
     00001C43  A$screen_manager$172               screen_manager
     00001C45  A$screen_manager$173               screen_manager
     00001C46  A$screen_manager$174               screen_manager
     00001C47  A$screen_manager$175               screen_manager
     00001C48  A$screen_manager$176               screen_manager
     00001C49  A$screen_manager$177               screen_manager
     00001C4A  A$screen_manager$178               screen_manager
     00001C4B  A$screen_manager$179               screen_manager
     00001C4E  A$screen_manager$184               screen_manager
     00001C4E  C$screen_manager.c$48$1_0$10       screen_manager
     00001C51  A$screen_manager$185               screen_manager
     00001C54  A$screen_manager$186               screen_manager
     00001C55  A$screen_manager$187               screen_manager
     00001C57  A$screen_manager$188               screen_manager
     00001C58  A$screen_manager$189               screen_manager
     00001C59  A$screen_manager$190               screen_manager
     00001C5A  A$screen_manager$191               screen_manager
     00001C5B  A$screen_manager$192               screen_manager
     00001C5C  A$screen_manager$193               screen_manager
     00001C5F  A$screen_manager$194               screen_manager
     00001C60  A$screen_manager$195               screen_manager
     00001C61  A$screen_manager$196               screen_manager
     00001C62  A$screen_manager$197               screen_manager
     00001C65  A$screen_manager$198               screen_manager
     00001C66  A$screen_manager$206               screen_manager
     00001C66  C$screen_manager.c$49$1_0$10       screen_manager
     00001C66  XG$engine_screen_manager_update$   screen_manager
     00001C67  A$sound_manager$63                 sound_manager
     00001C67  C$sound_manager.c$13$0_0$43        sound_manager
     00001C67  C$sound_manager.c$15$1_0$43        sound_manager
     00001C67  C$sound_manager.c$16$1_0$43        sound_manager
     00001C67  G$engine_music_manager_play$0$0    sound_manager
     00001C67  _engine_music_manager_play         sound_manager
     00001C6A  A$sound_manager$64                 sound_manager
     00001C6B  A$sound_manager$68                 sound_manager
     00001C6B  C$sound_manager.c$18$2_0$44        sound_manager
     00001C6C  A$sound_manager$72                 sound_manager
     00001C6C  C$sound_manager.c$21$1_0$43        sound_manager
     00001C6F  A$sound_manager$73                 sound_manager
     00001C70  A$sound_manager$74                 sound_manager
     00001C73  A$sound_manager$75                 sound_manager
ASxxxx Linker V03.00 + NoICE + sdld,  page 73.
Hexadecimal  [32-Bits]

Area                                    Addr        Size        Decimal Bytes (Attributes)
--------------------------------        ----        ----        ------- ----- ------------
_CODE                               00000200    00003D43 =       15683. bytes (REL,CON)

      Value  Global                              Global Defined In Module
      -----  --------------------------------   ------------------------
     00001C74  A$sound_manager$83                 sound_manager
     00001C74  C$sound_manager.c$22$1_0$43        sound_manager
     00001C74  XG$engine_music_manager_play$0$0   sound_manager
     00001C75  A$sound_manager$99                 sound_manager
     00001C75  C$sound_manager.c$24$1_0$45        sound_manager
     00001C75  C$sound_manager.c$26$1_0$45        sound_manager
     00001C75  C$sound_manager.c$29$1_0$45        sound_manager
     00001C75  G$engine_sound_manager_play$0$0    sound_manager
     00001C75  _engine_sound_manager_play         sound_manager
     00001C78  A$sound_manager$100                sound_manager
     00001C79  A$sound_manager$101                sound_manager
     00001C7A  A$sound_manager$105                sound_manager
     00001C7A  C$sound_manager.c$31$2_0$46        sound_manager
     00001C7B  A$sound_manager$109                sound_manager
     00001C7B  C$sound_manager.c$34$1_0$45        sound_manager
     00001C7E  A$sound_manager$110                sound_manager
     00001C81  A$sound_manager$111                sound_manager
     00001C82  A$sound_manager$112                sound_manager
     00001C83  A$sound_manager$113                sound_manager
     00001C86  A$sound_manager$114                sound_manager
     00001C87  A$sound_manager$115                sound_manager
     00001C88  A$sound_manager$116                sound_manager
     00001C89  A$sound_manager$117                sound_manager
     00001C8A  A$sound_manager$121                sound_manager
     00001C8A  C$sound_manager.c$35$1_0$45        sound_manager
     00001C8B  A$sound_manager$122                sound_manager
     00001C8D  A$sound_manager$126                sound_manager
     00001C8D  C$sound_manager.c$37$2_0$47        sound_manager
     00001C90  A$sound_manager$127                sound_manager
     00001C93  A$sound_manager$128                sound_manager
     00001C94  A$sound_manager$129                sound_manager
     00001C95  A$sound_manager$130                sound_manager
     00001C96  A$sound_manager$131                sound_manager
     00001C97  A$sound_manager$132                sound_manager
     00001C9A  A$sound_manager$133                sound_manager
     00001C9B  A$sound_manager$134                sound_manager
     00001C9C  A$sound_manager$135                sound_manager
     00001C9D  A$sound_manager$140                sound_manager
     00001C9D  C$sound_manager.c$39$1_0$45        sound_manager
     00001C9E  A$sound_manager$141                sound_manager
     00001CA0  A$sound_manager$145                sound_manager
     00001CA0  C$sound_manager.c$41$2_0$48        sound_manager
     00001CA3  A$sound_manager$146                sound_manager
     00001CA6  A$sound_manager$147                sound_manager
     00001CA7  A$sound_manager$148                sound_manager
     00001CA8  A$sound_manager$149                sound_manager
     00001CA9  A$sound_manager$150                sound_manager
     00001CAA  A$sound_manager$151                sound_manager
     00001CAD  A$sound_manager$152                sound_manager
     00001CAE  A$sound_manager$153                sound_manager
     00001CAF  A$sound_manager$154                sound_manager
ASxxxx Linker V03.00 + NoICE + sdld,  page 74.
Hexadecimal  [32-Bits]

Area                                    Addr        Size        Decimal Bytes (Attributes)
--------------------------------        ----        ----        ------- ----- ------------
_CODE                               00000200    00003D43 =       15683. bytes (REL,CON)

      Value  Global                              Global Defined In Module
      -----  --------------------------------   ------------------------
     00001CB0  A$sound_manager$159                sound_manager
     00001CB0  C$sound_manager.c$45$2_0$49        sound_manager
     00001CB3  A$sound_manager$160                sound_manager
     00001CB6  A$sound_manager$161                sound_manager
     00001CB7  A$sound_manager$162                sound_manager
     00001CB8  A$sound_manager$163                sound_manager
     00001CB9  A$sound_manager$164                sound_manager
     00001CBA  A$sound_manager$165                sound_manager
     00001CBD  A$sound_manager$166                sound_manager
     00001CBE  A$sound_manager$167                sound_manager
     00001CBF  A$sound_manager$175                sound_manager
     00001CBF  C$sound_manager.c$47$1_0$45        sound_manager
     00001CBF  XG$engine_sound_manager_play$0$0   sound_manager
     00001CC0  A$sprite_manager$53                sprite_manager
     00001CC0  C$sprite_manager.c$4$0_0$20        sprite_manager
     00001CC0  G$engine_sprite_manager_draw$0$0   sprite_manager
     00001CC0  _engine_sprite_manager_draw        sprite_manager
     00001CC2  A$sprite_manager$54                sprite_manager
     00001CC6  A$sprite_manager$55                sprite_manager
     00001CC8  A$sprite_manager$59                sprite_manager
     00001CC8  C$sprite_manager.c$6$1_0$20        sprite_manager
     00001CCB  A$sprite_manager$60                sprite_manager
     00001CCD  A$sprite_manager$61                sprite_manager
     00001CCE  A$sprite_manager$62                sprite_manager
     00001CCF  A$sprite_manager$63                sprite_manager
     00001CD2  A$sprite_manager$64                sprite_manager
     00001CD5  A$sprite_manager$65                sprite_manager
     00001CD6  A$sprite_manager$66                sprite_manager
     00001CD9  A$sprite_manager$67                sprite_manager
     00001CDA  A$sprite_manager$68                sprite_manager
     00001CDB  A$sprite_manager$69                sprite_manager
     00001CDC  A$sprite_manager$73                sprite_manager
     00001CDC  C$sprite_manager.c$7$1_0$20        sprite_manager
     00001CDD  A$sprite_manager$74                sprite_manager
     00001CDE  A$sprite_manager$75                sprite_manager
     00001CDF  A$sprite_manager$76                sprite_manager
     00001CE2  A$sprite_manager$77                sprite_manager
     00001CE4  A$sprite_manager$78                sprite_manager
     00001CE5  A$sprite_manager$79                sprite_manager
     00001CE6  A$sprite_manager$80                sprite_manager
     00001CE7  A$sprite_manager$81                sprite_manager
     00001CE8  A$sprite_manager$82                sprite_manager
     00001CEB  A$sprite_manager$83                sprite_manager
     00001CEC  A$sprite_manager$84                sprite_manager
     00001CEF  A$sprite_manager$85                sprite_manager
     00001CF0  A$sprite_manager$86                sprite_manager
     00001CF1  A$sprite_manager$87                sprite_manager
     00001CF2  A$sprite_manager$88                sprite_manager
     00001CF3  A$sprite_manager$92                sprite_manager
     00001CF3  C$sprite_manager.c$8$1_0$20        sprite_manager
     00001CF6  A$sprite_manager$93                sprite_manager
ASxxxx Linker V03.00 + NoICE + sdld,  page 75.
Hexadecimal  [32-Bits]

Area                                    Addr        Size        Decimal Bytes (Attributes)
--------------------------------        ----        ----        ------- ----- ------------
_CODE                               00000200    00003D43 =       15683. bytes (REL,CON)

      Value  Global                              Global Defined In Module
      -----  --------------------------------   ------------------------
     00001CF7  A$sprite_manager$94                sprite_manager
     00001CFA  A$sprite_manager$95                sprite_manager
     00001CFC  A$sprite_manager$96                sprite_manager
     00001CFD  A$sprite_manager$97                sprite_manager
     00001CFE  A$sprite_manager$98                sprite_manager
     00001CFF  A$sprite_manager$99                sprite_manager
     00001D00  A$sprite_manager$100               sprite_manager
     00001D01  A$sprite_manager$101               sprite_manager
     00001D02  A$sprite_manager$102               sprite_manager
     00001D05  A$sprite_manager$103               sprite_manager
     00001D06  A$sprite_manager$104               sprite_manager
     00001D07  A$sprite_manager$105               sprite_manager
     00001D0A  A$sprite_manager$106               sprite_manager
     00001D0B  A$sprite_manager$107               sprite_manager
     00001D0C  A$sprite_manager$108               sprite_manager
     00001D0D  A$sprite_manager$109               sprite_manager
     00001D0E  A$sprite_manager$113               sprite_manager
     00001D0E  C$sprite_manager.c$9$1_0$20        sprite_manager
     00001D11  A$sprite_manager$114               sprite_manager
     00001D12  A$sprite_manager$115               sprite_manager
     00001D13  A$sprite_manager$116               sprite_manager
     00001D14  A$sprite_manager$117               sprite_manager
     00001D17  A$sprite_manager$118               sprite_manager
     00001D18  A$sprite_manager$119               sprite_manager
     00001D19  A$sprite_manager$123               sprite_manager
     00001D1B  A$sprite_manager$128               sprite_manager
     00001D1B  C$sprite_manager.c$10$1_0$20       sprite_manager
     00001D1B  XG$engine_sprite_manager_draw$0$   sprite_manager
     00001D1C  A$text_manager$58                  text_manager
     00001D1C  C$text_manager.c$5$0_0$5           text_manager
     00001D1C  C$text_manager.c$9$1_0$5           text_manager
     00001D1C  G$engine_text_manager_draw$0$0     text_manager
     00001D1C  _engine_text_manager_draw          text_manager
     00001D1F  A$text_manager$59                  text_manager
     00001D20  A$text_manager$60                  text_manager
     00001D23  A$text_manager$61                  text_manager
     00001D24  A$text_manager$62                  text_manager
     00001D27  A$text_manager$63                  text_manager
     00001D28  A$text_manager$64                  text_manager
     00001D29  A$text_manager$68                  text_manager
     00001D29  C$text_manager.c$10$1_0$5          text_manager
     00001D2C  A$text_manager$69                  text_manager
     00001D2D  A$text_manager$70                  text_manager
     00001D30  A$text_manager$71                  text_manager
     00001D31  A$text_manager$72                  text_manager
     00001D34  A$text_manager$73                  text_manager
     00001D35  A$text_manager$74                  text_manager
     00001D36  A$text_manager$78                  text_manager
     00001D36  C$text_manager.c$12$1_0$5          text_manager
     00001D37  A$text_manager$79                  text_manager
     00001D38  A$text_manager$80                  text_manager
ASxxxx Linker V03.00 + NoICE + sdld,  page 76.
Hexadecimal  [32-Bits]

Area                                    Addr        Size        Decimal Bytes (Attributes)
--------------------------------        ----        ----        ------- ----- ------------
_CODE                               00000200    00003D43 =       15683. bytes (REL,CON)

      Value  Global                              Global Defined In Module
      -----  --------------------------------   ------------------------
     00001D3A  A$text_manager$81                  text_manager
     00001D3B  A$text_manager$82                  text_manager
     00001D3E  A$text_manager$83                  text_manager
     00001D3F  A$text_manager$84                  text_manager
     00001D42  A$text_manager$85                  text_manager
     00001D43  A$text_manager$86                  text_manager
     00001D44  A$text_manager$90                  text_manager
     00001D44  C$text_manager.c$13$1_0$5          text_manager
     00001D47  A$text_manager$91                  text_manager
     00001D48  A$text_manager$92                  text_manager
     00001D4B  A$text_manager$93                  text_manager
     00001D4C  A$text_manager$94                  text_manager
     00001D4F  A$text_manager$95                  text_manager
     00001D50  A$text_manager$96                  text_manager
     00001D51  A$text_manager$100                 text_manager
     00001D51  C$text_manager.c$16$1_0$5          text_manager
     00001D54  A$text_manager$101                 text_manager
     00001D55  A$text_manager$102                 text_manager
     00001D58  A$text_manager$103                 text_manager
     00001D59  A$text_manager$104                 text_manager
     00001D5C  A$text_manager$105                 text_manager
     00001D5D  A$text_manager$106                 text_manager
     00001D5E  A$text_manager$110                 text_manager
     00001D5E  C$text_manager.c$17$1_0$5          text_manager
     00001D61  A$text_manager$111                 text_manager
     00001D62  A$text_manager$112                 text_manager
     00001D65  A$text_manager$113                 text_manager
     00001D66  A$text_manager$114                 text_manager
     00001D69  A$text_manager$115                 text_manager
     00001D6A  A$text_manager$116                 text_manager
     00001D6B  A$text_manager$120                 text_manager
     00001D6B  C$text_manager.c$18$1_0$5          text_manager
     00001D6E  A$text_manager$121                 text_manager
     00001D6F  A$text_manager$122                 text_manager
     00001D72  A$text_manager$123                 text_manager
     00001D73  A$text_manager$124                 text_manager
     00001D76  A$text_manager$125                 text_manager
     00001D77  A$text_manager$126                 text_manager
     00001D78  A$text_manager$130                 text_manager
     00001D78  C$text_manager.c$19$1_0$5          text_manager
     00001D7B  A$text_manager$131                 text_manager
     00001D7C  A$text_manager$132                 text_manager
     00001D7F  A$text_manager$133                 text_manager
     00001D80  A$text_manager$134                 text_manager
     00001D83  A$text_manager$135                 text_manager
     00001D84  A$text_manager$136                 text_manager
     00001D85  A$text_manager$140                 text_manager
     00001D85  C$text_manager.c$20$1_0$5          text_manager
     00001D88  A$text_manager$141                 text_manager
     00001D89  A$text_manager$142                 text_manager
     00001D8C  A$text_manager$143                 text_manager
ASxxxx Linker V03.00 + NoICE + sdld,  page 77.
Hexadecimal  [32-Bits]

Area                                    Addr        Size        Decimal Bytes (Attributes)
--------------------------------        ----        ----        ------- ----- ------------
_CODE                               00000200    00003D43 =       15683. bytes (REL,CON)

      Value  Global                              Global Defined In Module
      -----  --------------------------------   ------------------------
     00001D8D  A$text_manager$144                 text_manager
     00001D90  A$text_manager$145                 text_manager
     00001D91  A$text_manager$146                 text_manager
     00001D92  A$text_manager$150                 text_manager
     00001D92  C$text_manager.c$21$1_0$5          text_manager
     00001D95  A$text_manager$151                 text_manager
     00001D96  A$text_manager$152                 text_manager
     00001D99  A$text_manager$153                 text_manager
     00001D9A  A$text_manager$154                 text_manager
     00001D9D  A$text_manager$155                 text_manager
     00001D9E  A$text_manager$156                 text_manager
     00001D9F  A$text_manager$160                 text_manager
     00001D9F  C$text_manager.c$24$1_0$5          text_manager
     00001DA2  A$text_manager$161                 text_manager
     00001DA3  A$text_manager$162                 text_manager
     00001DA6  A$text_manager$163                 text_manager
     00001DA7  A$text_manager$164                 text_manager
     00001DAA  A$text_manager$165                 text_manager
     00001DAB  A$text_manager$166                 text_manager
     00001DAC  A$text_manager$170                 text_manager
     00001DAC  C$text_manager.c$25$1_0$5          text_manager
     00001DAF  A$text_manager$171                 text_manager
     00001DB0  A$text_manager$172                 text_manager
     00001DB3  A$text_manager$173                 text_manager
     00001DB4  A$text_manager$174                 text_manager
     00001DB7  A$text_manager$175                 text_manager
     00001DB8  A$text_manager$176                 text_manager
     00001DB9  A$text_manager$180                 text_manager
     00001DB9  C$text_manager.c$28$1_0$5          text_manager
     00001DBC  A$text_manager$181                 text_manager
     00001DBD  A$text_manager$182                 text_manager
     00001DC0  A$text_manager$183                 text_manager
     00001DC1  A$text_manager$184                 text_manager
     00001DC4  A$text_manager$185                 text_manager
     00001DC5  A$text_manager$186                 text_manager
     00001DC6  A$text_manager$190                 text_manager
     00001DC6  C$text_manager.c$29$1_0$5          text_manager
     00001DC9  A$text_manager$191                 text_manager
     00001DCA  A$text_manager$192                 text_manager
     00001DCD  A$text_manager$193                 text_manager
     00001DCE  A$text_manager$194                 text_manager
     00001DD1  A$text_manager$195                 text_manager
     00001DD2  A$text_manager$196                 text_manager
     00001DD3  A$text_manager$200                 text_manager
     00001DD3  C$text_manager.c$31$1_0$5          text_manager
     00001DD6  A$text_manager$201                 text_manager
     00001DD7  A$text_manager$202                 text_manager
     00001DDA  A$text_manager$203                 text_manager
     00001DDB  A$text_manager$204                 text_manager
     00001DDE  A$text_manager$205                 text_manager
     00001DDF  A$text_manager$206                 text_manager
ASxxxx Linker V03.00 + NoICE + sdld,  page 78.
Hexadecimal  [32-Bits]

Area                                    Addr        Size        Decimal Bytes (Attributes)
--------------------------------        ----        ----        ------- ----- ------------
_CODE                               00000200    00003D43 =       15683. bytes (REL,CON)

      Value  Global                              Global Defined In Module
      -----  --------------------------------   ------------------------
     00001DE0  A$text_manager$210                 text_manager
     00001DE0  C$text_manager.c$32$1_0$5          text_manager
     00001DE3  A$text_manager$211                 text_manager
     00001DE4  A$text_manager$212                 text_manager
     00001DE7  A$text_manager$213                 text_manager
     00001DE8  A$text_manager$214                 text_manager
     00001DEB  A$text_manager$215                 text_manager
     00001DEC  A$text_manager$216                 text_manager
     00001DED  A$text_manager$224                 text_manager
     00001DED  C$text_manager.c$33$1_0$5          text_manager
     00001DED  XG$engine_text_manager_draw$0$0    text_manager
     00001DEE  Ftext_manager$__str_0$0_0$0        text_manager
     00001DF7  Ftext_manager$__str_1$0_0$0        text_manager
     00001E00  Ftext_manager$__str_2$0_0$0        text_manager
     00001E07  Ftext_manager$__str_3$0_0$0        text_manager
     00001E0E  Ftext_manager$__str_4$0_0$0        text_manager
     00001E15  Ftext_manager$__str_5$0_0$0        text_manager
     00001E1C  Ftext_manager$__str_6$0_0$0        text_manager
     00001E23  Ftext_manager$__str_7$0_0$0        text_manager
     00001E2A  Ftext_manager$__str_8$0_0$0        text_manager
     00001E31  Ftext_manager$__str_9$0_0$0        text_manager
     00001E38  Ftext_manager$__str_10$0_0$0       text_manager
     00001E3F  Ftext_manager$__str_11$0_0$0       text_manager
     00001E46  Ftext_manager$__str_12$0_0$0       text_manager
     00001E4D  Ftext_manager$__str_13$0_0$0       text_manager
     00001E54  Ftext_manager$__str_14$0_0$0       text_manager
     00001E5B  Ftext_manager$__str_15$0_0$0       text_manager
     00001E62  A$text_manager$301                 text_manager
     00001E62  C$text_manager.c$35$1_0$6          text_manager
     00001E62  C$text_manager.c$37$1_0$6          text_manager
     00001E62  G$engine_text_manager_names$0$0    text_manager
     00001E62  _engine_text_manager_names         text_manager
     00001E65  A$text_manager$302                 text_manager
     00001E66  A$text_manager$303                 text_manager
     00001E69  A$text_manager$304                 text_manager
     00001E6A  A$text_manager$305                 text_manager
     00001E6D  A$text_manager$306                 text_manager
     00001E6E  A$text_manager$307                 text_manager
     00001E6F  A$text_manager$311                 text_manager
     00001E6F  C$text_manager.c$38$1_0$6          text_manager
     00001E72  A$text_manager$312                 text_manager
     00001E73  A$text_manager$313                 text_manager
     00001E76  A$text_manager$314                 text_manager
     00001E77  A$text_manager$315                 text_manager
     00001E7A  A$text_manager$316                 text_manager
     00001E7B  A$text_manager$317                 text_manager
     00001E7C  A$text_manager$321                 text_manager
     00001E7C  C$text_manager.c$39$1_0$6          text_manager
     00001E7F  A$text_manager$322                 text_manager
     00001E80  A$text_manager$323                 text_manager
     00001E83  A$text_manager$324                 text_manager
ASxxxx Linker V03.00 + NoICE + sdld,  page 79.
Hexadecimal  [32-Bits]

Area                                    Addr        Size        Decimal Bytes (Attributes)
--------------------------------        ----        ----        ------- ----- ------------
_CODE                               00000200    00003D43 =       15683. bytes (REL,CON)

      Value  Global                              Global Defined In Module
      -----  --------------------------------   ------------------------
     00001E84  A$text_manager$325                 text_manager
     00001E87  A$text_manager$326                 text_manager
     00001E88  A$text_manager$327                 text_manager
     00001E89  A$text_manager$331                 text_manager
     00001E89  C$text_manager.c$40$1_0$6          text_manager
     00001E8C  A$text_manager$332                 text_manager
     00001E8D  A$text_manager$333                 text_manager
     00001E90  A$text_manager$334                 text_manager
     00001E91  A$text_manager$335                 text_manager
     00001E94  A$text_manager$336                 text_manager
     00001E95  A$text_manager$337                 text_manager
     00001E96  A$text_manager$345                 text_manager
     00001E96  C$text_manager.c$41$1_0$6          text_manager
     00001E96  XG$engine_text_manager_names$0$0   text_manager
     00001E97  Ftext_manager$__str_16$0_0$0       text_manager
     00001E9C  Ftext_manager$__str_17$0_0$0       text_manager
     00001EA1  Ftext_manager$__str_18$0_0$0       text_manager
     00001EA6  Ftext_manager$__str_19$0_0$0       text_manager
     00001EAB  A$text_manager$374                 text_manager
     00001EAB  C$text_manager.c$43$1_0$7          text_manager
     00001EAB  C$text_manager.c$45$1_0$7          text_manager
     00001EAB  G$engine_text_manager_space$0$0    text_manager
     00001EAB  _engine_text_manager_space         text_manager
     00001EAE  A$text_manager$375                 text_manager
     00001EAF  A$text_manager$376                 text_manager
     00001EB2  A$text_manager$377                 text_manager
     00001EB3  A$text_manager$378                 text_manager
     00001EB6  A$text_manager$379                 text_manager
     00001EB7  A$text_manager$380                 text_manager
     00001EB8  A$text_manager$384                 text_manager
     00001EB8  C$text_manager.c$46$1_0$7          text_manager
     00001EBB  A$text_manager$385                 text_manager
     00001EBC  A$text_manager$386                 text_manager
     00001EBF  A$text_manager$387                 text_manager
     00001EC0  A$text_manager$388                 text_manager
     00001EC3  A$text_manager$389                 text_manager
     00001EC4  A$text_manager$390                 text_manager
     00001EC5  A$text_manager$394                 text_manager
     00001EC5  C$text_manager.c$47$1_0$7          text_manager
     00001EC8  A$text_manager$395                 text_manager
     00001EC9  A$text_manager$396                 text_manager
     00001ECC  A$text_manager$397                 text_manager
     00001ECD  A$text_manager$398                 text_manager
     00001ED0  A$text_manager$399                 text_manager
     00001ED1  A$text_manager$400                 text_manager
     00001ED2  A$text_manager$404                 text_manager
     00001ED2  C$text_manager.c$48$1_0$7          text_manager
     00001ED5  A$text_manager$405                 text_manager
     00001ED6  A$text_manager$406                 text_manager
     00001ED9  A$text_manager$407                 text_manager
     00001EDA  A$text_manager$408                 text_manager
ASxxxx Linker V03.00 + NoICE + sdld,  page 80.
Hexadecimal  [32-Bits]

Area                                    Addr        Size        Decimal Bytes (Attributes)
--------------------------------        ----        ----        ------- ----- ------------
_CODE                               00000200    00003D43 =       15683. bytes (REL,CON)

      Value  Global                              Global Defined In Module
      -----  --------------------------------   ------------------------
     00001EDD  A$text_manager$409                 text_manager
     00001EDE  A$text_manager$410                 text_manager
     00001EDF  A$text_manager$418                 text_manager
     00001EDF  C$text_manager.c$49$1_0$7          text_manager
     00001EDF  XG$engine_text_manager_space$0$0   text_manager
     00001EE0  Ftext_manager$__str_20$0_0$0       text_manager
     00001EE5  A$tree_manager$57                  tree_manager
     00001EE5  C$tree_manager.c$10$0_0$19         tree_manager
     00001EE5  C$tree_manager.c$12$1_0$19         tree_manager
     00001EE5  G$engine_tree_manager_draw$0$0     tree_manager
     00001EE5  _engine_tree_manager_draw          tree_manager
     00001EE8  A$tree_manager$68                  tree_manager
     00001EE8  C$tree_manager.c$13$1_0$19         tree_manager
     00001EE8  C$tree_manager.c$14$1_0$19         tree_manager
     00001EE8  XG$engine_tree_manager_draw$0$0    tree_manager
     00001EEB  A$tree_manager$81                  tree_manager
     00001EEB  C$tree_manager.c$16$1_0$20         tree_manager
     00001EEB  Ftree_manager$engine_tree_manage   tree_manager
     00001EED  A$tree_manager$86                  tree_manager
     00001EED  C$tree_manager.c$22$3_0$22         tree_manager
     00001EEE  A$tree_manager$87                  tree_manager
     00001EEF  A$tree_manager$88                  tree_manager
     00001EF0  A$tree_manager$89                  tree_manager
     00001EF1  A$tree_manager$90                  tree_manager
     00001EF2  A$tree_manager$91                  tree_manager
     00001EF3  A$tree_manager$92                  tree_manager
     00001EF6  A$tree_manager$93                  tree_manager
     00001EF7  A$tree_manager$94                  tree_manager
     00001EF8  A$tree_manager$98                  tree_manager
     00001EF8  C$tree_manager.c$23$3_0$22         tree_manager
     00001EF9  A$tree_manager$99                  tree_manager
     00001EFB  A$tree_manager$100                 tree_manager
     00001EFC  A$tree_manager$101                 tree_manager
     00001EFD  A$tree_manager$102                 tree_manager
     00001EFE  A$tree_manager$103                 tree_manager
     00001EFF  A$tree_manager$104                 tree_manager
     00001F02  A$tree_manager$105                 tree_manager
     00001F03  A$tree_manager$106                 tree_manager
     00001F04  A$tree_manager$110                 tree_manager
     00001F04  C$tree_manager.c$20$2_0$21         tree_manager
     00001F05  A$tree_manager$111                 tree_manager
     00001F06  A$tree_manager$112                 tree_manager
     00001F07  A$tree_manager$113                 tree_manager
     00001F09  A$tree_manager$114                 tree_manager
     00001F0B  A$tree_manager$118                 tree_manager
     00001F0D  A$tree_manager$123                 tree_manager
     00001F0D  C$tree_manager.c$28$3_0$24         tree_manager
     00001F0E  A$tree_manager$124                 tree_manager
     00001F10  A$tree_manager$125                 tree_manager
     00001F11  A$tree_manager$126                 tree_manager
     00001F14  A$tree_manager$127                 tree_manager
ASxxxx Linker V03.00 + NoICE + sdld,  page 81.
Hexadecimal  [32-Bits]

Area                                    Addr        Size        Decimal Bytes (Attributes)
--------------------------------        ----        ----        ------- ----- ------------
_CODE                               00000200    00003D43 =       15683. bytes (REL,CON)

      Value  Global                              Global Defined In Module
      -----  --------------------------------   ------------------------
     00001F15  A$tree_manager$128                 tree_manager
     00001F16  A$tree_manager$132                 tree_manager
     00001F16  C$tree_manager.c$29$3_0$24         tree_manager
     00001F17  A$tree_manager$133                 tree_manager
     00001F19  A$tree_manager$134                 tree_manager
     00001F1A  A$tree_manager$135                 tree_manager
     00001F1D  A$tree_manager$136                 tree_manager
     00001F1E  A$tree_manager$137                 tree_manager
     00001F1F  A$tree_manager$141                 tree_manager
     00001F1F  C$tree_manager.c$26$2_0$23         tree_manager
     00001F20  A$tree_manager$142                 tree_manager
     00001F21  A$tree_manager$143                 tree_manager
     00001F22  A$tree_manager$144                 tree_manager
     00001F24  A$tree_manager$145                 tree_manager
     00001F26  A$tree_manager$153                 tree_manager
     00001F26  C$tree_manager.c$31$2_0$20         tree_manager
     00001F26  XFtree_manager$engine_tree_manag   tree_manager
     00001F27  A$tree_manager$166                 tree_manager
     00001F27  C$tree_manager.c$33$2_0$25         tree_manager
     00001F27  Ftree_manager$engine_tree_manage   tree_manager
     00001F29  A$tree_manager$171                 tree_manager
     00001F29  C$tree_manager.c$39$3_0$27         tree_manager
     00001F2A  A$tree_manager$172                 tree_manager
     00001F2C  A$tree_manager$173                 tree_manager
     00001F2D  A$tree_manager$174                 tree_manager
     00001F2E  A$tree_manager$175                 tree_manager
     00001F2F  A$tree_manager$176                 tree_manager
     00001F30  A$tree_manager$177                 tree_manager
     00001F33  A$tree_manager$178                 tree_manager
     00001F34  A$tree_manager$179                 tree_manager
     00001F35  A$tree_manager$183                 tree_manager
     00001F35  C$tree_manager.c$40$3_0$27         tree_manager
     00001F36  A$tree_manager$184                 tree_manager
     00001F38  A$tree_manager$185                 tree_manager
     00001F39  A$tree_manager$186                 tree_manager
     00001F3A  A$tree_manager$187                 tree_manager
     00001F3B  A$tree_manager$188                 tree_manager
     00001F3C  A$tree_manager$189                 tree_manager
     00001F3F  A$tree_manager$190                 tree_manager
     00001F40  A$tree_manager$191                 tree_manager
     00001F41  A$tree_manager$195                 tree_manager
     00001F41  C$tree_manager.c$37$2_0$26         tree_manager
     00001F42  A$tree_manager$196                 tree_manager
     00001F43  A$tree_manager$197                 tree_manager
     00001F44  A$tree_manager$198                 tree_manager
     00001F46  A$tree_manager$199                 tree_manager
     00001F48  A$tree_manager$203                 tree_manager
     00001F4A  A$tree_manager$208                 tree_manager
     00001F4A  C$tree_manager.c$44$3_0$29         tree_manager
     00001F4B  A$tree_manager$209                 tree_manager
     00001F4D  A$tree_manager$210                 tree_manager
ASxxxx Linker V03.00 + NoICE + sdld,  page 82.
Hexadecimal  [32-Bits]

Area                                    Addr        Size        Decimal Bytes (Attributes)
--------------------------------        ----        ----        ------- ----- ------------
_CODE                               00000200    00003D43 =       15683. bytes (REL,CON)

      Value  Global                              Global Defined In Module
      -----  --------------------------------   ------------------------
     00001F4E  A$tree_manager$211                 tree_manager
     00001F51  A$tree_manager$212                 tree_manager
     00001F52  A$tree_manager$213                 tree_manager
     00001F53  A$tree_manager$217                 tree_manager
     00001F53  C$tree_manager.c$45$3_0$29         tree_manager
     00001F54  A$tree_manager$218                 tree_manager
     00001F56  A$tree_manager$219                 tree_manager
     00001F57  A$tree_manager$220                 tree_manager
     00001F5A  A$tree_manager$221                 tree_manager
     00001F5B  A$tree_manager$222                 tree_manager
     00001F5C  A$tree_manager$226                 tree_manager
     00001F5C  C$tree_manager.c$42$2_0$28         tree_manager
     00001F5D  A$tree_manager$227                 tree_manager
     00001F5E  A$tree_manager$228                 tree_manager
     00001F5F  A$tree_manager$229                 tree_manager
     00001F61  A$tree_manager$230                 tree_manager
     00001F63  A$tree_manager$238                 tree_manager
     00001F63  C$tree_manager.c$47$2_0$25         tree_manager
     00001F63  XFtree_manager$engine_tree_manag   tree_manager
     00001F64  A$tree_manager$248                 tree_manager
     00001F64  C$tree_manager.c$49$2_0$31         tree_manager
     00001F64  Ftree_manager$draw$0$0             tree_manager
     00001F66  A$tree_manager$249                 tree_manager
     00001F6A  A$tree_manager$250                 tree_manager
     00001F6C  A$tree_manager$257                 tree_manager
     00001F6C  C$tree_manager.c$51$2_0$31         tree_manager
     00001F6C  C$tree_manager.c$53$1_0$31         tree_manager
     00001F6F  A$tree_manager$258                 tree_manager
     00001F72  A$tree_manager$259                 tree_manager
     00001F73  A$tree_manager$260                 tree_manager
     00001F76  A$tree_manager$261                 tree_manager
     00001F77  A$tree_manager$262                 tree_manager
     00001F7A  A$tree_manager$263                 tree_manager
     00001F7B  A$tree_manager$264                 tree_manager
     00001F7C  A$tree_manager$265                 tree_manager
     00001F7F  A$tree_manager$266                 tree_manager
     00001F80  A$tree_manager$270                 tree_manager
     00001F80  C$tree_manager.c$54$1_0$31         tree_manager
     00001F83  A$tree_manager$271                 tree_manager
     00001F84  A$tree_manager$272                 tree_manager
     00001F85  A$tree_manager$273                 tree_manager
     00001F88  A$tree_manager$274                 tree_manager
     00001F89  A$tree_manager$275                 tree_manager
     00001F8C  A$tree_manager$276                 tree_manager
     00001F8D  A$tree_manager$277                 tree_manager
     00001F8E  A$tree_manager$278                 tree_manager
     00001F91  A$tree_manager$279                 tree_manager
     00001F92  A$tree_manager$280                 tree_manager
     00001F93  A$tree_manager$281                 tree_manager
     00001F94  A$tree_manager$282                 tree_manager
     00001F95  A$tree_manager$283                 tree_manager
ASxxxx Linker V03.00 + NoICE + sdld,  page 83.
Hexadecimal  [32-Bits]

Area                                    Addr        Size        Decimal Bytes (Attributes)
--------------------------------        ----        ----        ------- ----- ------------
_CODE                               00000200    00003D43 =       15683. bytes (REL,CON)

      Value  Global                              Global Defined In Module
      -----  --------------------------------   ------------------------
     00001F98  A$tree_manager$284                 tree_manager
     00001F99  A$tree_manager$285                 tree_manager
     00001F9A  A$tree_manager$289                 tree_manager
     00001F9A  C$tree_manager.c$55$1_0$31         tree_manager
     00001F9D  A$tree_manager$290                 tree_manager
     00001F9E  A$tree_manager$291                 tree_manager
     00001F9F  A$tree_manager$292                 tree_manager
     00001FA0  A$tree_manager$293                 tree_manager
     00001FA1  A$tree_manager$294                 tree_manager
     00001FA4  A$tree_manager$295                 tree_manager
     00001FA5  A$tree_manager$296                 tree_manager
     00001FA6  A$tree_manager$297                 tree_manager
     00001FA9  A$tree_manager$298                 tree_manager
     00001FAA  A$tree_manager$299                 tree_manager
     00001FAB  A$tree_manager$300                 tree_manager
     00001FAE  A$tree_manager$301                 tree_manager
     00001FB0  A$tree_manager$302                 tree_manager
     00001FB1  A$tree_manager$303                 tree_manager
     00001FB2  A$tree_manager$304                 tree_manager
     00001FB3  A$tree_manager$305                 tree_manager
     00001FB6  A$tree_manager$306                 tree_manager
     00001FB7  A$tree_manager$307                 tree_manager
     00001FBA  A$tree_manager$308                 tree_manager
     00001FBB  A$tree_manager$309                 tree_manager
     00001FBE  A$tree_manager$310                 tree_manager
     00001FC0  A$tree_manager$311                 tree_manager
     00001FC1  A$tree_manager$312                 tree_manager
     00001FC2  A$tree_manager$313                 tree_manager
     00001FC5  A$tree_manager$314                 tree_manager
     00001FC6  A$tree_manager$318                 tree_manager
     00001FC8  A$tree_manager$323                 tree_manager
     00001FC8  C$tree_manager.c$57$1_0$31         tree_manager
     00001FC8  XFtree_manager$draw$0$0            tree_manager
     00001FC9  A$none_screen$60                   none_screen
     00001FC9  C$none_screen.c$4$0_0$3            none_screen
     00001FC9  C$none_screen.c$6$0_0$3            none_screen
     00001FC9  G$screen_none_screen_load$0$0      none_screen
     00001FC9  XG$screen_none_screen_load$0$0     none_screen
     00001FC9  _screen_none_screen_load           none_screen
     00001FCA  A$none_screen$73                   none_screen
     00001FCA  C$none_screen.c$10$1_0$5           none_screen
     00001FCA  C$none_screen.c$8$0_0$5            none_screen
     00001FCA  G$screen_none_screen_update$0$0    none_screen
     00001FCA  _screen_none_screen_update         none_screen
     00001FCB  A$none_screen$74                   none_screen
     00001FCC  A$none_screen$75                   none_screen
     00001FCD  A$none_screen$76                   none_screen
     00001FCE  A$none_screen$77                   none_screen
     00001FCF  A$none_screen$78                   none_screen
     00001FD0  A$none_screen$86                   none_screen
     00001FD0  C$none_screen.c$11$1_0$5           none_screen
ASxxxx Linker V03.00 + NoICE + sdld,  page 84.
Hexadecimal  [32-Bits]

Area                                    Addr        Size        Decimal Bytes (Attributes)
--------------------------------        ----        ----        ------- ----- ------------
_CODE                               00000200    00003D43 =       15683. bytes (REL,CON)

      Value  Global                              Global Defined In Module
      -----  --------------------------------   ------------------------
     00001FD0  XG$screen_none_screen_update$0$0   none_screen
     00001FD1  A$start_screen$64                  start_screen
     00001FD1  C$start_screen.c$12$0_0$19         start_screen
     00001FD1  C$start_screen.c$14$1_0$19         start_screen
     00001FD1  G$screen_start_screen_load$0$0     start_screen
     00001FD1  _screen_start_screen_load          start_screen
     00001FD4  A$start_screen$68                  start_screen
     00001FD4  C$start_screen.c$15$1_0$19         start_screen
     00001FD7  A$start_screen$72                  start_screen
     00001FD7  C$start_screen.c$16$1_0$19         start_screen
     00001FDA  A$start_screen$76                  start_screen
     00001FDA  C$start_screen.c$17$1_0$19         start_screen
     00001FDD  A$start_screen$80                  start_screen
     00001FDD  C$start_screen.c$18$1_0$19         start_screen
     00001FDF  A$start_screen$81                  start_screen
     00001FE2  A$start_screen$89                  start_screen
     00001FE2  C$start_screen.c$19$1_0$19         start_screen
     00001FE2  XG$screen_start_screen_load$0$0    start_screen
     00001FE3  A$start_screen$99                  start_screen
     00001FE3  C$start_screen.c$21$1_0$21         start_screen
     00001FE3  G$screen_start_screen_update$0$0   start_screen
     00001FE3  _screen_start_screen_update        start_screen
     00001FE4  A$start_screen$103                 start_screen
     00001FE4  C$start_screen.c$23$1_0$21         start_screen
     00001FE7  A$start_screen$104                 start_screen
     00001FE8  A$start_screen$105                 start_screen
     00001FEC  A$start_screen$106                 start_screen
     00001FEE  A$start_screen$107                 start_screen
     00001FF1  A$start_screen$111                 start_screen
     00001FF1  C$start_screen.c$25$1_0$21         start_screen
     00001FF5  A$start_screen$112                 start_screen
     00001FF8  A$start_screen$116                 start_screen
     00001FF8  C$start_screen.c$28$1_0$21         start_screen
     00001FFC  A$start_screen$117                 start_screen
     00001FFE  A$start_screen$118                 start_screen
     00002001  A$start_screen$119                 start_screen
     00002004  A$start_screen$123                 start_screen
     00002004  C$start_screen.c$26$1_0$21         start_screen
     00002007  A$start_screen$124                 start_screen
     00002008  A$start_screen$125                 start_screen
     0000200A  A$start_screen$126                 start_screen
     0000200C  A$start_screen$127                 start_screen
     00002010  A$start_screen$128                 start_screen
     00002013  A$start_screen$129                 start_screen
     00002015  A$start_screen$134                 start_screen
     00002015  C$start_screen.c$28$2_0$22         start_screen
     00002017  A$start_screen$135                 start_screen
     00002018  A$start_screen$139                 start_screen
     00002018  C$start_screen.c$29$2_0$22         start_screen
     0000201A  A$start_screen$144                 start_screen
     0000201A  C$start_screen.c$32$1_0$21         start_screen
ASxxxx Linker V03.00 + NoICE + sdld,  page 85.
Hexadecimal  [32-Bits]

Area                                    Addr        Size        Decimal Bytes (Attributes)
--------------------------------        ----        ----        ------- ----- ------------
_CODE                               00000200    00003D43 =       15683. bytes (REL,CON)

      Value  Global                              Global Defined In Module
      -----  --------------------------------   ------------------------
     0000201C  A$start_screen$145                 start_screen
     0000201D  A$start_screen$150                 start_screen
     0000201E  A$start_screen$155                 start_screen
     0000201E  C$start_screen.c$33$1_0$21         start_screen
     0000201E  XG$screen_start_screen_update$0$   start_screen
     0000201F  A$title_screen$64                  title_screen
     0000201F  C$title_screen.c$11$0_0$19         title_screen
     0000201F  C$title_screen.c$13$1_0$19         title_screen
     0000201F  G$screen_title_screen_load$0$0     title_screen
     0000201F  _screen_title_screen_load          title_screen
     00002022  A$title_screen$68                  title_screen
     00002022  C$title_screen.c$14$1_0$19         title_screen
     00002025  A$title_screen$72                  title_screen
     00002025  C$title_screen.c$15$1_0$19         title_screen
     00002028  A$title_screen$76                  title_screen
     00002028  C$title_screen.c$16$1_0$19         title_screen
     0000202B  A$title_screen$80                  title_screen
     0000202B  C$title_screen.c$18$1_0$19         title_screen
     0000202E  A$title_screen$84                  title_screen
     0000202E  C$title_screen.c$19$1_0$19         title_screen
     00002031  A$title_screen$88                  title_screen
     00002031  C$title_screen.c$20$1_0$19         title_screen
     00002034  A$title_screen$99                  title_screen
     00002034  C$title_screen.c$22$1_0$19         title_screen
     00002034  C$title_screen.c$23$1_0$19         title_screen
     00002034  XG$screen_title_screen_load$0$0    title_screen
     00002037  A$title_screen$112                 title_screen
     00002037  C$title_screen.c$25$1_0$21         title_screen
     00002037  C$title_screen.c$27$1_0$21         title_screen
     00002037  G$screen_title_screen_update$0$0   title_screen
     00002037  _screen_title_screen_update        title_screen
     00002038  A$title_screen$113                 title_screen
     00002039  A$title_screen$114                 title_screen
     0000203A  A$title_screen$115                 title_screen
     0000203B  A$title_screen$116                 title_screen
     0000203D  A$title_screen$124                 title_screen
     0000203D  C$title_screen.c$28$1_0$21         title_screen
     0000203D  XG$screen_title_screen_update$0$   title_screen
     0000203E  A$ready_screen$67                  ready_screen
     0000203E  C$ready_screen.c$13$0_0$62         ready_screen
     0000203E  C$ready_screen.c$15$1_0$62         ready_screen
     0000203E  G$screen_ready_screen_load$0$0     ready_screen
     0000203E  _screen_ready_screen_load          ready_screen
     00002041  A$ready_screen$71                  ready_screen
     00002041  C$ready_screen.c$16$1_0$62         ready_screen
     00002044  A$ready_screen$82                  ready_screen
     00002044  C$ready_screen.c$17$1_0$62         ready_screen
     00002044  C$ready_screen.c$18$1_0$62         ready_screen
     00002044  XG$screen_ready_screen_load$0$0    ready_screen
     00002047  A$ready_screen$95                  ready_screen
     00002047  C$ready_screen.c$20$1_0$64         ready_screen
ASxxxx Linker V03.00 + NoICE + sdld,  page 86.
Hexadecimal  [32-Bits]

Area                                    Addr        Size        Decimal Bytes (Attributes)
--------------------------------        ----        ----        ------- ----- ------------
_CODE                               00000200    00003D43 =       15683. bytes (REL,CON)

      Value  Global                              Global Defined In Module
      -----  --------------------------------   ------------------------
     00002047  C$ready_screen.c$24$1_0$64         ready_screen
     00002047  G$screen_ready_screen_update$0$0   ready_screen
     00002047  _screen_ready_screen_update        ready_screen
     0000204A  A$ready_screen$99                  ready_screen
     0000204A  C$ready_screen.c$25$1_0$64         ready_screen
     0000204D  A$ready_screen$103                 ready_screen
     0000204D  C$ready_screen.c$27$1_0$64         ready_screen
     00002050  A$ready_screen$107                 ready_screen
     00002050  C$ready_screen.c$28$1_0$64         ready_screen
     00002053  A$ready_screen$111                 ready_screen
     00002053  C$ready_screen.c$29$1_0$64         ready_screen
     00002056  A$ready_screen$115                 ready_screen
     00002056  C$ready_screen.c$31$1_0$64         ready_screen
     00002059  A$ready_screen$116                 ready_screen
     0000205A  A$ready_screen$120                 ready_screen
     0000205A  C$ready_screen.c$32$1_0$64         ready_screen
     0000205B  A$ready_screen$121                 ready_screen
     0000205D  A$ready_screen$125                 ready_screen
     0000205D  C$ready_screen.c$34$2_0$65         ready_screen
     00002060  A$ready_screen$130                 ready_screen
     00002060  C$ready_screen.c$36$1_0$64         ready_screen
     00002063  A$ready_screen$131                 ready_screen
     00002064  A$ready_screen$135                 ready_screen
     00002064  C$ready_screen.c$39$1_0$64         ready_screen
     00002065  A$ready_screen$136                 ready_screen
     00002066  A$ready_screen$137                 ready_screen
     00002067  A$ready_screen$138                 ready_screen
     00002068  A$ready_screen$142                 ready_screen
     00002068  C$ready_screen.c$37$1_0$64         ready_screen
     00002069  A$ready_screen$143                 ready_screen
     0000206A  A$ready_screen$144                 ready_screen
     0000206C  A$ready_screen$148                 ready_screen
     0000206C  C$ready_screen.c$39$2_0$66         ready_screen
     0000206E  A$ready_screen$152                 ready_screen
     0000206E  C$ready_screen.c$40$2_0$66         ready_screen
     0000206F  A$ready_screen$157                 ready_screen
     0000206F  C$ready_screen.c$43$1_0$64         ready_screen
     00002071  A$ready_screen$165                 ready_screen
     00002071  C$ready_screen.c$44$1_0$64         ready_screen
     00002071  XG$screen_ready_screen_update$0$   ready_screen
     00002072  A$play_screen$75                   play_screen
     00002072  C$play_screen.c$12$0_0$36          play_screen
     00002072  C$play_screen.c$14$1_0$36          play_screen
     00002072  C$play_screen.c$15$1_0$36          play_screen
     00002072  C$play_screen.c$18$1_0$36          play_screen
     00002072  G$screen_play_screen_load$0$0      play_screen
     00002072  _screen_play_screen_load           play_screen
     00002075  A$play_screen$79                   play_screen
     00002075  C$play_screen.c$19$1_0$36          play_screen
     00002078  A$play_screen$83                   play_screen
     00002078  C$play_screen.c$21$1_0$36          play_screen
ASxxxx Linker V03.00 + NoICE + sdld,  page 87.
Hexadecimal  [32-Bits]

Area                                    Addr        Size        Decimal Bytes (Attributes)
--------------------------------        ----        ----        ------- ----- ------------
_CODE                               00000200    00003D43 =       15683. bytes (REL,CON)

      Value  Global                              Global Defined In Module
      -----  --------------------------------   ------------------------
     0000207B  A$play_screen$84                   play_screen
     0000207C  A$play_screen$85                   play_screen
     0000207E  A$play_screen$86                   play_screen
     0000207F  A$play_screen$87                   play_screen
     00002080  A$play_screen$88                   play_screen
     00002081  A$play_screen$89                   play_screen
     00002082  A$play_screen$90                   play_screen
     00002083  A$play_screen$91                   play_screen
     00002084  A$play_screen$92                   play_screen
     00002085  A$play_screen$93                   play_screen
     00002086  A$play_screen$94                   play_screen
     00002087  A$play_screen$95                   play_screen
     00002088  A$play_screen$96                   play_screen
     0000208B  A$play_screen$97                   play_screen
     0000208C  A$play_screen$98                   play_screen
     0000208D  A$play_screen$99                   play_screen
     00002090  A$play_screen$100                  play_screen
     00002091  A$play_screen$101                  play_screen
     00002093  A$play_screen$102                  play_screen
     00002094  A$play_screen$103                  play_screen
     00002095  A$play_screen$107                  play_screen
     00002095  C$play_screen.c$22$1_0$36          play_screen
     00002096  A$play_screen$108                  play_screen
     00002097  A$play_screen$109                  play_screen
     0000209A  A$play_screen$110                  play_screen
     0000209B  A$play_screen$121                  play_screen
     0000209B  C$play_screen.c$23$1_0$36          play_screen
     0000209B  C$play_screen.c$24$1_0$36          play_screen
     0000209B  XG$screen_play_screen_load$0$0     play_screen
     0000209E  A$play_screen$131                  play_screen
     0000209E  C$play_screen.c$26$1_0$38          play_screen
     0000209E  G$screen_play_screen_update$0$0    play_screen
     0000209E  _screen_play_screen_update         play_screen
     000020A0  A$play_screen$132                  play_screen
     000020A4  A$play_screen$133                  play_screen
     000020A6  A$play_screen$134                  play_screen
     000020A7  A$play_screen$144                  play_screen
     000020A7  C$play_screen.c$28$1_0$38          play_screen
     000020A7  C$play_screen.c$29$1_0$38          play_screen
     000020A7  C$play_screen.c$34$1_0$38          play_screen
     000020AA  A$play_screen$148                  play_screen
     000020AA  C$play_screen.c$35$1_0$38          play_screen
     000020AD  A$play_screen$152                  play_screen
     000020B0  A$play_screen$153                  play_screen
     000020B1  A$play_screen$157                  play_screen
     000020B1  C$play_screen.c$42$1_0$38          play_screen
     000020B4  A$play_screen$158                  play_screen
     000020B7  A$play_screen$159                  play_screen
     000020BA  A$play_screen$160                  play_screen
     000020BD  A$play_screen$164                  play_screen
     000020BD  C$play_screen.c$37$1_0$38          play_screen
ASxxxx Linker V03.00 + NoICE + sdld,  page 88.
Hexadecimal  [32-Bits]

Area                                    Addr        Size        Decimal Bytes (Attributes)
--------------------------------        ----        ----        ------- ----- ------------
_CODE                               00000200    00003D43 =       15683. bytes (REL,CON)

      Value  Global                              Global Defined In Module
      -----  --------------------------------   ------------------------
     000020BE  A$play_screen$165                  play_screen
     000020BF  A$play_screen$166                  play_screen
     000020C1  A$play_screen$170                  play_screen
     000020C1  C$play_screen.c$39$2_0$39          play_screen
     000020C4  A$play_screen$174                  play_screen
     000020C4  C$play_screen.c$40$2_0$39          play_screen
     000020C7  A$play_screen$175                  play_screen
     000020C8  A$play_screen$176                  play_screen
     000020C9  A$play_screen$177                  play_screen
     000020CB  A$play_screen$178                  play_screen
     000020CD  A$play_screen$182                  play_screen
     000020CD  C$play_screen.c$42$3_0$40          play_screen
     000020CE  A$play_screen$183                  play_screen
     000020CF  A$play_screen$184                  play_screen
     000020D1  A$play_screen$188                  play_screen
     000020D1  C$play_screen.c$43$3_0$40          play_screen
     000020D3  A$play_screen$193                  play_screen
     000020D3  C$play_screen.c$46$2_0$39          play_screen
     000020D6  A$play_screen$194                  play_screen
     000020D7  A$play_screen$195                  play_screen
     000020D9  A$play_screen$196                  play_screen
     000020DA  A$play_screen$197                  play_screen
     000020DB  A$play_screen$198                  play_screen
     000020DC  A$play_screen$199                  play_screen
     000020DD  A$play_screen$200                  play_screen
     000020DE  A$play_screen$201                  play_screen
     000020DF  A$play_screen$202                  play_screen
     000020E0  A$play_screen$203                  play_screen
     000020E1  A$play_screen$204                  play_screen
     000020E2  A$play_screen$205                  play_screen
     000020E5  A$play_screen$206                  play_screen
     000020E6  A$play_screen$207                  play_screen
     000020E8  A$play_screen$208                  play_screen
     000020E9  A$play_screen$209                  play_screen
     000020EA  A$play_screen$213                  play_screen
     000020EA  C$play_screen.c$47$2_0$39          play_screen
     000020EB  A$play_screen$214                  play_screen
     000020EC  A$play_screen$215                  play_screen
     000020EF  A$play_screen$216                  play_screen
     000020F0  A$play_screen$220                  play_screen
     000020F0  C$play_screen.c$48$2_0$39          play_screen
     000020F3  A$play_screen$225                  play_screen
     000020F3  C$play_screen.c$51$1_0$38          play_screen
     000020F6  A$play_screen$229                  play_screen
     000020F6  C$play_screen.c$53$1_0$38          play_screen
     000020F9  A$play_screen$233                  play_screen
     000020F9  C$play_screen.c$54$1_0$38          play_screen
     000020FC  A$play_screen$237                  play_screen
     000020FC  C$play_screen.c$55$1_0$38          play_screen
     000020FF  A$play_screen$241                  play_screen
     000020FF  C$play_screen.c$57$1_0$38          play_screen
ASxxxx Linker V03.00 + NoICE + sdld,  page 89.
Hexadecimal  [32-Bits]

Area                                    Addr        Size        Decimal Bytes (Attributes)
--------------------------------        ----        ----        ------- ----- ------------
_CODE                               00000200    00003D43 =       15683. bytes (REL,CON)

      Value  Global                              Global Defined In Module
      -----  --------------------------------   ------------------------
     00002102  A$play_screen$242                  play_screen
     00002103  A$play_screen$246                  play_screen
     00002103  C$play_screen.c$58$1_0$38          play_screen
     00002104  A$play_screen$247                  play_screen
     00002106  A$play_screen$251                  play_screen
     00002106  C$play_screen.c$60$2_0$41          play_screen
     00002109  A$play_screen$256                  play_screen
     00002109  C$play_screen.c$63$1_0$38          play_screen
     0000210A  A$play_screen$257                  play_screen
     0000210B  A$play_screen$258                  play_screen
     0000210D  A$play_screen$263                  play_screen
     0000210F  A$play_screen$264                  play_screen
     00002111  A$play_screen$269                  play_screen
     00002111  C$play_screen.c$64$1_0$38          play_screen
     00002111  XG$screen_play_screen_update$0$0   play_screen
     00002112  G$font_tiles__palette__bin$0_0$0   gfx
     00002112  _font_tiles__palette__bin          gfx
     00002122  G$font_tiles__tilemap__bin$0_0$0   gfx
     00002122  _font_tiles__tilemap__bin          gfx
     000021A2  G$font_tiles__tiles__psgcompr$0_   gfx
     000021A2  _font_tiles__tiles__psgcompr       gfx
     00002439  G$splash__palette__bin$0_0$0       gfx
     00002439  _splash__palette__bin              gfx
     00002449  G$splash__tilemap__stmcompr$0_0$   gfx
     00002449  _splash__tilemap__stmcompr         gfx
     00002490  G$splash__tiles__psgcompr$0_0$0    gfx
     00002490  _splash__tiles__psgcompr           gfx
     00002CB9  G$sprites__palette__bin$0_0$0      gfx
     00002CB9  _sprites__palette__bin             gfx
     00002CC9  G$sprites__tiles__psgcompr$0_0$0   gfx
     00002CC9  _sprites__tiles__psgcompr          gfx
     0000307F  G$tree_avoid__palette__bin$0_0$0   gfx
     0000307F  _tree_avoid__palette__bin          gfx
     0000308F  G$tree_avoid__tilemap__bin$0_0$0   gfx
     0000308F  _tree_avoid__tilemap__bin          gfx
     00003097  G$tree_avoid__tiles__psgcompr$0_   gfx
     00003097  _tree_avoid__tiles__psgcompr       gfx
     000030E9  G$music_psg$0_0$0                  psg
     000030E9  _music_psg                         psg
     0000370E  G$sound1_psg$0_0$0                 psg
     0000370E  _sound1_psg                        psg
     00003739  G$sound2_psg$0_0$0                 psg
     00003739  _sound2_psg                        psg
     00003759  G$sound3_psg$0_0$0                 psg
     00003759  _sound3_psg                        psg
     0000377C  __divuint                          
     00003784  __divuchar                         
     0000378B  __divu8                            
     0000378E  __divu16                           
     000037BD  _UNSAFE_SMS_copySpritestoSAT       SMSlib_UNSAFE
     000037D5  _UNSAFE_SMS_VRAMmemcpy32           SMSlib_UNSAFE
ASxxxx Linker V03.00 + NoICE + sdld,  page 90.
Hexadecimal  [32-Bits]

Area                                    Addr        Size        Decimal Bytes (Attributes)
--------------------------------        ----        ----        ------- ----- ------------
_CODE                               00000200    00003D43 =       15683. bytes (REL,CON)

      Value  Global                              Global Defined In Module
      -----  --------------------------------   ------------------------
     000037F2  _UNSAFE_SMS_VRAMmemcpy64           SMSlib_UNSAFE
     0000380F  _UNSAFE_SMS_VRAMmemcpy128          SMSlib_UNSAFE
     0000382C  _SMS_init                          SMSlib
     00003880  _VDPReg_init                       SMSlib
     0000388B  _SMS_VDPType                       SMSlib
     00003893  _SMS_VDPturnOnFeature              SMSlib
     000038AA  _SMS_VDPturnOffFeature             SMSlib
     000038C3  _SMS_setBGScrollX                  SMSlib
     000038CD  _SMS_setBGScrollY                  SMSlib
     000038D7  _SMS_setBackdropColor              SMSlib
     000038E1  _SMS_useFirstHalfTilesforSprites   SMSlib
     000038F5  _SMS_setSpriteMode                 SMSlib
     0000393A  _SMS_setBGPaletteColor             SMSlib
     0000394E  _SMS_setSpritePaletteColor         SMSlib
     00003962  _SMS_loadBGPalette                 SMSlib
     00003976  _SMS_loadSpritePalette             SMSlib
     0000398A  _SMS_setColor                      SMSlib
     0000398E  _SMS_initSprites                   SMSlib
     00003994  _SMS_addSprite                     SMSlib
     000039E9  _SMS_finalizeSprites               SMSlib
     000039FB  _SMS_copySpritestoSAT              SMSlib
     00003A24  _SMS_waitForVBlank                 SMSlib
     00003A31  _SMS_getKeysStatus                 SMSlib
     00003A35  _SMS_getKeysPressed                SMSlib
     00003A52  _SMS_getKeysHeld                   SMSlib
     00003A69  _SMS_getKeysReleased               SMSlib
     00003A86  _SMS_queryPauseRequested           SMSlib
     00003A8E  _SMS_resetPauseRequest             SMSlib
     00003A94  _SMS_setLineInterruptHandler       SMSlib
     00003AA5  _SMS_setLineCounter                SMSlib
     00003AB4  _SMS_getVCount                     SMSlib
     00003AB8  _SMS_getHCount                     SMSlib
     00003ABC  _SMS_isr                           SMSlib
     00003AF2  _SMS_nmi_isr                       SMSlib
     00003B05  _rand                              rand
     00003BB2  _srand                             rand
     00003BCE  _SMS_loadSTMcompressedTileMapAre   SMSlib_STMcomp
     00003DAF  ___sdcc_call_hl                    
     00003DB0  _SMS_loadPSGaidencompressedTiles   SMSlib_PSGaiden
     00003E92  __modschar                         
     00003E9F  __modsint                          
     00003EAB  _SMS_loadTileMap                   SMSlib_loadTileMap
     00003EE4  __moduchar                         
     00003EF0  __moduint                          
     00003EFB  __divsint                          
     00003F04  __divschar                         
     00003F0B  __div8                             
     00003F0F  __div_signexte                     
     00003F13  __div16                            
     00003F39  __get_remainder                    

ASxxxx Linker V03.00 + NoICE + sdld,  page 91.
Hexadecimal  [32-Bits]

Area                                    Addr        Size        Decimal Bytes (Attributes)
--------------------------------        ----        ----        ------- ----- ------------
_HEADER0                            00000000    00000006 =           6. bytes (ABS,CON)

      Value  Global                              Global Defined In Module
      -----  --------------------------------   ------------------------
     00000006  _SMS_crt0_RST08                    crt0

ASxxxx Linker V03.00 + NoICE + sdld,  page 92.
Hexadecimal  [32-Bits]

Area                                    Addr        Size        Decimal Bytes (Attributes)
--------------------------------        ----        ----        ------- ----- ------------
_HEADER1                            00000000    00000009 =           9. bytes (ABS,CON)

      Value  Global                              Global Defined In Module
      -----  --------------------------------   ------------------------
     00000011  _SMS_crt0_RST18                    crt0

ASxxxx Linker V03.00 + NoICE + sdld,  page 93.
Hexadecimal  [32-Bits]

Area                                    Addr        Size        Decimal Bytes (Attributes)
--------------------------------        ----        ----        ------- ----- ------------
_HEADER2                            00000000    0000000A =          10. bytes (ABS,CON)

      Value  Global                              Global Defined In Module
      -----  --------------------------------   ------------------------
ASxxxx Linker V03.00 + NoICE + sdld,  page 94.
Hexadecimal  [32-Bits]

Area                                    Addr        Size        Decimal Bytes (Attributes)
--------------------------------        ----        ----        ------- ----- ------------
_HEADER3                            00000000    00000003 =           3. bytes (ABS,CON)

      Value  Global                              Global Defined In Module
      -----  --------------------------------   ------------------------
ASxxxx Linker V03.00 + NoICE + sdld,  page 95.
Hexadecimal  [32-Bits]

Area                                    Addr        Size        Decimal Bytes (Attributes)
--------------------------------        ----        ----        ------- ----- ------------
_HEADER4                            00000000    00000003 =           3. bytes (ABS,CON)

      Value  Global                              Global Defined In Module
      -----  --------------------------------   ------------------------
ASxxxx Linker V03.00 + NoICE + sdld,  page 96.
Hexadecimal  [32-Bits]

Area                                    Addr        Size        Decimal Bytes (Attributes)
--------------------------------        ----        ----        ------- ----- ------------
_HEADER5                            00000000    0000012A =         298. bytes (ABS,CON)

      Value  Global                              Global Defined In Module
      -----  --------------------------------   ------------------------
     00000099  _OUTI128                           crt0
     00000119  _OUTI64                            crt0
     00000159  _OUTI32                            crt0
     00000199  _outi_block                        crt0

ASxxxx Linker V03.00 + NoICE + sdld,  page 97.
Hexadecimal  [32-Bits]

Area                                    Addr        Size        Decimal Bytes (Attributes)
--------------------------------        ----        ----        ------- ----- ------------
_INITIALIZER                        00003F43    0000000C =          12. bytes (REL,CON)

      Value  Global                              Global Defined In Module
      -----  --------------------------------   ------------------------
     00003F43  Finput_manager$__xinit_curr_joyp   input_manager
     00003F45  Finput_manager$__xinit_prev_joyp   input_manager

ASxxxx Linker V03.00 + NoICE + sdld,  page 98.
Hexadecimal  [32-Bits]

Area                                    Addr        Size        Decimal Bytes (Attributes)
--------------------------------        ----        ----        ------- ----- ------------
_GSINIT                             00003F4F    0000000F =          15. bytes (REL,CON)

      Value  Global                              Global Defined In Module
      -----  --------------------------------   ------------------------
     00003F4F  gsinit                             crt0

ASxxxx Linker V03.00 + NoICE + sdld,  page 99.
Hexadecimal  [32-Bits]

Area                                    Addr        Size        Decimal Bytes (Attributes)
--------------------------------        ----        ----        ------- ----- ------------
_GSFINAL                            00003F5E    00000001 =           1. bytes (REL,CON)

      Value  Global                              Global Defined In Module
      -----  --------------------------------   ------------------------
ASxxxx Linker V03.00 + NoICE + sdld,  page 100.
Hexadecimal  [32-Bits]

Area                                    Addr        Size        Decimal Bytes (Attributes)
--------------------------------        ----        ----        ------- ----- ------------
_DATA                               0000C000    0000031C =         796. bytes (REL,CON)

      Value  Global                              Global Defined In Module
      -----  --------------------------------   ------------------------
     0000C000  Lmain.main$global_pause$1_0$66     main
     0000C001  _PSGMusicStatus                    PSGlib
     0000C002  _PSGMusicStart                     PSGlib
     0000C004  _PSGMusicPointer                   PSGlib
     0000C006  _PSGMusicLoopPoint                 PSGlib
     0000C008  _PSGMusicSkipFrames                PSGlib
     0000C009  _PSGLoopFlag                       PSGlib
     0000C00A  _PSGMusicLastLatch                 PSGlib
     0000C00B  _PSGMusicVolumeAttenuation         PSGlib
     0000C00C  _PSGMusicSubstringLen              PSGlib
     0000C00D  _PSGMusicSubstringRetAddr          PSGlib
     0000C00F  _PSGChan0Volume                    PSGlib
     0000C010  _PSGChan1Volume                    PSGlib
     0000C011  _PSGChan2Volume                    PSGlib
     0000C012  _PSGChan3Volume                    PSGlib
     0000C013  _PSGChan2LowTone                   PSGlib
     0000C014  _PSGChan2HighTone                  PSGlib
     0000C015  _PSGChan3LowTone                   PSGlib
     0000C016  _PSGChannel2SFX                    PSGlib
     0000C017  _PSGChannel3SFX                    PSGlib
     0000C018  _PSGSFXChan2Volume                 PSGlib
     0000C019  _PSGSFXChan3Volume                 PSGlib
     0000C01A  _PSGSFXStatus                      PSGlib
     0000C01B  _PSGSFXStart                       PSGlib
     0000C01D  _PSGSFXPointer                     PSGlib
     0000C01F  _PSGSFXLoopPoint                   PSGlib
     0000C021  _PSGSFXSkipFrames                  PSGlib
     0000C022  _PSGSFXLoopFlag                    PSGlib
     0000C023  _PSGSFXSubstringLen                PSGlib
     0000C024  _PSGSFXSubstringRetAddr            PSGlib
     0000C026  G$global_enemy_objects$0_0$0       enemy_manager
     0000C026  _global_enemy_objects              enemy_manager
     0000C047  G$global_gamer_object$0_0$0        gamer_manager
     0000C047  _global_gamer_object               gamer_manager
     0000C054  G$global_hack_object$0_0$0         hack_manager
     0000C054  _global_hack_object                hack_manager
     0000C05A  G$global_path_object$0_0$0         path_manager
     0000C05A  _global_path_object                path_manager
     0000C21A  Fscreen_manager$load_method$0_0$   screen_manager
     0000C224  Fscreen_manager$update_method$0_   screen_manager
     0000C22E  Fscreen_manager$curr_screen_type   screen_manager
     0000C22F  Fscreen_manager$next_screen_type   screen_manager
     0000C230  Fstart_screen$timer$0_0$0          start_screen
     0000C231  _VDPBlank                          SMSlib
     0000C232  _SMS_VDPFlags                      SMSlib
     0000C233  _PauseRequested                    SMSlib
     0000C234  _VDPType                           SMSlib
     0000C235  _KeysStatus                        SMSlib
     0000C237  _PreviousKeysStatus                SMSlib
     0000C239  _SpriteTableY                      SMSlib
ASxxxx Linker V03.00 + NoICE + sdld,  page 101.
Hexadecimal  [32-Bits]

Area                                    Addr        Size        Decimal Bytes (Attributes)
--------------------------------        ----        ----        ------- ----- ------------
_DATA                               0000C000    0000031C =         796. bytes (REL,CON)

      Value  Global                              Global Defined In Module
      -----  --------------------------------   ------------------------
     0000C279  _SpriteTableXN                     SMSlib
     0000C2F9  _SpriteNextFree                    SMSlib
     0000C2FA  _SMS_theLineInterruptHandler       SMSlib
     0000C2FC  _decompBuffer                      SMSlib_PSGaiden
ASxxxx Linker V03.00 + NoICE + sdld,  page 102.
Hexadecimal  [32-Bits]

Area                                    Addr        Size        Decimal Bytes (Attributes)
--------------------------------        ----        ----        ------- ----- ------------
_INITIALIZED                        0000C31C    0000000C =          12. bytes (REL,CON)

      Value  Global                              Global Defined In Module
      -----  --------------------------------   ------------------------
     0000C31C  Finput_manager$curr_joypad1$0_0$   input_manager
     0000C31E  Finput_manager$prev_joypad1$0_0$   input_manager
     0000C320  _VDPReg                            SMSlib
     0000C322  _spritesHeight                     SMSlib
     0000C323  _spritesWidth                      SMSlib

ASxxxx Linker V03.00 + NoICE + sdld,  page 103.
Hexadecimal  [32-Bits]

Area                                    Addr        Size        Decimal Bytes (Attributes)
--------------------------------        ----        ----        ------- ----- ------------
_CABS0                              00000000    00000010 =          16. bytes (ABS,CON)

      Value  Global                              Global Defined In Module
      -----  --------------------------------   ------------------------
     00007FF0  G$__SMS__SEGA_signature$0_0$0      _sms_manager
     00007FF0  ___SMS__SEGA_signature             _sms_manager

ASxxxx Linker V03.00 + NoICE + sdld,  page 104.
Hexadecimal  [32-Bits]

Area                                    Addr        Size        Decimal Bytes (Attributes)
--------------------------------        ----        ----        ------- ----- ------------
_CABS1                              00000000    0000000E =          14. bytes (ABS,CON)

      Value  Global                              Global Defined In Module
      -----  --------------------------------   ------------------------
     00007FD2  G$__SMS__SDSC_author$0_0$0         _sms_manager
     00007FD2  ___SMS__SDSC_author                _sms_manager

ASxxxx Linker V03.00 + NoICE + sdld,  page 105.
Hexadecimal  [32-Bits]

Area                                    Addr        Size        Decimal Bytes (Attributes)
--------------------------------        ----        ----        ------- ----- ------------
_CABS2                              00000000    00000010 =          16. bytes (ABS,CON)

      Value  Global                              Global Defined In Module
      -----  --------------------------------   ------------------------
     00007FC2  G$__SMS__SDSC_name$0_0$0           _sms_manager
     00007FC2  ___SMS__SDSC_name                  _sms_manager

ASxxxx Linker V03.00 + NoICE + sdld,  page 106.
Hexadecimal  [32-Bits]

Area                                    Addr        Size        Decimal Bytes (Attributes)
--------------------------------        ----        ----        ------- ----- ------------
_CABS3                              00000000    00000038 =          56. bytes (ABS,CON)

      Value  Global                              Global Defined In Module
      -----  --------------------------------   ------------------------
     00007F8A  G$__SMS__SDSC_descr$0_0$0          _sms_manager
     00007F8A  ___SMS__SDSC_descr                 _sms_manager

ASxxxx Linker V03.00 + NoICE + sdld,  page 107.
Hexadecimal  [32-Bits]

Area                                    Addr        Size        Decimal Bytes (Attributes)
--------------------------------        ----        ----        ------- ----- ------------
_CABS4                              00000000    00000010 =          16. bytes (ABS,CON)

      Value  Global                              Global Defined In Module
      -----  --------------------------------   ------------------------
     00007FE0  G$__SMS__SDSC_signature$0_0$0      _sms_manager
     00007FE0  ___SMS__SDSC_signature             _sms_manager

ASxxxx Linker V03.00 + NoICE + sdld,  page 108.

Files Linked                              [ module(s) ]

../crt0/crt0_sms.rel                      [ crt0 ]
main.rel                                  [ main ]
../lib/PSGlib.rel                         [ PSGlib ]
devkit/_sms_manager.rel                   [ _sms_manager ]
devkit/_snd_manager.rel                   [ _snd_manager ]
engine/asm_manager.rel                    [ asm_manager ]
engine/content_manager.rel                [ content_manager ]
engine/enemy_manager.rel                  [ enemy_manager ]
engine/font_manager.rel                   [ font_manager ]
engine/gamer_manager.rel                  [ gamer_manager ]
engine/hack_manager.rel                   [ hack_manager ]
engine/input_manager.rel                  [ input_manager ]
engine/path_manager.rel                   [ path_manager ]
engine/screen_manager.rel                 [ screen_manager ]
engine/sound_manager.rel                  [ sound_manager ]
engine/sprite_manager.rel                 [ sprite_manager ]
engine/text_manager.rel                   [ text_manager ]
engine/tree_manager.rel                   [ tree_manager ]
object/enemy_object.rel                   [ enemy_object ]
object/gamer_object.rel                   [ gamer_object ]
object/path_object.rel                    [ path_object ]
screen/none_screen.rel                    [ none_screen ]
screen/start_screen.rel                   [ start_screen ]
screen/title_screen.rel                   [ title_screen ]
screen/ready_screen.rel                   [ ready_screen ]
screen/play_screen.rel                    [ play_screen ]
gfx.rel                                   [ gfx ]
psg.rel                                   [ psg ]


Libraries Linked                          [ object file ]

/home/stevepro/sdcc/bin/../share/sdcc/lib/z80/z80.lib
                                          [ divunsigned.rel ]
../lib/SMSlib.lib                         [ SMSlib_UNSAFE.rel ]
../lib/SMSlib.lib                         [ SMSlib.rel ]
/home/stevepro/sdcc/bin/../share/sdcc/lib/z80/z80.lib
                                          [ rand.rel ]
../lib/SMSlib.lib                         [ SMSlib_STMcomp.rel ]
/home/stevepro/sdcc/bin/../share/sdcc/lib/z80/z80.lib
                                          [ __sdcc_call_hl.rel ]
../lib/SMSlib.lib                         [ SMSlib_PSGaiden.rel ]
/home/stevepro/sdcc/bin/../share/sdcc/lib/z80/z80.lib
                                          [ modsigned.rel ]
../lib/SMSlib.lib                         [ SMSlib_loadTileMap.rel ]
/home/stevepro/sdcc/bin/../share/sdcc/lib/z80/z80.lib
                                          [ modunsigned.rel ]
/home/stevepro/sdcc/bin/../share/sdcc/lib/z80/z80.lib
                                          [ divsigned.rel ]

ASxxxx Linker V03.00 + NoICE + sdld,  page 109.

User Base Address Definitions

_CODE = 0x0200
_DATA = 0xc000

