ASxxxx Linker V03.00 + NoICE + sdld,  page 1.
Hexadecimal  [32-Bits]

Area                                    Addr        Size        Decimal Bytes (Attributes)
--------------------------------        ----        ----        ------- ----- ------------
.  .ABS.                            00000000    00000000 =           0. bytes (ABS,CON)

      Value  Global                              Global Defined In Module
      -----  --------------------------------   ------------------------
     00000000  .__.ABS.                           
     00000000  l__BSEG                         
     00000000  l__BSS                          
     00000000  l__CABS                         
     00000000  l__DABS                         
     00000000  l__HEADER                       
     00000000  l__HEAP                         
     00000000  l__HOME                         
     00000000  s__CABS                         
     00000000  s__CABS0                        
     00000000  s__CABS1                        
     00000000  s__CABS2                        
     00000000  s__CABS3                        
     00000000  s__CABS4                        
     00000000  s__DABS                         
     00000000  s__HEADER                       
     00000000  s__HEADER0                      
     00000000  s__HEADER1                      
     00000000  s__HEADER2                      
     00000000  s__HEADER3                      
     00000000  s__HEADER4                      
     00000000  s__HEADER5                      
     00000001  l__GSFINAL                      
     00000003  l__HEADER3                      
     00000003  l__HEADER4                      
     00000006  l__HEADER0                      
     00000009  l__HEADER1                      
     0000000A  l__HEADER2                      
     0000000C  l__INITIALIZED                  
     0000000C  l__INITIALIZER                  
     0000000E  l__CABS1                        
     0000000F  l__GSINIT                       
     00000010  l__CABS0                        
     00000010  l__CABS2                        
     00000010  l__CABS4                        
     00000038  l__CABS3                        
     000000BE  G$VDPDataPort$0$0                  asm_manager
     000000BF  G$VDPControlPort$0$0               asm_manager
     0000012A  l__HEADER5                      
     00000200  s__CODE                         
     0000031C  l__DATA                         
     00003D26  l__CODE                         
     00003F26  s__HOME                         
     00003F26  s__INITIALIZER                  
     00003F32  s__GSINIT                       
     00003F41  s__GSFINAL                      
     00008000  G$SMS_SRAM$0$0                     _sms_manager
     00008000  _SMS_SRAM                          SMSlib_loadTileMap
     0000C000  s__DATA                         
     0000C31C  s__INITIALIZED                  
ASxxxx Linker V03.00 + NoICE + sdld,  page 2.
Hexadecimal  [32-Bits]

Area                                    Addr        Size        Decimal Bytes (Attributes)
--------------------------------        ----        ----        ------- ----- ------------
.  .ABS.                            00000000    00000000 =           0. bytes (ABS,CON)

      Value  Global                              Global Defined In Module
      -----  --------------------------------   ------------------------
     0000C328  s__BSEG                         
     0000C328  s__BSS                          
     0000C328  s__HEAP                         
     0000FFFC  G$SRAM_bank_to_be_mapped_on_slot   _sms_manager
     0000FFFC  _SRAM_bank_to_be_mapped_on_slot2   SMSlib_loadTileMap
     0000FFFF  G$ROM_bank_to_be_mapped_on_slot2   _sms_manager
     0000FFFF  _ROM_bank_to_be_mapped_on_slot2    SMSlib_loadTileMap
ASxxxx Linker V03.00 + NoICE + sdld,  page 3.
Hexadecimal  [32-Bits]

Area                                    Addr        Size        Decimal Bytes (Attributes)
--------------------------------        ----        ----        ------- ----- ------------
_CODE                               00000200    00003D26 =       15654. bytes (REL,CON)

      Value  Global                              Global Defined In Module
      -----  --------------------------------   ------------------------
     00000200  __clock                            crt0
     00000204  _exit                              crt0
     0000020A  A$main$83                          main
     0000020A  C$main.c$3$0$0                     main
     0000020A  C$main.c$9$1$60                    main
     0000020A  G$main$0$0                         main
     0000020A  _main                              main
     0000020D  A$main$87                          main
     0000020D  C$main.c$10$1$60                   main
     00000210  A$main$91                          main
     00000210  C$main.c$11$1$60                   main
     00000213  A$main$95                          main
     00000213  C$main.c$13$1$60                   main
     00000216  A$main$96                          main
     00000217  A$main$97                          main
     00000218  A$main$98                          main
     00000219  A$main$99                          main
     0000021C  A$main$100                         main
     0000021D  A$main$104                         main
     0000021D  C$main.c$14$1$60                   main
     00000220  A$main$108                         main
     00000220  C$main.c$15$1$60                   main
     00000223  A$main$109                         main
     00000224  A$main$110                         main
     00000227  A$main$111                         main
     00000228  A$main$115                         main
     00000228  C$main.c$17$1$60                   main
     0000022B  A$main$119                         main
     0000022B  C$main.c$18$1$60                   main
     0000022E  A$main$123                         main
     0000022E  C$main.c$21$1$60                   main
     00000230  A$main$124                         main
     00000231  A$main$125                         main
     00000232  A$main$126                         main
     00000235  A$main$127                         main
     00000236  A$main$131                         main
     00000236  C$main.c$23$1$60                   main
     00000239  A$main$136                         main
     00000239  C$main.c$26$3$62                   main
     0000023C  A$main$137                         main
     0000023D  A$main$138                         main
     0000023E  A$main$139                         main
     00000240  A$main$143                         main
     00000240  C$main.c$28$4$63                   main
     00000243  A$main$147                         main
     00000243  C$main.c$29$4$63                   main
     00000247  A$main$148                         main
     0000024A  A$main$149                         main
     0000024C  A$main$150                         main
     0000024F  A$main$154                         main
ASxxxx Linker V03.00 + NoICE + sdld,  page 4.
Hexadecimal  [32-Bits]

Area                                    Addr        Size        Decimal Bytes (Attributes)
--------------------------------        ----        ----        ------- ----- ------------
_CODE                               00000200    00003D26 =       15654. bytes (REL,CON)

      Value  Global                              Global Defined In Module
      -----  --------------------------------   ------------------------
     0000024F  C$main.c$30$4$63                   main
     00000253  A$main$155                         main
     00000255  A$main$159                         main
     00000255  C$main.c$32$5$64                   main
     00000258  A$main$160                         main
     00000259  A$main$161                         main
     0000025C  A$main$162                         main
     0000025D  A$main$163                         main
     00000260  A$main$164                         main
     00000261  A$main$165                         main
     00000262  A$main$169                         main
     00000262  C$main.c$33$5$64                   main
     00000265  A$main$170                         main
     00000267  A$main$175                         main
     00000267  C$main.c$37$5$65                   main
     0000026A  A$main$176                         main
     0000026B  A$main$177                         main
     0000026E  A$main$178                         main
     0000026F  A$main$179                         main
     00000272  A$main$180                         main
     00000273  A$main$181                         main
     00000274  A$main$185                         main
     00000274  C$main.c$38$5$65                   main
     00000277  A$main$190                         main
     00000277  C$main.c$42$3$62                   main
     0000027A  A$main$191                         main
     0000027C  A$main$192                         main
     0000027E  A$main$196                         main
     0000027E  C$main.c$47$3$62                   main
     00000281  A$main$200                         main
     00000281  C$main.c$48$3$62                   main
     00000284  A$main$204                         main
     00000284  C$main.c$49$3$62                   main
     00000287  A$main$208                         main
     00000287  C$main.c$51$3$62                   main
     0000028A  A$main$212                         main
     0000028A  C$main.c$52$3$62                   main
     0000028D  A$main$216                         main
     0000028D  C$main.c$53$3$62                   main
     00000290  A$main$220                         main
     00000290  C$main.c$55$3$62                   main
     00000293  A$main$224                         main
     00000293  C$main.c$56$3$62                   main
     00000296  A$main$229                         main
     00000296  C$main.c$58$2$61                   main
     00000296  XG$main$0$0                        main
     00000298  Fmain$__str_0$0$0                  main
     000002A1  Fmain$__str_1$0$0                  main
     000002AA  _PSGStop                           PSGlib
     000002D1  _PSGResume                         PSGlib
     0000031D  _PSGPlay                           PSGlib
ASxxxx Linker V03.00 + NoICE + sdld,  page 5.
Hexadecimal  [32-Bits]

Area                                    Addr        Size        Decimal Bytes (Attributes)
--------------------------------        ----        ----        ------- ----- ------------
_CODE                               00000200    00003D26 =       15654. bytes (REL,CON)

      Value  Global                              Global Defined In Module
      -----  --------------------------------   ------------------------
     0000034A  _PSGCancelLoop                     PSGlib
     00000350  _PSGPlayNoRepeat                   PSGlib
     0000035F  _PSGGetStatus                      PSGlib
     00000367  _PSGSilenceChannels                PSGlib
     00000378  _PSGRestoreVolumes                 PSGlib
     00000449  _PSGSetMusicVolumeAttenuation      PSGlib
     0000050E  _PSGSFXStop                        PSGlib
     000005C7  _PSGSFXPlay                        PSGlib
     00000614  _PSGSFXCancelLoop                  PSGlib
     0000061A  _PSGSFXGetStatus                   PSGlib
     00000622  _PSGSFXPlayLoop                    PSGlib
     0000063C  _PSGFrame                          PSGlib
     00000755  _PSGSFXFrame                       PSGlib
     000007DB  A$_sms_manager$136                 _sms_manager
     000007DB  C$_sms_manager.c$12$0$0            _sms_manager
     000007DB  C$_sms_manager.c$14$1$75           _sms_manager
     000007DB  C$_sms_manager.c$15$1$75           _sms_manager
     000007DB  G$devkit_SMS_init$0$0              _sms_manager
     000007DB  XG$devkit_SMS_init$0$0             _sms_manager
     000007DB  _devkit_SMS_init                   _sms_manager
     000007DE  A$_sms_manager$149                 _sms_manager
     000007DE  C$_sms_manager.c$16$1$75           _sms_manager
     000007DE  C$_sms_manager.c$18$1$76           _sms_manager
     000007DE  G$devkit_SMS_displayOn$0$0         _sms_manager
     000007DE  _devkit_SMS_displayOn              _sms_manager
     000007E1  A$_sms_manager$154                 _sms_manager
     000007E1  C$_sms_manager.c$19$1$76           _sms_manager
     000007E1  XG$devkit_SMS_displayOn$0$0        _sms_manager
     000007E4  A$_sms_manager$167                 _sms_manager
     000007E4  C$_sms_manager.c$20$1$76           _sms_manager
     000007E4  C$_sms_manager.c$22$1$77           _sms_manager
     000007E4  G$devkit_SMS_displayOff$0$0        _sms_manager
     000007E4  _devkit_SMS_displayOff             _sms_manager
     000007E7  A$_sms_manager$172                 _sms_manager
     000007E7  C$_sms_manager.c$23$1$77           _sms_manager
     000007E7  XG$devkit_SMS_displayOff$0$0       _sms_manager
     000007EA  A$_sms_manager$185                 _sms_manager
     000007EA  C$_sms_manager.c$24$1$77           _sms_manager
     000007EA  C$_sms_manager.c$26$1$79           _sms_manager
     000007EA  G$devkit_SMS_mapROMBank$0$0        _sms_manager
     000007EA  _devkit_SMS_mapROMBank             _sms_manager
     000007ED  A$_sms_manager$186                 _sms_manager
     000007EE  A$_sms_manager$187                 _sms_manager
     000007EF  A$_sms_manager$188                 _sms_manager
     000007F2  A$_sms_manager$193                 _sms_manager
     000007F2  C$_sms_manager.c$27$1$79           _sms_manager
     000007F2  XG$devkit_SMS_mapROMBank$0$0       _sms_manager
     000007F3  A$_sms_manager$206                 _sms_manager
     000007F3  C$_sms_manager.c$29$1$79           _sms_manager
     000007F3  C$_sms_manager.c$31$1$81           _sms_manager
     000007F3  G$devkit_SMS_setBGScrollX$0$0      _sms_manager
ASxxxx Linker V03.00 + NoICE + sdld,  page 6.
Hexadecimal  [32-Bits]

Area                                    Addr        Size        Decimal Bytes (Attributes)
--------------------------------        ----        ----        ------- ----- ------------
_CODE                               00000200    00003D26 =       15654. bytes (REL,CON)

      Value  Global                              Global Defined In Module
      -----  --------------------------------   ------------------------
     000007F3  _devkit_SMS_setBGScrollX           _sms_manager
     000007F7  A$_sms_manager$207                 _sms_manager
     000007F9  A$_sms_manager$208                 _sms_manager
     000007FC  A$_sms_manager$213                 _sms_manager
     000007FC  C$_sms_manager.c$32$1$81           _sms_manager
     000007FC  XG$devkit_SMS_setBGScrollX$0$0     _sms_manager
     000007FF  A$_sms_manager$226                 _sms_manager
     000007FF  C$_sms_manager.c$33$1$81           _sms_manager
     000007FF  C$_sms_manager.c$35$1$83           _sms_manager
     000007FF  G$devkit_SMS_setBGScrollY$0$0      _sms_manager
     000007FF  _devkit_SMS_setBGScrollY           _sms_manager
     00000803  A$_sms_manager$227                 _sms_manager
     00000805  A$_sms_manager$228                 _sms_manager
     00000808  A$_sms_manager$233                 _sms_manager
     00000808  C$_sms_manager.c$36$1$83           _sms_manager
     00000808  XG$devkit_SMS_setBGScrollY$0$0     _sms_manager
     0000080B  A$_sms_manager$246                 _sms_manager
     0000080B  C$_sms_manager.c$38$1$83           _sms_manager
     0000080B  C$_sms_manager.c$40$1$84           _sms_manager
     0000080B  G$devkit_SMS_enableSRAM$0$0        _sms_manager
     0000080B  _devkit_SMS_enableSRAM             _sms_manager
     0000080E  A$_sms_manager$247                 _sms_manager
     00000810  A$_sms_manager$252                 _sms_manager
     00000810  C$_sms_manager.c$41$1$84           _sms_manager
     00000810  XG$devkit_SMS_enableSRAM$0$0       _sms_manager
     00000811  A$_sms_manager$265                 _sms_manager
     00000811  C$_sms_manager.c$42$1$84           _sms_manager
     00000811  C$_sms_manager.c$44$1$86           _sms_manager
     00000811  G$devkit_SMS_enableSRAMBank$0$0    _sms_manager
     00000811  _devkit_SMS_enableSRAMBank         _sms_manager
     00000814  A$_sms_manager$266                 _sms_manager
     00000815  A$_sms_manager$267                 _sms_manager
     00000816  A$_sms_manager$268                 _sms_manager
     00000817  A$_sms_manager$269                 _sms_manager
     00000818  A$_sms_manager$270                 _sms_manager
     0000081A  A$_sms_manager$271                 _sms_manager
     0000081C  A$_sms_manager$272                 _sms_manager
     0000081F  A$_sms_manager$277                 _sms_manager
     0000081F  C$_sms_manager.c$45$1$86           _sms_manager
     0000081F  XG$devkit_SMS_enableSRAMBank$0$0   _sms_manager
     00000820  A$_sms_manager$290                 _sms_manager
     00000820  C$_sms_manager.c$46$1$86           _sms_manager
     00000820  C$_sms_manager.c$48$1$87           _sms_manager
     00000820  G$devkit_SMS_disableSRAM$0$0       _sms_manager
     00000820  _devkit_SMS_disableSRAM            _sms_manager
     00000823  A$_sms_manager$291                 _sms_manager
     00000825  A$_sms_manager$296                 _sms_manager
     00000825  C$_sms_manager.c$49$1$87           _sms_manager
     00000825  XG$devkit_SMS_disableSRAM$0$0      _sms_manager
     00000826  A$_sms_manager$309                 _sms_manager
     00000826  C$_sms_manager.c$52$1$87           _sms_manager
ASxxxx Linker V03.00 + NoICE + sdld,  page 7.
Hexadecimal  [32-Bits]

Area                                    Addr        Size        Decimal Bytes (Attributes)
--------------------------------        ----        ----        ------- ----- ------------
_CODE                               00000200    00003D26 =       15654. bytes (REL,CON)

      Value  Global                              Global Defined In Module
      -----  --------------------------------   ------------------------
     00000826  C$_sms_manager.c$54$1$89           _sms_manager
     00000826  G$devkit_SMS_setSpriteMode$0$0     _sms_manager
     00000826  _devkit_SMS_setSpriteMode          _sms_manager
     0000082A  A$_sms_manager$310                 _sms_manager
     0000082C  A$_sms_manager$311                 _sms_manager
     0000082F  A$_sms_manager$316                 _sms_manager
     0000082F  C$_sms_manager.c$55$1$89           _sms_manager
     0000082F  XG$devkit_SMS_setSpriteMode$0$0    _sms_manager
     00000832  A$_sms_manager$329                 _sms_manager
     00000832  C$_sms_manager.c$56$1$89           _sms_manager
     00000832  C$_sms_manager.c$58$1$90           _sms_manager
     00000832  G$devkit_SMS_useFirstHalfTilesfo   _sms_manager
     00000832  _devkit_SMS_useFirstHalfTilesfor   _sms_manager
     00000834  A$_sms_manager$334                 _sms_manager
     00000834  C$_sms_manager.c$59$1$90           _sms_manager
     00000834  XG$devkit_SMS_useFirstHalfTilesf   _sms_manager
     00000837  A$_sms_manager$347                 _sms_manager
     00000837  C$_sms_manager.c$60$1$90           _sms_manager
     00000837  C$_sms_manager.c$62$1$91           _sms_manager
     00000837  G$devkit_SMS_useFirstHalfTilesfo   _sms_manager
     00000837  _devkit_SMS_useFirstHalfTilesfor   _sms_manager
     00000839  A$_sms_manager$352                 _sms_manager
     00000839  C$_sms_manager.c$63$1$91           _sms_manager
     00000839  XG$devkit_SMS_useFirstHalfTilesf   _sms_manager
     0000083C  A$_sms_manager$365                 _sms_manager
     0000083C  C$_sms_manager.c$64$1$91           _sms_manager
     0000083C  C$_sms_manager.c$66$1$93           _sms_manager
     0000083C  G$devkit_SMS_VDPturnOnFeature$0$   _sms_manager
     0000083C  _devkit_SMS_VDPturnOnFeature       _sms_manager
     0000083D  A$_sms_manager$366                 _sms_manager
     0000083E  A$_sms_manager$367                 _sms_manager
     0000083F  A$_sms_manager$368                 _sms_manager
     00000840  A$_sms_manager$373                 _sms_manager
     00000840  C$_sms_manager.c$67$1$93           _sms_manager
     00000840  XG$devkit_SMS_VDPturnOnFeature$0   _sms_manager
     00000843  A$_sms_manager$386                 _sms_manager
     00000843  C$_sms_manager.c$69$1$93           _sms_manager
     00000843  C$_sms_manager.c$71$1$95           _sms_manager
     00000843  G$devkit_SMS_loadPSGaidencompres   _sms_manager
     00000843  _devkit_SMS_loadPSGaidencompress   _sms_manager
     00000846  A$_sms_manager$387                 _sms_manager
     00000847  A$_sms_manager$388                 _sms_manager
     00000848  A$_sms_manager$389                 _sms_manager
     00000849  A$_sms_manager$390                 _sms_manager
     0000084A  A$_sms_manager$391                 _sms_manager
     0000084B  A$_sms_manager$392                 _sms_manager
     0000084E  A$_sms_manager$393                 _sms_manager
     0000084F  A$_sms_manager$394                 _sms_manager
     00000850  A$_sms_manager$395                 _sms_manager
     00000851  A$_sms_manager$396                 _sms_manager
     00000852  A$_sms_manager$397                 _sms_manager
ASxxxx Linker V03.00 + NoICE + sdld,  page 8.
Hexadecimal  [32-Bits]

Area                                    Addr        Size        Decimal Bytes (Attributes)
--------------------------------        ----        ----        ------- ----- ------------
_CODE                               00000200    00003D26 =       15654. bytes (REL,CON)

      Value  Global                              Global Defined In Module
      -----  --------------------------------   ------------------------
     00000853  A$_sms_manager$398                 _sms_manager
     00000856  A$_sms_manager$399                 _sms_manager
     00000857  A$_sms_manager$400                 _sms_manager
     00000858  A$_sms_manager$405                 _sms_manager
     00000858  C$_sms_manager.c$72$1$95           _sms_manager
     00000858  XG$devkit_SMS_loadPSGaidencompre   _sms_manager
     00000859  A$_sms_manager$418                 _sms_manager
     00000859  C$_sms_manager.c$73$1$95           _sms_manager
     00000859  C$_sms_manager.c$75$1$97           _sms_manager
     00000859  G$devkit_SMS_loadSTMcompressedTi   _sms_manager
     00000859  _devkit_SMS_loadSTMcompressedTil   _sms_manager
     0000085B  A$_sms_manager$419                 _sms_manager
     0000085C  A$_sms_manager$420                 _sms_manager
     0000085D  A$_sms_manager$421                 _sms_manager
     00000860  A$_sms_manager$422                 _sms_manager
     00000861  A$_sms_manager$423                 _sms_manager
     00000862  A$_sms_manager$424                 _sms_manager
     00000863  A$_sms_manager$425                 _sms_manager
     00000864  A$_sms_manager$426                 _sms_manager
     00000865  A$_sms_manager$427                 _sms_manager
     00000868  A$_sms_manager$428                 _sms_manager
     00000869  A$_sms_manager$429                 _sms_manager
     0000086A  A$_sms_manager$430                 _sms_manager
     0000086B  A$_sms_manager$431                 _sms_manager
     0000086C  A$_sms_manager$432                 _sms_manager
     0000086F  A$_sms_manager$433                 _sms_manager
     00000870  A$_sms_manager$434                 _sms_manager
     00000871  A$_sms_manager$435                 _sms_manager
     00000872  A$_sms_manager$436                 _sms_manager
     00000873  A$_sms_manager$437                 _sms_manager
     00000876  A$_sms_manager$438                 _sms_manager
     00000877  A$_sms_manager$439                 _sms_manager
     00000878  A$_sms_manager$440                 _sms_manager
     00000879  A$_sms_manager$445                 _sms_manager
     00000879  C$_sms_manager.c$76$1$97           _sms_manager
     00000879  XG$devkit_SMS_loadSTMcompressedT   _sms_manager
     0000087A  A$_sms_manager$458                 _sms_manager
     0000087A  C$_sms_manager.c$78$1$97           _sms_manager
     0000087A  C$_sms_manager.c$80$1$99           _sms_manager
     0000087A  G$devkit_SMS_loadBGPalette$0$0     _sms_manager
     0000087A  _devkit_SMS_loadBGPalette          _sms_manager
     0000087B  A$_sms_manager$459                 _sms_manager
     0000087C  A$_sms_manager$460                 _sms_manager
     0000087D  A$_sms_manager$461                 _sms_manager
     0000087E  A$_sms_manager$466                 _sms_manager
     0000087E  C$_sms_manager.c$81$1$99           _sms_manager
     0000087E  XG$devkit_SMS_loadBGPalette$0$0    _sms_manager
     00000881  A$_sms_manager$479                 _sms_manager
     00000881  C$_sms_manager.c$82$1$99           _sms_manager
     00000881  C$_sms_manager.c$84$1$101          _sms_manager
     00000881  G$devkit_SMS_loadSpritePalette$0   _sms_manager
ASxxxx Linker V03.00 + NoICE + sdld,  page 9.
Hexadecimal  [32-Bits]

Area                                    Addr        Size        Decimal Bytes (Attributes)
--------------------------------        ----        ----        ------- ----- ------------
_CODE                               00000200    00003D26 =       15654. bytes (REL,CON)

      Value  Global                              Global Defined In Module
      -----  --------------------------------   ------------------------
     00000881  _devkit_SMS_loadSpritePalette      _sms_manager
     00000882  A$_sms_manager$480                 _sms_manager
     00000883  A$_sms_manager$481                 _sms_manager
     00000884  A$_sms_manager$482                 _sms_manager
     00000885  A$_sms_manager$487                 _sms_manager
     00000885  C$_sms_manager.c$85$1$101          _sms_manager
     00000885  XG$devkit_SMS_loadSpritePalette$   _sms_manager
     00000888  A$_sms_manager$500                 _sms_manager
     00000888  C$_sms_manager.c$86$1$101          _sms_manager
     00000888  C$_sms_manager.c$88$1$103          _sms_manager
     00000888  G$devkit_SMS_setSpritePaletteCol   _sms_manager
     00000888  _devkit_SMS_setSpritePaletteColo   _sms_manager
     0000088B  A$_sms_manager$501                 _sms_manager
     0000088C  A$_sms_manager$502                 _sms_manager
     0000088D  A$_sms_manager$503                 _sms_manager
     0000088E  A$_sms_manager$504                 _sms_manager
     0000088F  A$_sms_manager$505                 _sms_manager
     00000892  A$_sms_manager$506                 _sms_manager
     00000893  A$_sms_manager$507                 _sms_manager
     00000894  A$_sms_manager$508                 _sms_manager
     00000895  A$_sms_manager$509                 _sms_manager
     00000898  A$_sms_manager$510                 _sms_manager
     00000899  A$_sms_manager$511                 _sms_manager
     0000089A  A$_sms_manager$512                 _sms_manager
     0000089B  A$_sms_manager$513                 _sms_manager
     0000089C  A$_sms_manager$514                 _sms_manager
     0000089D  A$_sms_manager$515                 _sms_manager
     0000089E  A$_sms_manager$516                 _sms_manager
     000008A0  A$_sms_manager$517                 _sms_manager
     000008A1  A$_sms_manager$518                 _sms_manager
     000008A2  A$_sms_manager$522                 _sms_manager
     000008A2  C$_sms_manager.c$89$1$103          _sms_manager
     000008A3  A$_sms_manager$523                 _sms_manager
     000008A4  A$_sms_manager$524                 _sms_manager
     000008A7  A$_sms_manager$525                 _sms_manager
     000008A8  A$_sms_manager$526                 _sms_manager
     000008A9  A$_sms_manager$527                 _sms_manager
     000008AA  A$_sms_manager$528                 _sms_manager
     000008AB  A$_sms_manager$529                 _sms_manager
     000008AE  A$_sms_manager$530                 _sms_manager
     000008AF  A$_sms_manager$535                 _sms_manager
     000008AF  C$_sms_manager.c$90$1$103          _sms_manager
     000008AF  XG$devkit_SMS_setSpritePaletteCo   _sms_manager
     000008B0  A$_sms_manager$545                 _sms_manager
     000008B0  C$_sms_manager.c$92$1$103          _sms_manager
     000008B0  G$devkit_SMS_setNextTileatXY$0$0   _sms_manager
     000008B0  _devkit_SMS_setNextTileatXY        _sms_manager
     000008B2  A$_sms_manager$546                 _sms_manager
     000008B6  A$_sms_manager$547                 _sms_manager
     000008B8  A$_sms_manager$551                 _sms_manager
     000008B8  C$_sms_manager.c$94$1$105          _sms_manager
ASxxxx Linker V03.00 + NoICE + sdld,  page 10.
Hexadecimal  [32-Bits]

Area                                    Addr        Size        Decimal Bytes (Attributes)
--------------------------------        ----        ----        ------- ----- ------------
_CODE                               00000200    00003D26 =       15654. bytes (REL,CON)

      Value  Global                              Global Defined In Module
      -----  --------------------------------   ------------------------
     000008BB  A$_sms_manager$552                 _sms_manager
     000008BD  A$_sms_manager$553                 _sms_manager
     000008BE  A$_sms_manager$554                 _sms_manager
     000008BF  A$_sms_manager$555                 _sms_manager
     000008C0  A$_sms_manager$556                 _sms_manager
     000008C1  A$_sms_manager$557                 _sms_manager
     000008C2  A$_sms_manager$558                 _sms_manager
     000008C3  A$_sms_manager$559                 _sms_manager
     000008C4  A$_sms_manager$560                 _sms_manager
     000008C5  A$_sms_manager$561                 _sms_manager
     000008C7  A$_sms_manager$562                 _sms_manager
     000008C8  A$_sms_manager$563                 _sms_manager
     000008CB  A$_sms_manager$564                 _sms_manager
     000008CD  A$_sms_manager$565                 _sms_manager
     000008CE  A$_sms_manager$566                 _sms_manager
     000008CF  A$_sms_manager$567                 _sms_manager
     000008D0  A$_sms_manager$568                 _sms_manager
     000008D1  A$_sms_manager$569                 _sms_manager
     000008D2  A$_sms_manager$570                 _sms_manager
     000008D3  A$_sms_manager$571                 _sms_manager
     000008D4  A$_sms_manager$576                 _sms_manager
     000008D4  C$_sms_manager.c$95$1$105          _sms_manager
     000008D4  XG$devkit_SMS_setNextTileatXY$0$   _sms_manager
     000008D6  A$_sms_manager$577                 _sms_manager
     000008D9  A$_sms_manager$590                 _sms_manager
     000008D9  C$_sms_manager.c$96$1$105          _sms_manager
     000008D9  C$_sms_manager.c$98$1$107          _sms_manager
     000008D9  G$devkit_SMS_setTile$0$0           _sms_manager
     000008D9  _devkit_SMS_setTile                _sms_manager
     000008DD  A$_sms_manager$591                 _sms_manager
     000008DF  A$_sms_manager$592                 _sms_manager
     000008E2  A$_sms_manager$593                 _sms_manager
     000008E4  A$_sms_manager$598                 _sms_manager
     000008E4  C$_sms_manager.c$99$1$107          _sms_manager
     000008E4  XG$devkit_SMS_setTile$0$0          _sms_manager
     000008E7  A$_sms_manager$611                 _sms_manager
     000008E7  C$_sms_manager.c$100$1$107         _sms_manager
     000008E7  C$_sms_manager.c$102$1$109         _sms_manager
     000008E7  G$devkit_SMS_loadTileMap$0$0       _sms_manager
     000008E7  _devkit_SMS_loadTileMap            _sms_manager
     000008EA  A$_sms_manager$612                 _sms_manager
     000008EB  A$_sms_manager$613                 _sms_manager
     000008EC  A$_sms_manager$614                 _sms_manager
     000008ED  A$_sms_manager$615                 _sms_manager
     000008EE  A$_sms_manager$616                 _sms_manager
     000008F1  A$_sms_manager$617                 _sms_manager
     000008F2  A$_sms_manager$618                 _sms_manager
     000008F3  A$_sms_manager$619                 _sms_manager
     000008F4  A$_sms_manager$620                 _sms_manager
     000008F5  A$_sms_manager$621                 _sms_manager
     000008F6  A$_sms_manager$622                 _sms_manager
ASxxxx Linker V03.00 + NoICE + sdld,  page 11.
Hexadecimal  [32-Bits]

Area                                    Addr        Size        Decimal Bytes (Attributes)
--------------------------------        ----        ----        ------- ----- ------------
_CODE                               00000200    00003D26 =       15654. bytes (REL,CON)

      Value  Global                              Global Defined In Module
      -----  --------------------------------   ------------------------
     000008F7  A$_sms_manager$623                 _sms_manager
     000008F8  A$_sms_manager$624                 _sms_manager
     000008FB  A$_sms_manager$625                 _sms_manager
     000008FC  A$_sms_manager$626                 _sms_manager
     000008FD  A$_sms_manager$627                 _sms_manager
     000008FE  A$_sms_manager$628                 _sms_manager
     000008FF  A$_sms_manager$629                 _sms_manager
     00000902  A$_sms_manager$630                 _sms_manager
     00000903  A$_sms_manager$631                 _sms_manager
     00000904  A$_sms_manager$632                 _sms_manager
     00000905  A$_sms_manager$633                 _sms_manager
     00000906  A$_sms_manager$634                 _sms_manager
     00000909  A$_sms_manager$635                 _sms_manager
     0000090C  A$_sms_manager$636                 _sms_manager
     0000090D  A$_sms_manager$637                 _sms_manager
     0000090E  A$_sms_manager$642                 _sms_manager
     0000090E  C$_sms_manager.c$103$1$109         _sms_manager
     0000090E  XG$devkit_SMS_loadTileMap$0$0      _sms_manager
     0000090F  A$_sms_manager$655                 _sms_manager
     0000090F  C$_sms_manager.c$105$1$109         _sms_manager
     0000090F  C$_sms_manager.c$107$1$111         _sms_manager
     0000090F  G$devkit_SMS_addSprite$0$0         _sms_manager
     0000090F  _devkit_SMS_addSprite              _sms_manager
     00000912  A$_sms_manager$656                 _sms_manager
     00000913  A$_sms_manager$657                 _sms_manager
     00000914  A$_sms_manager$658                 _sms_manager
     00000915  A$_sms_manager$659                 _sms_manager
     00000916  A$_sms_manager$660                 _sms_manager
     00000919  A$_sms_manager$661                 _sms_manager
     0000091A  A$_sms_manager$662                 _sms_manager
     0000091B  A$_sms_manager$663                 _sms_manager
     0000091C  A$_sms_manager$664                 _sms_manager
     0000091D  A$_sms_manager$665                 _sms_manager
     00000920  A$_sms_manager$666                 _sms_manager
     00000921  A$_sms_manager$667                 _sms_manager
     00000922  A$_sms_manager$668                 _sms_manager
     00000923  A$_sms_manager$669                 _sms_manager
     00000924  A$_sms_manager$670                 _sms_manager
     00000927  A$_sms_manager$671                 _sms_manager
     00000928  A$_sms_manager$672                 _sms_manager
     00000929  A$_sms_manager$677                 _sms_manager
     00000929  C$_sms_manager.c$108$1$111         _sms_manager
     00000929  XG$devkit_SMS_addSprite$0$0        _sms_manager
     0000092A  A$_sms_manager$687                 _sms_manager
     0000092A  C$_sms_manager.c$109$1$111         _sms_manager
     0000092A  G$devkit_SMS_addSprite_bulk8$0$0   _sms_manager
     0000092A  _devkit_SMS_addSprite_bulk8        _sms_manager
     0000092C  A$_sms_manager$688                 _sms_manager
     00000930  A$_sms_manager$689                 _sms_manager
     00000932  A$_sms_manager$693                 _sms_manager
     00000932  C$_sms_manager.c$111$1$113         _sms_manager
ASxxxx Linker V03.00 + NoICE + sdld,  page 12.
Hexadecimal  [32-Bits]

Area                                    Addr        Size        Decimal Bytes (Attributes)
--------------------------------        ----        ----        ------- ----- ------------
_CODE                               00000200    00003D26 =       15654. bytes (REL,CON)

      Value  Global                              Global Defined In Module
      -----  --------------------------------   ------------------------
     00000935  A$_sms_manager$694                 _sms_manager
     00000938  A$_sms_manager$695                 _sms_manager
     00000939  A$_sms_manager$696                 _sms_manager
     0000093C  A$_sms_manager$697                 _sms_manager
     0000093F  A$_sms_manager$698                 _sms_manager
     00000940  A$_sms_manager$699                 _sms_manager
     00000943  A$_sms_manager$700                 _sms_manager
     00000944  A$_sms_manager$701                 _sms_manager
     00000945  A$_sms_manager$705                 _sms_manager
     00000945  C$_sms_manager.c$112$1$113         _sms_manager
     00000948  A$_sms_manager$706                 _sms_manager
     0000094B  A$_sms_manager$707                 _sms_manager
     0000094C  A$_sms_manager$708                 _sms_manager
     0000094F  A$_sms_manager$709                 _sms_manager
     00000951  A$_sms_manager$710                 _sms_manager
     00000952  A$_sms_manager$711                 _sms_manager
     00000953  A$_sms_manager$712                 _sms_manager
     00000954  A$_sms_manager$713                 _sms_manager
     00000957  A$_sms_manager$714                 _sms_manager
     00000958  A$_sms_manager$715                 _sms_manager
     00000959  A$_sms_manager$716                 _sms_manager
     0000095A  A$_sms_manager$717                 _sms_manager
     0000095B  A$_sms_manager$718                 _sms_manager
     0000095E  A$_sms_manager$719                 _sms_manager
     0000095F  A$_sms_manager$720                 _sms_manager
     00000960  A$_sms_manager$721                 _sms_manager
     00000961  A$_sms_manager$725                 _sms_manager
     00000961  C$_sms_manager.c$114$1$113         _sms_manager
     00000964  A$_sms_manager$726                 _sms_manager
     00000967  A$_sms_manager$727                 _sms_manager
     00000968  A$_sms_manager$728                 _sms_manager
     00000969  A$_sms_manager$729                 _sms_manager
     0000096C  A$_sms_manager$730                 _sms_manager
     0000096E  A$_sms_manager$731                 _sms_manager
     0000096F  A$_sms_manager$732                 _sms_manager
     00000970  A$_sms_manager$733                 _sms_manager
     00000971  A$_sms_manager$734                 _sms_manager
     00000972  A$_sms_manager$735                 _sms_manager
     00000973  A$_sms_manager$736                 _sms_manager
     00000974  A$_sms_manager$737                 _sms_manager
     00000977  A$_sms_manager$738                 _sms_manager
     00000978  A$_sms_manager$739                 _sms_manager
     00000979  A$_sms_manager$740                 _sms_manager
     0000097C  A$_sms_manager$741                 _sms_manager
     0000097D  A$_sms_manager$742                 _sms_manager
     0000097E  A$_sms_manager$743                 _sms_manager
     0000097F  A$_sms_manager$744                 _sms_manager
     00000980  A$_sms_manager$748                 _sms_manager
     00000980  C$_sms_manager.c$115$1$113         _sms_manager
     00000983  A$_sms_manager$749                 _sms_manager
     00000986  A$_sms_manager$750                 _sms_manager
ASxxxx Linker V03.00 + NoICE + sdld,  page 13.
Hexadecimal  [32-Bits]

Area                                    Addr        Size        Decimal Bytes (Attributes)
--------------------------------        ----        ----        ------- ----- ------------
_CODE                               00000200    00003D26 =       15654. bytes (REL,CON)

      Value  Global                              Global Defined In Module
      -----  --------------------------------   ------------------------
     00000987  A$_sms_manager$751                 _sms_manager
     00000988  A$_sms_manager$752                 _sms_manager
     00000989  A$_sms_manager$753                 _sms_manager
     0000098A  A$_sms_manager$754                 _sms_manager
     0000098B  A$_sms_manager$755                 _sms_manager
     0000098C  A$_sms_manager$756                 _sms_manager
     0000098D  A$_sms_manager$757                 _sms_manager
     00000990  A$_sms_manager$758                 _sms_manager
     00000991  A$_sms_manager$759                 _sms_manager
     00000992  A$_sms_manager$760                 _sms_manager
     00000993  A$_sms_manager$764                 _sms_manager
     00000993  C$_sms_manager.c$117$1$113         _sms_manager
     00000996  A$_sms_manager$765                 _sms_manager
     00000998  A$_sms_manager$766                 _sms_manager
     00000999  A$_sms_manager$767                 _sms_manager
     0000099C  A$_sms_manager$768                 _sms_manager
     0000099E  A$_sms_manager$769                 _sms_manager
     0000099F  A$_sms_manager$770                 _sms_manager
     000009A2  A$_sms_manager$771                 _sms_manager
     000009A4  A$_sms_manager$772                 _sms_manager
     000009A5  A$_sms_manager$773                 _sms_manager
     000009A6  A$_sms_manager$774                 _sms_manager
     000009A7  A$_sms_manager$775                 _sms_manager
     000009A8  A$_sms_manager$776                 _sms_manager
     000009A9  A$_sms_manager$777                 _sms_manager
     000009AA  A$_sms_manager$778                 _sms_manager
     000009AD  A$_sms_manager$779                 _sms_manager
     000009AE  A$_sms_manager$780                 _sms_manager
     000009AF  A$_sms_manager$781                 _sms_manager
     000009B2  A$_sms_manager$782                 _sms_manager
     000009B3  A$_sms_manager$783                 _sms_manager
     000009B4  A$_sms_manager$784                 _sms_manager
     000009B5  A$_sms_manager$785                 _sms_manager
     000009B6  A$_sms_manager$789                 _sms_manager
     000009B6  C$_sms_manager.c$118$1$113         _sms_manager
     000009B9  A$_sms_manager$790                 _sms_manager
     000009BB  A$_sms_manager$791                 _sms_manager
     000009BC  A$_sms_manager$792                 _sms_manager
     000009BF  A$_sms_manager$793                 _sms_manager
     000009C1  A$_sms_manager$794                 _sms_manager
     000009C2  A$_sms_manager$795                 _sms_manager
     000009C3  A$_sms_manager$796                 _sms_manager
     000009C4  A$_sms_manager$797                 _sms_manager
     000009C5  A$_sms_manager$798                 _sms_manager
     000009C6  A$_sms_manager$799                 _sms_manager
     000009C9  A$_sms_manager$800                 _sms_manager
     000009CA  A$_sms_manager$801                 _sms_manager
     000009CB  A$_sms_manager$802                 _sms_manager
     000009CC  A$_sms_manager$806                 _sms_manager
     000009CC  C$_sms_manager.c$120$1$113         _sms_manager
     000009CF  A$_sms_manager$807                 _sms_manager
ASxxxx Linker V03.00 + NoICE + sdld,  page 14.
Hexadecimal  [32-Bits]

Area                                    Addr        Size        Decimal Bytes (Attributes)
--------------------------------        ----        ----        ------- ----- ------------
_CODE                               00000200    00003D26 =       15654. bytes (REL,CON)

      Value  Global                              Global Defined In Module
      -----  --------------------------------   ------------------------
     000009D1  A$_sms_manager$808                 _sms_manager
     000009D2  A$_sms_manager$809                 _sms_manager
     000009D5  A$_sms_manager$810                 _sms_manager
     000009D7  A$_sms_manager$811                 _sms_manager
     000009D8  A$_sms_manager$812                 _sms_manager
     000009DB  A$_sms_manager$813                 _sms_manager
     000009DD  A$_sms_manager$814                 _sms_manager
     000009DE  A$_sms_manager$815                 _sms_manager
     000009DF  A$_sms_manager$816                 _sms_manager
     000009E0  A$_sms_manager$817                 _sms_manager
     000009E1  A$_sms_manager$818                 _sms_manager
     000009E2  A$_sms_manager$819                 _sms_manager
     000009E3  A$_sms_manager$820                 _sms_manager
     000009E6  A$_sms_manager$821                 _sms_manager
     000009E7  A$_sms_manager$822                 _sms_manager
     000009E8  A$_sms_manager$823                 _sms_manager
     000009EB  A$_sms_manager$824                 _sms_manager
     000009EC  A$_sms_manager$825                 _sms_manager
     000009ED  A$_sms_manager$826                 _sms_manager
     000009EE  A$_sms_manager$827                 _sms_manager
     000009EF  A$_sms_manager$831                 _sms_manager
     000009EF  C$_sms_manager.c$121$1$113         _sms_manager
     000009F2  A$_sms_manager$832                 _sms_manager
     000009F4  A$_sms_manager$833                 _sms_manager
     000009F5  A$_sms_manager$834                 _sms_manager
     000009F8  A$_sms_manager$835                 _sms_manager
     000009FA  A$_sms_manager$836                 _sms_manager
     000009FB  A$_sms_manager$837                 _sms_manager
     000009FC  A$_sms_manager$838                 _sms_manager
     000009FD  A$_sms_manager$839                 _sms_manager
     000009FE  A$_sms_manager$840                 _sms_manager
     00000A01  A$_sms_manager$841                 _sms_manager
     00000A02  A$_sms_manager$842                 _sms_manager
     00000A03  A$_sms_manager$843                 _sms_manager
     00000A05  A$_sms_manager$848                 _sms_manager
     00000A05  C$_sms_manager.c$122$1$113         _sms_manager
     00000A05  XG$devkit_SMS_addSprite_bulk8$0$   _sms_manager
     00000A06  A$_sms_manager$858                 _sms_manager
     00000A06  C$_sms_manager.c$123$1$113         _sms_manager
     00000A06  G$devkit_SMS_addSprite_bulk12$0$   _sms_manager
     00000A06  _devkit_SMS_addSprite_bulk12       _sms_manager
     00000A08  A$_sms_manager$859                 _sms_manager
     00000A0C  A$_sms_manager$860                 _sms_manager
     00000A0E  A$_sms_manager$864                 _sms_manager
     00000A0E  C$_sms_manager.c$125$1$115         _sms_manager
     00000A11  A$_sms_manager$865                 _sms_manager
     00000A12  A$_sms_manager$866                 _sms_manager
     00000A13  A$_sms_manager$867                 _sms_manager
     00000A16  A$_sms_manager$868                 _sms_manager
     00000A17  A$_sms_manager$869                 _sms_manager
     00000A1A  A$_sms_manager$870                 _sms_manager
ASxxxx Linker V03.00 + NoICE + sdld,  page 15.
Hexadecimal  [32-Bits]

Area                                    Addr        Size        Decimal Bytes (Attributes)
--------------------------------        ----        ----        ------- ----- ------------
_CODE                               00000200    00003D26 =       15654. bytes (REL,CON)

      Value  Global                              Global Defined In Module
      -----  --------------------------------   ------------------------
     00000A1B  A$_sms_manager$871                 _sms_manager
     00000A1C  A$_sms_manager$872                 _sms_manager
     00000A1F  A$_sms_manager$873                 _sms_manager
     00000A20  A$_sms_manager$874                 _sms_manager
     00000A21  A$_sms_manager$875                 _sms_manager
     00000A22  A$_sms_manager$879                 _sms_manager
     00000A22  C$_sms_manager.c$126$1$115         _sms_manager
     00000A23  A$_sms_manager$880                 _sms_manager
     00000A24  A$_sms_manager$881                 _sms_manager
     00000A27  A$_sms_manager$882                 _sms_manager
     00000A29  A$_sms_manager$883                 _sms_manager
     00000A2A  A$_sms_manager$884                 _sms_manager
     00000A2B  A$_sms_manager$885                 _sms_manager
     00000A2C  A$_sms_manager$886                 _sms_manager
     00000A2D  A$_sms_manager$887                 _sms_manager
     00000A30  A$_sms_manager$888                 _sms_manager
     00000A31  A$_sms_manager$889                 _sms_manager
     00000A32  A$_sms_manager$890                 _sms_manager
     00000A33  A$_sms_manager$891                 _sms_manager
     00000A34  A$_sms_manager$892                 _sms_manager
     00000A37  A$_sms_manager$893                 _sms_manager
     00000A38  A$_sms_manager$894                 _sms_manager
     00000A39  A$_sms_manager$895                 _sms_manager
     00000A3A  A$_sms_manager$899                 _sms_manager
     00000A3A  C$_sms_manager.c$127$1$115         _sms_manager
     00000A3B  A$_sms_manager$900                 _sms_manager
     00000A3C  A$_sms_manager$901                 _sms_manager
     00000A3D  A$_sms_manager$902                 _sms_manager
     00000A40  A$_sms_manager$903                 _sms_manager
     00000A42  A$_sms_manager$904                 _sms_manager
     00000A43  A$_sms_manager$905                 _sms_manager
     00000A44  A$_sms_manager$906                 _sms_manager
     00000A45  A$_sms_manager$907                 _sms_manager
     00000A46  A$_sms_manager$908                 _sms_manager
     00000A47  A$_sms_manager$909                 _sms_manager
     00000A4A  A$_sms_manager$910                 _sms_manager
     00000A4B  A$_sms_manager$911                 _sms_manager
     00000A4E  A$_sms_manager$912                 _sms_manager
     00000A4F  A$_sms_manager$913                 _sms_manager
     00000A50  A$_sms_manager$914                 _sms_manager
     00000A51  A$_sms_manager$915                 _sms_manager
     00000A52  A$_sms_manager$919                 _sms_manager
     00000A52  C$_sms_manager.c$129$1$115         _sms_manager
     00000A53  A$_sms_manager$920                 _sms_manager
     00000A54  A$_sms_manager$921                 _sms_manager
     00000A55  A$_sms_manager$922                 _sms_manager
     00000A56  A$_sms_manager$923                 _sms_manager
     00000A59  A$_sms_manager$924                 _sms_manager
     00000A5B  A$_sms_manager$925                 _sms_manager
     00000A5C  A$_sms_manager$926                 _sms_manager
     00000A5D  A$_sms_manager$927                 _sms_manager
ASxxxx Linker V03.00 + NoICE + sdld,  page 16.
Hexadecimal  [32-Bits]

Area                                    Addr        Size        Decimal Bytes (Attributes)
--------------------------------        ----        ----        ------- ----- ------------
_CODE                               00000200    00003D26 =       15654. bytes (REL,CON)

      Value  Global                              Global Defined In Module
      -----  --------------------------------   ------------------------
     00000A5E  A$_sms_manager$928                 _sms_manager
     00000A5F  A$_sms_manager$929                 _sms_manager
     00000A60  A$_sms_manager$930                 _sms_manager
     00000A61  A$_sms_manager$931                 _sms_manager
     00000A62  A$_sms_manager$932                 _sms_manager
     00000A65  A$_sms_manager$933                 _sms_manager
     00000A66  A$_sms_manager$934                 _sms_manager
     00000A67  A$_sms_manager$935                 _sms_manager
     00000A6A  A$_sms_manager$936                 _sms_manager
     00000A6B  A$_sms_manager$937                 _sms_manager
     00000A6C  A$_sms_manager$938                 _sms_manager
     00000A6D  A$_sms_manager$939                 _sms_manager
     00000A6E  A$_sms_manager$943                 _sms_manager
     00000A6E  C$_sms_manager.c$130$1$115         _sms_manager
     00000A6F  A$_sms_manager$944                 _sms_manager
     00000A71  A$_sms_manager$945                 _sms_manager
     00000A72  A$_sms_manager$946                 _sms_manager
     00000A73  A$_sms_manager$947                 _sms_manager
     00000A74  A$_sms_manager$948                 _sms_manager
     00000A75  A$_sms_manager$949                 _sms_manager
     00000A76  A$_sms_manager$950                 _sms_manager
     00000A77  A$_sms_manager$951                 _sms_manager
     00000A7A  A$_sms_manager$952                 _sms_manager
     00000A7B  A$_sms_manager$953                 _sms_manager
     00000A7C  A$_sms_manager$954                 _sms_manager
     00000A7D  A$_sms_manager$955                 _sms_manager
     00000A7E  A$_sms_manager$959                 _sms_manager
     00000A7E  C$_sms_manager.c$131$1$115         _sms_manager
     00000A7F  A$_sms_manager$960                 _sms_manager
     00000A81  A$_sms_manager$961                 _sms_manager
     00000A82  A$_sms_manager$962                 _sms_manager
     00000A83  A$_sms_manager$963                 _sms_manager
     00000A84  A$_sms_manager$964                 _sms_manager
     00000A85  A$_sms_manager$965                 _sms_manager
     00000A86  A$_sms_manager$966                 _sms_manager
     00000A87  A$_sms_manager$967                 _sms_manager
     00000A8A  A$_sms_manager$968                 _sms_manager
     00000A8B  A$_sms_manager$969                 _sms_manager
     00000A8C  A$_sms_manager$970                 _sms_manager
     00000A8D  A$_sms_manager$971                 _sms_manager
     00000A8E  A$_sms_manager$975                 _sms_manager
     00000A8E  C$_sms_manager.c$133$1$115         _sms_manager
     00000A8F  A$_sms_manager$976                 _sms_manager
     00000A91  A$_sms_manager$977                 _sms_manager
     00000A92  A$_sms_manager$978                 _sms_manager
     00000A95  A$_sms_manager$979                 _sms_manager
     00000A97  A$_sms_manager$980                 _sms_manager
     00000A98  A$_sms_manager$981                 _sms_manager
     00000A99  A$_sms_manager$982                 _sms_manager
     00000A9A  A$_sms_manager$983                 _sms_manager
     00000A9B  A$_sms_manager$984                 _sms_manager
ASxxxx Linker V03.00 + NoICE + sdld,  page 17.
Hexadecimal  [32-Bits]

Area                                    Addr        Size        Decimal Bytes (Attributes)
--------------------------------        ----        ----        ------- ----- ------------
_CODE                               00000200    00003D26 =       15654. bytes (REL,CON)

      Value  Global                              Global Defined In Module
      -----  --------------------------------   ------------------------
     00000A9C  A$_sms_manager$985                 _sms_manager
     00000A9D  A$_sms_manager$986                 _sms_manager
     00000A9E  A$_sms_manager$987                 _sms_manager
     00000AA1  A$_sms_manager$988                 _sms_manager
     00000AA2  A$_sms_manager$989                 _sms_manager
     00000AA3  A$_sms_manager$990                 _sms_manager
     00000AA6  A$_sms_manager$991                 _sms_manager
     00000AA7  A$_sms_manager$992                 _sms_manager
     00000AA8  A$_sms_manager$993                 _sms_manager
     00000AA9  A$_sms_manager$994                 _sms_manager
     00000AAA  A$_sms_manager$998                 _sms_manager
     00000AAA  C$_sms_manager.c$134$1$115         _sms_manager
     00000AAB  A$_sms_manager$999                 _sms_manager
     00000AAD  A$_sms_manager$1000                _sms_manager
     00000AAE  A$_sms_manager$1001                _sms_manager
     00000AAF  A$_sms_manager$1002                _sms_manager
     00000AB0  A$_sms_manager$1003                _sms_manager
     00000AB1  A$_sms_manager$1004                _sms_manager
     00000AB2  A$_sms_manager$1005                _sms_manager
     00000AB3  A$_sms_manager$1006                _sms_manager
     00000AB4  A$_sms_manager$1007                _sms_manager
     00000AB7  A$_sms_manager$1008                _sms_manager
     00000AB8  A$_sms_manager$1009                _sms_manager
     00000AB9  A$_sms_manager$1010                _sms_manager
     00000ABA  A$_sms_manager$1011                _sms_manager
     00000ABB  A$_sms_manager$1015                _sms_manager
     00000ABB  C$_sms_manager.c$135$1$115         _sms_manager
     00000ABC  A$_sms_manager$1016                _sms_manager
     00000ABE  A$_sms_manager$1017                _sms_manager
     00000ABF  A$_sms_manager$1018                _sms_manager
     00000AC0  A$_sms_manager$1019                _sms_manager
     00000AC1  A$_sms_manager$1020                _sms_manager
     00000AC2  A$_sms_manager$1021                _sms_manager
     00000AC3  A$_sms_manager$1022                _sms_manager
     00000AC4  A$_sms_manager$1023                _sms_manager
     00000AC7  A$_sms_manager$1024                _sms_manager
     00000AC8  A$_sms_manager$1025                _sms_manager
     00000AC9  A$_sms_manager$1026                _sms_manager
     00000ACA  A$_sms_manager$1027                _sms_manager
     00000ACB  A$_sms_manager$1031                _sms_manager
     00000ACB  C$_sms_manager.c$137$1$115         _sms_manager
     00000ACC  A$_sms_manager$1032                _sms_manager
     00000ACE  A$_sms_manager$1033                _sms_manager
     00000ACF  A$_sms_manager$1034                _sms_manager
     00000AD2  A$_sms_manager$1035                _sms_manager
     00000AD4  A$_sms_manager$1036                _sms_manager
     00000AD5  A$_sms_manager$1037                _sms_manager
     00000AD6  A$_sms_manager$1038                _sms_manager
     00000AD7  A$_sms_manager$1039                _sms_manager
     00000AD8  A$_sms_manager$1040                _sms_manager
     00000AD9  A$_sms_manager$1041                _sms_manager
ASxxxx Linker V03.00 + NoICE + sdld,  page 18.
Hexadecimal  [32-Bits]

Area                                    Addr        Size        Decimal Bytes (Attributes)
--------------------------------        ----        ----        ------- ----- ------------
_CODE                               00000200    00003D26 =       15654. bytes (REL,CON)

      Value  Global                              Global Defined In Module
      -----  --------------------------------   ------------------------
     00000ADA  A$_sms_manager$1042                _sms_manager
     00000ADB  A$_sms_manager$1043                _sms_manager
     00000ADE  A$_sms_manager$1044                _sms_manager
     00000ADF  A$_sms_manager$1045                _sms_manager
     00000AE0  A$_sms_manager$1046                _sms_manager
     00000AE3  A$_sms_manager$1047                _sms_manager
     00000AE4  A$_sms_manager$1048                _sms_manager
     00000AE5  A$_sms_manager$1049                _sms_manager
     00000AE6  A$_sms_manager$1050                _sms_manager
     00000AE7  A$_sms_manager$1054                _sms_manager
     00000AE7  C$_sms_manager.c$138$1$115         _sms_manager
     00000AE8  A$_sms_manager$1055                _sms_manager
     00000AEA  A$_sms_manager$1056                _sms_manager
     00000AEB  A$_sms_manager$1057                _sms_manager
     00000AEC  A$_sms_manager$1058                _sms_manager
     00000AED  A$_sms_manager$1059                _sms_manager
     00000AEE  A$_sms_manager$1060                _sms_manager
     00000AEF  A$_sms_manager$1061                _sms_manager
     00000AF0  A$_sms_manager$1062                _sms_manager
     00000AF1  A$_sms_manager$1063                _sms_manager
     00000AF4  A$_sms_manager$1064                _sms_manager
     00000AF5  A$_sms_manager$1065                _sms_manager
     00000AF6  A$_sms_manager$1066                _sms_manager
     00000AF7  A$_sms_manager$1067                _sms_manager
     00000AF8  A$_sms_manager$1071                _sms_manager
     00000AF8  C$_sms_manager.c$139$1$115         _sms_manager
     00000AF9  A$_sms_manager$1072                _sms_manager
     00000AFB  A$_sms_manager$1073                _sms_manager
     00000AFC  A$_sms_manager$1074                _sms_manager
     00000AFD  A$_sms_manager$1075                _sms_manager
     00000AFE  A$_sms_manager$1076                _sms_manager
     00000AFF  A$_sms_manager$1077                _sms_manager
     00000B00  A$_sms_manager$1078                _sms_manager
     00000B01  A$_sms_manager$1079                _sms_manager
     00000B04  A$_sms_manager$1080                _sms_manager
     00000B05  A$_sms_manager$1081                _sms_manager
     00000B06  A$_sms_manager$1082                _sms_manager
     00000B08  A$_sms_manager$1087                _sms_manager
     00000B08  C$_sms_manager.c$140$1$115         _sms_manager
     00000B08  XG$devkit_SMS_addSprite_bulk12$0   _sms_manager
     00000B09  A$_sms_manager$1104                _sms_manager
     00000B09  C$_sms_manager.c$142$1$115         _sms_manager
     00000B09  C$_sms_manager.c$144$1$116         _sms_manager
     00000B09  C$_sms_manager.c$145$1$116         _sms_manager
     00000B09  G$devkit_SMS_initSprites$0$0       _sms_manager
     00000B09  XG$devkit_SMS_initSprites$0$0      _sms_manager
     00000B09  _devkit_SMS_initSprites            _sms_manager
     00000B0C  A$_sms_manager$1121                _sms_manager
     00000B0C  C$_sms_manager.c$146$1$116         _sms_manager
     00000B0C  C$_sms_manager.c$148$1$117         _sms_manager
     00000B0C  C$_sms_manager.c$149$1$117         _sms_manager
ASxxxx Linker V03.00 + NoICE + sdld,  page 19.
Hexadecimal  [32-Bits]

Area                                    Addr        Size        Decimal Bytes (Attributes)
--------------------------------        ----        ----        ------- ----- ------------
_CODE                               00000200    00003D26 =       15654. bytes (REL,CON)

      Value  Global                              Global Defined In Module
      -----  --------------------------------   ------------------------
     00000B0C  G$devkit_SMS_finalizeSprites$0$0   _sms_manager
     00000B0C  XG$devkit_SMS_finalizeSprites$0$   _sms_manager
     00000B0C  _devkit_SMS_finalizeSprites        _sms_manager
     00000B0F  A$_sms_manager$1138                _sms_manager
     00000B0F  C$_sms_manager.c$150$1$117         _sms_manager
     00000B0F  C$_sms_manager.c$152$1$118         _sms_manager
     00000B0F  C$_sms_manager.c$153$1$118         _sms_manager
     00000B0F  G$devkit_SMS_waitForVBlank$0$0     _sms_manager
     00000B0F  XG$devkit_SMS_waitForVBlank$0$0    _sms_manager
     00000B0F  _devkit_SMS_waitForVBlank          _sms_manager
     00000B12  A$_sms_manager$1155                _sms_manager
     00000B12  C$_sms_manager.c$154$1$118         _sms_manager
     00000B12  C$_sms_manager.c$156$1$119         _sms_manager
     00000B12  C$_sms_manager.c$157$1$119         _sms_manager
     00000B12  G$devkit_SMS_copySpritestoSAT$0$   _sms_manager
     00000B12  XG$devkit_SMS_copySpritestoSAT$0   _sms_manager
     00000B12  _devkit_SMS_copySpritestoSAT       _sms_manager
     00000B15  A$_sms_manager$1172                _sms_manager
     00000B15  C$_sms_manager.c$158$1$119         _sms_manager
     00000B15  C$_sms_manager.c$160$1$120         _sms_manager
     00000B15  C$_sms_manager.c$161$1$120         _sms_manager
     00000B15  G$devkit_UNSAFE_SMS_copySpritest   _sms_manager
     00000B15  XG$devkit_UNSAFE_SMS_copySprites   _sms_manager
     00000B15  _devkit_UNSAFE_SMS_copySpritesto   _sms_manager
     00000B18  A$_sms_manager$1189                _sms_manager
     00000B18  C$_sms_manager.c$163$1$120         _sms_manager
     00000B18  C$_sms_manager.c$165$1$121         _sms_manager
     00000B18  C$_sms_manager.c$166$1$121         _sms_manager
     00000B18  G$devkit_SMS_queryPauseRequested   _sms_manager
     00000B18  XG$devkit_SMS_queryPauseRequeste   _sms_manager
     00000B18  _devkit_SMS_queryPauseRequested    _sms_manager
     00000B1B  A$_sms_manager$1206                _sms_manager
     00000B1B  C$_sms_manager.c$167$1$121         _sms_manager
     00000B1B  C$_sms_manager.c$169$1$122         _sms_manager
     00000B1B  C$_sms_manager.c$170$1$122         _sms_manager
     00000B1B  G$devkit_SMS_resetPauseRequest$0   _sms_manager
     00000B1B  XG$devkit_SMS_resetPauseRequest$   _sms_manager
     00000B1B  _devkit_SMS_resetPauseRequest      _sms_manager
     00000B1E  A$_sms_manager$1219                _sms_manager
     00000B1E  C$_sms_manager.c$172$1$122         _sms_manager
     00000B1E  C$_sms_manager.c$174$1$123         _sms_manager
     00000B1E  G$devkit_isCollisionDetected$0$0   _sms_manager
     00000B1E  _devkit_isCollisionDetected        _sms_manager
     00000B21  A$_sms_manager$1220                _sms_manager
     00000B23  A$_sms_manager$1221                _sms_manager
     00000B24  A$_sms_manager$1226                _sms_manager
     00000B24  C$_sms_manager.c$175$1$123         _sms_manager
     00000B24  XG$devkit_isCollisionDetected$0$   _sms_manager
     00000B25  A$_sms_manager$1243                _sms_manager
     00000B25  C$_sms_manager.c$178$1$123         _sms_manager
     00000B25  C$_sms_manager.c$180$1$124         _sms_manager
ASxxxx Linker V03.00 + NoICE + sdld,  page 20.
Hexadecimal  [32-Bits]

Area                                    Addr        Size        Decimal Bytes (Attributes)
--------------------------------        ----        ----        ------- ----- ------------
_CODE                               00000200    00003D26 =       15654. bytes (REL,CON)

      Value  Global                              Global Defined In Module
      -----  --------------------------------   ------------------------
     00000B25  C$_sms_manager.c$181$1$124         _sms_manager
     00000B25  G$devkit_SMS_getKeysStatus$0$0     _sms_manager
     00000B25  XG$devkit_SMS_getKeysStatus$0$0    _sms_manager
     00000B25  _devkit_SMS_getKeysStatus          _sms_manager
     00000B28  A$_sms_manager$1256                _sms_manager
     00000B28  C$_sms_manager.c$182$1$124         _sms_manager
     00000B28  C$_sms_manager.c$184$1$125         _sms_manager
     00000B28  G$devkit_PORT_A_KEY_UP$0$0         _sms_manager
     00000B28  _devkit_PORT_A_KEY_UP              _sms_manager
     00000B2B  A$_sms_manager$1261                _sms_manager
     00000B2B  C$_sms_manager.c$185$1$125         _sms_manager
     00000B2B  XG$devkit_PORT_A_KEY_UP$0$0        _sms_manager
     00000B2C  A$_sms_manager$1274                _sms_manager
     00000B2C  C$_sms_manager.c$186$1$125         _sms_manager
     00000B2C  C$_sms_manager.c$188$1$126         _sms_manager
     00000B2C  G$devkit_PORT_A_KEY_DOWN$0$0       _sms_manager
     00000B2C  _devkit_PORT_A_KEY_DOWN            _sms_manager
     00000B2F  A$_sms_manager$1279                _sms_manager
     00000B2F  C$_sms_manager.c$189$1$126         _sms_manager
     00000B2F  XG$devkit_PORT_A_KEY_DOWN$0$0      _sms_manager
     00000B30  A$_sms_manager$1292                _sms_manager
     00000B30  C$_sms_manager.c$190$1$126         _sms_manager
     00000B30  C$_sms_manager.c$192$1$127         _sms_manager
     00000B30  G$devkit_PORT_A_KEY_LEFT$0$0       _sms_manager
     00000B30  _devkit_PORT_A_KEY_LEFT            _sms_manager
     00000B33  A$_sms_manager$1297                _sms_manager
     00000B33  C$_sms_manager.c$193$1$127         _sms_manager
     00000B33  XG$devkit_PORT_A_KEY_LEFT$0$0      _sms_manager
     00000B34  A$_sms_manager$1310                _sms_manager
     00000B34  C$_sms_manager.c$194$1$127         _sms_manager
     00000B34  C$_sms_manager.c$196$1$128         _sms_manager
     00000B34  G$devkit_PORT_A_KEY_RIGHT$0$0      _sms_manager
     00000B34  _devkit_PORT_A_KEY_RIGHT           _sms_manager
     00000B37  A$_sms_manager$1315                _sms_manager
     00000B37  C$_sms_manager.c$197$1$128         _sms_manager
     00000B37  XG$devkit_PORT_A_KEY_RIGHT$0$0     _sms_manager
     00000B38  A$_sms_manager$1328                _sms_manager
     00000B38  C$_sms_manager.c$198$1$128         _sms_manager
     00000B38  C$_sms_manager.c$200$1$129         _sms_manager
     00000B38  G$devkit_PORT_A_KEY_1$0$0          _sms_manager
     00000B38  _devkit_PORT_A_KEY_1               _sms_manager
     00000B3B  A$_sms_manager$1333                _sms_manager
     00000B3B  C$_sms_manager.c$201$1$129         _sms_manager
     00000B3B  XG$devkit_PORT_A_KEY_1$0$0         _sms_manager
     00000B3C  A$_sms_manager$1346                _sms_manager
     00000B3C  C$_sms_manager.c$202$1$129         _sms_manager
     00000B3C  C$_sms_manager.c$204$1$130         _sms_manager
     00000B3C  G$devkit_PORT_A_KEY_2$0$0          _sms_manager
     00000B3C  _devkit_PORT_A_KEY_2               _sms_manager
     00000B3F  A$_sms_manager$1351                _sms_manager
     00000B3F  C$_sms_manager.c$205$1$130         _sms_manager
ASxxxx Linker V03.00 + NoICE + sdld,  page 21.
Hexadecimal  [32-Bits]

Area                                    Addr        Size        Decimal Bytes (Attributes)
--------------------------------        ----        ----        ------- ----- ------------
_CODE                               00000200    00003D26 =       15654. bytes (REL,CON)

      Value  Global                              Global Defined In Module
      -----  --------------------------------   ------------------------
     00000B3F  XG$devkit_PORT_A_KEY_2$0$0         _sms_manager
     00000B40  A$_sms_manager$1364                _sms_manager
     00000B40  C$_sms_manager.c$208$1$130         _sms_manager
     00000B40  C$_sms_manager.c$210$1$131         _sms_manager
     00000B40  G$devkit_SPRITEMODE_NORMAL$0$0     _sms_manager
     00000B40  _devkit_SPRITEMODE_NORMAL          _sms_manager
     00000B42  A$_sms_manager$1369                _sms_manager
     00000B42  C$_sms_manager.c$211$1$131         _sms_manager
     00000B42  XG$devkit_SPRITEMODE_NORMAL$0$0    _sms_manager
     00000B43  A$_sms_manager$1382                _sms_manager
     00000B43  C$_sms_manager.c$212$1$131         _sms_manager
     00000B43  C$_sms_manager.c$214$1$132         _sms_manager
     00000B43  G$devkit_VDPFEATURE_HIDEFIRSTCOL   _sms_manager
     00000B43  _devkit_VDPFEATURE_HIDEFIRSTCOL    _sms_manager
     00000B46  A$_sms_manager$1387                _sms_manager
     00000B46  C$_sms_manager.c$215$1$132         _sms_manager
     00000B46  XG$devkit_VDPFEATURE_HIDEFIRSTCO   _sms_manager
     00000B47  F_sms_manager$__str_0$0$0          _sms_manager
     00000B55  F_sms_manager$__str_1$0$0          _sms_manager
     00000B65  F_sms_manager$__str_2$0$0          _sms_manager
     00000B9D  A$_snd_manager$89                  _snd_manager
     00000B9D  C$_snd_manager.c$11$1$34           _snd_manager
     00000B9D  C$_snd_manager.c$9$0$0             _snd_manager
     00000B9D  G$devkit_PSGPlay$0$0               _snd_manager
     00000B9D  _devkit_PSGPlay                    _snd_manager
     00000B9E  A$_snd_manager$90                  _snd_manager
     00000B9F  A$_snd_manager$91                  _snd_manager
     00000BA0  A$_snd_manager$92                  _snd_manager
     00000BA1  A$_snd_manager$93                  _snd_manager
     00000BA2  A$_snd_manager$94                  _snd_manager
     00000BA5  A$_snd_manager$95                  _snd_manager
     00000BA6  A$_snd_manager$100                 _snd_manager
     00000BA6  C$_snd_manager.c$12$1$34           _snd_manager
     00000BA6  XG$devkit_PSGPlay$0$0              _snd_manager
     00000BA7  A$_snd_manager$117                 _snd_manager
     00000BA7  C$_snd_manager.c$13$1$34           _snd_manager
     00000BA7  C$_snd_manager.c$15$1$36           _snd_manager
     00000BA7  C$_snd_manager.c$16$1$36           _snd_manager
     00000BA7  G$devkit_PSGCancelLoop$0$0         _snd_manager
     00000BA7  XG$devkit_PSGCancelLoop$0$0        _snd_manager
     00000BA7  _devkit_PSGCancelLoop              _snd_manager
     00000BAA  A$_snd_manager$130                 _snd_manager
     00000BAA  C$_snd_manager.c$17$1$36           _snd_manager
     00000BAA  C$_snd_manager.c$19$1$38           _snd_manager
     00000BAA  G$devkit_PSGPlayNoRepeat$0$0       _snd_manager
     00000BAA  _devkit_PSGPlayNoRepeat            _snd_manager
     00000BAB  A$_snd_manager$131                 _snd_manager
     00000BAC  A$_snd_manager$132                 _snd_manager
     00000BAD  A$_snd_manager$133                 _snd_manager
     00000BAE  A$_snd_manager$134                 _snd_manager
     00000BAF  A$_snd_manager$135                 _snd_manager
ASxxxx Linker V03.00 + NoICE + sdld,  page 22.
Hexadecimal  [32-Bits]

Area                                    Addr        Size        Decimal Bytes (Attributes)
--------------------------------        ----        ----        ------- ----- ------------
_CODE                               00000200    00003D26 =       15654. bytes (REL,CON)

      Value  Global                              Global Defined In Module
      -----  --------------------------------   ------------------------
     00000BB2  A$_snd_manager$136                 _snd_manager
     00000BB3  A$_snd_manager$141                 _snd_manager
     00000BB3  C$_snd_manager.c$20$1$38           _snd_manager
     00000BB3  XG$devkit_PSGPlayNoRepeat$0$0      _snd_manager
     00000BB4  A$_snd_manager$158                 _snd_manager
     00000BB4  C$_snd_manager.c$21$1$38           _snd_manager
     00000BB4  C$_snd_manager.c$23$1$40           _snd_manager
     00000BB4  C$_snd_manager.c$24$1$40           _snd_manager
     00000BB4  G$devkit_PSGStop$0$0               _snd_manager
     00000BB4  XG$devkit_PSGStop$0$0              _snd_manager
     00000BB4  _devkit_PSGStop                    _snd_manager
     00000BB7  A$_snd_manager$175                 _snd_manager
     00000BB7  C$_snd_manager.c$25$1$40           _snd_manager
     00000BB7  C$_snd_manager.c$27$1$42           _snd_manager
     00000BB7  C$_snd_manager.c$28$1$42           _snd_manager
     00000BB7  G$devkit_PSGResume$0$0             _snd_manager
     00000BB7  XG$devkit_PSGResume$0$0            _snd_manager
     00000BB7  _devkit_PSGResume                  _snd_manager
     00000BBA  A$_snd_manager$192                 _snd_manager
     00000BBA  C$_snd_manager.c$29$1$42           _snd_manager
     00000BBA  C$_snd_manager.c$31$1$44           _snd_manager
     00000BBA  C$_snd_manager.c$32$1$44           _snd_manager
     00000BBA  G$devkit_PSGGetStatus$0$0          _snd_manager
     00000BBA  XG$devkit_PSGGetStatus$0$0         _snd_manager
     00000BBA  _devkit_PSGGetStatus               _snd_manager
     00000BBD  A$_snd_manager$205                 _snd_manager
     00000BBD  C$_snd_manager.c$33$1$44           _snd_manager
     00000BBD  C$_snd_manager.c$35$1$46           _snd_manager
     00000BBD  G$devkit_PSGSetMusicVolumeAttenu   _snd_manager
     00000BBD  _devkit_PSGSetMusicVolumeAttenua   _snd_manager
     00000BC0  A$_snd_manager$206                 _snd_manager
     00000BC1  A$_snd_manager$207                 _snd_manager
     00000BC2  A$_snd_manager$208                 _snd_manager
     00000BC3  A$_snd_manager$209                 _snd_manager
     00000BC4  A$_snd_manager$210                 _snd_manager
     00000BC7  A$_snd_manager$211                 _snd_manager
     00000BC8  A$_snd_manager$216                 _snd_manager
     00000BC8  C$_snd_manager.c$36$1$46           _snd_manager
     00000BC8  XG$devkit_PSGSetMusicVolumeAtten   _snd_manager
     00000BC9  A$_snd_manager$229                 _snd_manager
     00000BC9  C$_snd_manager.c$38$1$46           _snd_manager
     00000BC9  C$_snd_manager.c$40$1$48           _snd_manager
     00000BC9  G$devkit_PSGSFXPlay$0$0            _snd_manager
     00000BC9  _devkit_PSGSFXPlay                 _snd_manager
     00000BCC  A$_snd_manager$230                 _snd_manager
     00000BCD  A$_snd_manager$231                 _snd_manager
     00000BCE  A$_snd_manager$232                 _snd_manager
     00000BCF  A$_snd_manager$233                 _snd_manager
     00000BD0  A$_snd_manager$234                 _snd_manager
     00000BD3  A$_snd_manager$235                 _snd_manager
     00000BD4  A$_snd_manager$236                 _snd_manager
ASxxxx Linker V03.00 + NoICE + sdld,  page 23.
Hexadecimal  [32-Bits]

Area                                    Addr        Size        Decimal Bytes (Attributes)
--------------------------------        ----        ----        ------- ----- ------------
_CODE                               00000200    00003D26 =       15654. bytes (REL,CON)

      Value  Global                              Global Defined In Module
      -----  --------------------------------   ------------------------
     00000BD5  A$_snd_manager$237                 _snd_manager
     00000BD6  A$_snd_manager$238                 _snd_manager
     00000BD7  A$_snd_manager$239                 _snd_manager
     00000BD8  A$_snd_manager$240                 _snd_manager
     00000BDB  A$_snd_manager$241                 _snd_manager
     00000BDC  A$_snd_manager$242                 _snd_manager
     00000BDD  A$_snd_manager$247                 _snd_manager
     00000BDD  C$_snd_manager.c$41$1$48           _snd_manager
     00000BDD  XG$devkit_PSGSFXPlay$0$0           _snd_manager
     00000BDE  A$_snd_manager$260                 _snd_manager
     00000BDE  C$_snd_manager.c$42$1$48           _snd_manager
     00000BDE  C$_snd_manager.c$44$1$50           _snd_manager
     00000BDE  G$devkit_PSGSFXPlayLoop$0$0        _snd_manager
     00000BDE  _devkit_PSGSFXPlayLoop             _snd_manager
     00000BE1  A$_snd_manager$261                 _snd_manager
     00000BE2  A$_snd_manager$262                 _snd_manager
     00000BE3  A$_snd_manager$263                 _snd_manager
     00000BE4  A$_snd_manager$264                 _snd_manager
     00000BE5  A$_snd_manager$265                 _snd_manager
     00000BE8  A$_snd_manager$266                 _snd_manager
     00000BE9  A$_snd_manager$267                 _snd_manager
     00000BEA  A$_snd_manager$268                 _snd_manager
     00000BEB  A$_snd_manager$269                 _snd_manager
     00000BEC  A$_snd_manager$270                 _snd_manager
     00000BED  A$_snd_manager$271                 _snd_manager
     00000BF0  A$_snd_manager$272                 _snd_manager
     00000BF1  A$_snd_manager$273                 _snd_manager
     00000BF2  A$_snd_manager$278                 _snd_manager
     00000BF2  C$_snd_manager.c$45$1$50           _snd_manager
     00000BF2  XG$devkit_PSGSFXPlayLoop$0$0       _snd_manager
     00000BF3  A$_snd_manager$295                 _snd_manager
     00000BF3  C$_snd_manager.c$46$1$50           _snd_manager
     00000BF3  C$_snd_manager.c$48$1$52           _snd_manager
     00000BF3  C$_snd_manager.c$49$1$52           _snd_manager
     00000BF3  G$devkit_PSGSFXCancelLoop$0$0      _snd_manager
     00000BF3  XG$devkit_PSGSFXCancelLoop$0$0     _snd_manager
     00000BF3  _devkit_PSGSFXCancelLoop           _snd_manager
     00000BF6  A$_snd_manager$312                 _snd_manager
     00000BF6  C$_snd_manager.c$50$1$52           _snd_manager
     00000BF6  C$_snd_manager.c$52$1$54           _snd_manager
     00000BF6  C$_snd_manager.c$53$1$54           _snd_manager
     00000BF6  G$devkit_PSGSFXStop$0$0            _snd_manager
     00000BF6  XG$devkit_PSGSFXStop$0$0           _snd_manager
     00000BF6  _devkit_PSGSFXStop                 _snd_manager
     00000BF9  A$_snd_manager$329                 _snd_manager
     00000BF9  C$_snd_manager.c$54$1$54           _snd_manager
     00000BF9  C$_snd_manager.c$56$1$56           _snd_manager
     00000BF9  C$_snd_manager.c$57$1$56           _snd_manager
     00000BF9  G$devkit_PSGSFXGetStatus$0$0       _snd_manager
     00000BF9  XG$devkit_PSGSFXGetStatus$0$0      _snd_manager
     00000BF9  _devkit_PSGSFXGetStatus            _snd_manager
ASxxxx Linker V03.00 + NoICE + sdld,  page 24.
Hexadecimal  [32-Bits]

Area                                    Addr        Size        Decimal Bytes (Attributes)
--------------------------------        ----        ----        ------- ----- ------------
_CODE                               00000200    00003D26 =       15654. bytes (REL,CON)

      Value  Global                              Global Defined In Module
      -----  --------------------------------   ------------------------
     00000BFC  A$_snd_manager$346                 _snd_manager
     00000BFC  C$_snd_manager.c$59$1$56           _snd_manager
     00000BFC  C$_snd_manager.c$61$1$58           _snd_manager
     00000BFC  C$_snd_manager.c$62$1$58           _snd_manager
     00000BFC  G$devkit_PSGSilenceChannels$0$0    _snd_manager
     00000BFC  XG$devkit_PSGSilenceChannels$0$0   _snd_manager
     00000BFC  _devkit_PSGSilenceChannels         _snd_manager
     00000BFF  A$_snd_manager$363                 _snd_manager
     00000BFF  C$_snd_manager.c$63$1$58           _snd_manager
     00000BFF  C$_snd_manager.c$65$1$60           _snd_manager
     00000BFF  C$_snd_manager.c$66$1$60           _snd_manager
     00000BFF  G$devkit_PSGRestoreVolumes$0$0     _snd_manager
     00000BFF  XG$devkit_PSGRestoreVolumes$0$0    _snd_manager
     00000BFF  _devkit_PSGRestoreVolumes          _snd_manager
     00000C02  A$_snd_manager$380                 _snd_manager
     00000C02  C$_snd_manager.c$68$1$60           _snd_manager
     00000C02  C$_snd_manager.c$70$1$62           _snd_manager
     00000C02  C$_snd_manager.c$71$1$62           _snd_manager
     00000C02  G$devkit_PSGFrame$0$0              _snd_manager
     00000C02  XG$devkit_PSGFrame$0$0             _snd_manager
     00000C02  _devkit_PSGFrame                   _snd_manager
     00000C05  A$_snd_manager$397                 _snd_manager
     00000C05  C$_snd_manager.c$72$1$62           _snd_manager
     00000C05  C$_snd_manager.c$74$1$64           _snd_manager
     00000C05  C$_snd_manager.c$75$1$64           _snd_manager
     00000C05  G$devkit_PSGSFXFrame$0$0           _snd_manager
     00000C05  XG$devkit_PSGSFXFrame$0$0          _snd_manager
     00000C05  _devkit_PSGSFXFrame                _snd_manager
     00000C08  A$_snd_manager$410                 _snd_manager
     00000C08  C$_snd_manager.c$78$1$64           _snd_manager
     00000C08  C$_snd_manager.c$80$1$65           _snd_manager
     00000C08  G$devkit_SFX_CHANNEL2$0$0          _snd_manager
     00000C08  _devkit_SFX_CHANNEL2               _snd_manager
     00000C0A  A$_snd_manager$415                 _snd_manager
     00000C0A  C$_snd_manager.c$81$1$65           _snd_manager
     00000C0A  XG$devkit_SFX_CHANNEL2$0$0         _snd_manager
     00000C0B  A$_snd_manager$428                 _snd_manager
     00000C0B  C$_snd_manager.c$82$1$65           _snd_manager
     00000C0B  C$_snd_manager.c$84$1$66           _snd_manager
     00000C0B  G$devkit_SFX_CHANNEL3$0$0          _snd_manager
     00000C0B  _devkit_SFX_CHANNEL3               _snd_manager
     00000C0D  A$_snd_manager$433                 _snd_manager
     00000C0D  C$_snd_manager.c$85$1$66           _snd_manager
     00000C0D  XG$devkit_SFX_CHANNEL3$0$0         _snd_manager
     00000C0E  A$_snd_manager$446                 _snd_manager
     00000C0E  C$_snd_manager.c$86$1$66           _snd_manager
     00000C0E  C$_snd_manager.c$88$1$67           _snd_manager
     00000C0E  G$devkit_SFX_CHANNELS2AND3$0$0     _snd_manager
     00000C0E  _devkit_SFX_CHANNELS2AND3          _snd_manager
     00000C10  A$_snd_manager$451                 _snd_manager
     00000C10  C$_snd_manager.c$89$1$67           _snd_manager
ASxxxx Linker V03.00 + NoICE + sdld,  page 25.
Hexadecimal  [32-Bits]

Area                                    Addr        Size        Decimal Bytes (Attributes)
--------------------------------        ----        ----        ------- ----- ------------
_CODE                               00000200    00003D26 =       15654. bytes (REL,CON)

      Value  Global                              Global Defined In Module
      -----  --------------------------------   ------------------------
     00000C10  XG$devkit_SFX_CHANNELS2AND3$0$0    _snd_manager
     00000C11  A$asm_manager$59                   asm_manager
     00000C11  C$asm_manager.c$11$0$0             asm_manager
     00000C11  C$asm_manager.c$30$1$1             asm_manager
     00000C11  G$engine_asm_manager_clear_VRAM$   asm_manager
     00000C11  _engine_asm_manager_clear_VRAM     asm_manager
     00000C13  A$asm_manager$60                   asm_manager
     00000C15  A$asm_manager$61                   asm_manager
     00000C17  A$asm_manager$62                   asm_manager
     00000C19  A$asm_manager$63                   asm_manager
     00000C1C  A$asm_manager$65                   asm_manager
     00000C1E  A$asm_manager$66                   asm_manager
     00000C20  A$asm_manager$67                   asm_manager
     00000C21  A$asm_manager$68                   asm_manager
     00000C22  A$asm_manager$69                   asm_manager
     00000C23  A$asm_manager$70                   asm_manager
     00000C26  A$asm_manager$75                   asm_manager
     00000C26  C$asm_manager.c$33$1$1             asm_manager
     00000C26  XG$engine_asm_manager_clear_VRAM   asm_manager
     00000C27  A$content_manager$61               content_manager
     00000C27  C$content_manager.c$10$0$0         content_manager
     00000C27  C$content_manager.c$13$1$18        content_manager
     00000C27  G$engine_content_manager_load_ti   content_manager
     00000C27  _engine_content_manager_load_til   content_manager
     00000C2A  A$content_manager$62               content_manager
     00000C2B  A$content_manager$63               content_manager
     00000C2E  A$content_manager$64               content_manager
     00000C2F  A$content_manager$65               content_manager
     00000C32  A$content_manager$66               content_manager
     00000C33  A$content_manager$67               content_manager
     00000C34  A$content_manager$71               content_manager
     00000C34  C$content_manager.c$14$1$18        content_manager
     00000C37  A$content_manager$72               content_manager
     00000C38  A$content_manager$73               content_manager
     00000C3B  A$content_manager$77               content_manager
     00000C3B  C$content_manager.c$17$1$18        content_manager
     00000C3E  A$content_manager$78               content_manager
     00000C3F  A$content_manager$79               content_manager
     00000C42  A$content_manager$80               content_manager
     00000C43  A$content_manager$81               content_manager
     00000C46  A$content_manager$82               content_manager
     00000C47  A$content_manager$83               content_manager
     00000C48  A$content_manager$87               content_manager
     00000C48  C$content_manager.c$18$1$18        content_manager
     00000C4B  A$content_manager$88               content_manager
     00000C4C  A$content_manager$89               content_manager
     00000C4F  A$content_manager$90               content_manager
     00000C50  A$content_manager$95               content_manager
     00000C50  C$content_manager.c$19$1$18        content_manager
     00000C50  XG$engine_content_manager_load_t   content_manager
     00000C51  A$content_manager$108              content_manager
ASxxxx Linker V03.00 + NoICE + sdld,  page 26.
Hexadecimal  [32-Bits]

Area                                    Addr        Size        Decimal Bytes (Attributes)
--------------------------------        ----        ----        ------- ----- ------------
_CODE                               00000200    00003D26 =       15654. bytes (REL,CON)

      Value  Global                              Global Defined In Module
      -----  --------------------------------   ------------------------
     00000C51  C$content_manager.c$21$1$18        content_manager
     00000C51  C$content_manager.c$24$1$19        content_manager
     00000C51  G$engine_content_manager_load_sp   content_manager
     00000C51  _engine_content_manager_load_spr   content_manager
     00000C54  A$content_manager$109              content_manager
     00000C55  A$content_manager$110              content_manager
     00000C58  A$content_manager$111              content_manager
     00000C59  A$content_manager$112              content_manager
     00000C5C  A$content_manager$113              content_manager
     00000C5D  A$content_manager$114              content_manager
     00000C5E  A$content_manager$118              content_manager
     00000C5E  C$content_manager.c$25$1$19        content_manager
     00000C61  A$content_manager$119              content_manager
     00000C62  A$content_manager$120              content_manager
     00000C65  A$content_manager$121              content_manager
     00000C66  A$content_manager$126              content_manager
     00000C66  C$content_manager.c$26$1$19        content_manager
     00000C66  XG$engine_content_manager_load_s   content_manager
     00000C67  A$content_manager$139              content_manager
     00000C67  C$content_manager.c$28$1$19        content_manager
     00000C67  C$content_manager.c$30$1$20        content_manager
     00000C67  G$engine_content_manager_load_sp   content_manager
     00000C67  _engine_content_manager_load_spl   content_manager
     00000C6A  A$content_manager$140              content_manager
     00000C6B  A$content_manager$141              content_manager
     00000C6E  A$content_manager$142              content_manager
     00000C6F  A$content_manager$143              content_manager
     00000C72  A$content_manager$144              content_manager
     00000C73  A$content_manager$145              content_manager
     00000C74  A$content_manager$149              content_manager
     00000C74  C$content_manager.c$31$1$20        content_manager
     00000C77  A$content_manager$150              content_manager
     00000C78  A$content_manager$151              content_manager
     00000C7B  A$content_manager$152              content_manager
     00000C7C  A$content_manager$153              content_manager
     00000C7F  A$content_manager$154              content_manager
     00000C80  A$content_manager$155              content_manager
     00000C81  A$content_manager$159              content_manager
     00000C81  C$content_manager.c$32$1$20        content_manager
     00000C84  A$content_manager$160              content_manager
     00000C85  A$content_manager$161              content_manager
     00000C88  A$content_manager$162              content_manager
     00000C89  A$content_manager$167              content_manager
     00000C89  C$content_manager.c$33$1$20        content_manager
     00000C89  XG$engine_content_manager_load_s   content_manager
     00000C8A  A$enemy_manager$69                 enemy_manager
     00000C8A  C$enemy_manager.c$16$0$0           enemy_manager
     00000C8A  C$enemy_manager.c$18$1$6           enemy_manager
     00000C8A  C$enemy_manager.c$19$1$6           enemy_manager
     00000C8A  G$engine_enemy_manager_load$0$0    enemy_manager
     00000C8A  _engine_enemy_manager_load         enemy_manager
ASxxxx Linker V03.00 + NoICE + sdld,  page 27.
Hexadecimal  [32-Bits]

Area                                    Addr        Size        Decimal Bytes (Attributes)
--------------------------------        ----        ----        ------- ----- ------------
_CODE                               00000200    00003D26 =       15654. bytes (REL,CON)

      Value  Global                              Global Defined In Module
      -----  --------------------------------   ------------------------
     00000C8D  A$enemy_manager$70                 enemy_manager
     00000C8E  A$enemy_manager$74                 enemy_manager
     00000C8E  C$enemy_manager.c$22$1$6           enemy_manager
     00000C8F  A$enemy_manager$75                 enemy_manager
     00000C92  A$enemy_manager$76                 enemy_manager
     00000C93  A$enemy_manager$77                 enemy_manager
     00000C94  A$enemy_manager$78                 enemy_manager
     00000C95  A$enemy_manager$79                 enemy_manager
     00000C98  A$enemy_manager$80                 enemy_manager
     00000C99  A$enemy_manager$81                 enemy_manager
     00000C9A  A$enemy_manager$82                 enemy_manager
     00000C9B  A$enemy_manager$83                 enemy_manager
     00000C9C  A$enemy_manager$84                 enemy_manager
     00000C9F  A$enemy_manager$85                 enemy_manager
     00000CA2  A$enemy_manager$86                 enemy_manager
     00000CA3  A$enemy_manager$87                 enemy_manager
     00000CA4  A$enemy_manager$88                 enemy_manager
     00000CA5  A$enemy_manager$92                 enemy_manager
     00000CA5  C$enemy_manager.c$23$1$6           enemy_manager
     00000CA6  A$enemy_manager$93                 enemy_manager
     00000CA9  A$enemy_manager$94                 enemy_manager
     00000CAA  A$enemy_manager$95                 enemy_manager
     00000CAB  A$enemy_manager$96                 enemy_manager
     00000CAC  A$enemy_manager$97                 enemy_manager
     00000CAF  A$enemy_manager$98                 enemy_manager
     00000CB0  A$enemy_manager$99                 enemy_manager
     00000CB2  A$enemy_manager$100                enemy_manager
     00000CB3  A$enemy_manager$101                enemy_manager
     00000CB4  A$enemy_manager$102                enemy_manager
     00000CB7  A$enemy_manager$103                enemy_manager
     00000CBA  A$enemy_manager$104                enemy_manager
     00000CBB  A$enemy_manager$105                enemy_manager
     00000CBC  A$enemy_manager$106                enemy_manager
     00000CBD  A$enemy_manager$110                enemy_manager
     00000CBD  C$enemy_manager.c$24$1$6           enemy_manager
     00000CC0  A$enemy_manager$111                enemy_manager
     00000CC1  A$enemy_manager$112                enemy_manager
     00000CC2  A$enemy_manager$113                enemy_manager
     00000CC3  A$enemy_manager$114                enemy_manager
     00000CC6  A$enemy_manager$115                enemy_manager
     00000CC7  A$enemy_manager$116                enemy_manager
     00000CC9  A$enemy_manager$117                enemy_manager
     00000CCA  A$enemy_manager$118                enemy_manager
     00000CCB  A$enemy_manager$119                enemy_manager
     00000CCE  A$enemy_manager$120                enemy_manager
     00000CD1  A$enemy_manager$121                enemy_manager
     00000CD2  A$enemy_manager$122                enemy_manager
     00000CD3  A$enemy_manager$126                enemy_manager
     00000CD5  A$enemy_manager$131                enemy_manager
     00000CD5  C$enemy_manager.c$28$3$8           enemy_manager
     00000CD6  A$enemy_manager$132                enemy_manager
ASxxxx Linker V03.00 + NoICE + sdld,  page 28.
Hexadecimal  [32-Bits]

Area                                    Addr        Size        Decimal Bytes (Attributes)
--------------------------------        ----        ----        ------- ----- ------------
_CODE                               00000200    00003D26 =       15654. bytes (REL,CON)

      Value  Global                              Global Defined In Module
      -----  --------------------------------   ------------------------
     00000CD7  A$enemy_manager$133                enemy_manager
     00000CD8  A$enemy_manager$134                enemy_manager
     00000CDB  A$enemy_manager$135                enemy_manager
     00000CDC  A$enemy_manager$136                enemy_manager
     00000CDD  A$enemy_manager$140                enemy_manager
     00000CDD  C$enemy_manager.c$26$2$7           enemy_manager
     00000CDE  A$enemy_manager$141                enemy_manager
     00000CDF  A$enemy_manager$142                enemy_manager
     00000CE1  A$enemy_manager$143                enemy_manager
     00000CE3  A$enemy_manager$148                enemy_manager
     00000CE3  C$enemy_manager.c$30$2$7           enemy_manager
     00000CE3  XG$engine_enemy_manager_load$0$0   enemy_manager
     00000CE4  A$enemy_manager$161                enemy_manager
     00000CE4  C$enemy_manager.c$32$2$7           enemy_manager
     00000CE4  C$enemy_manager.c$34$1$9           enemy_manager
     00000CE4  G$engine_enemy_manager_toggle_co   enemy_manager
     00000CE4  _engine_enemy_manager_toggle_col   enemy_manager
     00000CE7  A$enemy_manager$165                enemy_manager
     00000CE7  C$enemy_manager.c$35$1$9           enemy_manager
     00000CE8  A$enemy_manager$166                enemy_manager
     00000CE9  A$enemy_manager$167                enemy_manager
     00000CEB  A$enemy_manager$171                enemy_manager
     00000CEB  C$enemy_manager.c$37$2$10          enemy_manager
     00000CEC  A$enemy_manager$172                enemy_manager
     00000CED  A$enemy_manager$173                enemy_manager
     00000CEE  A$enemy_manager$174                enemy_manager
     00000CF1  A$enemy_manager$175                enemy_manager
     00000CF2  A$enemy_manager$180                enemy_manager
     00000CF2  C$enemy_manager.c$39$1$9           enemy_manager
     00000CF5  A$enemy_manager$184                enemy_manager
     00000CF5  C$enemy_manager.c$40$1$9           enemy_manager
     00000CF6  A$enemy_manager$185                enemy_manager
     00000CF7  A$enemy_manager$186                enemy_manager
     00000CF9  A$enemy_manager$190                enemy_manager
     00000CF9  C$enemy_manager.c$42$2$11          enemy_manager
     00000CFB  A$enemy_manager$191                enemy_manager
     00000CFC  A$enemy_manager$192                enemy_manager
     00000CFD  A$enemy_manager$193                enemy_manager
     00000D00  A$enemy_manager$194                enemy_manager
     00000D01  A$enemy_manager$199                enemy_manager
     00000D01  C$enemy_manager.c$44$1$9           enemy_manager
     00000D04  A$enemy_manager$203                enemy_manager
     00000D04  C$enemy_manager.c$45$1$9           enemy_manager
     00000D05  A$enemy_manager$204                enemy_manager
     00000D06  A$enemy_manager$205                enemy_manager
     00000D07  A$enemy_manager$209                enemy_manager
     00000D07  C$enemy_manager.c$47$2$12          enemy_manager
     00000D09  A$enemy_manager$210                enemy_manager
     00000D0A  A$enemy_manager$211                enemy_manager
     00000D0B  A$enemy_manager$212                enemy_manager
     00000D0E  A$enemy_manager$213                enemy_manager
ASxxxx Linker V03.00 + NoICE + sdld,  page 29.
Hexadecimal  [32-Bits]

Area                                    Addr        Size        Decimal Bytes (Attributes)
--------------------------------        ----        ----        ------- ----- ------------
_CODE                               00000200    00003D26 =       15654. bytes (REL,CON)

      Value  Global                              Global Defined In Module
      -----  --------------------------------   ------------------------
     00000D0F  A$enemy_manager$218                enemy_manager
     00000D0F  C$enemy_manager.c$49$1$9           enemy_manager
     00000D0F  XG$engine_enemy_manager_toggle_c   enemy_manager
     00000D10  A$enemy_manager$228                enemy_manager
     00000D10  C$enemy_manager.c$51$1$9           enemy_manager
     00000D10  G$engine_enemy_manager_toggle_fr   enemy_manager
     00000D10  _engine_enemy_manager_toggle_fra   enemy_manager
     00000D12  A$enemy_manager$229                enemy_manager
     00000D16  A$enemy_manager$230                enemy_manager
     00000D18  A$enemy_manager$231                enemy_manager
     00000D19  A$enemy_manager$238                enemy_manager
     00000D19  C$enemy_manager.c$53$1$13          enemy_manager
     00000D19  C$enemy_manager.c$57$1$13          enemy_manager
     00000D1C  A$enemy_manager$239                enemy_manager
     00000D1D  A$enemy_manager$246                enemy_manager
     00000D1D  C$enemy_manager.c$59$2$14          enemy_manager
     00000D1F  A$enemy_manager$247                enemy_manager
     00000D21  A$enemy_manager$252                enemy_manager
     00000D21  C$enemy_manager.c$64$3$16          enemy_manager
     00000D22  A$enemy_manager$253                enemy_manager
     00000D24  A$enemy_manager$254                enemy_manager
     00000D25  A$enemy_manager$255                enemy_manager
     00000D26  A$enemy_manager$256                enemy_manager
     00000D27  A$enemy_manager$257                enemy_manager
     00000D28  A$enemy_manager$258                enemy_manager
     00000D29  A$enemy_manager$259                enemy_manager
     00000D2A  A$enemy_manager$260                enemy_manager
     00000D2B  A$enemy_manager$261                enemy_manager
     00000D2E  A$enemy_manager$262                enemy_manager
     00000D2F  A$enemy_manager$263                enemy_manager
     00000D30  A$enemy_manager$264                enemy_manager
     00000D31  A$enemy_manager$265                enemy_manager
     00000D32  A$enemy_manager$269                enemy_manager
     00000D32  C$enemy_manager.c$65$3$16          enemy_manager
     00000D35  A$enemy_manager$270                enemy_manager
     00000D37  A$enemy_manager$271                enemy_manager
     00000D38  A$enemy_manager$272                enemy_manager
     00000D3B  A$enemy_manager$273                enemy_manager
     00000D3D  A$enemy_manager$274                enemy_manager
     00000D3E  A$enemy_manager$275                enemy_manager
     00000D3F  A$enemy_manager$276                enemy_manager
     00000D40  A$enemy_manager$277                enemy_manager
     00000D41  A$enemy_manager$278                enemy_manager
     00000D42  A$enemy_manager$279                enemy_manager
     00000D43  A$enemy_manager$283                enemy_manager
     00000D43  C$enemy_manager.c$67$3$16          enemy_manager
     00000D44  A$enemy_manager$284                enemy_manager
     00000D45  A$enemy_manager$285                enemy_manager
     00000D46  A$enemy_manager$286                enemy_manager
     00000D47  A$enemy_manager$287                enemy_manager
     00000D48  A$enemy_manager$288                enemy_manager
ASxxxx Linker V03.00 + NoICE + sdld,  page 30.
Hexadecimal  [32-Bits]

Area                                    Addr        Size        Decimal Bytes (Attributes)
--------------------------------        ----        ----        ------- ----- ------------
_CODE                               00000200    00003D26 =       15654. bytes (REL,CON)

      Value  Global                              Global Defined In Module
      -----  --------------------------------   ------------------------
     00000D49  A$enemy_manager$289                enemy_manager
     00000D4A  A$enemy_manager$290                enemy_manager
     00000D4B  A$enemy_manager$291                enemy_manager
     00000D4C  A$enemy_manager$292                enemy_manager
     00000D4E  A$enemy_manager$296                enemy_manager
     00000D4E  C$enemy_manager.c$69$4$17          enemy_manager
     00000D4F  A$enemy_manager$297                enemy_manager
     00000D50  A$enemy_manager$301                enemy_manager
     00000D50  C$enemy_manager.c$70$4$17          enemy_manager
     00000D51  A$enemy_manager$302                enemy_manager
     00000D52  A$enemy_manager$303                enemy_manager
     00000D53  A$enemy_manager$304                enemy_manager
     00000D56  A$enemy_manager$305                enemy_manager
     00000D57  A$enemy_manager$306                enemy_manager
     00000D58  A$enemy_manager$311                enemy_manager
     00000D58  C$enemy_manager.c$62$2$15          enemy_manager
     00000D59  A$enemy_manager$312                enemy_manager
     00000D5A  A$enemy_manager$313                enemy_manager
     00000D5C  A$enemy_manager$314                enemy_manager
     00000D5E  A$enemy_manager$316                enemy_manager
     00000D60  A$enemy_manager$317                enemy_manager
     00000D62  A$enemy_manager$322                enemy_manager
     00000D62  C$enemy_manager.c$73$2$15          enemy_manager
     00000D62  XG$engine_enemy_manager_toggle_f   enemy_manager
     00000D63  A$enemy_manager$335                enemy_manager
     00000D63  C$enemy_manager.c$75$2$15          enemy_manager
     00000D63  C$enemy_manager.c$80$3$20          enemy_manager
     00000D63  G$engine_enemy_manager_draw$0$0    enemy_manager
     00000D63  _engine_enemy_manager_draw         enemy_manager
     00000D65  A$enemy_manager$340                enemy_manager
     00000D65  C$enemy_manager.c$82$3$20          enemy_manager
     00000D67  A$enemy_manager$341                enemy_manager
     00000D68  A$enemy_manager$342                enemy_manager
     00000D69  A$enemy_manager$343                enemy_manager
     00000D6A  A$enemy_manager$344                enemy_manager
     00000D6B  A$enemy_manager$345                enemy_manager
     00000D6C  A$enemy_manager$346                enemy_manager
     00000D6D  A$enemy_manager$347                enemy_manager
     00000D6E  A$enemy_manager$348                enemy_manager
     00000D71  A$enemy_manager$349                enemy_manager
     00000D72  A$enemy_manager$350                enemy_manager
     00000D73  A$enemy_manager$354                enemy_manager
     00000D73  C$enemy_manager.c$83$3$20          enemy_manager
     00000D74  A$enemy_manager$355                enemy_manager
     00000D76  A$enemy_manager$356                enemy_manager
     00000D79  A$enemy_manager$357                enemy_manager
     00000D7A  A$enemy_manager$358                enemy_manager
     00000D7B  A$enemy_manager$359                enemy_manager
     00000D7C  A$enemy_manager$360                enemy_manager
     00000D7D  A$enemy_manager$361                enemy_manager
     00000D7E  A$enemy_manager$362                enemy_manager
ASxxxx Linker V03.00 + NoICE + sdld,  page 31.
Hexadecimal  [32-Bits]

Area                                    Addr        Size        Decimal Bytes (Attributes)
--------------------------------        ----        ----        ------- ----- ------------
_CODE                               00000200    00003D26 =       15654. bytes (REL,CON)

      Value  Global                              Global Defined In Module
      -----  --------------------------------   ------------------------
     00000D7F  A$enemy_manager$363                enemy_manager
     00000D80  A$enemy_manager$364                enemy_manager
     00000D81  A$enemy_manager$365                enemy_manager
     00000D82  A$enemy_manager$366                enemy_manager
     00000D83  A$enemy_manager$367                enemy_manager
     00000D84  A$enemy_manager$368                enemy_manager
     00000D85  A$enemy_manager$369                enemy_manager
     00000D86  A$enemy_manager$370                enemy_manager
     00000D87  A$enemy_manager$371                enemy_manager
     00000D88  A$enemy_manager$372                enemy_manager
     00000D89  A$enemy_manager$373                enemy_manager
     00000D8C  A$enemy_manager$374                enemy_manager
     00000D8D  A$enemy_manager$375                enemy_manager
     00000D8E  A$enemy_manager$376                enemy_manager
     00000D8F  A$enemy_manager$380                enemy_manager
     00000D8F  C$enemy_manager.c$80$2$19          enemy_manager
     00000D90  A$enemy_manager$381                enemy_manager
     00000D91  A$enemy_manager$382                enemy_manager
     00000D93  A$enemy_manager$383                enemy_manager
     00000D95  A$enemy_manager$388                enemy_manager
     00000D95  C$enemy_manager.c$85$2$19          enemy_manager
     00000D95  XG$engine_enemy_manager_draw$0$0   enemy_manager
     00000D96  A$enemy_manager$398                enemy_manager
     00000D96  C$enemy_manager.c$87$2$19          enemy_manager
     00000D96  Fenemy_manager$construction$0$0    enemy_manager
     00000D98  A$enemy_manager$399                enemy_manager
     00000D9C  A$enemy_manager$400                enemy_manager
     00000D9E  A$enemy_manager$404                enemy_manager
     00000D9E  C$enemy_manager.c$89$1$22          enemy_manager
     00000DA1  A$enemy_manager$405                enemy_manager
     00000DA4  A$enemy_manager$406                enemy_manager
     00000DA6  A$enemy_manager$407                enemy_manager
     00000DA7  A$enemy_manager$408                enemy_manager
     00000DA8  A$enemy_manager$409                enemy_manager
     00000DA9  A$enemy_manager$410                enemy_manager
     00000DAA  A$enemy_manager$411                enemy_manager
     00000DAB  A$enemy_manager$412                enemy_manager
     00000DAC  A$enemy_manager$413                enemy_manager
     00000DAD  A$enemy_manager$414                enemy_manager
     00000DAE  A$enemy_manager$415                enemy_manager
     00000DAF  A$enemy_manager$416                enemy_manager
     00000DB0  A$enemy_manager$420                enemy_manager
     00000DB0  C$enemy_manager.c$91$1$22          enemy_manager
     00000DB3  A$enemy_manager$421                enemy_manager
     00000DB4  A$enemy_manager$425                enemy_manager
     00000DB4  C$enemy_manager.c$92$1$22          enemy_manager
     00000DB5  A$enemy_manager$426                enemy_manager
     00000DB6  A$enemy_manager$427                enemy_manager
     00000DB7  A$enemy_manager$428                enemy_manager
     00000DBA  A$enemy_manager$429                enemy_manager
     00000DBB  A$enemy_manager$433                enemy_manager
ASxxxx Linker V03.00 + NoICE + sdld,  page 32.
Hexadecimal  [32-Bits]

Area                                    Addr        Size        Decimal Bytes (Attributes)
--------------------------------        ----        ----        ------- ----- ------------
_CODE                               00000200    00003D26 =       15654. bytes (REL,CON)

      Value  Global                              Global Defined In Module
      -----  --------------------------------   ------------------------
     00000DBB  C$enemy_manager.c$93$1$22          enemy_manager
     00000DBC  A$enemy_manager$434                enemy_manager
     00000DBD  A$enemy_manager$435                enemy_manager
     00000DBE  A$enemy_manager$436                enemy_manager
     00000DBF  A$enemy_manager$437                enemy_manager
     00000DC2  A$enemy_manager$438                enemy_manager
     00000DC3  A$enemy_manager$442                enemy_manager
     00000DC3  C$enemy_manager.c$94$1$22          enemy_manager
     00000DC4  A$enemy_manager$443                enemy_manager
     00000DC5  A$enemy_manager$444                enemy_manager
     00000DC6  A$enemy_manager$445                enemy_manager
     00000DC7  A$enemy_manager$446                enemy_manager
     00000DC8  A$enemy_manager$447                enemy_manager
     00000DC9  A$enemy_manager$448                enemy_manager
     00000DCA  A$enemy_manager$452                enemy_manager
     00000DCA  C$enemy_manager.c$95$1$22          enemy_manager
     00000DCD  A$enemy_manager$453                enemy_manager
     00000DCE  A$enemy_manager$454                enemy_manager
     00000DD0  A$enemy_manager$458                enemy_manager
     00000DD0  C$enemy_manager.c$96$1$22          enemy_manager
     00000DD3  A$enemy_manager$459                enemy_manager
     00000DD4  A$enemy_manager$460                enemy_manager
     00000DD7  A$enemy_manager$461                enemy_manager
     00000DD8  A$enemy_manager$465                enemy_manager
     00000DD8  C$enemy_manager.c$97$1$22          enemy_manager
     00000DDB  A$enemy_manager$466                enemy_manager
     00000DDC  A$enemy_manager$467                enemy_manager
     00000DDE  A$enemy_manager$471                enemy_manager
     00000DDE  C$enemy_manager.c$98$1$22          enemy_manager
     00000DE1  A$enemy_manager$472                enemy_manager
     00000DE2  A$enemy_manager$473                enemy_manager
     00000DE5  A$enemy_manager$474                enemy_manager
     00000DE7  A$enemy_manager$475                enemy_manager
     00000DE8  A$enemy_manager$476                enemy_manager
     00000DEB  A$enemy_manager$477                enemy_manager
     00000DED  A$enemy_manager$478                enemy_manager
     00000DEE  A$enemy_manager$479                enemy_manager
     00000DEF  A$enemy_manager$480                enemy_manager
     00000DF0  A$enemy_manager$481                enemy_manager
     00000DF1  A$enemy_manager$482                enemy_manager
     00000DF3  A$enemy_manager$487                enemy_manager
     00000DF3  C$enemy_manager.c$99$1$22          enemy_manager
     00000DF3  XFenemy_manager$construction$0$0   enemy_manager
     00000DF4  A$enemy_manager$497                enemy_manager
     00000DF4  C$enemy_manager.c$101$1$22         enemy_manager
     00000DF4  Fenemy_manager$toggle_color$0$0    enemy_manager
     00000DF6  A$enemy_manager$498                enemy_manager
     00000DFA  A$enemy_manager$499                enemy_manager
     00000DFC  A$enemy_manager$503                enemy_manager
     00000DFC  C$enemy_manager.c$103$1$24         enemy_manager
     00000DFF  A$enemy_manager$504                enemy_manager
ASxxxx Linker V03.00 + NoICE + sdld,  page 33.
Hexadecimal  [32-Bits]

Area                                    Addr        Size        Decimal Bytes (Attributes)
--------------------------------        ----        ----        ------- ----- ------------
_CODE                               00000200    00003D26 =       15654. bytes (REL,CON)

      Value  Global                              Global Defined In Module
      -----  --------------------------------   ------------------------
     00000E02  A$enemy_manager$505                enemy_manager
     00000E04  A$enemy_manager$506                enemy_manager
     00000E05  A$enemy_manager$507                enemy_manager
     00000E06  A$enemy_manager$508                enemy_manager
     00000E07  A$enemy_manager$509                enemy_manager
     00000E08  A$enemy_manager$510                enemy_manager
     00000E09  A$enemy_manager$511                enemy_manager
     00000E0A  A$enemy_manager$512                enemy_manager
     00000E0B  A$enemy_manager$513                enemy_manager
     00000E0C  A$enemy_manager$517                enemy_manager
     00000E0C  C$enemy_manager.c$104$1$24         enemy_manager
     00000E0D  A$enemy_manager$518                enemy_manager
     00000E0E  A$enemy_manager$519                enemy_manager
     00000E0F  A$enemy_manager$520                enemy_manager
     00000E10  A$enemy_manager$521                enemy_manager
     00000E12  A$enemy_manager$522                enemy_manager
     00000E13  A$enemy_manager$523                enemy_manager
     00000E14  A$enemy_manager$527                enemy_manager
     00000E14  C$enemy_manager.c$105$1$24         enemy_manager
     00000E17  A$enemy_manager$528                enemy_manager
     00000E18  A$enemy_manager$529                enemy_manager
     00000E19  A$enemy_manager$530                enemy_manager
     00000E1C  A$enemy_manager$531                enemy_manager
     00000E1D  A$enemy_manager$532                enemy_manager
     00000E1F  A$enemy_manager$537                enemy_manager
     00000E1F  C$enemy_manager.c$106$1$24         enemy_manager
     00000E1F  XFenemy_manager$toggle_color$0$0   enemy_manager
     00000E20  A$enemy_manager$547                enemy_manager
     00000E20  C$enemy_manager.c$107$1$24         enemy_manager
     00000E20  Fenemy_manager$toggle_frame$0$0    enemy_manager
     00000E22  A$enemy_manager$548                enemy_manager
     00000E26  A$enemy_manager$549                enemy_manager
     00000E28  A$enemy_manager$553                enemy_manager
     00000E28  C$enemy_manager.c$109$1$26         enemy_manager
     00000E2B  A$enemy_manager$554                enemy_manager
     00000E2E  A$enemy_manager$555                enemy_manager
     00000E30  A$enemy_manager$556                enemy_manager
     00000E31  A$enemy_manager$557                enemy_manager
     00000E32  A$enemy_manager$558                enemy_manager
     00000E33  A$enemy_manager$559                enemy_manager
     00000E34  A$enemy_manager$560                enemy_manager
     00000E35  A$enemy_manager$561                enemy_manager
     00000E36  A$enemy_manager$562                enemy_manager
     00000E37  A$enemy_manager$563                enemy_manager
     00000E38  A$enemy_manager$567                enemy_manager
     00000E38  C$enemy_manager.c$110$1$26         enemy_manager
     00000E3B  A$enemy_manager$568                enemy_manager
     00000E3C  A$enemy_manager$569                enemy_manager
     00000E3D  A$enemy_manager$570                enemy_manager
     00000E3F  A$enemy_manager$571                enemy_manager
     00000E40  A$enemy_manager$572                enemy_manager
ASxxxx Linker V03.00 + NoICE + sdld,  page 34.
Hexadecimal  [32-Bits]

Area                                    Addr        Size        Decimal Bytes (Attributes)
--------------------------------        ----        ----        ------- ----- ------------
_CODE                               00000200    00003D26 =       15654. bytes (REL,CON)

      Value  Global                              Global Defined In Module
      -----  --------------------------------   ------------------------
     00000E41  A$enemy_manager$576                enemy_manager
     00000E41  C$enemy_manager.c$111$1$26         enemy_manager
     00000E44  A$enemy_manager$577                enemy_manager
     00000E45  A$enemy_manager$578                enemy_manager
     00000E46  A$enemy_manager$579                enemy_manager
     00000E49  A$enemy_manager$580                enemy_manager
     00000E4A  A$enemy_manager$581                enemy_manager
     00000E4C  A$enemy_manager$586                enemy_manager
     00000E4C  C$enemy_manager.c$112$1$26         enemy_manager
     00000E4C  XFenemy_manager$toggle_frame$0$0   enemy_manager
     00000E4D  A$enemy_manager$596                enemy_manager
     00000E4D  C$enemy_manager.c$113$1$26         enemy_manager
     00000E4D  Fenemy_manager$calculate_tile$0$   enemy_manager
     00000E4F  A$enemy_manager$597                enemy_manager
     00000E53  A$enemy_manager$598                enemy_manager
     00000E55  A$enemy_manager$599                enemy_manager
     00000E56  A$enemy_manager$600                enemy_manager
     00000E57  A$enemy_manager$604                enemy_manager
     00000E57  C$enemy_manager.c$115$1$28         enemy_manager
     00000E5A  A$enemy_manager$605                enemy_manager
     00000E5D  A$enemy_manager$606                enemy_manager
     00000E5F  A$enemy_manager$607                enemy_manager
     00000E60  A$enemy_manager$608                enemy_manager
     00000E61  A$enemy_manager$609                enemy_manager
     00000E62  A$enemy_manager$610                enemy_manager
     00000E63  A$enemy_manager$611                enemy_manager
     00000E64  A$enemy_manager$612                enemy_manager
     00000E65  A$enemy_manager$613                enemy_manager
     00000E66  A$enemy_manager$614                enemy_manager
     00000E67  A$enemy_manager$615                enemy_manager
     00000E68  A$enemy_manager$619                enemy_manager
     00000E68  C$enemy_manager.c$116$1$28         enemy_manager
     00000E6B  A$enemy_manager$620                enemy_manager
     00000E6C  A$enemy_manager$621                enemy_manager
     00000E6F  A$enemy_manager$622                enemy_manager
     00000E72  A$enemy_manager$623                enemy_manager
     00000E73  A$enemy_manager$624                enemy_manager
     00000E74  A$enemy_manager$625                enemy_manager
     00000E77  A$enemy_manager$626                enemy_manager
     00000E78  A$enemy_manager$627                enemy_manager
     00000E79  A$enemy_manager$628                enemy_manager
     00000E7A  A$enemy_manager$629                enemy_manager
     00000E7B  A$enemy_manager$630                enemy_manager
     00000E7C  A$enemy_manager$631                enemy_manager
     00000E7D  A$enemy_manager$632                enemy_manager
     00000E7E  A$enemy_manager$633                enemy_manager
     00000E7F  A$enemy_manager$634                enemy_manager
     00000E80  A$enemy_manager$635                enemy_manager
     00000E81  A$enemy_manager$636                enemy_manager
     00000E83  A$enemy_manager$637                enemy_manager
     00000E84  A$enemy_manager$638                enemy_manager
ASxxxx Linker V03.00 + NoICE + sdld,  page 35.
Hexadecimal  [32-Bits]

Area                                    Addr        Size        Decimal Bytes (Attributes)
--------------------------------        ----        ----        ------- ----- ------------
_CODE                               00000200    00003D26 =       15654. bytes (REL,CON)

      Value  Global                              Global Defined In Module
      -----  --------------------------------   ------------------------
     00000E85  A$enemy_manager$639                enemy_manager
     00000E86  A$enemy_manager$640                enemy_manager
     00000E89  A$enemy_manager$641                enemy_manager
     00000E8A  A$enemy_manager$642                enemy_manager
     00000E8B  A$enemy_manager$643                enemy_manager
     00000E8D  A$enemy_manager$644                enemy_manager
     00000E8E  A$enemy_manager$645                enemy_manager
     00000E8F  A$enemy_manager$646                enemy_manager
     00000E90  A$enemy_manager$647                enemy_manager
     00000E91  A$enemy_manager$648                enemy_manager
     00000E92  A$enemy_manager$649                enemy_manager
     00000E93  A$enemy_manager$650                enemy_manager
     00000E94  A$enemy_manager$651                enemy_manager
     00000E97  A$enemy_manager$652                enemy_manager
     00000E9A  A$enemy_manager$653                enemy_manager
     00000E9B  A$enemy_manager$654                enemy_manager
     00000E9C  A$enemy_manager$655                enemy_manager
     00000E9D  A$enemy_manager$656                enemy_manager
     00000E9F  A$enemy_manager$657                enemy_manager
     00000EA1  A$enemy_manager$662                enemy_manager
     00000EA1  C$enemy_manager.c$117$1$28         enemy_manager
     00000EA1  XFenemy_manager$calculate_tile$0   enemy_manager
     00000EA2  A$font_manager$63                  font_manager
     00000EA2  C$font_manager.c$10$0$0            font_manager
     00000EA2  C$font_manager.c$12$1$0            font_manager
     00000EA2  C$font_manager.c$13$1$23           font_manager
     00000EA2  G$engine_font_manager_draw_char$   font_manager
     00000EA2  _engine_font_manager_draw_char     font_manager
     00000EA5  A$font_manager$64                  font_manager
     00000EA6  A$font_manager$65                  font_manager
     00000EA7  A$font_manager$66                  font_manager
     00000EA9  A$font_manager$67                  font_manager
     00000EAA  A$font_manager$71                  font_manager
     00000EAA  C$font_manager.c$14$1$23           font_manager
     00000EAB  A$font_manager$72                  font_manager
     00000EAE  A$font_manager$73                  font_manager
     00000EAF  A$font_manager$74                  font_manager
     00000EB0  A$font_manager$75                  font_manager
     00000EB1  A$font_manager$76                  font_manager
     00000EB2  A$font_manager$77                  font_manager
     00000EB5  A$font_manager$78                  font_manager
     00000EB6  A$font_manager$79                  font_manager
     00000EB7  A$font_manager$80                  font_manager
     00000EB8  A$font_manager$81                  font_manager
     00000EB9  A$font_manager$82                  font_manager
     00000EBC  A$font_manager$83                  font_manager
     00000EBD  A$font_manager$84                  font_manager
     00000EBE  A$font_manager$88                  font_manager
     00000EBE  C$font_manager.c$15$1$23           font_manager
     00000EC1  A$font_manager$89                  font_manager
     00000EC2  A$font_manager$90                  font_manager
ASxxxx Linker V03.00 + NoICE + sdld,  page 36.
Hexadecimal  [32-Bits]

Area                                    Addr        Size        Decimal Bytes (Attributes)
--------------------------------        ----        ----        ------- ----- ------------
_CODE                               00000200    00003D26 =       15654. bytes (REL,CON)

      Value  Global                              Global Defined In Module
      -----  --------------------------------   ------------------------
     00000EC3  A$font_manager$91                  font_manager
     00000EC4  A$font_manager$92                  font_manager
     00000EC7  A$font_manager$93                  font_manager
     00000EC8  A$font_manager$98                  font_manager
     00000EC8  C$font_manager.c$16$1$23           font_manager
     00000EC8  XG$engine_font_manager_draw_char   font_manager
     00000EC9  A$font_manager$108                 font_manager
     00000EC9  C$font_manager.c$18$1$23           font_manager
     00000EC9  G$engine_font_manager_draw_text$   font_manager
     00000EC9  _engine_font_manager_draw_text     font_manager
     00000ECB  A$font_manager$109                 font_manager
     00000ECF  A$font_manager$110                 font_manager
     00000ED1  A$font_manager$117                 font_manager
     00000ED1  C$font_manager.c$20$1$23           font_manager
     00000ED1  C$font_manager.c$23$1$25           font_manager
     00000ED4  A$font_manager$118                 font_manager
     00000ED6  A$font_manager$120                 font_manager
     00000ED9  A$font_manager$121                 font_manager
     00000EDA  A$font_manager$122                 font_manager
     00000EDB  A$font_manager$123                 font_manager
     00000EDE  A$font_manager$124                 font_manager
     00000EE0  A$font_manager$125                 font_manager
     00000EE1  A$font_manager$126                 font_manager
     00000EE2  A$font_manager$127                 font_manager
     00000EE3  A$font_manager$128                 font_manager
     00000EE5  A$font_manager$132                 font_manager
     00000EE5  C$font_manager.c$25$2$26           font_manager
     00000EE7  A$font_manager$133                 font_manager
     00000EE8  A$font_manager$137                 font_manager
     00000EE8  C$font_manager.c$26$2$26           font_manager
     00000EE9  A$font_manager$138                 font_manager
     00000EEA  A$font_manager$139                 font_manager
     00000EED  A$font_manager$140                 font_manager
     00000EEE  A$font_manager$141                 font_manager
     00000EEF  A$font_manager$142                 font_manager
     00000EF2  A$font_manager$143                 font_manager
     00000EF3  A$font_manager$144                 font_manager
     00000EF4  A$font_manager$145                 font_manager
     00000EF5  A$font_manager$146                 font_manager
     00000EF6  A$font_manager$147                 font_manager
     00000EF9  A$font_manager$148                 font_manager
     00000EFA  A$font_manager$149                 font_manager
     00000EFB  A$font_manager$150                 font_manager
     00000EFC  A$font_manager$154                 font_manager
     00000EFC  C$font_manager.c$27$2$26           font_manager
     00000EFF  A$font_manager$155                 font_manager
     00000F00  A$font_manager$156                 font_manager
     00000F01  A$font_manager$157                 font_manager
     00000F02  A$font_manager$158                 font_manager
     00000F03  A$font_manager$159                 font_manager
     00000F06  A$font_manager$160                 font_manager
ASxxxx Linker V03.00 + NoICE + sdld,  page 37.
Hexadecimal  [32-Bits]

Area                                    Addr        Size        Decimal Bytes (Attributes)
--------------------------------        ----        ----        ------- ----- ------------
_CODE                               00000200    00003D26 =       15654. bytes (REL,CON)

      Value  Global                              Global Defined In Module
      -----  --------------------------------   ------------------------
     00000F07  A$font_manager$161                 font_manager
     00000F08  A$font_manager$165                 font_manager
     00000F08  C$font_manager.c$28$2$26           font_manager
     00000F09  A$font_manager$166                 font_manager
     00000F0B  A$font_manager$168                 font_manager
     00000F0D  A$font_manager$173                 font_manager
     00000F0D  C$font_manager.c$30$1$25           font_manager
     00000F0D  XG$engine_font_manager_draw_text   font_manager
     00000F0E  A$font_manager$183                 font_manager
     00000F0E  C$font_manager.c$32$1$25           font_manager
     00000F0E  G$engine_font_manager_draw_data$   font_manager
     00000F0E  _engine_font_manager_draw_data     font_manager
     00000F10  A$font_manager$184                 font_manager
     00000F14  A$font_manager$185                 font_manager
     00000F16  A$font_manager$186                 font_manager
     00000F19  A$font_manager$187                 font_manager
     00000F1A  A$font_manager$188                 font_manager
     00000F1B  A$font_manager$195                 font_manager
     00000F1B  C$font_manager.c$34$1$25           font_manager
     00000F1B  C$font_manager.c$43$3$30           font_manager
     00000F1E  A$font_manager$196                 font_manager
     00000F1F  A$font_manager$197                 font_manager
     00000F22  A$font_manager$198                 font_manager
     00000F25  A$font_manager$199                 font_manager
     00000F28  A$font_manager$200                 font_manager
     00000F2B  A$font_manager$201                 font_manager
     00000F2F  A$font_manager$206                 font_manager
     00000F2F  C$font_manager.c$45$2$29           font_manager
     00000F32  A$font_manager$207                 font_manager
     00000F33  A$font_manager$208                 font_manager
     00000F36  A$font_manager$209                 font_manager
     00000F39  A$font_manager$210                 font_manager
     00000F3A  A$font_manager$211                 font_manager
     00000F3D  A$font_manager$212                 font_manager
     00000F3E  A$font_manager$213                 font_manager
     00000F3F  A$font_manager$214                 font_manager
     00000F40  A$font_manager$215                 font_manager
     00000F41  A$font_manager$216                 font_manager
     00000F44  A$font_manager$217                 font_manager
     00000F47  A$font_manager$221                 font_manager
     00000F47  C$font_manager.c$46$2$29           font_manager
     00000F48  A$font_manager$222                 font_manager
     00000F4B  A$font_manager$223                 font_manager
     00000F4C  A$font_manager$224                 font_manager
     00000F4F  A$font_manager$225                 font_manager
     00000F52  A$font_manager$226                 font_manager
     00000F53  A$font_manager$227                 font_manager
     00000F56  A$font_manager$228                 font_manager
     00000F57  A$font_manager$229                 font_manager
     00000F58  A$font_manager$230                 font_manager
     00000F59  A$font_manager$231                 font_manager
ASxxxx Linker V03.00 + NoICE + sdld,  page 38.
Hexadecimal  [32-Bits]

Area                                    Addr        Size        Decimal Bytes (Attributes)
--------------------------------        ----        ----        ------- ----- ------------
_CODE                               00000200    00003D26 =       15654. bytes (REL,CON)

      Value  Global                              Global Defined In Module
      -----  --------------------------------   ------------------------
     00000F5A  A$font_manager$235                 font_manager
     00000F5A  C$font_manager.c$48$3$30           font_manager
     00000F5D  A$font_manager$236                 font_manager
     00000F60  A$font_manager$237                 font_manager
     00000F61  A$font_manager$238                 font_manager
     00000F63  A$font_manager$239                 font_manager
     00000F66  A$font_manager$240                 font_manager
     00000F67  A$font_manager$241                 font_manager
     00000F68  A$font_manager$245                 font_manager
     00000F68  C$font_manager.c$49$3$30           font_manager
     00000F6B  A$font_manager$246                 font_manager
     00000F6E  A$font_manager$250                 font_manager
     00000F6E  C$font_manager.c$51$3$30           font_manager
     00000F6F  A$font_manager$251                 font_manager
     00000F71  A$font_manager$252                 font_manager
     00000F72  A$font_manager$256                 font_manager
     00000F72  C$font_manager.c$52$3$30           font_manager
     00000F75  A$font_manager$257                 font_manager
     00000F78  A$font_manager$258                 font_manager
     00000F7A  A$font_manager$259                 font_manager
     00000F7B  A$font_manager$260                 font_manager
     00000F7C  A$font_manager$261                 font_manager
     00000F7E  A$font_manager$262                 font_manager
     00000F81  A$font_manager$263                 font_manager
     00000F82  A$font_manager$264                 font_manager
     00000F84  A$font_manager$268                 font_manager
     00000F84  C$font_manager.c$55$4$31           font_manager
     00000F86  A$font_manager$273                 font_manager
     00000F86  C$font_manager.c$58$3$30           font_manager
     00000F89  A$font_manager$274                 font_manager
     00000F8C  A$font_manager$275                 font_manager
     00000F8F  A$font_manager$276                 font_manager
     00000F92  A$font_manager$277                 font_manager
     00000F93  A$font_manager$278                 font_manager
     00000F96  A$font_manager$279                 font_manager
     00000F97  A$font_manager$280                 font_manager
     00000F98  A$font_manager$281                 font_manager
     00000F99  A$font_manager$282                 font_manager
     00000F9A  A$font_manager$283                 font_manager
     00000F9D  A$font_manager$284                 font_manager
     00000F9E  A$font_manager$285                 font_manager
     00000F9F  A$font_manager$289                 font_manager
     00000F9F  C$font_manager.c$59$3$30           font_manager
     00000FA2  A$font_manager$290                 font_manager
     00000FA3  A$font_manager$291                 font_manager
     00000FA4  A$font_manager$292                 font_manager
     00000FA5  A$font_manager$293                 font_manager
     00000FA8  A$font_manager$294                 font_manager
     00000FA9  A$font_manager$298                 font_manager
     00000FA9  C$font_manager.c$43$2$29           font_manager
     00000FAC  A$font_manager$299                 font_manager
ASxxxx Linker V03.00 + NoICE + sdld,  page 39.
Hexadecimal  [32-Bits]

Area                                    Addr        Size        Decimal Bytes (Attributes)
--------------------------------        ----        ----        ------- ----- ------------
_CODE                               00000200    00003D26 =       15654. bytes (REL,CON)

      Value  Global                              Global Defined In Module
      -----  --------------------------------   ------------------------
     00000FAF  A$font_manager$300                 font_manager
     00000FB1  A$font_manager$301                 font_manager
     00000FB4  A$font_manager$302                 font_manager
     00000FB6  A$font_manager$303                 font_manager
     00000FB8  A$font_manager$308                 font_manager
     00000FB8  C$font_manager.c$61$2$29           font_manager
     00000FB8  XG$engine_font_manager_draw_data   font_manager
     00000FB9  A$font_manager$318                 font_manager
     00000FB9  C$font_manager.c$63$2$29           font_manager
     00000FB9  G$engine_font_manager_draw_data_   font_manager
     00000FB9  _engine_font_manager_draw_data_Z   font_manager
     00000FBB  A$font_manager$319                 font_manager
     00000FBF  A$font_manager$320                 font_manager
     00000FC1  A$font_manager$321                 font_manager
     00000FC4  A$font_manager$322                 font_manager
     00000FC5  A$font_manager$323                 font_manager
     00000FC6  A$font_manager$330                 font_manager
     00000FC6  C$font_manager.c$65$1$29           font_manager
     00000FC6  C$font_manager.c$72$3$35           font_manager
     00000FC9  A$font_manager$331                 font_manager
     00000FCA  A$font_manager$332                 font_manager
     00000FCD  A$font_manager$333                 font_manager
     00000FD0  A$font_manager$334                 font_manager
     00000FD3  A$font_manager$335                 font_manager
     00000FD5  A$font_manager$340                 font_manager
     00000FD5  C$font_manager.c$74$3$35           font_manager
     00000FD6  A$font_manager$341                 font_manager
     00000FD9  A$font_manager$342                 font_manager
     00000FDA  A$font_manager$343                 font_manager
     00000FDC  A$font_manager$344                 font_manager
     00000FDF  A$font_manager$345                 font_manager
     00000FE0  A$font_manager$346                 font_manager
     00000FE1  A$font_manager$347                 font_manager
     00000FE2  A$font_manager$348                 font_manager
     00000FE5  A$font_manager$349                 font_manager
     00000FE6  A$font_manager$350                 font_manager
     00000FE9  A$font_manager$351                 font_manager
     00000FEC  A$font_manager$352                 font_manager
     00000FED  A$font_manager$353                 font_manager
     00000FF0  A$font_manager$354                 font_manager
     00000FF1  A$font_manager$355                 font_manager
     00000FF2  A$font_manager$356                 font_manager
     00000FF3  A$font_manager$357                 font_manager
     00000FF4  A$font_manager$358                 font_manager
     00000FF5  A$font_manager$359                 font_manager
     00000FF6  A$font_manager$363                 font_manager
     00000FF6  C$font_manager.c$75$2$34           font_manager
     00000FF7  A$font_manager$364                 font_manager
     00000FF8  A$font_manager$365                 font_manager
     00000FFB  A$font_manager$366                 font_manager
     00000FFC  A$font_manager$367                 font_manager
ASxxxx Linker V03.00 + NoICE + sdld,  page 40.
Hexadecimal  [32-Bits]

Area                                    Addr        Size        Decimal Bytes (Attributes)
--------------------------------        ----        ----        ------- ----- ------------
_CODE                               00000200    00003D26 =       15654. bytes (REL,CON)

      Value  Global                              Global Defined In Module
      -----  --------------------------------   ------------------------
     00000FFF  A$font_manager$368                 font_manager
     00001002  A$font_manager$369                 font_manager
     00001003  A$font_manager$370                 font_manager
     00001006  A$font_manager$371                 font_manager
     00001007  A$font_manager$372                 font_manager
     00001008  A$font_manager$373                 font_manager
     00001009  A$font_manager$374                 font_manager
     0000100A  A$font_manager$375                 font_manager
     0000100D  A$font_manager$376                 font_manager
     00001010  A$font_manager$380                 font_manager
     00001010  C$font_manager.c$77$3$35           font_manager
     00001011  A$font_manager$381                 font_manager
     00001013  A$font_manager$382                 font_manager
     00001014  A$font_manager$386                 font_manager
     00001014  C$font_manager.c$79$3$35           font_manager
     00001015  A$font_manager$387                 font_manager
     00001016  A$font_manager$388                 font_manager
     00001019  A$font_manager$389                 font_manager
     0000101A  A$font_manager$390                 font_manager
     0000101B  A$font_manager$391                 font_manager
     0000101E  A$font_manager$392                 font_manager
     0000101F  A$font_manager$393                 font_manager
     00001020  A$font_manager$394                 font_manager
     00001021  A$font_manager$395                 font_manager
     00001022  A$font_manager$396                 font_manager
     00001025  A$font_manager$397                 font_manager
     00001026  A$font_manager$398                 font_manager
     00001027  A$font_manager$399                 font_manager
     00001028  A$font_manager$403                 font_manager
     00001028  C$font_manager.c$80$3$35           font_manager
     0000102B  A$font_manager$404                 font_manager
     0000102C  A$font_manager$405                 font_manager
     0000102D  A$font_manager$406                 font_manager
     0000102E  A$font_manager$407                 font_manager
     0000102F  A$font_manager$408                 font_manager
     00001030  A$font_manager$409                 font_manager
     00001033  A$font_manager$410                 font_manager
     00001034  A$font_manager$411                 font_manager
     00001035  A$font_manager$415                 font_manager
     00001035  C$font_manager.c$72$2$34           font_manager
     00001036  A$font_manager$416                 font_manager
     00001037  A$font_manager$417                 font_manager
     00001039  A$font_manager$418                 font_manager
     0000103B  A$font_manager$419                 font_manager
     0000103D  A$font_manager$420                 font_manager
     0000103F  A$font_manager$425                 font_manager
     0000103F  C$font_manager.c$82$2$34           font_manager
     0000103F  XG$engine_font_manager_draw_data   font_manager
     00001040  A$gamer_manager$75                 gamer_manager
     00001040  C$gamer_manager.c$14$0$0           gamer_manager
     00001040  C$gamer_manager.c$16$1$23          gamer_manager
ASxxxx Linker V03.00 + NoICE + sdld,  page 41.
Hexadecimal  [32-Bits]

Area                                    Addr        Size        Decimal Bytes (Attributes)
--------------------------------        ----        ----        ------- ----- ------------
_CODE                               00000200    00003D26 =       15654. bytes (REL,CON)

      Value  Global                              Global Defined In Module
      -----  --------------------------------   ------------------------
     00001040  C$gamer_manager.c$17$1$23          gamer_manager
     00001040  C$gamer_manager.c$18$1$23          gamer_manager
     00001040  G$engine_gamer_manager_load$0$0    gamer_manager
     00001040  _engine_gamer_manager_load         gamer_manager
     00001042  A$gamer_manager$79                 gamer_manager
     00001042  C$gamer_manager.c$20$1$23          gamer_manager
     00001045  A$gamer_manager$80                 gamer_manager
     00001047  A$gamer_manager$84                 gamer_manager
     00001047  C$gamer_manager.c$21$1$23          gamer_manager
     0000104A  A$gamer_manager$85                 gamer_manager
     0000104C  A$gamer_manager$89                 gamer_manager
     0000104C  C$gamer_manager.c$22$1$23          gamer_manager
     0000104F  A$gamer_manager$90                 gamer_manager
     00001051  A$gamer_manager$94                 gamer_manager
     00001051  C$gamer_manager.c$23$1$23          gamer_manager
     00001054  A$gamer_manager$95                 gamer_manager
     00001056  A$gamer_manager$99                 gamer_manager
     00001056  C$gamer_manager.c$24$1$23          gamer_manager
     00001059  A$gamer_manager$100                gamer_manager
     0000105C  A$gamer_manager$101                gamer_manager
     0000105D  A$gamer_manager$105                gamer_manager
     0000105D  C$gamer_manager.c$25$1$23          gamer_manager
     00001060  A$gamer_manager$106                gamer_manager
     00001062  A$gamer_manager$110                gamer_manager
     00001062  C$gamer_manager.c$26$1$23          gamer_manager
     00001063  A$gamer_manager$111                gamer_manager
     00001066  A$gamer_manager$112                gamer_manager
     00001067  A$gamer_manager$116                gamer_manager
     00001067  C$gamer_manager.c$27$1$23          gamer_manager
     0000106A  A$gamer_manager$117                gamer_manager
     0000106C  A$gamer_manager$121                gamer_manager
     0000106C  C$gamer_manager.c$28$1$23          gamer_manager
     0000106F  A$gamer_manager$122                gamer_manager
     00001071  A$gamer_manager$126                gamer_manager
     00001071  C$gamer_manager.c$30$1$23          gamer_manager
     00001074  A$gamer_manager$127                gamer_manager
     00001076  A$gamer_manager$131                gamer_manager
     00001076  C$gamer_manager.c$31$1$23          gamer_manager
     00001079  A$gamer_manager$132                gamer_manager
     0000107A  A$gamer_manager$133                gamer_manager
     0000107B  A$gamer_manager$134                gamer_manager
     0000107C  A$gamer_manager$135                gamer_manager
     0000107E  A$gamer_manager$139                gamer_manager
     0000107E  C$gamer_manager.c$33$2$24          gamer_manager
     00001081  A$gamer_manager$140                gamer_manager
     00001082  A$gamer_manager$141                gamer_manager
     00001083  A$gamer_manager$142                gamer_manager
     00001084  A$gamer_manager$148                gamer_manager
     00001084  C$gamer_manager.c$38$1$23          gamer_manager
     00001087  A$gamer_manager$149                gamer_manager
     00001088  A$gamer_manager$150                gamer_manager
ASxxxx Linker V03.00 + NoICE + sdld,  page 42.
Hexadecimal  [32-Bits]

Area                                    Addr        Size        Decimal Bytes (Attributes)
--------------------------------        ----        ----        ------- ----- ------------
_CODE                               00000200    00003D26 =       15654. bytes (REL,CON)

      Value  Global                              Global Defined In Module
      -----  --------------------------------   ------------------------
     00001089  A$gamer_manager$151                gamer_manager
     0000108A  A$gamer_manager$152                gamer_manager
     0000108C  A$gamer_manager$156                gamer_manager
     0000108C  C$gamer_manager.c$41$3$26          gamer_manager
     0000108F  A$gamer_manager$157                gamer_manager
     00001092  A$gamer_manager$158                gamer_manager
     00001093  A$gamer_manager$159                gamer_manager
     00001094  A$gamer_manager$160                gamer_manager
     00001097  A$gamer_manager$161                gamer_manager
     00001098  A$gamer_manager$162                gamer_manager
     00001099  A$gamer_manager$163                gamer_manager
     0000109A  A$gamer_manager$164                gamer_manager
     0000109C  A$gamer_manager$169                gamer_manager
     0000109C  C$gamer_manager.c$44$2$25          gamer_manager
     0000109F  A$gamer_manager$170                gamer_manager
     000010A0  A$gamer_manager$174                gamer_manager
     000010A0  C$gamer_manager.c$45$2$25          gamer_manager
     000010A3  A$gamer_manager$175                gamer_manager
     000010A4  A$gamer_manager$180                gamer_manager
     000010A4  C$gamer_manager.c$47$1$23          gamer_manager
     000010A4  XG$engine_gamer_manager_load$0$0   gamer_manager
     000010A5  A$gamer_manager$196                gamer_manager
     000010A5  C$gamer_manager.c$49$1$23          gamer_manager
     000010A5  C$gamer_manager.c$51$1$27          gamer_manager
     000010A5  C$gamer_manager.c$53$1$27          gamer_manager
     000010A5  G$engine_gamer_manager_toggle_co   gamer_manager
     000010A5  _engine_gamer_manager_toggle_col   gamer_manager
     000010A8  A$gamer_manager$200                gamer_manager
     000010A8  C$gamer_manager.c$54$1$27          gamer_manager
     000010A9  A$gamer_manager$201                gamer_manager
     000010AA  A$gamer_manager$205                gamer_manager
     000010AA  C$gamer_manager.c$56$2$28          gamer_manager
     000010AB  A$gamer_manager$209                gamer_manager
     000010AB  C$gamer_manager.c$59$1$27          gamer_manager
     000010AE  A$gamer_manager$210                gamer_manager
     000010AF  A$gamer_manager$211                gamer_manager
     000010B0  A$gamer_manager$212                gamer_manager
     000010B2  A$gamer_manager$213                gamer_manager
     000010B3  A$gamer_manager$214                gamer_manager
     000010B4  A$gamer_manager$222                gamer_manager
     000010B4  C$gamer_manager.c$60$1$27          gamer_manager
     000010B4  C$gamer_manager.c$61$1$27          gamer_manager
     000010B4  XG$engine_gamer_manager_toggle_c   gamer_manager
     000010B7  A$gamer_manager$238                gamer_manager
     000010B7  C$gamer_manager.c$63$1$27          gamer_manager
     000010B7  C$gamer_manager.c$65$1$29          gamer_manager
     000010B7  C$gamer_manager.c$66$1$29          gamer_manager
     000010B7  G$engine_gamer_manager_toggle_fr   gamer_manager
     000010B7  _engine_gamer_manager_toggle_fra   gamer_manager
     000010BA  A$gamer_manager$239                gamer_manager
     000010BB  A$gamer_manager$240                gamer_manager
ASxxxx Linker V03.00 + NoICE + sdld,  page 43.
Hexadecimal  [32-Bits]

Area                                    Addr        Size        Decimal Bytes (Attributes)
--------------------------------        ----        ----        ------- ----- ------------
_CODE                               00000200    00003D26 =       15654. bytes (REL,CON)

      Value  Global                              Global Defined In Module
      -----  --------------------------------   ------------------------
     000010BC  A$gamer_manager$241                gamer_manager
     000010BE  A$gamer_manager$242                gamer_manager
     000010BF  A$gamer_manager$243                gamer_manager
     000010C0  A$gamer_manager$251                gamer_manager
     000010C0  C$gamer_manager.c$67$1$29          gamer_manager
     000010C0  C$gamer_manager.c$68$1$29          gamer_manager
     000010C0  XG$engine_gamer_manager_toggle_f   gamer_manager
     000010C3  A$gamer_manager$267                gamer_manager
     000010C3  C$gamer_manager.c$70$1$29          gamer_manager
     000010C3  C$gamer_manager.c$72$1$31          gamer_manager
     000010C3  C$gamer_manager.c$73$1$31          gamer_manager
     000010C3  G$engine_gamer_manager_setdirect   gamer_manager
     000010C3  _engine_gamer_manager_setdirecti   gamer_manager
     000010C6  A$gamer_manager$268                gamer_manager
     000010CA  A$gamer_manager$269                gamer_manager
     000010CC  A$gamer_manager$270                gamer_manager
     000010CF  A$gamer_manager$271                gamer_manager
     000010D0  A$gamer_manager$276                gamer_manager
     000010D0  C$gamer_manager.c$74$1$31          gamer_manager
     000010D0  XG$engine_gamer_manager_setdirec   gamer_manager
     000010D1  A$gamer_manager$292                gamer_manager
     000010D1  C$gamer_manager.c$76$1$31          gamer_manager
     000010D1  C$gamer_manager.c$78$1$32          gamer_manager
     000010D1  C$gamer_manager.c$79$1$32          gamer_manager
     000010D1  G$engine_gamer_manager_incmoveme   gamer_manager
     000010D1  _engine_gamer_manager_incmovemen   gamer_manager
     000010D4  A$gamer_manager$293                gamer_manager
     000010D5  A$gamer_manager$294                gamer_manager
     000010D6  A$gamer_manager$295                gamer_manager
     000010D7  A$gamer_manager$300                gamer_manager
     000010D7  C$gamer_manager.c$80$1$32          gamer_manager
     000010D7  XG$engine_gamer_manager_incmovem   gamer_manager
     000010D8  A$gamer_manager$316                gamer_manager
     000010D8  C$gamer_manager.c$82$1$32          gamer_manager
     000010D8  C$gamer_manager.c$84$1$33          gamer_manager
     000010D8  C$gamer_manager.c$85$1$33          gamer_manager
     000010D8  G$engine_gamer_manager_setlifecy   gamer_manager
     000010D8  _engine_gamer_manager_setlifecyc   gamer_manager
     000010DB  A$gamer_manager$317                gamer_manager
     000010DD  A$gamer_manager$325                gamer_manager
     000010DD  C$gamer_manager.c$86$1$33          gamer_manager
     000010DD  C$gamer_manager.c$87$1$33          gamer_manager
     000010DD  XG$engine_gamer_manager_setlifec   gamer_manager
     000010E0  A$gamer_manager$338                gamer_manager
     000010E0  C$gamer_manager.c$89$1$33          gamer_manager
     000010E0  C$gamer_manager.c$91$1$34          gamer_manager
     000010E0  G$engine_gamer_manager_update$0$   gamer_manager
     000010E0  _engine_gamer_manager_update       gamer_manager
     000010E3  A$gamer_manager$342                gamer_manager
     000010E3  C$gamer_manager.c$92$1$34          gamer_manager
     000010E6  A$gamer_manager$343                gamer_manager
ASxxxx Linker V03.00 + NoICE + sdld,  page 44.
Hexadecimal  [32-Bits]

Area                                    Addr        Size        Decimal Bytes (Attributes)
--------------------------------        ----        ----        ------- ----- ------------
_CODE                               00000200    00003D26 =       15654. bytes (REL,CON)

      Value  Global                              Global Defined In Module
      -----  --------------------------------   ------------------------
     000010E7  A$gamer_manager$344                gamer_manager
     000010EA  A$gamer_manager$345                gamer_manager
     000010EB  A$gamer_manager$346                gamer_manager
     000010EC  A$gamer_manager$347                gamer_manager
     000010ED  A$gamer_manager$348                gamer_manager
     000010F0  A$gamer_manager$349                gamer_manager
     000010F1  A$gamer_manager$353                gamer_manager
     000010F1  C$gamer_manager.c$93$1$34          gamer_manager
     000010F3  A$gamer_manager$354                gamer_manager
     000010F5  A$gamer_manager$358                gamer_manager
     000010F5  C$gamer_manager.c$95$2$35          gamer_manager
     000010F7  A$gamer_manager$362                gamer_manager
     000010F7  C$gamer_manager.c$96$2$35          gamer_manager
     000010F8  A$gamer_manager$363                gamer_manager
     000010FA  A$gamer_manager$364                gamer_manager
     000010FD  A$gamer_manager$365                gamer_manager
     000010FE  A$gamer_manager$366                gamer_manager
     00001100  A$gamer_manager$370                gamer_manager
     00001100  C$gamer_manager.c$98$3$36          gamer_manager
     00001101  A$gamer_manager$371                gamer_manager
     00001104  A$gamer_manager$372                gamer_manager
     00001105  A$gamer_manager$373                gamer_manager
     00001107  A$gamer_manager$378                gamer_manager
     00001107  C$gamer_manager.c$102$3$37         gamer_manager
     0000110A  A$gamer_manager$379                gamer_manager
     0000110C  A$gamer_manager$384                gamer_manager
     0000110C  C$gamer_manager.c$106$1$34         gamer_manager
     0000110D  A$gamer_manager$385                gamer_manager
     0000110F  A$gamer_manager$386                gamer_manager
     00001112  A$gamer_manager$387                gamer_manager
     00001113  A$gamer_manager$388                gamer_manager
     00001114  A$gamer_manager$389                gamer_manager
     00001116  A$gamer_manager$393                gamer_manager
     00001116  C$gamer_manager.c$108$2$38         gamer_manager
     00001117  A$gamer_manager$394                gamer_manager
     00001118  A$gamer_manager$395                gamer_manager
     00001119  A$gamer_manager$396                gamer_manager
     0000111C  A$gamer_manager$397                gamer_manager
     0000111D  A$gamer_manager$398                gamer_manager
     0000111E  A$gamer_manager$399                gamer_manager
     0000111F  A$gamer_manager$400                gamer_manager
     00001120  A$gamer_manager$401                gamer_manager
     00001121  A$gamer_manager$406                gamer_manager
     00001121  C$gamer_manager.c$110$1$34         gamer_manager
     00001122  A$gamer_manager$407                gamer_manager
     00001124  A$gamer_manager$408                gamer_manager
     00001126  A$gamer_manager$412                gamer_manager
     00001126  C$gamer_manager.c$112$2$39         gamer_manager
     00001127  A$gamer_manager$413                gamer_manager
     00001128  A$gamer_manager$414                gamer_manager
     00001129  A$gamer_manager$415                gamer_manager
ASxxxx Linker V03.00 + NoICE + sdld,  page 45.
Hexadecimal  [32-Bits]

Area                                    Addr        Size        Decimal Bytes (Attributes)
--------------------------------        ----        ----        ------- ----- ------------
_CODE                               00000200    00003D26 =       15654. bytes (REL,CON)

      Value  Global                              Global Defined In Module
      -----  --------------------------------   ------------------------
     0000112C  A$gamer_manager$416                gamer_manager
     0000112D  A$gamer_manager$417                gamer_manager
     0000112E  A$gamer_manager$418                gamer_manager
     0000112F  A$gamer_manager$419                gamer_manager
     00001130  A$gamer_manager$420                gamer_manager
     00001131  A$gamer_manager$425                gamer_manager
     00001131  C$gamer_manager.c$114$1$34         gamer_manager
     00001132  A$gamer_manager$426                gamer_manager
     00001134  A$gamer_manager$427                gamer_manager
     00001136  A$gamer_manager$431                gamer_manager
     00001136  C$gamer_manager.c$116$2$40         gamer_manager
     00001137  A$gamer_manager$432                gamer_manager
     00001138  A$gamer_manager$433                gamer_manager
     0000113B  A$gamer_manager$434                gamer_manager
     0000113C  A$gamer_manager$435                gamer_manager
     0000113D  A$gamer_manager$436                gamer_manager
     0000113E  A$gamer_manager$437                gamer_manager
     0000113F  A$gamer_manager$438                gamer_manager
     00001140  A$gamer_manager$443                gamer_manager
     00001140  C$gamer_manager.c$118$1$34         gamer_manager
     00001141  A$gamer_manager$444                gamer_manager
     00001143  A$gamer_manager$445                gamer_manager
     00001144  A$gamer_manager$449                gamer_manager
     00001144  C$gamer_manager.c$120$2$41         gamer_manager
     00001145  A$gamer_manager$450                gamer_manager
     00001146  A$gamer_manager$451                gamer_manager
     00001149  A$gamer_manager$452                gamer_manager
     0000114A  A$gamer_manager$453                gamer_manager
     0000114B  A$gamer_manager$454                gamer_manager
     0000114C  A$gamer_manager$455                gamer_manager
     0000114D  A$gamer_manager$460                gamer_manager
     0000114D  C$gamer_manager.c$122$1$34         gamer_manager
     0000114D  XG$engine_gamer_manager_update$0   gamer_manager
     0000114E  A$gamer_manager$473                gamer_manager
     0000114E  C$gamer_manager.c$124$1$34         gamer_manager
     0000114E  C$gamer_manager.c$126$1$42         gamer_manager
     0000114E  G$engine_gamer_manager_draw$0$0    gamer_manager
     0000114E  _engine_gamer_manager_draw         gamer_manager
     00001151  A$gamer_manager$477                gamer_manager
     00001151  C$gamer_manager.c$127$1$42         gamer_manager
     00001152  A$gamer_manager$478                gamer_manager
     00001153  A$gamer_manager$479                gamer_manager
     00001156  A$gamer_manager$480                gamer_manager
     00001157  A$gamer_manager$481                gamer_manager
     00001158  A$gamer_manager$482                gamer_manager
     00001159  A$gamer_manager$483                gamer_manager
     0000115A  A$gamer_manager$484                gamer_manager
     0000115B  A$gamer_manager$485                gamer_manager
     0000115C  A$gamer_manager$486                gamer_manager
     0000115D  A$gamer_manager$487                gamer_manager
     0000115E  A$gamer_manager$488                gamer_manager
ASxxxx Linker V03.00 + NoICE + sdld,  page 46.
Hexadecimal  [32-Bits]

Area                                    Addr        Size        Decimal Bytes (Attributes)
--------------------------------        ----        ----        ------- ----- ------------
_CODE                               00000200    00003D26 =       15654. bytes (REL,CON)

      Value  Global                              Global Defined In Module
      -----  --------------------------------   ------------------------
     0000115F  A$gamer_manager$489                gamer_manager
     00001160  A$gamer_manager$490                gamer_manager
     00001161  A$gamer_manager$491                gamer_manager
     00001162  A$gamer_manager$492                gamer_manager
     00001163  A$gamer_manager$493                gamer_manager
     00001164  A$gamer_manager$494                gamer_manager
     00001165  A$gamer_manager$495                gamer_manager
     00001168  A$gamer_manager$496                gamer_manager
     00001169  A$gamer_manager$497                gamer_manager
     0000116A  A$gamer_manager$502                gamer_manager
     0000116A  C$gamer_manager.c$128$1$42         gamer_manager
     0000116A  XG$engine_gamer_manager_draw$0$0   gamer_manager
     0000116B  A$gamer_manager$518                gamer_manager
     0000116B  C$gamer_manager.c$130$1$42         gamer_manager
     0000116B  C$gamer_manager.c$132$1$43         gamer_manager
     0000116B  C$gamer_manager.c$133$1$43         gamer_manager
     0000116B  Fgamer_manager$kid_calculate_til   gamer_manager
     0000116E  A$gamer_manager$519                gamer_manager
     00001171  A$gamer_manager$520                gamer_manager
     00001172  A$gamer_manager$521                gamer_manager
     00001173  A$gamer_manager$522                gamer_manager
     00001175  A$gamer_manager$523                gamer_manager
     00001176  A$gamer_manager$524                gamer_manager
     00001177  A$gamer_manager$525                gamer_manager
     00001178  A$gamer_manager$526                gamer_manager
     0000117C  A$gamer_manager$527                gamer_manager
     0000117F  A$gamer_manager$528                gamer_manager
     00001181  A$gamer_manager$529                gamer_manager
     00001182  A$gamer_manager$530                gamer_manager
     00001183  A$gamer_manager$531                gamer_manager
     00001186  A$gamer_manager$532                gamer_manager
     00001187  A$gamer_manager$533                gamer_manager
     00001188  A$gamer_manager$534                gamer_manager
     00001189  A$gamer_manager$535                gamer_manager
     0000118D  A$gamer_manager$540                gamer_manager
     0000118D  C$gamer_manager.c$134$1$43         gamer_manager
     0000118D  XFgamer_manager$kid_calculate_ti   gamer_manager
     0000118E  A$hack_manager$63                  hack_manager
     0000118E  C$hack_manager.c$12$0$0            hack_manager
     0000118E  C$hack_manager.c$14$1$1            hack_manager
     0000118E  C$hack_manager.c$16$1$1            hack_manager
     0000118E  G$engine_hack_manager_init$0$0     hack_manager
     0000118E  _engine_hack_manager_init          hack_manager
     00001191  A$hack_manager$64                  hack_manager
     00001193  A$hack_manager$68                  hack_manager
     00001193  C$hack_manager.c$17$1$1            hack_manager
     00001196  A$hack_manager$69                  hack_manager
     00001198  A$hack_manager$73                  hack_manager
     00001198  C$hack_manager.c$18$1$1            hack_manager
     0000119B  A$hack_manager$74                  hack_manager
     0000119D  A$hack_manager$78                  hack_manager
ASxxxx Linker V03.00 + NoICE + sdld,  page 47.
Hexadecimal  [32-Bits]

Area                                    Addr        Size        Decimal Bytes (Attributes)
--------------------------------        ----        ----        ------- ----- ------------
_CODE                               00000200    00003D26 =       15654. bytes (REL,CON)

      Value  Global                              Global Defined In Module
      -----  --------------------------------   ------------------------
     0000119D  C$hack_manager.c$19$1$1            hack_manager
     000011A0  A$hack_manager$79                  hack_manager
     000011A2  A$hack_manager$83                  hack_manager
     000011A2  C$hack_manager.c$20$1$1            hack_manager
     000011A5  A$hack_manager$84                  hack_manager
     000011A6  A$hack_manager$85                  hack_manager
     000011A7  A$hack_manager$89                  hack_manager
     000011A7  C$hack_manager.c$21$1$1            hack_manager
     000011AA  A$hack_manager$90                  hack_manager
     000011AB  A$hack_manager$91                  hack_manager
     000011AC  A$hack_manager$95                  hack_manager
     000011AC  C$hack_manager.c$25$1$1            hack_manager
     000011AF  A$hack_manager$96                  hack_manager
     000011B2  A$hack_manager$100                 hack_manager
     000011B2  C$hack_manager.c$26$1$1            hack_manager
     000011B5  A$hack_manager$101                 hack_manager
     000011B8  A$hack_manager$105                 hack_manager
     000011B8  C$hack_manager.c$27$1$1            hack_manager
     000011BB  A$hack_manager$106                 hack_manager
     000011BE  A$hack_manager$110                 hack_manager
     000011BE  C$hack_manager.c$28$1$1            hack_manager
     000011C1  A$hack_manager$111                 hack_manager
     000011C4  A$hack_manager$115                 hack_manager
     000011C4  C$hack_manager.c$29$1$1            hack_manager
     000011C7  A$hack_manager$116                 hack_manager
     000011C8  A$hack_manager$120                 hack_manager
     000011C8  C$hack_manager.c$30$1$1            hack_manager
     000011CB  A$hack_manager$121                 hack_manager
     000011CC  A$hack_manager$126                 hack_manager
     000011CC  C$hack_manager.c$34$1$1            hack_manager
     000011CC  XG$engine_hack_manager_init$0$0    hack_manager
     000011CD  A$hack_manager$139                 hack_manager
     000011CD  C$hack_manager.c$36$1$1            hack_manager
     000011CD  C$hack_manager.c$38$1$2            hack_manager
     000011CD  G$engine_hack_manager_update$0$0   hack_manager
     000011CD  _engine_hack_manager_update        hack_manager
     000011D0  A$hack_manager$143                 hack_manager
     000011D0  C$hack_manager.c$41$1$2            hack_manager
     000011D3  A$hack_manager$144                 hack_manager
     000011D5  A$hack_manager$145                 hack_manager
     000011D7  A$hack_manager$146                 hack_manager
     000011D8  A$hack_manager$147                 hack_manager
     000011DB  A$hack_manager$151                 hack_manager
     000011DB  C$hack_manager.c$42$1$2            hack_manager
     000011DE  A$hack_manager$152                 hack_manager
     000011E0  A$hack_manager$153                 hack_manager
     000011E2  A$hack_manager$154                 hack_manager
     000011E3  A$hack_manager$155                 hack_manager
     000011E6  A$hack_manager$159                 hack_manager
     000011E6  C$hack_manager.c$43$1$2            hack_manager
     000011E9  A$hack_manager$160                 hack_manager
ASxxxx Linker V03.00 + NoICE + sdld,  page 48.
Hexadecimal  [32-Bits]

Area                                    Addr        Size        Decimal Bytes (Attributes)
--------------------------------        ----        ----        ------- ----- ------------
_CODE                               00000200    00003D26 =       15654. bytes (REL,CON)

      Value  Global                              Global Defined In Module
      -----  --------------------------------   ------------------------
     000011EB  A$hack_manager$161                 hack_manager
     000011ED  A$hack_manager$162                 hack_manager
     000011EE  A$hack_manager$163                 hack_manager
     000011F1  A$hack_manager$167                 hack_manager
     000011F1  C$hack_manager.c$46$1$2            hack_manager
     000011F2  A$hack_manager$168                 hack_manager
     000011F4  A$hack_manager$169                 hack_manager
     000011F6  A$hack_manager$173                 hack_manager
     000011F6  C$hack_manager.c$48$2$3            hack_manager
     000011F8  A$hack_manager$174                 hack_manager
     000011F9  A$hack_manager$175                 hack_manager
     000011FB  A$hack_manager$180                 hack_manager
     000011FB  C$hack_manager.c$50$1$2            hack_manager
     000011FD  A$hack_manager$181                 hack_manager
     000011FF  A$hack_manager$185                 hack_manager
     000011FF  C$hack_manager.c$52$2$4            hack_manager
     00001201  A$hack_manager$186                 hack_manager
     00001202  A$hack_manager$187                 hack_manager
     00001204  A$hack_manager$192                 hack_manager
     00001204  C$hack_manager.c$54$1$2            hack_manager
     00001206  A$hack_manager$193                 hack_manager
     00001208  A$hack_manager$197                 hack_manager
     00001208  C$hack_manager.c$56$2$5            hack_manager
     0000120A  A$hack_manager$198                 hack_manager
     0000120B  A$hack_manager$199                 hack_manager
     0000120D  A$hack_manager$204                 hack_manager
     0000120D  C$hack_manager.c$58$1$2            hack_manager
     0000120E  A$hack_manager$205                 hack_manager
     00001210  A$hack_manager$209                 hack_manager
     00001210  C$hack_manager.c$60$2$6            hack_manager
     00001212  A$hack_manager$210                 hack_manager
     00001213  A$hack_manager$215                 hack_manager
     00001213  C$hack_manager.c$64$1$2            hack_manager
     00001214  A$hack_manager$216                 hack_manager
     00001215  A$hack_manager$217                 hack_manager
     00001216  A$hack_manager$218                 hack_manager
     00001217  A$hack_manager$219                 hack_manager
     00001218  A$hack_manager$220                 hack_manager
     0000121A  A$hack_manager$224                 hack_manager
     0000121A  C$hack_manager.c$66$2$7            hack_manager
     0000121C  A$hack_manager$229                 hack_manager
     0000121C  C$hack_manager.c$68$1$2            hack_manager
     0000121D  A$hack_manager$230                 hack_manager
     0000121F  A$hack_manager$231                 hack_manager
     00001221  A$hack_manager$235                 hack_manager
     00001221  C$hack_manager.c$70$2$8            hack_manager
     00001223  A$hack_manager$240                 hack_manager
     00001223  C$hack_manager.c$74$1$2            hack_manager
     00001226  A$hack_manager$241                 hack_manager
     00001227  A$hack_manager$242                 hack_manager
     00001228  A$hack_manager$243                 hack_manager
ASxxxx Linker V03.00 + NoICE + sdld,  page 49.
Hexadecimal  [32-Bits]

Area                                    Addr        Size        Decimal Bytes (Attributes)
--------------------------------        ----        ----        ------- ----- ------------
_CODE                               00000200    00003D26 =       15654. bytes (REL,CON)

      Value  Global                              Global Defined In Module
      -----  --------------------------------   ------------------------
     00001229  A$hack_manager$244                 hack_manager
     0000122A  A$hack_manager$245                 hack_manager
     0000122B  A$hack_manager$249                 hack_manager
     0000122B  C$hack_manager.c$76$2$9            hack_manager
     0000122D  A$hack_manager$250                 hack_manager
     0000122E  A$hack_manager$251                 hack_manager
     0000122F  A$hack_manager$255                 hack_manager
     0000122F  C$hack_manager.c$78$3$10           hack_manager
     00001231  A$hack_manager$260                 hack_manager
     00001231  C$hack_manager.c$81$1$2            hack_manager
     00001231  XG$engine_hack_manager_update$0$   hack_manager
     00001232  A$input_manager$80                 input_manager
     00001232  C$input_manager.c$13$0$0           input_manager
     00001232  C$input_manager.c$15$1$20          input_manager
     00001232  G$engine_input_manager_update$0$   input_manager
     00001232  _engine_input_manager_update       input_manager
     00001235  A$input_manager$81                 input_manager
     00001238  A$input_manager$85                 input_manager
     00001238  C$input_manager.c$16$1$20          input_manager
     0000123B  A$input_manager$86                 input_manager
     0000123E  A$input_manager$91                 input_manager
     0000123E  C$input_manager.c$17$1$20          input_manager
     0000123E  XG$engine_input_manager_update$0   input_manager
     0000123F  A$input_manager$104                input_manager
     0000123F  C$input_manager.c$20$1$20          input_manager
     0000123F  C$input_manager.c$22$1$21          input_manager
     0000123F  G$engine_input_manager_hold_up$0   input_manager
     0000123F  _engine_input_manager_hold_up      input_manager
     00001242  A$input_manager$105                input_manager
     00001243  A$input_manager$106                input_manager
     00001246  A$input_manager$107                input_manager
     00001247  A$input_manager$112                input_manager
     00001247  C$input_manager.c$23$1$21          input_manager
     00001247  XG$engine_input_manager_hold_up$   input_manager
     00001248  A$input_manager$125                input_manager
     00001248  C$input_manager.c$24$1$21          input_manager
     00001248  C$input_manager.c$26$1$22          input_manager
     00001248  G$engine_input_manager_hold_down   input_manager
     00001248  _engine_input_manager_hold_down    input_manager
     0000124B  A$input_manager$126                input_manager
     0000124C  A$input_manager$127                input_manager
     0000124F  A$input_manager$128                input_manager
     00001250  A$input_manager$133                input_manager
     00001250  C$input_manager.c$27$1$22          input_manager
     00001250  XG$engine_input_manager_hold_dow   input_manager
     00001251  A$input_manager$146                input_manager
     00001251  C$input_manager.c$28$1$22          input_manager
     00001251  C$input_manager.c$30$1$23          input_manager
     00001251  G$engine_input_manager_hold_left   input_manager
     00001251  _engine_input_manager_hold_left    input_manager
     00001254  A$input_manager$147                input_manager
ASxxxx Linker V03.00 + NoICE + sdld,  page 50.
Hexadecimal  [32-Bits]

Area                                    Addr        Size        Decimal Bytes (Attributes)
--------------------------------        ----        ----        ------- ----- ------------
_CODE                               00000200    00003D26 =       15654. bytes (REL,CON)

      Value  Global                              Global Defined In Module
      -----  --------------------------------   ------------------------
     00001255  A$input_manager$148                input_manager
     00001258  A$input_manager$149                input_manager
     00001259  A$input_manager$154                input_manager
     00001259  C$input_manager.c$31$1$23          input_manager
     00001259  XG$engine_input_manager_hold_lef   input_manager
     0000125A  A$input_manager$167                input_manager
     0000125A  C$input_manager.c$32$1$23          input_manager
     0000125A  C$input_manager.c$34$1$24          input_manager
     0000125A  G$engine_input_manager_hold_righ   input_manager
     0000125A  _engine_input_manager_hold_right   input_manager
     0000125D  A$input_manager$168                input_manager
     0000125E  A$input_manager$169                input_manager
     00001261  A$input_manager$170                input_manager
     00001262  A$input_manager$175                input_manager
     00001262  C$input_manager.c$35$1$24          input_manager
     00001262  XG$engine_input_manager_hold_rig   input_manager
     00001263  A$input_manager$188                input_manager
     00001263  C$input_manager.c$36$1$24          input_manager
     00001263  C$input_manager.c$38$1$25          input_manager
     00001263  G$engine_input_manager_hold_fire   input_manager
     00001263  _engine_input_manager_hold_fire1   input_manager
     00001266  A$input_manager$189                input_manager
     00001267  A$input_manager$190                input_manager
     0000126A  A$input_manager$191                input_manager
     0000126B  A$input_manager$196                input_manager
     0000126B  C$input_manager.c$39$1$25          input_manager
     0000126B  XG$engine_input_manager_hold_fir   input_manager
     0000126C  A$input_manager$209                input_manager
     0000126C  C$input_manager.c$40$1$25          input_manager
     0000126C  C$input_manager.c$42$1$26          input_manager
     0000126C  G$engine_input_manager_hold_fire   input_manager
     0000126C  _engine_input_manager_hold_fire2   input_manager
     0000126F  A$input_manager$210                input_manager
     00001270  A$input_manager$211                input_manager
     00001273  A$input_manager$212                input_manager
     00001274  A$input_manager$217                input_manager
     00001274  C$input_manager.c$43$1$26          input_manager
     00001274  XG$engine_input_manager_hold_fir   input_manager
     00001275  A$input_manager$230                input_manager
     00001275  C$input_manager.c$46$1$26          input_manager
     00001275  C$input_manager.c$48$1$27          input_manager
     00001275  G$engine_input_manager_move_up$0   input_manager
     00001275  _engine_input_manager_move_up      input_manager
     00001278  A$input_manager$231                input_manager
     00001279  A$input_manager$232                input_manager
     0000127C  A$input_manager$233                input_manager
     0000127D  A$input_manager$238                input_manager
     0000127D  C$input_manager.c$49$1$27          input_manager
     0000127D  XG$engine_input_manager_move_up$   input_manager
     0000127E  A$input_manager$251                input_manager
     0000127E  C$input_manager.c$50$1$27          input_manager
ASxxxx Linker V03.00 + NoICE + sdld,  page 51.
Hexadecimal  [32-Bits]

Area                                    Addr        Size        Decimal Bytes (Attributes)
--------------------------------        ----        ----        ------- ----- ------------
_CODE                               00000200    00003D26 =       15654. bytes (REL,CON)

      Value  Global                              Global Defined In Module
      -----  --------------------------------   ------------------------
     0000127E  C$input_manager.c$52$1$28          input_manager
     0000127E  G$engine_input_manager_move_down   input_manager
     0000127E  _engine_input_manager_move_down    input_manager
     00001281  A$input_manager$252                input_manager
     00001282  A$input_manager$253                input_manager
     00001285  A$input_manager$254                input_manager
     00001286  A$input_manager$259                input_manager
     00001286  C$input_manager.c$53$1$28          input_manager
     00001286  XG$engine_input_manager_move_dow   input_manager
     00001287  A$input_manager$272                input_manager
     00001287  C$input_manager.c$54$1$28          input_manager
     00001287  C$input_manager.c$56$1$29          input_manager
     00001287  G$engine_input_manager_move_left   input_manager
     00001287  _engine_input_manager_move_left    input_manager
     0000128A  A$input_manager$273                input_manager
     0000128B  A$input_manager$274                input_manager
     0000128E  A$input_manager$275                input_manager
     0000128F  A$input_manager$280                input_manager
     0000128F  C$input_manager.c$57$1$29          input_manager
     0000128F  XG$engine_input_manager_move_lef   input_manager
     00001290  A$input_manager$293                input_manager
     00001290  C$input_manager.c$58$1$29          input_manager
     00001290  C$input_manager.c$60$1$30          input_manager
     00001290  G$engine_input_manager_move_righ   input_manager
     00001290  _engine_input_manager_move_right   input_manager
     00001293  A$input_manager$294                input_manager
     00001294  A$input_manager$295                input_manager
     00001297  A$input_manager$296                input_manager
     00001298  A$input_manager$301                input_manager
     00001298  C$input_manager.c$61$1$30          input_manager
     00001298  XG$engine_input_manager_move_rig   input_manager
     00001299  A$input_manager$314                input_manager
     00001299  C$input_manager.c$62$1$30          input_manager
     00001299  C$input_manager.c$64$1$31          input_manager
     00001299  G$engine_input_manager_move_fire   input_manager
     00001299  _engine_input_manager_move_fire1   input_manager
     0000129C  A$input_manager$315                input_manager
     0000129D  A$input_manager$316                input_manager
     000012A0  A$input_manager$317                input_manager
     000012A1  A$input_manager$322                input_manager
     000012A1  C$input_manager.c$65$1$31          input_manager
     000012A1  XG$engine_input_manager_move_fir   input_manager
     000012A2  A$input_manager$335                input_manager
     000012A2  C$input_manager.c$66$1$31          input_manager
     000012A2  C$input_manager.c$68$1$32          input_manager
     000012A2  G$engine_input_manager_move_fire   input_manager
     000012A2  _engine_input_manager_move_fire2   input_manager
     000012A5  A$input_manager$336                input_manager
     000012A6  A$input_manager$337                input_manager
     000012A9  A$input_manager$338                input_manager
     000012AA  A$input_manager$343                input_manager
ASxxxx Linker V03.00 + NoICE + sdld,  page 52.
Hexadecimal  [32-Bits]

Area                                    Addr        Size        Decimal Bytes (Attributes)
--------------------------------        ----        ----        ------- ----- ------------
_CODE                               00000200    00003D26 =       15654. bytes (REL,CON)

      Value  Global                              Global Defined In Module
      -----  --------------------------------   ------------------------
     000012AA  C$input_manager.c$69$1$32          input_manager
     000012AA  XG$engine_input_manager_move_fir   input_manager
     000012AB  A$input_manager$356                input_manager
     000012AB  C$input_manager.c$72$1$32          input_manager
     000012AB  C$input_manager.c$74$1$34          input_manager
     000012AB  Finput_manager$engine_input_mana   input_manager
     000012AE  A$input_manager$357                input_manager
     000012B2  A$input_manager$358                input_manager
     000012B4  A$input_manager$359                input_manager
     000012B7  A$input_manager$360                input_manager
     000012B8  A$input_manager$361                input_manager
     000012BB  A$input_manager$362                input_manager
     000012BF  A$input_manager$363                input_manager
     000012C1  A$input_manager$364                input_manager
     000012C4  A$input_manager$365                input_manager
     000012C5  A$input_manager$366                input_manager
     000012C7  A$input_manager$367                input_manager
     000012CA  A$input_manager$368                input_manager
     000012CE  A$input_manager$369                input_manager
     000012D0  A$input_manager$370                input_manager
     000012D3  A$input_manager$371                input_manager
     000012D4  A$input_manager$372                input_manager
     000012D7  A$input_manager$373                input_manager
     000012DB  A$input_manager$374                input_manager
     000012DD  A$input_manager$375                input_manager
     000012E0  A$input_manager$376                input_manager
     000012E1  A$input_manager$377                input_manager
     000012E3  A$input_manager$379                input_manager
     000012E5  A$input_manager$380                input_manager
     000012E6  A$input_manager$382                input_manager
     000012E8  A$input_manager$387                input_manager
     000012E8  C$input_manager.c$75$1$34          input_manager
     000012E8  XFinput_manager$engine_input_man   input_manager
     000012E9  A$input_manager$400                input_manager
     000012E9  C$input_manager.c$76$1$34          input_manager
     000012E9  C$input_manager.c$78$1$36          input_manager
     000012E9  Finput_manager$engine_input_mana   input_manager
     000012EC  A$input_manager$401                input_manager
     000012ED  A$input_manager$402                input_manager
     000012F0  A$input_manager$403                input_manager
     000012F1  A$input_manager$404                input_manager
     000012F2  A$input_manager$405                input_manager
     000012F3  A$input_manager$406                input_manager
     000012F4  A$input_manager$411                input_manager
     000012F4  C$input_manager.c$79$1$36          input_manager
     000012F4  XFinput_manager$engine_input_man   input_manager
     000012F5  A$path_manager$62                  path_manager
     000012F5  C$path_manager.c$12$1$1            path_manager
     000012F5  C$path_manager.c$7$0$0             path_manager
     000012F5  C$path_manager.c$9$1$1             path_manager
     000012F5  G$engine_path_manager_init$0$0     path_manager
ASxxxx Linker V03.00 + NoICE + sdld,  page 53.
Hexadecimal  [32-Bits]

Area                                    Addr        Size        Decimal Bytes (Attributes)
--------------------------------        ----        ----        ------- ----- ------------
_CODE                               00000200    00003D26 =       15654. bytes (REL,CON)

      Value  Global                              Global Defined In Module
      -----  --------------------------------   ------------------------
     000012F5  _engine_path_manager_init          path_manager
     000012F8  A$path_manager$63                  path_manager
     000012FA  A$path_manager$64                  path_manager
     000012FD  A$path_manager$65                  path_manager
     000012FF  A$path_manager$66                  path_manager
     00001302  A$path_manager$67                  path_manager
     00001304  A$path_manager$68                  path_manager
     00001307  A$path_manager$69                  path_manager
     00001309  A$path_manager$70                  path_manager
     0000130C  A$path_manager$71                  path_manager
     0000130E  A$path_manager$72                  path_manager
     00001311  A$path_manager$73                  path_manager
     00001313  A$path_manager$74                  path_manager
     00001316  A$path_manager$75                  path_manager
     00001318  A$path_manager$79                  path_manager
     00001318  C$path_manager.c$13$1$1            path_manager
     0000131B  A$path_manager$80                  path_manager
     0000131D  A$path_manager$81                  path_manager
     00001320  A$path_manager$82                  path_manager
     00001322  A$path_manager$83                  path_manager
     00001325  A$path_manager$84                  path_manager
     00001327  A$path_manager$85                  path_manager
     0000132A  A$path_manager$86                  path_manager
     0000132C  A$path_manager$87                  path_manager
     0000132F  A$path_manager$88                  path_manager
     00001331  A$path_manager$89                  path_manager
     00001334  A$path_manager$90                  path_manager
     00001336  A$path_manager$91                  path_manager
     00001339  A$path_manager$92                  path_manager
     0000133B  A$path_manager$96                  path_manager
     0000133B  C$path_manager.c$14$1$1            path_manager
     0000133E  A$path_manager$97                  path_manager
     00001340  A$path_manager$98                  path_manager
     00001343  A$path_manager$99                  path_manager
     00001345  A$path_manager$100                 path_manager
     00001348  A$path_manager$101                 path_manager
     0000134A  A$path_manager$102                 path_manager
     0000134D  A$path_manager$103                 path_manager
     0000134F  A$path_manager$104                 path_manager
     00001352  A$path_manager$105                 path_manager
     00001354  A$path_manager$106                 path_manager
     00001357  A$path_manager$107                 path_manager
     00001359  A$path_manager$108                 path_manager
     0000135C  A$path_manager$109                 path_manager
     0000135E  A$path_manager$113                 path_manager
     0000135E  C$path_manager.c$15$1$1            path_manager
     00001361  A$path_manager$114                 path_manager
     00001363  A$path_manager$115                 path_manager
     00001366  A$path_manager$116                 path_manager
     00001368  A$path_manager$117                 path_manager
     0000136B  A$path_manager$118                 path_manager
ASxxxx Linker V03.00 + NoICE + sdld,  page 54.
Hexadecimal  [32-Bits]

Area                                    Addr        Size        Decimal Bytes (Attributes)
--------------------------------        ----        ----        ------- ----- ------------
_CODE                               00000200    00003D26 =       15654. bytes (REL,CON)

      Value  Global                              Global Defined In Module
      -----  --------------------------------   ------------------------
     0000136D  A$path_manager$119                 path_manager
     00001370  A$path_manager$120                 path_manager
     00001372  A$path_manager$121                 path_manager
     00001375  A$path_manager$122                 path_manager
     00001377  A$path_manager$123                 path_manager
     0000137A  A$path_manager$124                 path_manager
     0000137C  A$path_manager$125                 path_manager
     0000137F  A$path_manager$126                 path_manager
     00001381  A$path_manager$130                 path_manager
     00001381  C$path_manager.c$16$1$1            path_manager
     00001384  A$path_manager$131                 path_manager
     00001386  A$path_manager$132                 path_manager
     00001389  A$path_manager$133                 path_manager
     0000138B  A$path_manager$134                 path_manager
     0000138E  A$path_manager$135                 path_manager
     00001390  A$path_manager$136                 path_manager
     00001393  A$path_manager$137                 path_manager
     00001395  A$path_manager$138                 path_manager
     00001398  A$path_manager$139                 path_manager
     0000139A  A$path_manager$140                 path_manager
     0000139D  A$path_manager$141                 path_manager
     0000139F  A$path_manager$142                 path_manager
     000013A2  A$path_manager$143                 path_manager
     000013A4  A$path_manager$147                 path_manager
     000013A4  C$path_manager.c$17$1$1            path_manager
     000013A7  A$path_manager$148                 path_manager
     000013A9  A$path_manager$149                 path_manager
     000013AC  A$path_manager$150                 path_manager
     000013AE  A$path_manager$151                 path_manager
     000013B1  A$path_manager$152                 path_manager
     000013B3  A$path_manager$153                 path_manager
     000013B6  A$path_manager$154                 path_manager
     000013B8  A$path_manager$155                 path_manager
     000013BB  A$path_manager$156                 path_manager
     000013BD  A$path_manager$157                 path_manager
     000013C0  A$path_manager$158                 path_manager
     000013C2  A$path_manager$159                 path_manager
     000013C5  A$path_manager$160                 path_manager
     000013C7  A$path_manager$164                 path_manager
     000013C7  C$path_manager.c$18$1$1            path_manager
     000013CA  A$path_manager$165                 path_manager
     000013CC  A$path_manager$166                 path_manager
     000013CF  A$path_manager$167                 path_manager
     000013D1  A$path_manager$168                 path_manager
     000013D4  A$path_manager$169                 path_manager
     000013D6  A$path_manager$170                 path_manager
     000013D9  A$path_manager$171                 path_manager
     000013DB  A$path_manager$172                 path_manager
     000013DE  A$path_manager$173                 path_manager
     000013E0  A$path_manager$174                 path_manager
     000013E3  A$path_manager$175                 path_manager
ASxxxx Linker V03.00 + NoICE + sdld,  page 55.
Hexadecimal  [32-Bits]

Area                                    Addr        Size        Decimal Bytes (Attributes)
--------------------------------        ----        ----        ------- ----- ------------
_CODE                               00000200    00003D26 =       15654. bytes (REL,CON)

      Value  Global                              Global Defined In Module
      -----  --------------------------------   ------------------------
     000013E5  A$path_manager$176                 path_manager
     000013E8  A$path_manager$177                 path_manager
     000013EA  A$path_manager$181                 path_manager
     000013EA  C$path_manager.c$19$1$1            path_manager
     000013ED  A$path_manager$182                 path_manager
     000013EF  A$path_manager$183                 path_manager
     000013F2  A$path_manager$184                 path_manager
     000013F4  A$path_manager$185                 path_manager
     000013F7  A$path_manager$186                 path_manager
     000013F9  A$path_manager$187                 path_manager
     000013FC  A$path_manager$188                 path_manager
     000013FE  A$path_manager$189                 path_manager
     00001401  A$path_manager$190                 path_manager
     00001403  A$path_manager$191                 path_manager
     00001406  A$path_manager$192                 path_manager
     00001408  A$path_manager$193                 path_manager
     0000140B  A$path_manager$194                 path_manager
     0000140D  A$path_manager$198                 path_manager
     0000140D  C$path_manager.c$22$1$1            path_manager
     00001410  A$path_manager$199                 path_manager
     00001412  A$path_manager$200                 path_manager
     00001415  A$path_manager$201                 path_manager
     00001417  A$path_manager$202                 path_manager
     0000141A  A$path_manager$203                 path_manager
     0000141C  A$path_manager$204                 path_manager
     0000141F  A$path_manager$205                 path_manager
     00001421  A$path_manager$206                 path_manager
     00001424  A$path_manager$207                 path_manager
     00001426  A$path_manager$208                 path_manager
     00001429  A$path_manager$209                 path_manager
     0000142B  A$path_manager$210                 path_manager
     0000142E  A$path_manager$211                 path_manager
     00001430  A$path_manager$215                 path_manager
     00001430  C$path_manager.c$23$1$1            path_manager
     00001433  A$path_manager$216                 path_manager
     00001435  A$path_manager$217                 path_manager
     00001438  A$path_manager$218                 path_manager
     0000143A  A$path_manager$219                 path_manager
     0000143D  A$path_manager$220                 path_manager
     0000143F  A$path_manager$221                 path_manager
     00001442  A$path_manager$222                 path_manager
     00001444  A$path_manager$223                 path_manager
     00001447  A$path_manager$224                 path_manager
     00001449  A$path_manager$225                 path_manager
     0000144C  A$path_manager$226                 path_manager
     0000144E  A$path_manager$227                 path_manager
     00001451  A$path_manager$228                 path_manager
     00001453  A$path_manager$232                 path_manager
     00001453  C$path_manager.c$24$1$1            path_manager
     00001456  A$path_manager$233                 path_manager
     00001458  A$path_manager$234                 path_manager
ASxxxx Linker V03.00 + NoICE + sdld,  page 56.
Hexadecimal  [32-Bits]

Area                                    Addr        Size        Decimal Bytes (Attributes)
--------------------------------        ----        ----        ------- ----- ------------
_CODE                               00000200    00003D26 =       15654. bytes (REL,CON)

      Value  Global                              Global Defined In Module
      -----  --------------------------------   ------------------------
     0000145B  A$path_manager$235                 path_manager
     0000145D  A$path_manager$236                 path_manager
     00001460  A$path_manager$237                 path_manager
     00001462  A$path_manager$238                 path_manager
     00001465  A$path_manager$239                 path_manager
     00001467  A$path_manager$240                 path_manager
     0000146A  A$path_manager$241                 path_manager
     0000146C  A$path_manager$242                 path_manager
     0000146F  A$path_manager$243                 path_manager
     00001471  A$path_manager$244                 path_manager
     00001474  A$path_manager$245                 path_manager
     00001476  A$path_manager$249                 path_manager
     00001476  C$path_manager.c$25$1$1            path_manager
     00001479  A$path_manager$250                 path_manager
     0000147B  A$path_manager$251                 path_manager
     0000147E  A$path_manager$252                 path_manager
     00001480  A$path_manager$253                 path_manager
     00001483  A$path_manager$254                 path_manager
     00001485  A$path_manager$255                 path_manager
     00001488  A$path_manager$256                 path_manager
     0000148A  A$path_manager$257                 path_manager
     0000148D  A$path_manager$258                 path_manager
     0000148F  A$path_manager$259                 path_manager
     00001492  A$path_manager$260                 path_manager
     00001494  A$path_manager$261                 path_manager
     00001497  A$path_manager$262                 path_manager
     00001499  A$path_manager$266                 path_manager
     00001499  C$path_manager.c$26$1$1            path_manager
     0000149C  A$path_manager$267                 path_manager
     0000149E  A$path_manager$268                 path_manager
     000014A1  A$path_manager$269                 path_manager
     000014A3  A$path_manager$270                 path_manager
     000014A6  A$path_manager$271                 path_manager
     000014A8  A$path_manager$272                 path_manager
     000014AB  A$path_manager$273                 path_manager
     000014AD  A$path_manager$274                 path_manager
     000014B0  A$path_manager$275                 path_manager
     000014B2  A$path_manager$276                 path_manager
     000014B5  A$path_manager$277                 path_manager
     000014B7  A$path_manager$278                 path_manager
     000014BA  A$path_manager$279                 path_manager
     000014BC  A$path_manager$283                 path_manager
     000014BC  C$path_manager.c$27$1$1            path_manager
     000014BF  A$path_manager$284                 path_manager
     000014C1  A$path_manager$285                 path_manager
     000014C4  A$path_manager$286                 path_manager
     000014C6  A$path_manager$287                 path_manager
     000014C9  A$path_manager$288                 path_manager
     000014CB  A$path_manager$289                 path_manager
     000014CE  A$path_manager$290                 path_manager
     000014D0  A$path_manager$291                 path_manager
ASxxxx Linker V03.00 + NoICE + sdld,  page 57.
Hexadecimal  [32-Bits]

Area                                    Addr        Size        Decimal Bytes (Attributes)
--------------------------------        ----        ----        ------- ----- ------------
_CODE                               00000200    00003D26 =       15654. bytes (REL,CON)

      Value  Global                              Global Defined In Module
      -----  --------------------------------   ------------------------
     000014D3  A$path_manager$292                 path_manager
     000014D5  A$path_manager$293                 path_manager
     000014D8  A$path_manager$294                 path_manager
     000014DA  A$path_manager$295                 path_manager
     000014DD  A$path_manager$296                 path_manager
     000014DF  A$path_manager$300                 path_manager
     000014DF  C$path_manager.c$28$1$1            path_manager
     000014E2  A$path_manager$301                 path_manager
     000014E4  A$path_manager$302                 path_manager
     000014E7  A$path_manager$303                 path_manager
     000014E9  A$path_manager$304                 path_manager
     000014EC  A$path_manager$305                 path_manager
     000014EE  A$path_manager$306                 path_manager
     000014F1  A$path_manager$307                 path_manager
     000014F3  A$path_manager$308                 path_manager
     000014F6  A$path_manager$309                 path_manager
     000014F8  A$path_manager$310                 path_manager
     000014FB  A$path_manager$311                 path_manager
     000014FD  A$path_manager$312                 path_manager
     00001500  A$path_manager$313                 path_manager
     00001502  A$path_manager$317                 path_manager
     00001502  C$path_manager.c$29$1$1            path_manager
     00001505  A$path_manager$318                 path_manager
     00001507  A$path_manager$319                 path_manager
     0000150A  A$path_manager$320                 path_manager
     0000150C  A$path_manager$321                 path_manager
     0000150F  A$path_manager$322                 path_manager
     00001511  A$path_manager$323                 path_manager
     00001514  A$path_manager$324                 path_manager
     00001516  A$path_manager$325                 path_manager
     00001519  A$path_manager$326                 path_manager
     0000151B  A$path_manager$327                 path_manager
     0000151E  A$path_manager$328                 path_manager
     00001520  A$path_manager$329                 path_manager
     00001523  A$path_manager$330                 path_manager
     00001525  A$path_manager$334                 path_manager
     00001525  C$path_manager.c$32$1$1            path_manager
     00001528  A$path_manager$335                 path_manager
     0000152A  A$path_manager$336                 path_manager
     0000152D  A$path_manager$337                 path_manager
     0000152F  A$path_manager$338                 path_manager
     00001532  A$path_manager$339                 path_manager
     00001534  A$path_manager$340                 path_manager
     00001537  A$path_manager$341                 path_manager
     00001539  A$path_manager$342                 path_manager
     0000153C  A$path_manager$343                 path_manager
     0000153E  A$path_manager$344                 path_manager
     00001541  A$path_manager$345                 path_manager
     00001543  A$path_manager$346                 path_manager
     00001546  A$path_manager$347                 path_manager
     00001548  A$path_manager$351                 path_manager
ASxxxx Linker V03.00 + NoICE + sdld,  page 58.
Hexadecimal  [32-Bits]

Area                                    Addr        Size        Decimal Bytes (Attributes)
--------------------------------        ----        ----        ------- ----- ------------
_CODE                               00000200    00003D26 =       15654. bytes (REL,CON)

      Value  Global                              Global Defined In Module
      -----  --------------------------------   ------------------------
     00001548  C$path_manager.c$33$1$1            path_manager
     0000154B  A$path_manager$352                 path_manager
     0000154D  A$path_manager$353                 path_manager
     00001550  A$path_manager$354                 path_manager
     00001552  A$path_manager$355                 path_manager
     00001555  A$path_manager$356                 path_manager
     00001557  A$path_manager$357                 path_manager
     0000155A  A$path_manager$358                 path_manager
     0000155C  A$path_manager$359                 path_manager
     0000155F  A$path_manager$360                 path_manager
     00001561  A$path_manager$361                 path_manager
     00001564  A$path_manager$362                 path_manager
     00001566  A$path_manager$363                 path_manager
     00001569  A$path_manager$364                 path_manager
     0000156B  A$path_manager$368                 path_manager
     0000156B  C$path_manager.c$34$1$1            path_manager
     0000156E  A$path_manager$369                 path_manager
     00001570  A$path_manager$370                 path_manager
     00001573  A$path_manager$371                 path_manager
     00001575  A$path_manager$372                 path_manager
     00001578  A$path_manager$373                 path_manager
     0000157A  A$path_manager$374                 path_manager
     0000157D  A$path_manager$375                 path_manager
     0000157F  A$path_manager$376                 path_manager
     00001582  A$path_manager$377                 path_manager
     00001584  A$path_manager$378                 path_manager
     00001587  A$path_manager$379                 path_manager
     00001589  A$path_manager$380                 path_manager
     0000158C  A$path_manager$381                 path_manager
     0000158E  A$path_manager$385                 path_manager
     0000158E  C$path_manager.c$35$1$1            path_manager
     00001591  A$path_manager$386                 path_manager
     00001593  A$path_manager$387                 path_manager
     00001596  A$path_manager$388                 path_manager
     00001598  A$path_manager$389                 path_manager
     0000159B  A$path_manager$390                 path_manager
     0000159D  A$path_manager$391                 path_manager
     000015A0  A$path_manager$392                 path_manager
     000015A2  A$path_manager$393                 path_manager
     000015A5  A$path_manager$394                 path_manager
     000015A7  A$path_manager$395                 path_manager
     000015AA  A$path_manager$396                 path_manager
     000015AC  A$path_manager$397                 path_manager
     000015AF  A$path_manager$398                 path_manager
     000015B1  A$path_manager$402                 path_manager
     000015B1  C$path_manager.c$36$1$1            path_manager
     000015B4  A$path_manager$403                 path_manager
     000015B6  A$path_manager$404                 path_manager
     000015B9  A$path_manager$405                 path_manager
     000015BB  A$path_manager$406                 path_manager
     000015BE  A$path_manager$407                 path_manager
ASxxxx Linker V03.00 + NoICE + sdld,  page 59.
Hexadecimal  [32-Bits]

Area                                    Addr        Size        Decimal Bytes (Attributes)
--------------------------------        ----        ----        ------- ----- ------------
_CODE                               00000200    00003D26 =       15654. bytes (REL,CON)

      Value  Global                              Global Defined In Module
      -----  --------------------------------   ------------------------
     000015C0  A$path_manager$408                 path_manager
     000015C3  A$path_manager$409                 path_manager
     000015C5  A$path_manager$410                 path_manager
     000015C8  A$path_manager$411                 path_manager
     000015CA  A$path_manager$412                 path_manager
     000015CD  A$path_manager$413                 path_manager
     000015CF  A$path_manager$414                 path_manager
     000015D2  A$path_manager$415                 path_manager
     000015D4  A$path_manager$419                 path_manager
     000015D4  C$path_manager.c$37$1$1            path_manager
     000015D7  A$path_manager$420                 path_manager
     000015D9  A$path_manager$421                 path_manager
     000015DC  A$path_manager$422                 path_manager
     000015DE  A$path_manager$423                 path_manager
     000015E1  A$path_manager$424                 path_manager
     000015E3  A$path_manager$425                 path_manager
     000015E6  A$path_manager$426                 path_manager
     000015E8  A$path_manager$427                 path_manager
     000015EB  A$path_manager$428                 path_manager
     000015ED  A$path_manager$429                 path_manager
     000015F0  A$path_manager$430                 path_manager
     000015F2  A$path_manager$431                 path_manager
     000015F5  A$path_manager$432                 path_manager
     000015F7  A$path_manager$436                 path_manager
     000015F7  C$path_manager.c$38$1$1            path_manager
     000015FA  A$path_manager$437                 path_manager
     000015FC  A$path_manager$438                 path_manager
     000015FF  A$path_manager$439                 path_manager
     00001601  A$path_manager$440                 path_manager
     00001604  A$path_manager$441                 path_manager
     00001606  A$path_manager$442                 path_manager
     00001609  A$path_manager$443                 path_manager
     0000160B  A$path_manager$444                 path_manager
     0000160E  A$path_manager$445                 path_manager
     00001610  A$path_manager$446                 path_manager
     00001613  A$path_manager$447                 path_manager
     00001615  A$path_manager$448                 path_manager
     00001618  A$path_manager$449                 path_manager
     0000161A  A$path_manager$453                 path_manager
     0000161A  C$path_manager.c$39$1$1            path_manager
     0000161D  A$path_manager$454                 path_manager
     0000161F  A$path_manager$455                 path_manager
     00001622  A$path_manager$456                 path_manager
     00001624  A$path_manager$457                 path_manager
     00001627  A$path_manager$458                 path_manager
     00001629  A$path_manager$459                 path_manager
     0000162C  A$path_manager$460                 path_manager
     0000162E  A$path_manager$461                 path_manager
     00001631  A$path_manager$462                 path_manager
     00001633  A$path_manager$463                 path_manager
     00001636  A$path_manager$464                 path_manager
ASxxxx Linker V03.00 + NoICE + sdld,  page 60.
Hexadecimal  [32-Bits]

Area                                    Addr        Size        Decimal Bytes (Attributes)
--------------------------------        ----        ----        ------- ----- ------------
_CODE                               00000200    00003D26 =       15654. bytes (REL,CON)

      Value  Global                              Global Defined In Module
      -----  --------------------------------   ------------------------
     00001638  A$path_manager$465                 path_manager
     0000163B  A$path_manager$466                 path_manager
     0000163D  A$path_manager$470                 path_manager
     0000163D  C$path_manager.c$42$1$1            path_manager
     00001640  A$path_manager$471                 path_manager
     00001642  A$path_manager$472                 path_manager
     00001645  A$path_manager$473                 path_manager
     00001647  A$path_manager$474                 path_manager
     0000164A  A$path_manager$475                 path_manager
     0000164C  A$path_manager$476                 path_manager
     0000164F  A$path_manager$477                 path_manager
     00001651  A$path_manager$478                 path_manager
     00001654  A$path_manager$479                 path_manager
     00001656  A$path_manager$480                 path_manager
     00001659  A$path_manager$481                 path_manager
     0000165B  A$path_manager$482                 path_manager
     0000165E  A$path_manager$483                 path_manager
     00001660  A$path_manager$487                 path_manager
     00001660  C$path_manager.c$43$1$1            path_manager
     00001663  A$path_manager$488                 path_manager
     00001665  A$path_manager$489                 path_manager
     00001668  A$path_manager$490                 path_manager
     0000166A  A$path_manager$491                 path_manager
     0000166D  A$path_manager$492                 path_manager
     0000166F  A$path_manager$493                 path_manager
     00001672  A$path_manager$494                 path_manager
     00001674  A$path_manager$495                 path_manager
     00001677  A$path_manager$496                 path_manager
     00001679  A$path_manager$497                 path_manager
     0000167C  A$path_manager$498                 path_manager
     0000167E  A$path_manager$499                 path_manager
     00001681  A$path_manager$500                 path_manager
     00001683  A$path_manager$504                 path_manager
     00001683  C$path_manager.c$44$1$1            path_manager
     00001686  A$path_manager$505                 path_manager
     00001688  A$path_manager$506                 path_manager
     0000168B  A$path_manager$507                 path_manager
     0000168D  A$path_manager$508                 path_manager
     00001690  A$path_manager$509                 path_manager
     00001692  A$path_manager$510                 path_manager
     00001695  A$path_manager$511                 path_manager
     00001697  A$path_manager$512                 path_manager
     0000169A  A$path_manager$513                 path_manager
     0000169C  A$path_manager$514                 path_manager
     0000169F  A$path_manager$515                 path_manager
     000016A1  A$path_manager$516                 path_manager
     000016A4  A$path_manager$517                 path_manager
     000016A6  A$path_manager$521                 path_manager
     000016A6  C$path_manager.c$45$1$1            path_manager
     000016A9  A$path_manager$522                 path_manager
     000016AB  A$path_manager$523                 path_manager
ASxxxx Linker V03.00 + NoICE + sdld,  page 61.
Hexadecimal  [32-Bits]

Area                                    Addr        Size        Decimal Bytes (Attributes)
--------------------------------        ----        ----        ------- ----- ------------
_CODE                               00000200    00003D26 =       15654. bytes (REL,CON)

      Value  Global                              Global Defined In Module
      -----  --------------------------------   ------------------------
     000016AE  A$path_manager$524                 path_manager
     000016B0  A$path_manager$525                 path_manager
     000016B3  A$path_manager$526                 path_manager
     000016B5  A$path_manager$527                 path_manager
     000016B8  A$path_manager$528                 path_manager
     000016BA  A$path_manager$529                 path_manager
     000016BD  A$path_manager$530                 path_manager
     000016BF  A$path_manager$531                 path_manager
     000016C2  A$path_manager$532                 path_manager
     000016C4  A$path_manager$533                 path_manager
     000016C7  A$path_manager$534                 path_manager
     000016C9  A$path_manager$538                 path_manager
     000016C9  C$path_manager.c$46$1$1            path_manager
     000016CC  A$path_manager$539                 path_manager
     000016CE  A$path_manager$540                 path_manager
     000016D1  A$path_manager$541                 path_manager
     000016D3  A$path_manager$542                 path_manager
     000016D6  A$path_manager$543                 path_manager
     000016D8  A$path_manager$544                 path_manager
     000016DB  A$path_manager$545                 path_manager
     000016DD  A$path_manager$546                 path_manager
     000016E0  A$path_manager$547                 path_manager
     000016E2  A$path_manager$548                 path_manager
     000016E5  A$path_manager$549                 path_manager
     000016E7  A$path_manager$550                 path_manager
     000016EA  A$path_manager$551                 path_manager
     000016EC  A$path_manager$555                 path_manager
     000016EC  C$path_manager.c$47$1$1            path_manager
     000016EF  A$path_manager$556                 path_manager
     000016F1  A$path_manager$557                 path_manager
     000016F4  A$path_manager$558                 path_manager
     000016F6  A$path_manager$559                 path_manager
     000016F9  A$path_manager$560                 path_manager
     000016FB  A$path_manager$561                 path_manager
     000016FE  A$path_manager$562                 path_manager
     00001700  A$path_manager$563                 path_manager
     00001703  A$path_manager$564                 path_manager
     00001705  A$path_manager$565                 path_manager
     00001708  A$path_manager$566                 path_manager
     0000170A  A$path_manager$567                 path_manager
     0000170D  A$path_manager$568                 path_manager
     0000170F  A$path_manager$572                 path_manager
     0000170F  C$path_manager.c$48$1$1            path_manager
     00001712  A$path_manager$573                 path_manager
     00001714  A$path_manager$574                 path_manager
     00001717  A$path_manager$575                 path_manager
     00001719  A$path_manager$576                 path_manager
     0000171C  A$path_manager$577                 path_manager
     0000171E  A$path_manager$578                 path_manager
     00001721  A$path_manager$579                 path_manager
     00001723  A$path_manager$580                 path_manager
ASxxxx Linker V03.00 + NoICE + sdld,  page 62.
Hexadecimal  [32-Bits]

Area                                    Addr        Size        Decimal Bytes (Attributes)
--------------------------------        ----        ----        ------- ----- ------------
_CODE                               00000200    00003D26 =       15654. bytes (REL,CON)

      Value  Global                              Global Defined In Module
      -----  --------------------------------   ------------------------
     00001726  A$path_manager$581                 path_manager
     00001728  A$path_manager$582                 path_manager
     0000172B  A$path_manager$583                 path_manager
     0000172D  A$path_manager$584                 path_manager
     00001730  A$path_manager$585                 path_manager
     00001732  A$path_manager$589                 path_manager
     00001732  C$path_manager.c$49$1$1            path_manager
     00001735  A$path_manager$590                 path_manager
     00001737  A$path_manager$591                 path_manager
     0000173A  A$path_manager$592                 path_manager
     0000173C  A$path_manager$593                 path_manager
     0000173F  A$path_manager$594                 path_manager
     00001741  A$path_manager$595                 path_manager
     00001744  A$path_manager$596                 path_manager
     00001746  A$path_manager$597                 path_manager
     00001749  A$path_manager$598                 path_manager
     0000174B  A$path_manager$599                 path_manager
     0000174E  A$path_manager$600                 path_manager
     00001750  A$path_manager$601                 path_manager
     00001753  A$path_manager$602                 path_manager
     00001755  A$path_manager$606                 path_manager
     00001755  C$path_manager.c$52$1$1            path_manager
     00001758  A$path_manager$607                 path_manager
     0000175A  A$path_manager$608                 path_manager
     0000175D  A$path_manager$609                 path_manager
     0000175F  A$path_manager$610                 path_manager
     00001762  A$path_manager$611                 path_manager
     00001764  A$path_manager$612                 path_manager
     00001767  A$path_manager$613                 path_manager
     00001769  A$path_manager$614                 path_manager
     0000176C  A$path_manager$615                 path_manager
     0000176E  A$path_manager$616                 path_manager
     00001771  A$path_manager$617                 path_manager
     00001773  A$path_manager$618                 path_manager
     00001776  A$path_manager$619                 path_manager
     00001778  A$path_manager$623                 path_manager
     00001778  C$path_manager.c$53$1$1            path_manager
     0000177B  A$path_manager$624                 path_manager
     0000177D  A$path_manager$625                 path_manager
     00001780  A$path_manager$626                 path_manager
     00001782  A$path_manager$627                 path_manager
     00001785  A$path_manager$628                 path_manager
     00001787  A$path_manager$629                 path_manager
     0000178A  A$path_manager$630                 path_manager
     0000178C  A$path_manager$631                 path_manager
     0000178F  A$path_manager$632                 path_manager
     00001791  A$path_manager$633                 path_manager
     00001794  A$path_manager$634                 path_manager
     00001796  A$path_manager$635                 path_manager
     00001799  A$path_manager$636                 path_manager
     0000179B  A$path_manager$640                 path_manager
ASxxxx Linker V03.00 + NoICE + sdld,  page 63.
Hexadecimal  [32-Bits]

Area                                    Addr        Size        Decimal Bytes (Attributes)
--------------------------------        ----        ----        ------- ----- ------------
_CODE                               00000200    00003D26 =       15654. bytes (REL,CON)

      Value  Global                              Global Defined In Module
      -----  --------------------------------   ------------------------
     0000179B  C$path_manager.c$54$1$1            path_manager
     0000179E  A$path_manager$641                 path_manager
     000017A0  A$path_manager$642                 path_manager
     000017A3  A$path_manager$643                 path_manager
     000017A5  A$path_manager$644                 path_manager
     000017A8  A$path_manager$645                 path_manager
     000017AA  A$path_manager$646                 path_manager
     000017AD  A$path_manager$647                 path_manager
     000017AF  A$path_manager$648                 path_manager
     000017B2  A$path_manager$649                 path_manager
     000017B4  A$path_manager$650                 path_manager
     000017B7  A$path_manager$651                 path_manager
     000017B9  A$path_manager$652                 path_manager
     000017BC  A$path_manager$653                 path_manager
     000017BE  A$path_manager$657                 path_manager
     000017BE  C$path_manager.c$55$1$1            path_manager
     000017C1  A$path_manager$658                 path_manager
     000017C3  A$path_manager$659                 path_manager
     000017C6  A$path_manager$660                 path_manager
     000017C8  A$path_manager$661                 path_manager
     000017CB  A$path_manager$662                 path_manager
     000017CD  A$path_manager$663                 path_manager
     000017D0  A$path_manager$664                 path_manager
     000017D2  A$path_manager$665                 path_manager
     000017D5  A$path_manager$666                 path_manager
     000017D7  A$path_manager$667                 path_manager
     000017DA  A$path_manager$668                 path_manager
     000017DC  A$path_manager$669                 path_manager
     000017DF  A$path_manager$670                 path_manager
     000017E1  A$path_manager$674                 path_manager
     000017E1  C$path_manager.c$56$1$1            path_manager
     000017E4  A$path_manager$675                 path_manager
     000017E6  A$path_manager$676                 path_manager
     000017E9  A$path_manager$677                 path_manager
     000017EB  A$path_manager$678                 path_manager
     000017EE  A$path_manager$679                 path_manager
     000017F0  A$path_manager$680                 path_manager
     000017F3  A$path_manager$681                 path_manager
     000017F5  A$path_manager$682                 path_manager
     000017F8  A$path_manager$683                 path_manager
     000017FA  A$path_manager$684                 path_manager
     000017FD  A$path_manager$685                 path_manager
     000017FF  A$path_manager$686                 path_manager
     00001802  A$path_manager$687                 path_manager
     00001804  A$path_manager$691                 path_manager
     00001804  C$path_manager.c$57$1$1            path_manager
     00001807  A$path_manager$692                 path_manager
     00001809  A$path_manager$693                 path_manager
     0000180C  A$path_manager$694                 path_manager
     0000180E  A$path_manager$695                 path_manager
     00001811  A$path_manager$696                 path_manager
ASxxxx Linker V03.00 + NoICE + sdld,  page 64.
Hexadecimal  [32-Bits]

Area                                    Addr        Size        Decimal Bytes (Attributes)
--------------------------------        ----        ----        ------- ----- ------------
_CODE                               00000200    00003D26 =       15654. bytes (REL,CON)

      Value  Global                              Global Defined In Module
      -----  --------------------------------   ------------------------
     00001813  A$path_manager$697                 path_manager
     00001816  A$path_manager$698                 path_manager
     00001818  A$path_manager$699                 path_manager
     0000181B  A$path_manager$700                 path_manager
     0000181D  A$path_manager$701                 path_manager
     00001820  A$path_manager$702                 path_manager
     00001822  A$path_manager$703                 path_manager
     00001825  A$path_manager$704                 path_manager
     00001827  A$path_manager$708                 path_manager
     00001827  C$path_manager.c$58$1$1            path_manager
     0000182A  A$path_manager$709                 path_manager
     0000182C  A$path_manager$710                 path_manager
     0000182F  A$path_manager$711                 path_manager
     00001831  A$path_manager$712                 path_manager
     00001834  A$path_manager$713                 path_manager
     00001836  A$path_manager$714                 path_manager
     00001839  A$path_manager$715                 path_manager
     0000183B  A$path_manager$716                 path_manager
     0000183E  A$path_manager$717                 path_manager
     00001840  A$path_manager$718                 path_manager
     00001843  A$path_manager$719                 path_manager
     00001845  A$path_manager$720                 path_manager
     00001848  A$path_manager$721                 path_manager
     0000184A  A$path_manager$725                 path_manager
     0000184A  C$path_manager.c$59$1$1            path_manager
     0000184D  A$path_manager$726                 path_manager
     0000184F  A$path_manager$727                 path_manager
     00001852  A$path_manager$728                 path_manager
     00001854  A$path_manager$729                 path_manager
     00001857  A$path_manager$730                 path_manager
     00001859  A$path_manager$731                 path_manager
     0000185C  A$path_manager$732                 path_manager
     0000185E  A$path_manager$733                 path_manager
     00001861  A$path_manager$734                 path_manager
     00001863  A$path_manager$735                 path_manager
     00001866  A$path_manager$736                 path_manager
     00001868  A$path_manager$737                 path_manager
     0000186B  A$path_manager$738                 path_manager
     0000186D  A$path_manager$742                 path_manager
     0000186D  C$path_manager.c$62$1$1            path_manager
     00001870  A$path_manager$743                 path_manager
     00001872  A$path_manager$744                 path_manager
     00001875  A$path_manager$745                 path_manager
     00001877  A$path_manager$746                 path_manager
     0000187A  A$path_manager$747                 path_manager
     0000187C  A$path_manager$748                 path_manager
     0000187F  A$path_manager$749                 path_manager
     00001881  A$path_manager$750                 path_manager
     00001884  A$path_manager$751                 path_manager
     00001886  A$path_manager$752                 path_manager
     00001889  A$path_manager$753                 path_manager
ASxxxx Linker V03.00 + NoICE + sdld,  page 65.
Hexadecimal  [32-Bits]

Area                                    Addr        Size        Decimal Bytes (Attributes)
--------------------------------        ----        ----        ------- ----- ------------
_CODE                               00000200    00003D26 =       15654. bytes (REL,CON)

      Value  Global                              Global Defined In Module
      -----  --------------------------------   ------------------------
     0000188B  A$path_manager$754                 path_manager
     0000188E  A$path_manager$755                 path_manager
     00001890  A$path_manager$759                 path_manager
     00001890  C$path_manager.c$63$1$1            path_manager
     00001893  A$path_manager$760                 path_manager
     00001895  A$path_manager$761                 path_manager
     00001898  A$path_manager$762                 path_manager
     0000189A  A$path_manager$763                 path_manager
     0000189D  A$path_manager$764                 path_manager
     0000189F  A$path_manager$765                 path_manager
     000018A2  A$path_manager$766                 path_manager
     000018A4  A$path_manager$767                 path_manager
     000018A7  A$path_manager$768                 path_manager
     000018A9  A$path_manager$769                 path_manager
     000018AC  A$path_manager$770                 path_manager
     000018AE  A$path_manager$771                 path_manager
     000018B1  A$path_manager$772                 path_manager
     000018B3  A$path_manager$776                 path_manager
     000018B3  C$path_manager.c$64$1$1            path_manager
     000018B6  A$path_manager$777                 path_manager
     000018B8  A$path_manager$778                 path_manager
     000018BB  A$path_manager$779                 path_manager
     000018BD  A$path_manager$780                 path_manager
     000018C0  A$path_manager$781                 path_manager
     000018C2  A$path_manager$782                 path_manager
     000018C5  A$path_manager$783                 path_manager
     000018C7  A$path_manager$784                 path_manager
     000018CA  A$path_manager$785                 path_manager
     000018CC  A$path_manager$786                 path_manager
     000018CF  A$path_manager$787                 path_manager
     000018D1  A$path_manager$788                 path_manager
     000018D4  A$path_manager$789                 path_manager
     000018D6  A$path_manager$793                 path_manager
     000018D6  C$path_manager.c$65$1$1            path_manager
     000018D9  A$path_manager$794                 path_manager
     000018DB  A$path_manager$795                 path_manager
     000018DE  A$path_manager$796                 path_manager
     000018E0  A$path_manager$797                 path_manager
     000018E3  A$path_manager$798                 path_manager
     000018E5  A$path_manager$799                 path_manager
     000018E8  A$path_manager$800                 path_manager
     000018EA  A$path_manager$801                 path_manager
     000018ED  A$path_manager$802                 path_manager
     000018EF  A$path_manager$803                 path_manager
     000018F2  A$path_manager$804                 path_manager
     000018F4  A$path_manager$805                 path_manager
     000018F7  A$path_manager$806                 path_manager
     000018F9  A$path_manager$810                 path_manager
     000018F9  C$path_manager.c$66$1$1            path_manager
     000018FC  A$path_manager$811                 path_manager
     000018FE  A$path_manager$812                 path_manager
ASxxxx Linker V03.00 + NoICE + sdld,  page 66.
Hexadecimal  [32-Bits]

Area                                    Addr        Size        Decimal Bytes (Attributes)
--------------------------------        ----        ----        ------- ----- ------------
_CODE                               00000200    00003D26 =       15654. bytes (REL,CON)

      Value  Global                              Global Defined In Module
      -----  --------------------------------   ------------------------
     00001901  A$path_manager$813                 path_manager
     00001903  A$path_manager$814                 path_manager
     00001906  A$path_manager$815                 path_manager
     00001908  A$path_manager$816                 path_manager
     0000190B  A$path_manager$817                 path_manager
     0000190D  A$path_manager$818                 path_manager
     00001910  A$path_manager$819                 path_manager
     00001912  A$path_manager$820                 path_manager
     00001915  A$path_manager$821                 path_manager
     00001917  A$path_manager$822                 path_manager
     0000191A  A$path_manager$823                 path_manager
     0000191C  A$path_manager$827                 path_manager
     0000191C  C$path_manager.c$67$1$1            path_manager
     0000191F  A$path_manager$828                 path_manager
     00001921  A$path_manager$829                 path_manager
     00001924  A$path_manager$830                 path_manager
     00001926  A$path_manager$831                 path_manager
     00001929  A$path_manager$832                 path_manager
     0000192B  A$path_manager$833                 path_manager
     0000192E  A$path_manager$834                 path_manager
     00001930  A$path_manager$835                 path_manager
     00001933  A$path_manager$836                 path_manager
     00001935  A$path_manager$837                 path_manager
     00001938  A$path_manager$838                 path_manager
     0000193A  A$path_manager$839                 path_manager
     0000193D  A$path_manager$840                 path_manager
     0000193F  A$path_manager$844                 path_manager
     0000193F  C$path_manager.c$68$1$1            path_manager
     00001942  A$path_manager$845                 path_manager
     00001944  A$path_manager$846                 path_manager
     00001947  A$path_manager$847                 path_manager
     00001949  A$path_manager$848                 path_manager
     0000194C  A$path_manager$849                 path_manager
     0000194E  A$path_manager$850                 path_manager
     00001951  A$path_manager$851                 path_manager
     00001953  A$path_manager$852                 path_manager
     00001956  A$path_manager$853                 path_manager
     00001958  A$path_manager$854                 path_manager
     0000195B  A$path_manager$855                 path_manager
     0000195D  A$path_manager$856                 path_manager
     00001960  A$path_manager$857                 path_manager
     00001962  A$path_manager$861                 path_manager
     00001962  C$path_manager.c$69$1$1            path_manager
     00001965  A$path_manager$862                 path_manager
     00001967  A$path_manager$863                 path_manager
     0000196A  A$path_manager$864                 path_manager
     0000196C  A$path_manager$865                 path_manager
     0000196F  A$path_manager$866                 path_manager
     00001971  A$path_manager$867                 path_manager
     00001974  A$path_manager$868                 path_manager
     00001976  A$path_manager$869                 path_manager
ASxxxx Linker V03.00 + NoICE + sdld,  page 67.
Hexadecimal  [32-Bits]

Area                                    Addr        Size        Decimal Bytes (Attributes)
--------------------------------        ----        ----        ------- ----- ------------
_CODE                               00000200    00003D26 =       15654. bytes (REL,CON)

      Value  Global                              Global Defined In Module
      -----  --------------------------------   ------------------------
     00001979  A$path_manager$870                 path_manager
     0000197B  A$path_manager$871                 path_manager
     0000197E  A$path_manager$872                 path_manager
     00001980  A$path_manager$873                 path_manager
     00001983  A$path_manager$874                 path_manager
     00001985  A$path_manager$878                 path_manager
     00001985  C$path_manager.c$72$1$1            path_manager
     00001988  A$path_manager$879                 path_manager
     0000198A  A$path_manager$880                 path_manager
     0000198D  A$path_manager$881                 path_manager
     0000198F  A$path_manager$882                 path_manager
     00001992  A$path_manager$883                 path_manager
     00001994  A$path_manager$884                 path_manager
     00001997  A$path_manager$885                 path_manager
     00001999  A$path_manager$886                 path_manager
     0000199C  A$path_manager$887                 path_manager
     0000199E  A$path_manager$888                 path_manager
     000019A1  A$path_manager$889                 path_manager
     000019A3  A$path_manager$890                 path_manager
     000019A6  A$path_manager$891                 path_manager
     000019A8  A$path_manager$895                 path_manager
     000019A8  C$path_manager.c$73$1$1            path_manager
     000019AB  A$path_manager$896                 path_manager
     000019AD  A$path_manager$897                 path_manager
     000019B0  A$path_manager$898                 path_manager
     000019B2  A$path_manager$899                 path_manager
     000019B5  A$path_manager$900                 path_manager
     000019B7  A$path_manager$901                 path_manager
     000019BA  A$path_manager$902                 path_manager
     000019BC  A$path_manager$903                 path_manager
     000019BF  A$path_manager$904                 path_manager
     000019C1  A$path_manager$905                 path_manager
     000019C4  A$path_manager$906                 path_manager
     000019C6  A$path_manager$907                 path_manager
     000019C9  A$path_manager$908                 path_manager
     000019CB  A$path_manager$912                 path_manager
     000019CB  C$path_manager.c$74$1$1            path_manager
     000019CE  A$path_manager$913                 path_manager
     000019D0  A$path_manager$914                 path_manager
     000019D3  A$path_manager$915                 path_manager
     000019D5  A$path_manager$916                 path_manager
     000019D8  A$path_manager$917                 path_manager
     000019DA  A$path_manager$918                 path_manager
     000019DD  A$path_manager$919                 path_manager
     000019DF  A$path_manager$920                 path_manager
     000019E2  A$path_manager$921                 path_manager
     000019E4  A$path_manager$922                 path_manager
     000019E7  A$path_manager$923                 path_manager
     000019E9  A$path_manager$924                 path_manager
     000019EC  A$path_manager$925                 path_manager
     000019EE  A$path_manager$929                 path_manager
ASxxxx Linker V03.00 + NoICE + sdld,  page 68.
Hexadecimal  [32-Bits]

Area                                    Addr        Size        Decimal Bytes (Attributes)
--------------------------------        ----        ----        ------- ----- ------------
_CODE                               00000200    00003D26 =       15654. bytes (REL,CON)

      Value  Global                              Global Defined In Module
      -----  --------------------------------   ------------------------
     000019EE  C$path_manager.c$75$1$1            path_manager
     000019F1  A$path_manager$930                 path_manager
     000019F3  A$path_manager$931                 path_manager
     000019F6  A$path_manager$932                 path_manager
     000019F8  A$path_manager$933                 path_manager
     000019FB  A$path_manager$934                 path_manager
     000019FD  A$path_manager$935                 path_manager
     00001A00  A$path_manager$936                 path_manager
     00001A02  A$path_manager$937                 path_manager
     00001A05  A$path_manager$938                 path_manager
     00001A07  A$path_manager$939                 path_manager
     00001A0A  A$path_manager$940                 path_manager
     00001A0C  A$path_manager$941                 path_manager
     00001A0F  A$path_manager$942                 path_manager
     00001A11  A$path_manager$946                 path_manager
     00001A11  C$path_manager.c$76$1$1            path_manager
     00001A14  A$path_manager$947                 path_manager
     00001A16  A$path_manager$948                 path_manager
     00001A19  A$path_manager$949                 path_manager
     00001A1B  A$path_manager$950                 path_manager
     00001A1E  A$path_manager$951                 path_manager
     00001A20  A$path_manager$952                 path_manager
     00001A23  A$path_manager$953                 path_manager
     00001A25  A$path_manager$954                 path_manager
     00001A28  A$path_manager$955                 path_manager
     00001A2A  A$path_manager$956                 path_manager
     00001A2D  A$path_manager$957                 path_manager
     00001A2F  A$path_manager$958                 path_manager
     00001A32  A$path_manager$959                 path_manager
     00001A34  A$path_manager$963                 path_manager
     00001A34  C$path_manager.c$77$1$1            path_manager
     00001A37  A$path_manager$964                 path_manager
     00001A39  A$path_manager$965                 path_manager
     00001A3C  A$path_manager$966                 path_manager
     00001A3E  A$path_manager$967                 path_manager
     00001A41  A$path_manager$968                 path_manager
     00001A43  A$path_manager$969                 path_manager
     00001A46  A$path_manager$970                 path_manager
     00001A48  A$path_manager$971                 path_manager
     00001A4B  A$path_manager$972                 path_manager
     00001A4D  A$path_manager$973                 path_manager
     00001A50  A$path_manager$974                 path_manager
     00001A52  A$path_manager$975                 path_manager
     00001A55  A$path_manager$976                 path_manager
     00001A57  A$path_manager$980                 path_manager
     00001A57  C$path_manager.c$78$1$1            path_manager
     00001A5A  A$path_manager$981                 path_manager
     00001A5C  A$path_manager$982                 path_manager
     00001A5F  A$path_manager$983                 path_manager
     00001A61  A$path_manager$984                 path_manager
     00001A64  A$path_manager$985                 path_manager
ASxxxx Linker V03.00 + NoICE + sdld,  page 69.
Hexadecimal  [32-Bits]

Area                                    Addr        Size        Decimal Bytes (Attributes)
--------------------------------        ----        ----        ------- ----- ------------
_CODE                               00000200    00003D26 =       15654. bytes (REL,CON)

      Value  Global                              Global Defined In Module
      -----  --------------------------------   ------------------------
     00001A66  A$path_manager$986                 path_manager
     00001A69  A$path_manager$987                 path_manager
     00001A6B  A$path_manager$988                 path_manager
     00001A6E  A$path_manager$989                 path_manager
     00001A70  A$path_manager$990                 path_manager
     00001A73  A$path_manager$991                 path_manager
     00001A75  A$path_manager$992                 path_manager
     00001A78  A$path_manager$993                 path_manager
     00001A7A  A$path_manager$997                 path_manager
     00001A7A  C$path_manager.c$79$1$1            path_manager
     00001A7D  A$path_manager$998                 path_manager
     00001A7F  A$path_manager$999                 path_manager
     00001A82  A$path_manager$1000                path_manager
     00001A84  A$path_manager$1001                path_manager
     00001A87  A$path_manager$1002                path_manager
     00001A89  A$path_manager$1003                path_manager
     00001A8C  A$path_manager$1004                path_manager
     00001A8E  A$path_manager$1005                path_manager
     00001A91  A$path_manager$1006                path_manager
     00001A93  A$path_manager$1007                path_manager
     00001A96  A$path_manager$1008                path_manager
     00001A98  A$path_manager$1009                path_manager
     00001A9B  A$path_manager$1010                path_manager
     00001A9D  A$path_manager$1014                path_manager
     00001A9D  C$path_manager.c$82$1$1            path_manager
     00001AA0  A$path_manager$1015                path_manager
     00001AA2  A$path_manager$1016                path_manager
     00001AA5  A$path_manager$1017                path_manager
     00001AA7  A$path_manager$1018                path_manager
     00001AAA  A$path_manager$1019                path_manager
     00001AAC  A$path_manager$1020                path_manager
     00001AAF  A$path_manager$1021                path_manager
     00001AB1  A$path_manager$1022                path_manager
     00001AB4  A$path_manager$1023                path_manager
     00001AB6  A$path_manager$1024                path_manager
     00001AB9  A$path_manager$1025                path_manager
     00001ABB  A$path_manager$1026                path_manager
     00001ABE  A$path_manager$1027                path_manager
     00001AC0  A$path_manager$1031                path_manager
     00001AC0  C$path_manager.c$83$1$1            path_manager
     00001AC3  A$path_manager$1032                path_manager
     00001AC5  A$path_manager$1033                path_manager
     00001AC8  A$path_manager$1034                path_manager
     00001ACA  A$path_manager$1035                path_manager
     00001ACD  A$path_manager$1036                path_manager
     00001ACF  A$path_manager$1037                path_manager
     00001AD2  A$path_manager$1038                path_manager
     00001AD4  A$path_manager$1039                path_manager
     00001AD7  A$path_manager$1040                path_manager
     00001AD9  A$path_manager$1041                path_manager
     00001ADC  A$path_manager$1042                path_manager
ASxxxx Linker V03.00 + NoICE + sdld,  page 70.
Hexadecimal  [32-Bits]

Area                                    Addr        Size        Decimal Bytes (Attributes)
--------------------------------        ----        ----        ------- ----- ------------
_CODE                               00000200    00003D26 =       15654. bytes (REL,CON)

      Value  Global                              Global Defined In Module
      -----  --------------------------------   ------------------------
     00001ADE  A$path_manager$1043                path_manager
     00001AE1  A$path_manager$1044                path_manager
     00001AE3  A$path_manager$1048                path_manager
     00001AE3  C$path_manager.c$84$1$1            path_manager
     00001AE6  A$path_manager$1049                path_manager
     00001AE8  A$path_manager$1050                path_manager
     00001AEB  A$path_manager$1051                path_manager
     00001AED  A$path_manager$1052                path_manager
     00001AF0  A$path_manager$1053                path_manager
     00001AF2  A$path_manager$1054                path_manager
     00001AF5  A$path_manager$1055                path_manager
     00001AF7  A$path_manager$1056                path_manager
     00001AFA  A$path_manager$1057                path_manager
     00001AFC  A$path_manager$1058                path_manager
     00001AFF  A$path_manager$1059                path_manager
     00001B01  A$path_manager$1060                path_manager
     00001B04  A$path_manager$1061                path_manager
     00001B06  A$path_manager$1065                path_manager
     00001B06  C$path_manager.c$85$1$1            path_manager
     00001B09  A$path_manager$1066                path_manager
     00001B0B  A$path_manager$1067                path_manager
     00001B0E  A$path_manager$1068                path_manager
     00001B10  A$path_manager$1069                path_manager
     00001B13  A$path_manager$1070                path_manager
     00001B15  A$path_manager$1071                path_manager
     00001B18  A$path_manager$1072                path_manager
     00001B1A  A$path_manager$1073                path_manager
     00001B1D  A$path_manager$1074                path_manager
     00001B1F  A$path_manager$1075                path_manager
     00001B22  A$path_manager$1076                path_manager
     00001B24  A$path_manager$1077                path_manager
     00001B27  A$path_manager$1078                path_manager
     00001B29  A$path_manager$1082                path_manager
     00001B29  C$path_manager.c$86$1$1            path_manager
     00001B2C  A$path_manager$1083                path_manager
     00001B2E  A$path_manager$1084                path_manager
     00001B31  A$path_manager$1085                path_manager
     00001B33  A$path_manager$1086                path_manager
     00001B36  A$path_manager$1087                path_manager
     00001B38  A$path_manager$1088                path_manager
     00001B3B  A$path_manager$1089                path_manager
     00001B3D  A$path_manager$1090                path_manager
     00001B40  A$path_manager$1091                path_manager
     00001B42  A$path_manager$1092                path_manager
     00001B45  A$path_manager$1093                path_manager
     00001B47  A$path_manager$1094                path_manager
     00001B4A  A$path_manager$1095                path_manager
     00001B4C  A$path_manager$1099                path_manager
     00001B4C  C$path_manager.c$87$1$1            path_manager
     00001B4F  A$path_manager$1100                path_manager
     00001B51  A$path_manager$1101                path_manager
ASxxxx Linker V03.00 + NoICE + sdld,  page 71.
Hexadecimal  [32-Bits]

Area                                    Addr        Size        Decimal Bytes (Attributes)
--------------------------------        ----        ----        ------- ----- ------------
_CODE                               00000200    00003D26 =       15654. bytes (REL,CON)

      Value  Global                              Global Defined In Module
      -----  --------------------------------   ------------------------
     00001B54  A$path_manager$1102                path_manager
     00001B56  A$path_manager$1103                path_manager
     00001B59  A$path_manager$1104                path_manager
     00001B5B  A$path_manager$1105                path_manager
     00001B5E  A$path_manager$1106                path_manager
     00001B60  A$path_manager$1107                path_manager
     00001B63  A$path_manager$1108                path_manager
     00001B65  A$path_manager$1109                path_manager
     00001B68  A$path_manager$1110                path_manager
     00001B6A  A$path_manager$1111                path_manager
     00001B6D  A$path_manager$1112                path_manager
     00001B6F  A$path_manager$1116                path_manager
     00001B6F  C$path_manager.c$88$1$1            path_manager
     00001B72  A$path_manager$1117                path_manager
     00001B74  A$path_manager$1118                path_manager
     00001B77  A$path_manager$1119                path_manager
     00001B79  A$path_manager$1120                path_manager
     00001B7C  A$path_manager$1121                path_manager
     00001B7E  A$path_manager$1122                path_manager
     00001B81  A$path_manager$1123                path_manager
     00001B83  A$path_manager$1124                path_manager
     00001B86  A$path_manager$1125                path_manager
     00001B88  A$path_manager$1126                path_manager
     00001B8B  A$path_manager$1127                path_manager
     00001B8D  A$path_manager$1128                path_manager
     00001B90  A$path_manager$1129                path_manager
     00001B92  A$path_manager$1133                path_manager
     00001B92  C$path_manager.c$89$1$1            path_manager
     00001B95  A$path_manager$1134                path_manager
     00001B97  A$path_manager$1135                path_manager
     00001B9A  A$path_manager$1136                path_manager
     00001B9C  A$path_manager$1137                path_manager
     00001B9F  A$path_manager$1138                path_manager
     00001BA1  A$path_manager$1139                path_manager
     00001BA4  A$path_manager$1140                path_manager
     00001BA6  A$path_manager$1141                path_manager
     00001BA9  A$path_manager$1142                path_manager
     00001BAB  A$path_manager$1143                path_manager
     00001BAE  A$path_manager$1144                path_manager
     00001BB0  A$path_manager$1145                path_manager
     00001BB3  A$path_manager$1146                path_manager
     00001BB5  A$path_manager$1151                path_manager
     00001BB5  C$path_manager.c$90$1$1            path_manager
     00001BB5  XG$engine_path_manager_init$0$0    path_manager
     00001BB6  A$screen_manager$78                screen_manager
     00001BB6  C$screen_manager.c$20$0$0          screen_manager
     00001BB6  C$screen_manager.c$22$1$9          screen_manager
     00001BB6  G$engine_screen_manager_init$0$0   screen_manager
     00001BB6  _engine_screen_manager_init        screen_manager
     00001BB9  A$screen_manager$79                screen_manager
     00001BBB  A$screen_manager$83                screen_manager
ASxxxx Linker V03.00 + NoICE + sdld,  page 72.
Hexadecimal  [32-Bits]

Area                                    Addr        Size        Decimal Bytes (Attributes)
--------------------------------        ----        ----        ------- ----- ------------
_CODE                               00000200    00003D26 =       15654. bytes (REL,CON)

      Value  Global                              Global Defined In Module
      -----  --------------------------------   ------------------------
     00001BBB  C$screen_manager.c$23$1$9          screen_manager
     00001BBE  A$screen_manager$84                screen_manager
     00001BBF  A$screen_manager$85                screen_manager
     00001BC0  A$screen_manager$86                screen_manager
     00001BC3  A$screen_manager$90                screen_manager
     00001BC3  C$screen_manager.c$26$1$9          screen_manager
     00001BC6  A$screen_manager$91                screen_manager
     00001BC9  A$screen_manager$95                screen_manager
     00001BC9  C$screen_manager.c$27$1$9          screen_manager
     00001BCC  A$screen_manager$96                screen_manager
     00001BCF  A$screen_manager$100               screen_manager
     00001BCF  C$screen_manager.c$28$1$9          screen_manager
     00001BD2  A$screen_manager$101               screen_manager
     00001BD5  A$screen_manager$105               screen_manager
     00001BD5  C$screen_manager.c$29$1$9          screen_manager
     00001BD8  A$screen_manager$106               screen_manager
     00001BDB  A$screen_manager$110               screen_manager
     00001BDB  C$screen_manager.c$30$1$9          screen_manager
     00001BDE  A$screen_manager$111               screen_manager
     00001BE1  A$screen_manager$115               screen_manager
     00001BE1  C$screen_manager.c$33$1$9          screen_manager
     00001BE4  A$screen_manager$116               screen_manager
     00001BE7  A$screen_manager$120               screen_manager
     00001BE7  C$screen_manager.c$34$1$9          screen_manager
     00001BEA  A$screen_manager$121               screen_manager
     00001BED  A$screen_manager$125               screen_manager
     00001BED  C$screen_manager.c$35$1$9          screen_manager
     00001BF0  A$screen_manager$126               screen_manager
     00001BF3  A$screen_manager$130               screen_manager
     00001BF3  C$screen_manager.c$36$1$9          screen_manager
     00001BF6  A$screen_manager$131               screen_manager
     00001BF9  A$screen_manager$135               screen_manager
     00001BF9  C$screen_manager.c$37$1$9          screen_manager
     00001BFC  A$screen_manager$136               screen_manager
     00001BFF  A$screen_manager$141               screen_manager
     00001BFF  C$screen_manager.c$38$1$9          screen_manager
     00001BFF  XG$engine_screen_manager_init$0$   screen_manager
     00001C00  A$screen_manager$154               screen_manager
     00001C00  C$screen_manager.c$40$1$9          screen_manager
     00001C00  C$screen_manager.c$42$1$10         screen_manager
     00001C00  G$engine_screen_manager_update$0   screen_manager
     00001C00  _engine_screen_manager_update      screen_manager
     00001C03  A$screen_manager$155               screen_manager
     00001C07  A$screen_manager$156               screen_manager
     00001C0A  A$screen_manager$157               screen_manager
     00001C0C  A$screen_manager$161               screen_manager
     00001C0C  C$screen_manager.c$44$2$11         screen_manager
     00001C0F  A$screen_manager$162               screen_manager
     00001C13  A$screen_manager$163               screen_manager
     00001C16  A$screen_manager$167               screen_manager
     00001C16  C$screen_manager.c$45$2$11         screen_manager
ASxxxx Linker V03.00 + NoICE + sdld,  page 73.
Hexadecimal  [32-Bits]

Area                                    Addr        Size        Decimal Bytes (Attributes)
--------------------------------        ----        ----        ------- ----- ------------
_CODE                               00000200    00003D26 =       15654. bytes (REL,CON)

      Value  Global                              Global Defined In Module
      -----  --------------------------------   ------------------------
     00001C19  A$screen_manager$168               screen_manager
     00001C1C  A$screen_manager$169               screen_manager
     00001C1E  A$screen_manager$170               screen_manager
     00001C1F  A$screen_manager$171               screen_manager
     00001C20  A$screen_manager$172               screen_manager
     00001C21  A$screen_manager$173               screen_manager
     00001C22  A$screen_manager$174               screen_manager
     00001C23  A$screen_manager$175               screen_manager
     00001C24  A$screen_manager$176               screen_manager
     00001C27  A$screen_manager$181               screen_manager
     00001C27  C$screen_manager.c$48$1$10         screen_manager
     00001C2A  A$screen_manager$182               screen_manager
     00001C2E  A$screen_manager$183               screen_manager
     00001C31  A$screen_manager$184               screen_manager
     00001C33  A$screen_manager$185               screen_manager
     00001C34  A$screen_manager$186               screen_manager
     00001C35  A$screen_manager$187               screen_manager
     00001C36  A$screen_manager$188               screen_manager
     00001C37  A$screen_manager$189               screen_manager
     00001C38  A$screen_manager$190               screen_manager
     00001C3B  A$screen_manager$191               screen_manager
     00001C3C  A$screen_manager$192               screen_manager
     00001C3D  A$screen_manager$193               screen_manager
     00001C3E  A$screen_manager$194               screen_manager
     00001C41  A$screen_manager$195               screen_manager
     00001C42  A$screen_manager$200               screen_manager
     00001C42  C$screen_manager.c$49$1$10         screen_manager
     00001C42  XG$engine_screen_manager_update$   screen_manager
     00001C43  A$sound_manager$63                 sound_manager
     00001C43  C$sound_manager.c$13$0$0           sound_manager
     00001C43  C$sound_manager.c$15$1$37          sound_manager
     00001C43  C$sound_manager.c$16$1$37          sound_manager
     00001C43  G$engine_music_manager_play$0$0    sound_manager
     00001C43  _engine_music_manager_play         sound_manager
     00001C46  A$sound_manager$64                 sound_manager
     00001C47  A$sound_manager$68                 sound_manager
     00001C47  C$sound_manager.c$18$2$38          sound_manager
     00001C48  A$sound_manager$72                 sound_manager
     00001C48  C$sound_manager.c$21$1$37          sound_manager
     00001C4B  A$sound_manager$73                 sound_manager
     00001C4C  A$sound_manager$74                 sound_manager
     00001C4F  A$sound_manager$75                 sound_manager
     00001C50  A$sound_manager$80                 sound_manager
     00001C50  C$sound_manager.c$22$1$37          sound_manager
     00001C50  XG$engine_music_manager_play$0$0   sound_manager
     00001C51  A$sound_manager$96                 sound_manager
     00001C51  C$sound_manager.c$24$1$37          sound_manager
     00001C51  C$sound_manager.c$26$1$39          sound_manager
     00001C51  C$sound_manager.c$29$1$39          sound_manager
     00001C51  G$engine_sound_manager_play$0$0    sound_manager
     00001C51  _engine_sound_manager_play         sound_manager
ASxxxx Linker V03.00 + NoICE + sdld,  page 74.
Hexadecimal  [32-Bits]

Area                                    Addr        Size        Decimal Bytes (Attributes)
--------------------------------        ----        ----        ------- ----- ------------
_CODE                               00000200    00003D26 =       15654. bytes (REL,CON)

      Value  Global                              Global Defined In Module
      -----  --------------------------------   ------------------------
     00001C54  A$sound_manager$97                 sound_manager
     00001C55  A$sound_manager$101                sound_manager
     00001C55  C$sound_manager.c$31$2$40          sound_manager
     00001C56  A$sound_manager$105                sound_manager
     00001C56  C$sound_manager.c$34$1$39          sound_manager
     00001C59  A$sound_manager$106                sound_manager
     00001C5C  A$sound_manager$107                sound_manager
     00001C5D  A$sound_manager$108                sound_manager
     00001C5E  A$sound_manager$109                sound_manager
     00001C61  A$sound_manager$110                sound_manager
     00001C62  A$sound_manager$111                sound_manager
     00001C63  A$sound_manager$115                sound_manager
     00001C63  C$sound_manager.c$35$1$39          sound_manager
     00001C64  A$sound_manager$116                sound_manager
     00001C65  A$sound_manager$117                sound_manager
     00001C66  A$sound_manager$118                sound_manager
     00001C68  A$sound_manager$122                sound_manager
     00001C68  C$sound_manager.c$37$2$41          sound_manager
     00001C6B  A$sound_manager$123                sound_manager
     00001C6C  A$sound_manager$124                sound_manager
     00001C6D  A$sound_manager$125                sound_manager
     00001C6E  A$sound_manager$126                sound_manager
     00001C71  A$sound_manager$127                sound_manager
     00001C72  A$sound_manager$128                sound_manager
     00001C75  A$sound_manager$129                sound_manager
     00001C76  A$sound_manager$130                sound_manager
     00001C77  A$sound_manager$131                sound_manager
     00001C78  A$sound_manager$136                sound_manager
     00001C78  C$sound_manager.c$39$1$39          sound_manager
     00001C79  A$sound_manager$137                sound_manager
     00001C7B  A$sound_manager$141                sound_manager
     00001C7B  C$sound_manager.c$41$2$42          sound_manager
     00001C7E  A$sound_manager$142                sound_manager
     00001C7F  A$sound_manager$143                sound_manager
     00001C80  A$sound_manager$144                sound_manager
     00001C81  A$sound_manager$145                sound_manager
     00001C84  A$sound_manager$146                sound_manager
     00001C85  A$sound_manager$147                sound_manager
     00001C88  A$sound_manager$148                sound_manager
     00001C89  A$sound_manager$149                sound_manager
     00001C8A  A$sound_manager$150                sound_manager
     00001C8B  A$sound_manager$155                sound_manager
     00001C8B  C$sound_manager.c$45$2$43          sound_manager
     00001C8E  A$sound_manager$156                sound_manager
     00001C8F  A$sound_manager$157                sound_manager
     00001C90  A$sound_manager$158                sound_manager
     00001C91  A$sound_manager$159                sound_manager
     00001C94  A$sound_manager$160                sound_manager
     00001C95  A$sound_manager$161                sound_manager
     00001C98  A$sound_manager$162                sound_manager
     00001C99  A$sound_manager$163                sound_manager
ASxxxx Linker V03.00 + NoICE + sdld,  page 75.
Hexadecimal  [32-Bits]

Area                                    Addr        Size        Decimal Bytes (Attributes)
--------------------------------        ----        ----        ------- ----- ------------
_CODE                               00000200    00003D26 =       15654. bytes (REL,CON)

      Value  Global                              Global Defined In Module
      -----  --------------------------------   ------------------------
     00001C9A  A$sound_manager$168                sound_manager
     00001C9A  C$sound_manager.c$47$1$39          sound_manager
     00001C9A  XG$engine_sound_manager_play$0$0   sound_manager
     00001C9B  A$sprite_manager$53                sprite_manager
     00001C9B  C$sprite_manager.c$4$0$0           sprite_manager
     00001C9B  G$engine_sprite_manager_draw$0$0   sprite_manager
     00001C9B  _engine_sprite_manager_draw        sprite_manager
     00001C9D  A$sprite_manager$54                sprite_manager
     00001CA1  A$sprite_manager$55                sprite_manager
     00001CA3  A$sprite_manager$59                sprite_manager
     00001CA3  C$sprite_manager.c$6$1$20          sprite_manager
     00001CA6  A$sprite_manager$60                sprite_manager
     00001CA8  A$sprite_manager$61                sprite_manager
     00001CA9  A$sprite_manager$62                sprite_manager
     00001CAA  A$sprite_manager$63                sprite_manager
     00001CAD  A$sprite_manager$64                sprite_manager
     00001CB0  A$sprite_manager$65                sprite_manager
     00001CB1  A$sprite_manager$66                sprite_manager
     00001CB4  A$sprite_manager$67                sprite_manager
     00001CB5  A$sprite_manager$68                sprite_manager
     00001CB6  A$sprite_manager$69                sprite_manager
     00001CB7  A$sprite_manager$73                sprite_manager
     00001CB7  C$sprite_manager.c$7$1$20          sprite_manager
     00001CB8  A$sprite_manager$74                sprite_manager
     00001CB9  A$sprite_manager$75                sprite_manager
     00001CBA  A$sprite_manager$76                sprite_manager
     00001CBD  A$sprite_manager$77                sprite_manager
     00001CBF  A$sprite_manager$78                sprite_manager
     00001CC0  A$sprite_manager$79                sprite_manager
     00001CC1  A$sprite_manager$80                sprite_manager
     00001CC2  A$sprite_manager$81                sprite_manager
     00001CC3  A$sprite_manager$82                sprite_manager
     00001CC6  A$sprite_manager$83                sprite_manager
     00001CC7  A$sprite_manager$84                sprite_manager
     00001CCA  A$sprite_manager$85                sprite_manager
     00001CCB  A$sprite_manager$86                sprite_manager
     00001CCC  A$sprite_manager$87                sprite_manager
     00001CCD  A$sprite_manager$88                sprite_manager
     00001CCE  A$sprite_manager$92                sprite_manager
     00001CCE  C$sprite_manager.c$8$1$20          sprite_manager
     00001CD1  A$sprite_manager$93                sprite_manager
     00001CD2  A$sprite_manager$94                sprite_manager
     00001CD5  A$sprite_manager$95                sprite_manager
     00001CD7  A$sprite_manager$96                sprite_manager
     00001CD8  A$sprite_manager$97                sprite_manager
     00001CD9  A$sprite_manager$98                sprite_manager
     00001CDA  A$sprite_manager$99                sprite_manager
     00001CDB  A$sprite_manager$100               sprite_manager
     00001CDC  A$sprite_manager$101               sprite_manager
     00001CDD  A$sprite_manager$102               sprite_manager
     00001CE0  A$sprite_manager$103               sprite_manager
ASxxxx Linker V03.00 + NoICE + sdld,  page 76.
Hexadecimal  [32-Bits]

Area                                    Addr        Size        Decimal Bytes (Attributes)
--------------------------------        ----        ----        ------- ----- ------------
_CODE                               00000200    00003D26 =       15654. bytes (REL,CON)

      Value  Global                              Global Defined In Module
      -----  --------------------------------   ------------------------
     00001CE1  A$sprite_manager$104               sprite_manager
     00001CE2  A$sprite_manager$105               sprite_manager
     00001CE5  A$sprite_manager$106               sprite_manager
     00001CE6  A$sprite_manager$107               sprite_manager
     00001CE7  A$sprite_manager$108               sprite_manager
     00001CE8  A$sprite_manager$109               sprite_manager
     00001CE9  A$sprite_manager$113               sprite_manager
     00001CE9  C$sprite_manager.c$9$1$20          sprite_manager
     00001CEC  A$sprite_manager$114               sprite_manager
     00001CED  A$sprite_manager$115               sprite_manager
     00001CEE  A$sprite_manager$116               sprite_manager
     00001CEF  A$sprite_manager$117               sprite_manager
     00001CF2  A$sprite_manager$118               sprite_manager
     00001CF3  A$sprite_manager$119               sprite_manager
     00001CF4  A$sprite_manager$120               sprite_manager
     00001CF6  A$sprite_manager$125               sprite_manager
     00001CF6  C$sprite_manager.c$10$1$20         sprite_manager
     00001CF6  XG$engine_sprite_manager_draw$0$   sprite_manager
     00001CF7  A$text_manager$58                  text_manager
     00001CF7  C$text_manager.c$5$0$0             text_manager
     00001CF7  C$text_manager.c$9$1$5             text_manager
     00001CF7  G$engine_text_manager_draw$0$0     text_manager
     00001CF7  _engine_text_manager_draw          text_manager
     00001CFA  A$text_manager$59                  text_manager
     00001CFB  A$text_manager$60                  text_manager
     00001CFE  A$text_manager$61                  text_manager
     00001CFF  A$text_manager$62                  text_manager
     00001D02  A$text_manager$63                  text_manager
     00001D03  A$text_manager$67                  text_manager
     00001D03  C$text_manager.c$10$1$5            text_manager
     00001D06  A$text_manager$68                  text_manager
     00001D07  A$text_manager$69                  text_manager
     00001D0A  A$text_manager$70                  text_manager
     00001D0B  A$text_manager$71                  text_manager
     00001D0E  A$text_manager$72                  text_manager
     00001D0F  A$text_manager$76                  text_manager
     00001D0F  C$text_manager.c$12$1$5            text_manager
     00001D12  A$text_manager$77                  text_manager
     00001D13  A$text_manager$78                  text_manager
     00001D16  A$text_manager$79                  text_manager
     00001D17  A$text_manager$80                  text_manager
     00001D1A  A$text_manager$81                  text_manager
     00001D1B  A$text_manager$85                  text_manager
     00001D1B  C$text_manager.c$13$1$5            text_manager
     00001D1E  A$text_manager$86                  text_manager
     00001D1F  A$text_manager$87                  text_manager
     00001D22  A$text_manager$88                  text_manager
     00001D23  A$text_manager$89                  text_manager
     00001D26  A$text_manager$90                  text_manager
     00001D27  A$text_manager$94                  text_manager
     00001D27  C$text_manager.c$16$1$5            text_manager
ASxxxx Linker V03.00 + NoICE + sdld,  page 77.
Hexadecimal  [32-Bits]

Area                                    Addr        Size        Decimal Bytes (Attributes)
--------------------------------        ----        ----        ------- ----- ------------
_CODE                               00000200    00003D26 =       15654. bytes (REL,CON)

      Value  Global                              Global Defined In Module
      -----  --------------------------------   ------------------------
     00001D2A  A$text_manager$95                  text_manager
     00001D2B  A$text_manager$96                  text_manager
     00001D2E  A$text_manager$97                  text_manager
     00001D2F  A$text_manager$98                  text_manager
     00001D32  A$text_manager$99                  text_manager
     00001D33  A$text_manager$103                 text_manager
     00001D33  C$text_manager.c$17$1$5            text_manager
     00001D36  A$text_manager$104                 text_manager
     00001D37  A$text_manager$105                 text_manager
     00001D3A  A$text_manager$106                 text_manager
     00001D3B  A$text_manager$107                 text_manager
     00001D3E  A$text_manager$108                 text_manager
     00001D3F  A$text_manager$112                 text_manager
     00001D3F  C$text_manager.c$18$1$5            text_manager
     00001D42  A$text_manager$113                 text_manager
     00001D43  A$text_manager$114                 text_manager
     00001D46  A$text_manager$115                 text_manager
     00001D47  A$text_manager$116                 text_manager
     00001D4A  A$text_manager$117                 text_manager
     00001D4B  A$text_manager$121                 text_manager
     00001D4B  C$text_manager.c$19$1$5            text_manager
     00001D4E  A$text_manager$122                 text_manager
     00001D4F  A$text_manager$123                 text_manager
     00001D52  A$text_manager$124                 text_manager
     00001D53  A$text_manager$125                 text_manager
     00001D56  A$text_manager$126                 text_manager
     00001D57  A$text_manager$130                 text_manager
     00001D57  C$text_manager.c$20$1$5            text_manager
     00001D5A  A$text_manager$131                 text_manager
     00001D5B  A$text_manager$132                 text_manager
     00001D5E  A$text_manager$133                 text_manager
     00001D5F  A$text_manager$134                 text_manager
     00001D62  A$text_manager$135                 text_manager
     00001D63  A$text_manager$139                 text_manager
     00001D63  C$text_manager.c$21$1$5            text_manager
     00001D66  A$text_manager$140                 text_manager
     00001D67  A$text_manager$141                 text_manager
     00001D6A  A$text_manager$142                 text_manager
     00001D6B  A$text_manager$143                 text_manager
     00001D6E  A$text_manager$144                 text_manager
     00001D6F  A$text_manager$148                 text_manager
     00001D6F  C$text_manager.c$24$1$5            text_manager
     00001D72  A$text_manager$149                 text_manager
     00001D73  A$text_manager$150                 text_manager
     00001D76  A$text_manager$151                 text_manager
     00001D77  A$text_manager$152                 text_manager
     00001D7A  A$text_manager$153                 text_manager
     00001D7B  A$text_manager$157                 text_manager
     00001D7B  C$text_manager.c$25$1$5            text_manager
     00001D7E  A$text_manager$158                 text_manager
     00001D7F  A$text_manager$159                 text_manager
ASxxxx Linker V03.00 + NoICE + sdld,  page 78.
Hexadecimal  [32-Bits]

Area                                    Addr        Size        Decimal Bytes (Attributes)
--------------------------------        ----        ----        ------- ----- ------------
_CODE                               00000200    00003D26 =       15654. bytes (REL,CON)

      Value  Global                              Global Defined In Module
      -----  --------------------------------   ------------------------
     00001D82  A$text_manager$160                 text_manager
     00001D83  A$text_manager$161                 text_manager
     00001D86  A$text_manager$162                 text_manager
     00001D87  A$text_manager$166                 text_manager
     00001D87  C$text_manager.c$28$1$5            text_manager
     00001D8A  A$text_manager$167                 text_manager
     00001D8B  A$text_manager$168                 text_manager
     00001D8E  A$text_manager$169                 text_manager
     00001D8F  A$text_manager$170                 text_manager
     00001D92  A$text_manager$171                 text_manager
     00001D93  A$text_manager$175                 text_manager
     00001D93  C$text_manager.c$29$1$5            text_manager
     00001D96  A$text_manager$176                 text_manager
     00001D97  A$text_manager$177                 text_manager
     00001D9A  A$text_manager$178                 text_manager
     00001D9B  A$text_manager$179                 text_manager
     00001D9E  A$text_manager$180                 text_manager
     00001D9F  A$text_manager$184                 text_manager
     00001D9F  C$text_manager.c$31$1$5            text_manager
     00001DA2  A$text_manager$185                 text_manager
     00001DA3  A$text_manager$186                 text_manager
     00001DA6  A$text_manager$187                 text_manager
     00001DA7  A$text_manager$188                 text_manager
     00001DAA  A$text_manager$189                 text_manager
     00001DAB  A$text_manager$193                 text_manager
     00001DAB  C$text_manager.c$32$1$5            text_manager
     00001DAE  A$text_manager$194                 text_manager
     00001DAF  A$text_manager$195                 text_manager
     00001DB2  A$text_manager$196                 text_manager
     00001DB3  A$text_manager$197                 text_manager
     00001DB6  A$text_manager$198                 text_manager
     00001DB7  A$text_manager$199                 text_manager
     00001DB8  A$text_manager$204                 text_manager
     00001DB8  C$text_manager.c$33$1$5            text_manager
     00001DB8  XG$engine_text_manager_draw$0$0    text_manager
     00001DB9  Ftext_manager$__str_0$0$0          text_manager
     00001DC2  Ftext_manager$__str_1$0$0          text_manager
     00001DCB  Ftext_manager$__str_2$0$0          text_manager
     00001DD2  Ftext_manager$__str_3$0$0          text_manager
     00001DD9  Ftext_manager$__str_4$0$0          text_manager
     00001DE0  Ftext_manager$__str_5$0$0          text_manager
     00001DE7  Ftext_manager$__str_6$0$0          text_manager
     00001DEE  Ftext_manager$__str_7$0$0          text_manager
     00001DF5  Ftext_manager$__str_8$0$0          text_manager
     00001DFC  Ftext_manager$__str_9$0$0          text_manager
     00001E03  Ftext_manager$__str_10$0$0         text_manager
     00001E0A  Ftext_manager$__str_11$0$0         text_manager
     00001E11  Ftext_manager$__str_12$0$0         text_manager
     00001E18  Ftext_manager$__str_13$0$0         text_manager
     00001E1F  Ftext_manager$__str_14$0$0         text_manager
     00001E26  Ftext_manager$__str_15$0$0         text_manager
ASxxxx Linker V03.00 + NoICE + sdld,  page 79.
Hexadecimal  [32-Bits]

Area                                    Addr        Size        Decimal Bytes (Attributes)
--------------------------------        ----        ----        ------- ----- ------------
_CODE                               00000200    00003D26 =       15654. bytes (REL,CON)

      Value  Global                              Global Defined In Module
      -----  --------------------------------   ------------------------
     00001E2D  A$text_manager$281                 text_manager
     00001E2D  C$text_manager.c$35$1$5            text_manager
     00001E2D  C$text_manager.c$37$1$6            text_manager
     00001E2D  G$engine_text_manager_names$0$0    text_manager
     00001E2D  _engine_text_manager_names         text_manager
     00001E30  A$text_manager$282                 text_manager
     00001E31  A$text_manager$283                 text_manager
     00001E34  A$text_manager$284                 text_manager
     00001E35  A$text_manager$285                 text_manager
     00001E38  A$text_manager$286                 text_manager
     00001E39  A$text_manager$290                 text_manager
     00001E39  C$text_manager.c$38$1$6            text_manager
     00001E3C  A$text_manager$291                 text_manager
     00001E3D  A$text_manager$292                 text_manager
     00001E40  A$text_manager$293                 text_manager
     00001E41  A$text_manager$294                 text_manager
     00001E44  A$text_manager$295                 text_manager
     00001E45  A$text_manager$299                 text_manager
     00001E45  C$text_manager.c$39$1$6            text_manager
     00001E48  A$text_manager$300                 text_manager
     00001E49  A$text_manager$301                 text_manager
     00001E4C  A$text_manager$302                 text_manager
     00001E4D  A$text_manager$303                 text_manager
     00001E50  A$text_manager$304                 text_manager
     00001E51  A$text_manager$308                 text_manager
     00001E51  C$text_manager.c$40$1$6            text_manager
     00001E54  A$text_manager$309                 text_manager
     00001E55  A$text_manager$310                 text_manager
     00001E58  A$text_manager$311                 text_manager
     00001E59  A$text_manager$312                 text_manager
     00001E5C  A$text_manager$313                 text_manager
     00001E5D  A$text_manager$314                 text_manager
     00001E5E  A$text_manager$319                 text_manager
     00001E5E  C$text_manager.c$41$1$6            text_manager
     00001E5E  XG$engine_text_manager_names$0$0   text_manager
     00001E5F  Ftext_manager$__str_16$0$0         text_manager
     00001E64  Ftext_manager$__str_17$0$0         text_manager
     00001E69  Ftext_manager$__str_18$0$0         text_manager
     00001E6E  Ftext_manager$__str_19$0$0         text_manager
     00001E73  A$text_manager$348                 text_manager
     00001E73  C$text_manager.c$43$1$6            text_manager
     00001E73  C$text_manager.c$45$1$7            text_manager
     00001E73  G$engine_text_manager_space$0$0    text_manager
     00001E73  _engine_text_manager_space         text_manager
     00001E76  A$text_manager$349                 text_manager
     00001E77  A$text_manager$350                 text_manager
     00001E7A  A$text_manager$351                 text_manager
     00001E7B  A$text_manager$352                 text_manager
     00001E7E  A$text_manager$353                 text_manager
     00001E7F  A$text_manager$357                 text_manager
     00001E7F  C$text_manager.c$46$1$7            text_manager
ASxxxx Linker V03.00 + NoICE + sdld,  page 80.
Hexadecimal  [32-Bits]

Area                                    Addr        Size        Decimal Bytes (Attributes)
--------------------------------        ----        ----        ------- ----- ------------
_CODE                               00000200    00003D26 =       15654. bytes (REL,CON)

      Value  Global                              Global Defined In Module
      -----  --------------------------------   ------------------------
     00001E82  A$text_manager$358                 text_manager
     00001E83  A$text_manager$359                 text_manager
     00001E86  A$text_manager$360                 text_manager
     00001E87  A$text_manager$361                 text_manager
     00001E8A  A$text_manager$362                 text_manager
     00001E8B  A$text_manager$366                 text_manager
     00001E8B  C$text_manager.c$47$1$7            text_manager
     00001E8E  A$text_manager$367                 text_manager
     00001E8F  A$text_manager$368                 text_manager
     00001E92  A$text_manager$369                 text_manager
     00001E93  A$text_manager$370                 text_manager
     00001E96  A$text_manager$371                 text_manager
     00001E97  A$text_manager$375                 text_manager
     00001E97  C$text_manager.c$48$1$7            text_manager
     00001E9A  A$text_manager$376                 text_manager
     00001E9B  A$text_manager$377                 text_manager
     00001E9E  A$text_manager$378                 text_manager
     00001E9F  A$text_manager$379                 text_manager
     00001EA2  A$text_manager$380                 text_manager
     00001EA3  A$text_manager$381                 text_manager
     00001EA4  A$text_manager$386                 text_manager
     00001EA4  C$text_manager.c$49$1$7            text_manager
     00001EA4  XG$engine_text_manager_space$0$0   text_manager
     00001EA5  Ftext_manager$__str_20$0$0         text_manager
     00001EAA  A$tree_manager$57                  tree_manager
     00001EAA  C$tree_manager.c$10$0$0            tree_manager
     00001EAA  C$tree_manager.c$12$1$19           tree_manager
     00001EAA  G$engine_tree_manager_draw$0$0     tree_manager
     00001EAA  _engine_tree_manager_draw          tree_manager
     00001EAD  A$tree_manager$65                  tree_manager
     00001EAD  C$tree_manager.c$13$1$19           tree_manager
     00001EAD  C$tree_manager.c$14$1$19           tree_manager
     00001EAD  XG$engine_tree_manager_draw$0$0    tree_manager
     00001EB0  A$tree_manager$78                  tree_manager
     00001EB0  C$tree_manager.c$16$1$19           tree_manager
     00001EB0  C$tree_manager.c$20$2$23           tree_manager
     00001EB0  Ftree_manager$engine_tree_manage   tree_manager
     00001EB2  A$tree_manager$83                  tree_manager
     00001EB2  C$tree_manager.c$22$3$22           tree_manager
     00001EB3  A$tree_manager$84                  tree_manager
     00001EB4  A$tree_manager$85                  tree_manager
     00001EB5  A$tree_manager$86                  tree_manager
     00001EB6  A$tree_manager$87                  tree_manager
     00001EB7  A$tree_manager$88                  tree_manager
     00001EB8  A$tree_manager$89                  tree_manager
     00001EBB  A$tree_manager$90                  tree_manager
     00001EBC  A$tree_manager$91                  tree_manager
     00001EBD  A$tree_manager$95                  tree_manager
     00001EBD  C$tree_manager.c$23$3$22           tree_manager
     00001EBE  A$tree_manager$96                  tree_manager
     00001EC0  A$tree_manager$97                  tree_manager
ASxxxx Linker V03.00 + NoICE + sdld,  page 81.
Hexadecimal  [32-Bits]

Area                                    Addr        Size        Decimal Bytes (Attributes)
--------------------------------        ----        ----        ------- ----- ------------
_CODE                               00000200    00003D26 =       15654. bytes (REL,CON)

      Value  Global                              Global Defined In Module
      -----  --------------------------------   ------------------------
     00001EC1  A$tree_manager$98                  tree_manager
     00001EC2  A$tree_manager$99                  tree_manager
     00001EC3  A$tree_manager$100                 tree_manager
     00001EC4  A$tree_manager$101                 tree_manager
     00001EC7  A$tree_manager$102                 tree_manager
     00001EC8  A$tree_manager$103                 tree_manager
     00001EC9  A$tree_manager$107                 tree_manager
     00001EC9  C$tree_manager.c$20$2$21           tree_manager
     00001ECA  A$tree_manager$108                 tree_manager
     00001ECB  A$tree_manager$109                 tree_manager
     00001ECC  A$tree_manager$110                 tree_manager
     00001ECE  A$tree_manager$111                 tree_manager
     00001ED0  A$tree_manager$115                 tree_manager
     00001ED2  A$tree_manager$120                 tree_manager
     00001ED2  C$tree_manager.c$28$3$24           tree_manager
     00001ED3  A$tree_manager$121                 tree_manager
     00001ED4  A$tree_manager$122                 tree_manager
     00001ED5  A$tree_manager$123                 tree_manager
     00001ED7  A$tree_manager$124                 tree_manager
     00001ED8  A$tree_manager$125                 tree_manager
     00001ED9  A$tree_manager$126                 tree_manager
     00001EDC  A$tree_manager$127                 tree_manager
     00001EDD  A$tree_manager$128                 tree_manager
     00001EDE  A$tree_manager$132                 tree_manager
     00001EDE  C$tree_manager.c$29$3$24           tree_manager
     00001EDF  A$tree_manager$133                 tree_manager
     00001EE0  A$tree_manager$134                 tree_manager
     00001EE1  A$tree_manager$135                 tree_manager
     00001EE3  A$tree_manager$136                 tree_manager
     00001EE4  A$tree_manager$137                 tree_manager
     00001EE5  A$tree_manager$138                 tree_manager
     00001EE8  A$tree_manager$139                 tree_manager
     00001EE9  A$tree_manager$140                 tree_manager
     00001EEA  A$tree_manager$144                 tree_manager
     00001EEA  C$tree_manager.c$26$2$23           tree_manager
     00001EEB  A$tree_manager$145                 tree_manager
     00001EEC  A$tree_manager$146                 tree_manager
     00001EED  A$tree_manager$147                 tree_manager
     00001EEF  A$tree_manager$148                 tree_manager
     00001EF1  A$tree_manager$153                 tree_manager
     00001EF1  C$tree_manager.c$31$2$23           tree_manager
     00001EF1  XFtree_manager$engine_tree_manag   tree_manager
     00001EF2  A$tree_manager$166                 tree_manager
     00001EF2  C$tree_manager.c$33$2$23           tree_manager
     00001EF2  C$tree_manager.c$37$2$28           tree_manager
     00001EF2  Ftree_manager$engine_tree_manage   tree_manager
     00001EF4  A$tree_manager$171                 tree_manager
     00001EF4  C$tree_manager.c$39$3$27           tree_manager
     00001EF5  A$tree_manager$172                 tree_manager
     00001EF7  A$tree_manager$173                 tree_manager
     00001EF8  A$tree_manager$174                 tree_manager
ASxxxx Linker V03.00 + NoICE + sdld,  page 82.
Hexadecimal  [32-Bits]

Area                                    Addr        Size        Decimal Bytes (Attributes)
--------------------------------        ----        ----        ------- ----- ------------
_CODE                               00000200    00003D26 =       15654. bytes (REL,CON)

      Value  Global                              Global Defined In Module
      -----  --------------------------------   ------------------------
     00001EF9  A$tree_manager$175                 tree_manager
     00001EFA  A$tree_manager$176                 tree_manager
     00001EFB  A$tree_manager$177                 tree_manager
     00001EFE  A$tree_manager$178                 tree_manager
     00001EFF  A$tree_manager$179                 tree_manager
     00001F00  A$tree_manager$183                 tree_manager
     00001F00  C$tree_manager.c$40$3$27           tree_manager
     00001F01  A$tree_manager$184                 tree_manager
     00001F03  A$tree_manager$185                 tree_manager
     00001F04  A$tree_manager$186                 tree_manager
     00001F05  A$tree_manager$187                 tree_manager
     00001F06  A$tree_manager$188                 tree_manager
     00001F07  A$tree_manager$189                 tree_manager
     00001F0A  A$tree_manager$190                 tree_manager
     00001F0B  A$tree_manager$191                 tree_manager
     00001F0C  A$tree_manager$195                 tree_manager
     00001F0C  C$tree_manager.c$37$2$26           tree_manager
     00001F0D  A$tree_manager$196                 tree_manager
     00001F0E  A$tree_manager$197                 tree_manager
     00001F0F  A$tree_manager$198                 tree_manager
     00001F11  A$tree_manager$199                 tree_manager
     00001F13  A$tree_manager$203                 tree_manager
     00001F15  A$tree_manager$208                 tree_manager
     00001F15  C$tree_manager.c$44$3$29           tree_manager
     00001F16  A$tree_manager$209                 tree_manager
     00001F17  A$tree_manager$210                 tree_manager
     00001F18  A$tree_manager$211                 tree_manager
     00001F1A  A$tree_manager$212                 tree_manager
     00001F1B  A$tree_manager$213                 tree_manager
     00001F1C  A$tree_manager$214                 tree_manager
     00001F1F  A$tree_manager$215                 tree_manager
     00001F20  A$tree_manager$216                 tree_manager
     00001F21  A$tree_manager$220                 tree_manager
     00001F21  C$tree_manager.c$45$3$29           tree_manager
     00001F22  A$tree_manager$221                 tree_manager
     00001F23  A$tree_manager$222                 tree_manager
     00001F24  A$tree_manager$223                 tree_manager
     00001F26  A$tree_manager$224                 tree_manager
     00001F27  A$tree_manager$225                 tree_manager
     00001F28  A$tree_manager$226                 tree_manager
     00001F2B  A$tree_manager$227                 tree_manager
     00001F2C  A$tree_manager$228                 tree_manager
     00001F2D  A$tree_manager$232                 tree_manager
     00001F2D  C$tree_manager.c$42$2$28           tree_manager
     00001F2E  A$tree_manager$233                 tree_manager
     00001F2F  A$tree_manager$234                 tree_manager
     00001F30  A$tree_manager$235                 tree_manager
     00001F32  A$tree_manager$236                 tree_manager
     00001F34  A$tree_manager$241                 tree_manager
     00001F34  C$tree_manager.c$47$2$28           tree_manager
     00001F34  XFtree_manager$engine_tree_manag   tree_manager
ASxxxx Linker V03.00 + NoICE + sdld,  page 83.
Hexadecimal  [32-Bits]

Area                                    Addr        Size        Decimal Bytes (Attributes)
--------------------------------        ----        ----        ------- ----- ------------
_CODE                               00000200    00003D26 =       15654. bytes (REL,CON)

      Value  Global                              Global Defined In Module
      -----  --------------------------------   ------------------------
     00001F35  A$tree_manager$251                 tree_manager
     00001F35  C$tree_manager.c$49$2$28           tree_manager
     00001F35  Ftree_manager$draw$0$0             tree_manager
     00001F37  A$tree_manager$252                 tree_manager
     00001F3B  A$tree_manager$253                 tree_manager
     00001F3D  A$tree_manager$260                 tree_manager
     00001F3D  C$tree_manager.c$51$1$28           tree_manager
     00001F3D  C$tree_manager.c$53$1$31           tree_manager
     00001F40  A$tree_manager$261                 tree_manager
     00001F43  A$tree_manager$262                 tree_manager
     00001F44  A$tree_manager$263                 tree_manager
     00001F47  A$tree_manager$264                 tree_manager
     00001F48  A$tree_manager$265                 tree_manager
     00001F4B  A$tree_manager$266                 tree_manager
     00001F4C  A$tree_manager$267                 tree_manager
     00001F4D  A$tree_manager$268                 tree_manager
     00001F4E  A$tree_manager$269                 tree_manager
     00001F51  A$tree_manager$270                 tree_manager
     00001F52  A$tree_manager$274                 tree_manager
     00001F52  C$tree_manager.c$54$1$31           tree_manager
     00001F55  A$tree_manager$275                 tree_manager
     00001F56  A$tree_manager$276                 tree_manager
     00001F57  A$tree_manager$277                 tree_manager
     00001F5A  A$tree_manager$278                 tree_manager
     00001F5B  A$tree_manager$279                 tree_manager
     00001F5E  A$tree_manager$280                 tree_manager
     00001F5F  A$tree_manager$281                 tree_manager
     00001F60  A$tree_manager$282                 tree_manager
     00001F63  A$tree_manager$283                 tree_manager
     00001F64  A$tree_manager$284                 tree_manager
     00001F65  A$tree_manager$285                 tree_manager
     00001F66  A$tree_manager$286                 tree_manager
     00001F67  A$tree_manager$287                 tree_manager
     00001F68  A$tree_manager$288                 tree_manager
     00001F6B  A$tree_manager$289                 tree_manager
     00001F6C  A$tree_manager$290                 tree_manager
     00001F6D  A$tree_manager$294                 tree_manager
     00001F6D  C$tree_manager.c$55$1$31           tree_manager
     00001F70  A$tree_manager$295                 tree_manager
     00001F71  A$tree_manager$296                 tree_manager
     00001F72  A$tree_manager$297                 tree_manager
     00001F73  A$tree_manager$298                 tree_manager
     00001F74  A$tree_manager$299                 tree_manager
     00001F77  A$tree_manager$300                 tree_manager
     00001F78  A$tree_manager$301                 tree_manager
     00001F79  A$tree_manager$302                 tree_manager
     00001F7C  A$tree_manager$303                 tree_manager
     00001F7D  A$tree_manager$304                 tree_manager
     00001F7E  A$tree_manager$305                 tree_manager
     00001F81  A$tree_manager$306                 tree_manager
     00001F82  A$tree_manager$307                 tree_manager
ASxxxx Linker V03.00 + NoICE + sdld,  page 84.
Hexadecimal  [32-Bits]

Area                                    Addr        Size        Decimal Bytes (Attributes)
--------------------------------        ----        ----        ------- ----- ------------
_CODE                               00000200    00003D26 =       15654. bytes (REL,CON)

      Value  Global                              Global Defined In Module
      -----  --------------------------------   ------------------------
     00001F83  A$tree_manager$308                 tree_manager
     00001F84  A$tree_manager$309                 tree_manager
     00001F85  A$tree_manager$310                 tree_manager
     00001F86  A$tree_manager$311                 tree_manager
     00001F87  A$tree_manager$312                 tree_manager
     00001F8A  A$tree_manager$313                 tree_manager
     00001F8B  A$tree_manager$314                 tree_manager
     00001F8E  A$tree_manager$315                 tree_manager
     00001F8F  A$tree_manager$316                 tree_manager
     00001F92  A$tree_manager$317                 tree_manager
     00001F94  A$tree_manager$318                 tree_manager
     00001F95  A$tree_manager$319                 tree_manager
     00001F96  A$tree_manager$320                 tree_manager
     00001F99  A$tree_manager$321                 tree_manager
     00001F9A  A$tree_manager$322                 tree_manager
     00001F9C  A$tree_manager$327                 tree_manager
     00001F9C  C$tree_manager.c$57$1$31           tree_manager
     00001F9C  XFtree_manager$draw$0$0            tree_manager
     00001F9D  A$none_screen$60                   none_screen
     00001F9D  C$none_screen.c$4$0$0              none_screen
     00001F9D  C$none_screen.c$6$0$0              none_screen
     00001F9D  G$screen_none_screen_load$0$0      none_screen
     00001F9D  XG$screen_none_screen_load$0$0     none_screen
     00001F9D  _screen_none_screen_load           none_screen
     00001F9E  A$none_screen$73                   none_screen
     00001F9E  C$none_screen.c$10$1$4             none_screen
     00001F9E  C$none_screen.c$8$0$0              none_screen
     00001F9E  G$screen_none_screen_update$0$0    none_screen
     00001F9E  _screen_none_screen_update         none_screen
     00001F9F  A$none_screen$74                   none_screen
     00001FA0  A$none_screen$75                   none_screen
     00001FA1  A$none_screen$76                   none_screen
     00001FA2  A$none_screen$77                   none_screen
     00001FA3  A$none_screen$78                   none_screen
     00001FA4  A$none_screen$83                   none_screen
     00001FA4  C$none_screen.c$11$1$4             none_screen
     00001FA4  XG$screen_none_screen_update$0$0   none_screen
     00001FA5  A$start_screen$64                  start_screen
     00001FA5  C$start_screen.c$12$0$0            start_screen
     00001FA5  C$start_screen.c$14$1$19           start_screen
     00001FA5  G$screen_start_screen_load$0$0     start_screen
     00001FA5  _screen_start_screen_load          start_screen
     00001FA8  A$start_screen$68                  start_screen
     00001FA8  C$start_screen.c$15$1$19           start_screen
     00001FAB  A$start_screen$72                  start_screen
     00001FAB  C$start_screen.c$16$1$19           start_screen
     00001FAE  A$start_screen$76                  start_screen
     00001FAE  C$start_screen.c$17$1$19           start_screen
     00001FB1  A$start_screen$80                  start_screen
     00001FB1  C$start_screen.c$18$1$19           start_screen
     00001FB4  A$start_screen$81                  start_screen
ASxxxx Linker V03.00 + NoICE + sdld,  page 85.
Hexadecimal  [32-Bits]

Area                                    Addr        Size        Decimal Bytes (Attributes)
--------------------------------        ----        ----        ------- ----- ------------
_CODE                               00000200    00003D26 =       15654. bytes (REL,CON)

      Value  Global                              Global Defined In Module
      -----  --------------------------------   ------------------------
     00001FB6  A$start_screen$86                  start_screen
     00001FB6  C$start_screen.c$19$1$19           start_screen
     00001FB6  XG$screen_start_screen_load$0$0    start_screen
     00001FB7  A$start_screen$96                  start_screen
     00001FB7  C$start_screen.c$21$1$19           start_screen
     00001FB7  G$screen_start_screen_update$0$0   start_screen
     00001FB7  _screen_start_screen_update        start_screen
     00001FB8  A$start_screen$100                 start_screen
     00001FB8  C$start_screen.c$23$1$21           start_screen
     00001FBB  A$start_screen$101                 start_screen
     00001FBF  A$start_screen$102                 start_screen
     00001FC1  A$start_screen$103                 start_screen
     00001FC4  A$start_screen$107                 start_screen
     00001FC4  C$start_screen.c$25$1$21           start_screen
     00001FC7  A$start_screen$108                 start_screen
     00001FC8  A$start_screen$112                 start_screen
     00001FC8  C$start_screen.c$28$1$21           start_screen
     00001FCB  A$start_screen$113                 start_screen
     00001FCC  A$start_screen$114                 start_screen
     00001FCD  A$start_screen$115                 start_screen
     00001FCE  A$start_screen$116                 start_screen
     00001FCF  A$start_screen$120                 start_screen
     00001FCF  C$start_screen.c$26$1$21           start_screen
     00001FD2  A$start_screen$121                 start_screen
     00001FD3  A$start_screen$122                 start_screen
     00001FD4  A$start_screen$123                 start_screen
     00001FD5  A$start_screen$124                 start_screen
     00001FD7  A$start_screen$125                 start_screen
     00001FD9  A$start_screen$126                 start_screen
     00001FDD  A$start_screen$127                 start_screen
     00001FE0  A$start_screen$128                 start_screen
     00001FE2  A$start_screen$133                 start_screen
     00001FE2  C$start_screen.c$28$2$22           start_screen
     00001FE4  A$start_screen$134                 start_screen
     00001FE5  A$start_screen$138                 start_screen
     00001FE5  C$start_screen.c$29$2$22           start_screen
     00001FE7  A$start_screen$143                 start_screen
     00001FE7  C$start_screen.c$32$1$21           start_screen
     00001FE9  A$start_screen$144                 start_screen
     00001FEA  A$start_screen$146                 start_screen
     00001FEB  A$start_screen$151                 start_screen
     00001FEB  C$start_screen.c$33$1$21           start_screen
     00001FEB  XG$screen_start_screen_update$0$   start_screen
     00001FEC  A$title_screen$64                  title_screen
     00001FEC  C$title_screen.c$11$0$0            title_screen
     00001FEC  C$title_screen.c$13$1$19           title_screen
     00001FEC  G$screen_title_screen_load$0$0     title_screen
     00001FEC  _screen_title_screen_load          title_screen
     00001FEF  A$title_screen$68                  title_screen
     00001FEF  C$title_screen.c$14$1$19           title_screen
     00001FF2  A$title_screen$72                  title_screen
ASxxxx Linker V03.00 + NoICE + sdld,  page 86.
Hexadecimal  [32-Bits]

Area                                    Addr        Size        Decimal Bytes (Attributes)
--------------------------------        ----        ----        ------- ----- ------------
_CODE                               00000200    00003D26 =       15654. bytes (REL,CON)

      Value  Global                              Global Defined In Module
      -----  --------------------------------   ------------------------
     00001FF2  C$title_screen.c$15$1$19           title_screen
     00001FF5  A$title_screen$76                  title_screen
     00001FF5  C$title_screen.c$16$1$19           title_screen
     00001FF8  A$title_screen$80                  title_screen
     00001FF8  C$title_screen.c$18$1$19           title_screen
     00001FFB  A$title_screen$84                  title_screen
     00001FFB  C$title_screen.c$19$1$19           title_screen
     00001FFE  A$title_screen$88                  title_screen
     00001FFE  C$title_screen.c$20$1$19           title_screen
     00002001  A$title_screen$96                  title_screen
     00002001  C$title_screen.c$22$1$19           title_screen
     00002001  C$title_screen.c$23$1$19           title_screen
     00002001  XG$screen_title_screen_load$0$0    title_screen
     00002004  A$title_screen$109                 title_screen
     00002004  C$title_screen.c$25$1$19           title_screen
     00002004  C$title_screen.c$27$1$21           title_screen
     00002004  G$screen_title_screen_update$0$0   title_screen
     00002004  _screen_title_screen_update        title_screen
     00002005  A$title_screen$110                 title_screen
     00002006  A$title_screen$111                 title_screen
     00002007  A$title_screen$112                 title_screen
     00002008  A$title_screen$113                 title_screen
     0000200A  A$title_screen$118                 title_screen
     0000200A  C$title_screen.c$28$1$21           title_screen
     0000200A  XG$screen_title_screen_update$0$   title_screen
     0000200B  A$ready_screen$67                  ready_screen
     0000200B  C$ready_screen.c$13$0$0            ready_screen
     0000200B  C$ready_screen.c$15$1$56           ready_screen
     0000200B  G$screen_ready_screen_load$0$0     ready_screen
     0000200B  _screen_ready_screen_load          ready_screen
     0000200E  A$ready_screen$71                  ready_screen
     0000200E  C$ready_screen.c$16$1$56           ready_screen
     00002011  A$ready_screen$79                  ready_screen
     00002011  C$ready_screen.c$17$1$56           ready_screen
     00002011  C$ready_screen.c$18$1$56           ready_screen
     00002011  XG$screen_ready_screen_load$0$0    ready_screen
     00002014  A$ready_screen$92                  ready_screen
     00002014  C$ready_screen.c$20$1$56           ready_screen
     00002014  C$ready_screen.c$24$1$58           ready_screen
     00002014  G$screen_ready_screen_update$0$0   ready_screen
     00002014  _screen_ready_screen_update        ready_screen
     00002017  A$ready_screen$96                  ready_screen
     00002017  C$ready_screen.c$25$1$58           ready_screen
     0000201A  A$ready_screen$100                 ready_screen
     0000201A  C$ready_screen.c$27$1$58           ready_screen
     0000201D  A$ready_screen$104                 ready_screen
     0000201D  C$ready_screen.c$28$1$58           ready_screen
     00002020  A$ready_screen$108                 ready_screen
     00002020  C$ready_screen.c$29$1$58           ready_screen
     00002023  A$ready_screen$112                 ready_screen
     00002023  C$ready_screen.c$31$1$58           ready_screen
ASxxxx Linker V03.00 + NoICE + sdld,  page 87.
Hexadecimal  [32-Bits]

Area                                    Addr        Size        Decimal Bytes (Attributes)
--------------------------------        ----        ----        ------- ----- ------------
_CODE                               00000200    00003D26 =       15654. bytes (REL,CON)

      Value  Global                              Global Defined In Module
      -----  --------------------------------   ------------------------
     00002026  A$ready_screen$116                 ready_screen
     00002026  C$ready_screen.c$32$1$58           ready_screen
     00002027  A$ready_screen$117                 ready_screen
     00002028  A$ready_screen$118                 ready_screen
     0000202A  A$ready_screen$122                 ready_screen
     0000202A  C$ready_screen.c$34$2$59           ready_screen
     0000202D  A$ready_screen$127                 ready_screen
     0000202D  C$ready_screen.c$36$1$58           ready_screen
     00002030  A$ready_screen$128                 ready_screen
     00002031  A$ready_screen$132                 ready_screen
     00002031  C$ready_screen.c$39$1$58           ready_screen
     00002032  A$ready_screen$133                 ready_screen
     00002033  A$ready_screen$134                 ready_screen
     00002034  A$ready_screen$135                 ready_screen
     00002035  A$ready_screen$139                 ready_screen
     00002035  C$ready_screen.c$37$1$58           ready_screen
     00002036  A$ready_screen$140                 ready_screen
     00002037  A$ready_screen$141                 ready_screen
     00002039  A$ready_screen$145                 ready_screen
     00002039  C$ready_screen.c$39$2$60           ready_screen
     0000203B  A$ready_screen$149                 ready_screen
     0000203B  C$ready_screen.c$40$2$60           ready_screen
     0000203C  A$ready_screen$154                 ready_screen
     0000203C  C$ready_screen.c$43$1$58           ready_screen
     0000203E  A$ready_screen$159                 ready_screen
     0000203E  C$ready_screen.c$44$1$58           ready_screen
     0000203E  XG$screen_ready_screen_update$0$   ready_screen
     0000203F  A$play_screen$75                   play_screen
     0000203F  C$play_screen.c$12$0$0             play_screen
     0000203F  C$play_screen.c$14$1$36            play_screen
     0000203F  C$play_screen.c$15$1$36            play_screen
     0000203F  C$play_screen.c$18$1$36            play_screen
     0000203F  G$screen_play_screen_load$0$0      play_screen
     0000203F  _screen_play_screen_load           play_screen
     00002042  A$play_screen$79                   play_screen
     00002042  C$play_screen.c$19$1$36            play_screen
     00002045  A$play_screen$83                   play_screen
     00002045  C$play_screen.c$21$1$36            play_screen
     00002048  A$play_screen$84                   play_screen
     00002049  A$play_screen$85                   play_screen
     0000204B  A$play_screen$86                   play_screen
     0000204C  A$play_screen$87                   play_screen
     0000204D  A$play_screen$88                   play_screen
     0000204E  A$play_screen$89                   play_screen
     0000204F  A$play_screen$90                   play_screen
     00002050  A$play_screen$91                   play_screen
     00002051  A$play_screen$92                   play_screen
     00002052  A$play_screen$93                   play_screen
     00002053  A$play_screen$94                   play_screen
     00002054  A$play_screen$95                   play_screen
     00002057  A$play_screen$96                   play_screen
ASxxxx Linker V03.00 + NoICE + sdld,  page 88.
Hexadecimal  [32-Bits]

Area                                    Addr        Size        Decimal Bytes (Attributes)
--------------------------------        ----        ----        ------- ----- ------------
_CODE                               00000200    00003D26 =       15654. bytes (REL,CON)

      Value  Global                              Global Defined In Module
      -----  --------------------------------   ------------------------
     00002058  A$play_screen$97                   play_screen
     00002059  A$play_screen$98                   play_screen
     0000205A  A$play_screen$99                   play_screen
     0000205D  A$play_screen$100                  play_screen
     00002060  A$play_screen$101                  play_screen
     00002061  A$play_screen$102                  play_screen
     00002062  A$play_screen$103                  play_screen
     00002064  A$play_screen$104                  play_screen
     00002065  A$play_screen$105                  play_screen
     00002066  A$play_screen$109                  play_screen
     00002066  C$play_screen.c$22$1$36            play_screen
     00002067  A$play_screen$110                  play_screen
     00002068  A$play_screen$111                  play_screen
     0000206B  A$play_screen$112                  play_screen
     0000206C  A$play_screen$120                  play_screen
     0000206C  C$play_screen.c$23$1$36            play_screen
     0000206C  C$play_screen.c$24$1$36            play_screen
     0000206C  XG$screen_play_screen_load$0$0     play_screen
     0000206F  A$play_screen$130                  play_screen
     0000206F  C$play_screen.c$26$1$36            play_screen
     0000206F  G$screen_play_screen_update$0$0    play_screen
     0000206F  _screen_play_screen_update         play_screen
     00002071  A$play_screen$131                  play_screen
     00002075  A$play_screen$132                  play_screen
     00002077  A$play_screen$133                  play_screen
     00002078  A$play_screen$143                  play_screen
     00002078  C$play_screen.c$28$1$38            play_screen
     00002078  C$play_screen.c$29$1$38            play_screen
     00002078  C$play_screen.c$34$1$38            play_screen
     0000207B  A$play_screen$147                  play_screen
     0000207B  C$play_screen.c$35$1$38            play_screen
     0000207E  A$play_screen$151                  play_screen
     00002081  A$play_screen$152                  play_screen
     00002082  A$play_screen$156                  play_screen
     00002082  C$play_screen.c$42$1$38            play_screen
     00002085  A$play_screen$157                  play_screen
     00002088  A$play_screen$158                  play_screen
     0000208B  A$play_screen$159                  play_screen
     0000208E  A$play_screen$163                  play_screen
     0000208E  C$play_screen.c$37$1$38            play_screen
     0000208F  A$play_screen$164                  play_screen
     00002090  A$play_screen$165                  play_screen
     00002092  A$play_screen$169                  play_screen
     00002092  C$play_screen.c$39$2$39            play_screen
     00002095  A$play_screen$173                  play_screen
     00002095  C$play_screen.c$40$2$39            play_screen
     00002098  A$play_screen$174                  play_screen
     00002099  A$play_screen$175                  play_screen
     0000209A  A$play_screen$176                  play_screen
     0000209C  A$play_screen$177                  play_screen
     0000209E  A$play_screen$181                  play_screen
ASxxxx Linker V03.00 + NoICE + sdld,  page 89.
Hexadecimal  [32-Bits]

Area                                    Addr        Size        Decimal Bytes (Attributes)
--------------------------------        ----        ----        ------- ----- ------------
_CODE                               00000200    00003D26 =       15654. bytes (REL,CON)

      Value  Global                              Global Defined In Module
      -----  --------------------------------   ------------------------
     0000209E  C$play_screen.c$42$3$40            play_screen
     0000209F  A$play_screen$182                  play_screen
     000020A0  A$play_screen$183                  play_screen
     000020A2  A$play_screen$187                  play_screen
     000020A2  C$play_screen.c$43$3$40            play_screen
     000020A4  A$play_screen$192                  play_screen
     000020A4  C$play_screen.c$46$2$39            play_screen
     000020A7  A$play_screen$193                  play_screen
     000020A8  A$play_screen$194                  play_screen
     000020AA  A$play_screen$195                  play_screen
     000020AB  A$play_screen$196                  play_screen
     000020AC  A$play_screen$197                  play_screen
     000020AD  A$play_screen$198                  play_screen
     000020AE  A$play_screen$199                  play_screen
     000020AF  A$play_screen$200                  play_screen
     000020B0  A$play_screen$201                  play_screen
     000020B1  A$play_screen$202                  play_screen
     000020B2  A$play_screen$203                  play_screen
     000020B3  A$play_screen$204                  play_screen
     000020B6  A$play_screen$205                  play_screen
     000020B7  A$play_screen$206                  play_screen
     000020B8  A$play_screen$207                  play_screen
     000020BA  A$play_screen$208                  play_screen
     000020BB  A$play_screen$209                  play_screen
     000020BC  A$play_screen$213                  play_screen
     000020BC  C$play_screen.c$47$2$39            play_screen
     000020BD  A$play_screen$214                  play_screen
     000020BE  A$play_screen$215                  play_screen
     000020C1  A$play_screen$216                  play_screen
     000020C2  A$play_screen$220                  play_screen
     000020C2  C$play_screen.c$48$2$39            play_screen
     000020C5  A$play_screen$225                  play_screen
     000020C5  C$play_screen.c$51$1$38            play_screen
     000020C8  A$play_screen$229                  play_screen
     000020C8  C$play_screen.c$53$1$38            play_screen
     000020CB  A$play_screen$233                  play_screen
     000020CB  C$play_screen.c$54$1$38            play_screen
     000020CE  A$play_screen$237                  play_screen
     000020CE  C$play_screen.c$55$1$38            play_screen
     000020D1  A$play_screen$241                  play_screen
     000020D1  C$play_screen.c$57$1$38            play_screen
     000020D4  A$play_screen$245                  play_screen
     000020D4  C$play_screen.c$58$1$38            play_screen
     000020D5  A$play_screen$246                  play_screen
     000020D6  A$play_screen$247                  play_screen
     000020D8  A$play_screen$251                  play_screen
     000020D8  C$play_screen.c$60$2$41            play_screen
     000020DB  A$play_screen$256                  play_screen
     000020DB  C$play_screen.c$63$1$38            play_screen
     000020DC  A$play_screen$257                  play_screen
     000020DD  A$play_screen$258                  play_screen
ASxxxx Linker V03.00 + NoICE + sdld,  page 90.
Hexadecimal  [32-Bits]

Area                                    Addr        Size        Decimal Bytes (Attributes)
--------------------------------        ----        ----        ------- ----- ------------
_CODE                               00000200    00003D26 =       15654. bytes (REL,CON)

      Value  Global                              Global Defined In Module
      -----  --------------------------------   ------------------------
     000020DF  A$play_screen$260                  play_screen
     000020E1  A$play_screen$261                  play_screen
     000020E3  A$play_screen$266                  play_screen
     000020E3  C$play_screen.c$64$1$38            play_screen
     000020E3  XG$screen_play_screen_update$0$0   play_screen
     000020E4  G$font_tiles__palette__bin$0$0     gfx
     000020E4  _font_tiles__palette__bin          gfx
     000020F4  G$font_tiles__tilemap__bin$0$0     gfx
     000020F4  _font_tiles__tilemap__bin          gfx
     00002174  G$font_tiles__tiles__psgcompr$0$   gfx
     00002174  _font_tiles__tiles__psgcompr       gfx
     0000240B  G$splash__palette__bin$0$0         gfx
     0000240B  _splash__palette__bin              gfx
     0000241B  G$splash__tilemap__stmcompr$0$0    gfx
     0000241B  _splash__tilemap__stmcompr         gfx
     00002462  G$splash__tiles__psgcompr$0$0      gfx
     00002462  _splash__tiles__psgcompr           gfx
     00002C8B  G$sprites__palette__bin$0$0        gfx
     00002C8B  _sprites__palette__bin             gfx
     00002C9B  G$sprites__tiles__psgcompr$0$0     gfx
     00002C9B  _sprites__tiles__psgcompr          gfx
     00003051  G$tree_avoid__palette__bin$0$0     gfx
     00003051  _tree_avoid__palette__bin          gfx
     00003061  G$tree_avoid__tilemap__bin$0$0     gfx
     00003061  _tree_avoid__tilemap__bin          gfx
     00003069  G$tree_avoid__tiles__psgcompr$0$   gfx
     00003069  _tree_avoid__tiles__psgcompr       gfx
     000030BB  G$music_psg$0$0                    psg
     000030BB  _music_psg                         psg
     000036E0  G$sound1_psg$0$0                   psg
     000036E0  _sound1_psg                        psg
     0000370B  G$sound2_psg$0$0                   psg
     0000370B  _sound2_psg                        psg
     0000372B  G$sound3_psg$0$0                   psg
     0000372B  _sound3_psg                        psg
     0000374E  __divuint                          
     00003756  __divuchar                         
     0000375D  __divu8                            
     00003760  __divu16                           
     0000378F  _UNSAFE_SMS_copySpritestoSAT       SMSlib_UNSAFE
     000037A7  _UNSAFE_SMS_VRAMmemcpy32           SMSlib_UNSAFE
     000037C4  _UNSAFE_SMS_VRAMmemcpy64           SMSlib_UNSAFE
     000037E1  _UNSAFE_SMS_VRAMmemcpy128          SMSlib_UNSAFE
     000037FE  _SMS_init                          SMSlib
     00003852  _VDPReg_init                       SMSlib
     0000385D  _SMS_VDPType                       SMSlib
     00003865  _SMS_VDPturnOnFeature              SMSlib
     0000387C  _SMS_VDPturnOffFeature             SMSlib
     00003895  _SMS_setBGScrollX                  SMSlib
     0000389F  _SMS_setBGScrollY                  SMSlib
     000038A9  _SMS_setBackdropColor              SMSlib
ASxxxx Linker V03.00 + NoICE + sdld,  page 91.
Hexadecimal  [32-Bits]

Area                                    Addr        Size        Decimal Bytes (Attributes)
--------------------------------        ----        ----        ------- ----- ------------
_CODE                               00000200    00003D26 =       15654. bytes (REL,CON)

      Value  Global                              Global Defined In Module
      -----  --------------------------------   ------------------------
     000038B3  _SMS_useFirstHalfTilesforSprites   SMSlib
     000038C7  _SMS_setSpriteMode                 SMSlib
     0000390C  _SMS_setBGPaletteColor             SMSlib
     00003920  _SMS_setSpritePaletteColor         SMSlib
     00003934  _SMS_loadBGPalette                 SMSlib
     00003948  _SMS_loadSpritePalette             SMSlib
     0000395C  _SMS_setColor                      SMSlib
     00003960  _SMS_initSprites                   SMSlib
     00003966  _SMS_addSprite                     SMSlib
     000039BB  _SMS_finalizeSprites               SMSlib
     000039CD  _SMS_copySpritestoSAT              SMSlib
     000039F6  _SMS_waitForVBlank                 SMSlib
     00003A03  _SMS_getKeysStatus                 SMSlib
     00003A07  _SMS_getKeysPressed                SMSlib
     00003A24  _SMS_getKeysHeld                   SMSlib
     00003A3B  _SMS_getKeysReleased               SMSlib
     00003A58  _SMS_queryPauseRequested           SMSlib
     00003A60  _SMS_resetPauseRequest             SMSlib
     00003A66  _SMS_setLineInterruptHandler       SMSlib
     00003A77  _SMS_setLineCounter                SMSlib
     00003A86  _SMS_getVCount                     SMSlib
     00003A8A  _SMS_getHCount                     SMSlib
     00003A8E  _SMS_isr                           SMSlib
     00003AC4  _SMS_nmi_isr                       SMSlib
     00003AD7  _rand                              rand
     00003B93  _srand                             rand
     00003BB1  _SMS_loadSTMcompressedTileMapAre   SMSlib_STMcomp
     00003D92  ___sdcc_call_hl                    
     00003D93  _SMS_loadPSGaidencompressedTiles   SMSlib_PSGaiden
     00003E75  __modschar                         
     00003E82  __modsint                          
     00003E8E  _SMS_loadTileMap                   SMSlib_loadTileMap
     00003EC7  __moduchar                         
     00003ED3  __moduint                          
     00003EDE  __divsint                          
     00003EE7  __divschar                         
     00003EEE  __div8                             
     00003EF2  __div_signexte                     
     00003EF6  __div16                            
     00003F1C  __get_remainder                    
ASxxxx Linker V03.00 + NoICE + sdld,  page 92.
Hexadecimal  [32-Bits]

Area                                    Addr        Size        Decimal Bytes (Attributes)
--------------------------------        ----        ----        ------- ----- ------------
_HEADER0                            00000000    00000006 =           6. bytes (ABS,CON)

      Value  Global                              Global Defined In Module
      -----  --------------------------------   ------------------------
     00000006  _SMS_crt0_RST08                    crt0

ASxxxx Linker V03.00 + NoICE + sdld,  page 93.
Hexadecimal  [32-Bits]

Area                                    Addr        Size        Decimal Bytes (Attributes)
--------------------------------        ----        ----        ------- ----- ------------
_HEADER1                            00000000    00000009 =           9. bytes (ABS,CON)

      Value  Global                              Global Defined In Module
      -----  --------------------------------   ------------------------
     00000011  _SMS_crt0_RST18                    crt0

ASxxxx Linker V03.00 + NoICE + sdld,  page 94.
Hexadecimal  [32-Bits]

Area                                    Addr        Size        Decimal Bytes (Attributes)
--------------------------------        ----        ----        ------- ----- ------------
_HEADER2                            00000000    0000000A =          10. bytes (ABS,CON)

      Value  Global                              Global Defined In Module
      -----  --------------------------------   ------------------------
ASxxxx Linker V03.00 + NoICE + sdld,  page 95.
Hexadecimal  [32-Bits]

Area                                    Addr        Size        Decimal Bytes (Attributes)
--------------------------------        ----        ----        ------- ----- ------------
_HEADER3                            00000000    00000003 =           3. bytes (ABS,CON)

      Value  Global                              Global Defined In Module
      -----  --------------------------------   ------------------------
ASxxxx Linker V03.00 + NoICE + sdld,  page 96.
Hexadecimal  [32-Bits]

Area                                    Addr        Size        Decimal Bytes (Attributes)
--------------------------------        ----        ----        ------- ----- ------------
_HEADER4                            00000000    00000003 =           3. bytes (ABS,CON)

      Value  Global                              Global Defined In Module
      -----  --------------------------------   ------------------------
ASxxxx Linker V03.00 + NoICE + sdld,  page 97.
Hexadecimal  [32-Bits]

Area                                    Addr        Size        Decimal Bytes (Attributes)
--------------------------------        ----        ----        ------- ----- ------------
_HEADER5                            00000000    0000012A =         298. bytes (ABS,CON)

      Value  Global                              Global Defined In Module
      -----  --------------------------------   ------------------------
     00000099  _OUTI128                           crt0
     00000119  _OUTI64                            crt0
     00000159  _OUTI32                            crt0
     00000199  _outi_block                        crt0

ASxxxx Linker V03.00 + NoICE + sdld,  page 98.
Hexadecimal  [32-Bits]

Area                                    Addr        Size        Decimal Bytes (Attributes)
--------------------------------        ----        ----        ------- ----- ------------
_INITIALIZER                        00003F26    0000000C =          12. bytes (REL,CON)

      Value  Global                              Global Defined In Module
      -----  --------------------------------   ------------------------
     00003F26  Finput_manager$__xinit_curr_joyp   input_manager
     00003F28  Finput_manager$__xinit_prev_joyp   input_manager

ASxxxx Linker V03.00 + NoICE + sdld,  page 99.
Hexadecimal  [32-Bits]

Area                                    Addr        Size        Decimal Bytes (Attributes)
--------------------------------        ----        ----        ------- ----- ------------
_GSINIT                             00003F32    0000000F =          15. bytes (REL,CON)

      Value  Global                              Global Defined In Module
      -----  --------------------------------   ------------------------
     00003F32  gsinit                             crt0

ASxxxx Linker V03.00 + NoICE + sdld,  page 100.
Hexadecimal  [32-Bits]

Area                                    Addr        Size        Decimal Bytes (Attributes)
--------------------------------        ----        ----        ------- ----- ------------
_GSFINAL                            00003F41    00000001 =           1. bytes (REL,CON)

      Value  Global                              Global Defined In Module
      -----  --------------------------------   ------------------------
ASxxxx Linker V03.00 + NoICE + sdld,  page 101.
Hexadecimal  [32-Bits]

Area                                    Addr        Size        Decimal Bytes (Attributes)
--------------------------------        ----        ----        ------- ----- ------------
_DATA                               0000C000    0000031C =         796. bytes (REL,CON)

      Value  Global                              Global Defined In Module
      -----  --------------------------------   ------------------------
     0000C000  Lmain.main$global_pause$1$60       main
     0000C001  _PSGMusicStatus                    PSGlib
     0000C002  _PSGMusicStart                     PSGlib
     0000C004  _PSGMusicPointer                   PSGlib
     0000C006  _PSGMusicLoopPoint                 PSGlib
     0000C008  _PSGMusicSkipFrames                PSGlib
     0000C009  _PSGLoopFlag                       PSGlib
     0000C00A  _PSGMusicLastLatch                 PSGlib
     0000C00B  _PSGMusicVolumeAttenuation         PSGlib
     0000C00C  _PSGMusicSubstringLen              PSGlib
     0000C00D  _PSGMusicSubstringRetAddr          PSGlib
     0000C00F  _PSGChan0Volume                    PSGlib
     0000C010  _PSGChan1Volume                    PSGlib
     0000C011  _PSGChan2Volume                    PSGlib
     0000C012  _PSGChan3Volume                    PSGlib
     0000C013  _PSGChan2LowTone                   PSGlib
     0000C014  _PSGChan2HighTone                  PSGlib
     0000C015  _PSGChan3LowTone                   PSGlib
     0000C016  _PSGChannel2SFX                    PSGlib
     0000C017  _PSGChannel3SFX                    PSGlib
     0000C018  _PSGSFXChan2Volume                 PSGlib
     0000C019  _PSGSFXChan3Volume                 PSGlib
     0000C01A  _PSGSFXStatus                      PSGlib
     0000C01B  _PSGSFXStart                       PSGlib
     0000C01D  _PSGSFXPointer                     PSGlib
     0000C01F  _PSGSFXLoopPoint                   PSGlib
     0000C021  _PSGSFXSkipFrames                  PSGlib
     0000C022  _PSGSFXLoopFlag                    PSGlib
     0000C023  _PSGSFXSubstringLen                PSGlib
     0000C024  _PSGSFXSubstringRetAddr            PSGlib
     0000C026  G$global_enemy_objects$0$0         enemy_manager
     0000C026  _global_enemy_objects              enemy_manager
     0000C047  G$global_gamer_object$0$0          gamer_manager
     0000C047  _global_gamer_object               gamer_manager
     0000C054  G$global_hack_object$0$0           hack_manager
     0000C054  _global_hack_object                hack_manager
     0000C05A  G$global_path_object$0$0           path_manager
     0000C05A  _global_path_object                path_manager
     0000C21A  Fscreen_manager$load_method$0$0    screen_manager
     0000C224  Fscreen_manager$update_method$0$   screen_manager
     0000C22E  Fscreen_manager$curr_screen_type   screen_manager
     0000C22F  Fscreen_manager$next_screen_type   screen_manager
     0000C230  Fstart_screen$timer$0$0            start_screen
     0000C231  _VDPBlank                          SMSlib
     0000C232  _SMS_VDPFlags                      SMSlib
     0000C233  _PauseRequested                    SMSlib
     0000C234  _VDPType                           SMSlib
     0000C235  _KeysStatus                        SMSlib
     0000C237  _PreviousKeysStatus                SMSlib
     0000C239  _SpriteTableY                      SMSlib
ASxxxx Linker V03.00 + NoICE + sdld,  page 102.
Hexadecimal  [32-Bits]

Area                                    Addr        Size        Decimal Bytes (Attributes)
--------------------------------        ----        ----        ------- ----- ------------
_DATA                               0000C000    0000031C =         796. bytes (REL,CON)

      Value  Global                              Global Defined In Module
      -----  --------------------------------   ------------------------
     0000C279  _SpriteTableXN                     SMSlib
     0000C2F9  _SpriteNextFree                    SMSlib
     0000C2FA  _SMS_theLineInterruptHandler       SMSlib
     0000C2FC  _decompBuffer                      SMSlib_PSGaiden
ASxxxx Linker V03.00 + NoICE + sdld,  page 103.
Hexadecimal  [32-Bits]

Area                                    Addr        Size        Decimal Bytes (Attributes)
--------------------------------        ----        ----        ------- ----- ------------
_INITIALIZED                        0000C31C    0000000C =          12. bytes (REL,CON)

      Value  Global                              Global Defined In Module
      -----  --------------------------------   ------------------------
     0000C31C  Finput_manager$curr_joypad1$0$0    input_manager
     0000C31E  Finput_manager$prev_joypad1$0$0    input_manager
     0000C320  _VDPReg                            SMSlib
     0000C322  _spritesHeight                     SMSlib
     0000C323  _spritesWidth                      SMSlib

ASxxxx Linker V03.00 + NoICE + sdld,  page 104.
Hexadecimal  [32-Bits]

Area                                    Addr        Size        Decimal Bytes (Attributes)
--------------------------------        ----        ----        ------- ----- ------------
_CABS0                              00000000    00000010 =          16. bytes (ABS,CON)

      Value  Global                              Global Defined In Module
      -----  --------------------------------   ------------------------
     00007FF0  G$__SMS__SEGA_signature$0$0        _sms_manager
     00007FF0  ___SMS__SEGA_signature             _sms_manager

ASxxxx Linker V03.00 + NoICE + sdld,  page 105.
Hexadecimal  [32-Bits]

Area                                    Addr        Size        Decimal Bytes (Attributes)
--------------------------------        ----        ----        ------- ----- ------------
_CABS1                              00000000    0000000E =          14. bytes (ABS,CON)

      Value  Global                              Global Defined In Module
      -----  --------------------------------   ------------------------
     00007FD2  G$__SMS__SDSC_author$0$0           _sms_manager
     00007FD2  ___SMS__SDSC_author                _sms_manager

ASxxxx Linker V03.00 + NoICE + sdld,  page 106.
Hexadecimal  [32-Bits]

Area                                    Addr        Size        Decimal Bytes (Attributes)
--------------------------------        ----        ----        ------- ----- ------------
_CABS2                              00000000    00000010 =          16. bytes (ABS,CON)

      Value  Global                              Global Defined In Module
      -----  --------------------------------   ------------------------
     00007FC2  G$__SMS__SDSC_name$0$0             _sms_manager
     00007FC2  ___SMS__SDSC_name                  _sms_manager

ASxxxx Linker V03.00 + NoICE + sdld,  page 107.
Hexadecimal  [32-Bits]

Area                                    Addr        Size        Decimal Bytes (Attributes)
--------------------------------        ----        ----        ------- ----- ------------
_CABS3                              00000000    00000038 =          56. bytes (ABS,CON)

      Value  Global                              Global Defined In Module
      -----  --------------------------------   ------------------------
     00007F8A  G$__SMS__SDSC_descr$0$0            _sms_manager
     00007F8A  ___SMS__SDSC_descr                 _sms_manager

ASxxxx Linker V03.00 + NoICE + sdld,  page 108.
Hexadecimal  [32-Bits]

Area                                    Addr        Size        Decimal Bytes (Attributes)
--------------------------------        ----        ----        ------- ----- ------------
_CABS4                              00000000    00000010 =          16. bytes (ABS,CON)

      Value  Global                              Global Defined In Module
      -----  --------------------------------   ------------------------
     00007FE0  G$__SMS__SDSC_signature$0$0        _sms_manager
     00007FE0  ___SMS__SDSC_signature             _sms_manager

ASxxxx Linker V03.00 + NoICE + sdld,  page 109.

Files Linked                              [ module(s) ]

../crt0/crt0_sms.rel                      [ crt0 ]
main.rel                                  [ main ]
../lib/PSGlib.rel                         [ PSGlib ]
devkit/_sms_manager.rel                   [ _sms_manager ]
devkit/_snd_manager.rel                   [ _snd_manager ]
engine/asm_manager.rel                    [ asm_manager ]
engine/content_manager.rel                [ content_manager ]
engine/enemy_manager.rel                  [ enemy_manager ]
engine/font_manager.rel                   [ font_manager ]
engine/gamer_manager.rel                  [ gamer_manager ]
engine/hack_manager.rel                   [ hack_manager ]
engine/input_manager.rel                  [ input_manager ]
engine/path_manager.rel                   [ path_manager ]
engine/screen_manager.rel                 [ screen_manager ]
engine/sound_manager.rel                  [ sound_manager ]
engine/sprite_manager.rel                 [ sprite_manager ]
engine/text_manager.rel                   [ text_manager ]
engine/tree_manager.rel                   [ tree_manager ]
object/enemy_object.rel                   [ enemy_object ]
object/gamer_object.rel                   [ gamer_object ]
object/path_object.rel                    [ path_object ]
screen/none_screen.rel                    [ none_screen ]
screen/start_screen.rel                   [ start_screen ]
screen/title_screen.rel                   [ title_screen ]
screen/ready_screen.rel                   [ ready_screen ]
screen/play_screen.rel                    [ play_screen ]
gfx.rel                                   [ gfx ]
psg.rel                                   [ psg ]


Libraries Linked                          [ object file ]

C:\Program Files\SDCC\bin\..\lib\z80/z80.lib
                                          [ divunsigned.rel ]
../lib/SMSlib.lib                         [ SMSlib_UNSAFE.rel ]
../lib/SMSlib.lib                         [ SMSlib.rel ]
C:\Program Files\SDCC\bin\..\lib\z80/z80.lib
                                          [ rand.rel ]
../lib/SMSlib.lib                         [ SMSlib_STMcomp.rel ]
C:\Program Files\SDCC\bin\..\lib\z80/z80.lib
                                          [ __sdcc_call_hl.rel ]
../lib/SMSlib.lib                         [ SMSlib_PSGaiden.rel ]
C:\Program Files\SDCC\bin\..\lib\z80/z80.lib
                                          [ modsigned.rel ]
../lib/SMSlib.lib                         [ SMSlib_loadTileMap.rel ]
C:\Program Files\SDCC\bin\..\lib\z80/z80.lib
                                          [ modunsigned.rel ]
C:\Program Files\SDCC\bin\..\lib\z80/z80.lib
                                          [ divsigned.rel ]

ASxxxx Linker V03.00 + NoICE + sdld,  page 110.

User Base Address Definitions

_CODE = 0x0200
_DATA = 0xc000

