ASxxxx Linker V03.00 + NoICE + sdld,  page 1.
Hexadecimal  [32-Bits]

Area                                    Addr        Size        Decimal Bytes (Attributes)
--------------------------------        ----        ----        ------- ----- ------------
.  .ABS.                            00000000    00000000 =           0. bytes (ABS,CON)

      Value  Global                              Global Defined In Module
      -----  --------------------------------   ------------------------
     00000000  .__.ABS.                           SMSlib_VRAMmemcpy
     00000000  l__BSEG                         
     00000000  l__BSS                          
     00000000  l__CABS                         
     00000000  l__DABS                         
     00000000  l__HEADER                       
     00000000  l__HEAP                         
     00000000  l__HOME                         
     00000000  s__CABS                         
     00000000  s__CABS0                        
     00000000  s__DABS                         
     00000000  s__HEADER                       
     00000000  s__HEADER0                      
     00000000  s__HEADER1                      
     00000000  s__HEADER2                      
     00000000  s__HEADER3                      
     00000000  s__HEADER4                      
     00000001  l__GSFINAL                      
     00000008  l__HEADER0                      
     00000009  l__HEADER1                      
     0000000F  l__GSINIT                       
     00000010  l__CABS0                        
     00000018  l__HEADER2                      
     0000001A  l__INITIALIZED                  
     0000001A  l__INITIALIZER                  
     00000026  l__HEADER3                      
     00000104  l__HEADER4                      
     00000200  s__CODE                         
     00001209  l__DATA                         
     0000121D  l__BANK3                        
     00001E33  l__CODE                         
     00002033  s__HOME                         
     00002033  s__INITIALIZER                  
     0000204D  s__GSINIT                       
     0000205C  s__GSFINAL                      
     00003F9F  l__BANK2                        
     00004000  s__BANK2                        
     00004000  s__BANK3                        
     00008000  _SMS_SRAM                          SMSlib_VRAMmemcpy
     0000C000  s__DATA                         
     0000D209  s__INITIALIZED                  
     0000D223  s__BSEG                         
     0000D223  s__BSS                          
     0000D223  s__HEAP                         
     0000FFFC  _SRAM_bank_to_be_mapped_on_slot2   SMSlib_VRAMmemcpy
     0000FFFF  _ROM_bank_to_be_mapped_on_slot2    SMSlib_VRAMmemcpy

ASxxxx Linker V03.00 + NoICE + sdld,  page 2.
Hexadecimal  [32-Bits]

Area                                    Addr        Size        Decimal Bytes (Attributes)
--------------------------------        ----        ----        ------- ----- ------------
_CODE                               00000200    00001E33 =        7731. bytes (REL,CON)

      Value  Global                              Global Defined In Module
      -----  --------------------------------   ------------------------
     00000200  _main                              main
     0000034C  _processSpritesActiveDisplay       main
     00000473  _processSpritesVBlank              main
     000004E4  _processUserInput                  main
     0000052D  _processUpKey                      main
     0000067C  _processDownKey                    main
     000007DF  _processLeftKey                    main
     000008BD  _processRightKey                   main
     00000999  _processAttackKey                  main
     00000A0C  _checkForAttackInteraction         main
     00000B07  _processAttackInteraction          main
     00000BD8  _PSGStop                           PSGlib
     00000BFF  _PSGResume                         PSGlib
     00000C4B  _PSGPlay                           PSGlib
     00000C78  _PSGPlayLoops                      PSGlib
     00000C8F  _PSGCancelLoop                     PSGlib
     00000C9A  _PSGPlayNoRepeat                   PSGlib
     00000CAE  _PSGGetStatus                      PSGlib
     00000CB3  _PSGSilenceChannels                PSGlib
     00000CC4  _PSGRestoreVolumes                 PSGlib
     00000DBF  _PSGSetMusicVolumeAttenuation      PSGlib
     00000EA3  _PSGSFXStop                        PSGlib
     00000F6B  _PSGSFXPlay                        PSGlib
     00000FB8  _PSGSFXCancelLoop                  PSGlib
     00000FBE  _PSGSFXGetStatus                   PSGlib
     00000FC3  _PSGSFXPlayLoop                    PSGlib
     00000FE0  _PSGFrame                          PSGlib
     00001104  _PSGSFXFrame                       PSGlib
     0000118A  A$GSLib$78                         GSLib
     0000118A  C$GSLib.c$56$0_0$8                 GSLib
     0000118A  C$GSLib.c$68$1_0$8                 GSLib
     0000118A  G$GSL_positionWindow$0$0           GSLib
     0000118A  _GSL_positionWindow                GSLib
     0000118B  A$GSLib$79                         GSLib
     0000118C  A$GSLib$80                         GSLib
     0000118D  A$GSLib$81                         GSLib
     0000118E  A$GSLib$82                         GSLib
     0000118F  A$GSLib$83                         GSLib
     00001190  A$GSLib$84                         GSLib
     00001193  A$GSLib$92                         GSLib
     00001193  C$GSLib.c$69$1_0$8                 GSLib
     00001193  XG$GSL_positionWindow$0$0          GSLib
     00001194  A$GSLib$105                        GSLib
     00001194  C$GSLib.c$73$1_0$10                GSLib
     00001194  C$GSLib.c$84$1_0$10                GSLib
     00001194  G$GSL_metatileLookup$0$0           GSLib
     00001194  _GSL_metatileLookup                GSLib
     00001195  A$GSLib$106                        GSLib
     00001196  A$GSLib$107                        GSLib
     00001197  A$GSLib$108                        GSLib
ASxxxx Linker V03.00 + NoICE + sdld,  page 3.
Hexadecimal  [32-Bits]

Area                                    Addr        Size        Decimal Bytes (Attributes)
--------------------------------        ----        ----        ------- ----- ------------
_CODE                               00000200    00001E33 =        7731. bytes (REL,CON)

      Value  Global                              Global Defined In Module
      -----  --------------------------------   ------------------------
     00001198  A$GSLib$109                        GSLib
     00001199  A$GSLib$110                        GSLib
     0000119A  A$GSLib$111                        GSLib
     0000119D  A$GSLib$119                        GSLib
     0000119D  C$GSLib.c$85$1_0$10                GSLib
     0000119D  XG$GSL_metatileLookup$0$0          GSLib
     0000119E  A$GSLib$132                        GSLib
     0000119E  C$GSLib.c$101$1_0$12               GSLib
     0000119E  C$GSLib.c$89$1_0$12                GSLib
     0000119E  G$GSL_tileLookup$0$0               GSLib
     0000119E  _GSL_tileLookup                    GSLib
     0000119F  A$GSLib$133                        GSLib
     000011A0  A$GSLib$134                        GSLib
     000011A1  A$GSLib$135                        GSLib
     000011A2  A$GSLib$136                        GSLib
     000011A3  A$GSLib$137                        GSLib
     000011A4  A$GSLib$138                        GSLib
     000011A7  A$GSLib$146                        GSLib
     000011A7  C$GSLib.c$102$1_0$12               GSLib
     000011A7  XG$GSL_tileLookup$0$0              GSLib
     000011A8  A$GSLib$159                        GSLib
     000011A8  C$GSLib.c$106$1_0$13               GSLib
     000011A8  C$GSLib.c$112$1_0$13               GSLib
     000011A8  G$GSL_refreshVDP$0$0               GSLib
     000011A8  _GSL_refreshVDP                    GSLib
     000011AA  A$GSLib$160                        GSLib
     000011AD  A$GSLib$161                        GSLib
     000011AF  A$GSLib$169                        GSLib
     000011AF  C$GSLib.c$113$1_0$13               GSLib
     000011AF  XG$GSL_refreshVDP$0$0              GSLib
     000011B0  A$GSLib$182                        GSLib
     000011B0  C$GSLib.c$117$1_0$15               GSLib
     000011B0  C$GSLib.c$135$1_0$15               GSLib
     000011B0  G$GSL_scroll$0$0                   GSLib
     000011B0  _GSL_scroll                        GSLib
     000011B1  A$GSLib$183                        GSLib
     000011B2  A$GSLib$184                        GSLib
     000011B3  A$GSLib$185                        GSLib
     000011B4  A$GSLib$186                        GSLib
     000011B6  A$GSLib$187                        GSLib
     000011B7  A$GSLib$188                        GSLib
     000011BA  A$GSLib$189                        GSLib
     000011BB  A$GSLib$190                        GSLib
     000011BE  A$GSLib$191                        GSLib
     000011C1  A$GSLib$192                        GSLib
     000011C3  A$GSLib$200                        GSLib
     000011C3  C$GSLib.c$136$1_0$15               GSLib
     000011C3  XG$GSL_scroll$0$0                  GSLib
     000011C4  A$GSLib$213                        GSLib
     000011C4  C$GSLib.c$140$1_0$16               GSLib
     000011C4  C$GSLib.c$146$1_0$16               GSLib
ASxxxx Linker V03.00 + NoICE + sdld,  page 4.
Hexadecimal  [32-Bits]

Area                                    Addr        Size        Decimal Bytes (Attributes)
--------------------------------        ----        ----        ------- ----- ------------
_CODE                               00000200    00001E33 =        7731. bytes (REL,CON)

      Value  Global                              Global Defined In Module
      -----  --------------------------------   ------------------------
     000011C4  G$GSL_VBlank$0$0                   GSLib
     000011C4  _GSL_VBlank                        GSLib
     000011C6  A$GSLib$214                        GSLib
     000011C9  A$GSLib$215                        GSLib
     000011CB  A$GSLib$223                        GSLib
     000011CB  C$GSLib.c$147$1_0$16               GSLib
     000011CB  XG$GSL_VBlank$0$0                  GSLib
     000011CC  A$GSLib$236                        GSLib
     000011CC  C$GSLib.c$151$1_0$17               GSLib
     000011CC  C$GSLib.c$155$1_0$17               GSLib
     000011CC  G$GSL_metatileUpdate$0$0           GSLib
     000011CC  _GSL_metatileUpdate                GSLib
     000011CF  A$GSLib$244                        GSLib
     000011CF  C$GSLib.c$156$1_0$17               GSLib
     000011CF  XG$GSL_metatileUpdate$0$0          GSLib
     000011D0  A$GSLib$257                        GSLib
     000011D0  C$GSLib.c$160$1_0$19               GSLib
     000011D0  C$GSLib.c$178$1_0$19               GSLib
     000011D0  G$GSL_metatileUpdateCustom$0$0     GSLib
     000011D0  _GSL_metatileUpdateCustom          GSLib
     000011D1  A$GSLib$258                        GSLib
     000011D2  A$GSLib$259                        GSLib
     000011D5  A$GSLib$260                        GSLib
     000011D6  A$GSLib$261                        GSLib
     000011D9  A$GSLib$262                        GSLib
     000011DA  A$GSLib$263                        GSLib
     000011DE  A$GSLib$264                        GSLib
     000011DF  A$GSLib$265                        GSLib
     000011E2  A$GSLib$266                        GSLib
     000011E3  A$GSLib$267                        GSLib
     000011E4  A$GSLib$268                        GSLib
     000011E5  A$GSLib$269                        GSLib
     000011E6  A$GSLib$270                        GSLib
     000011E9  A$GSLib$278                        GSLib
     000011E9  C$GSLib.c$179$1_0$19               GSLib
     000011E9  XG$GSL_metatileUpdateCustom$0$0    GSLib
     000011EA  A$GSLib$291                        GSLib
     000011EA  C$GSLib.c$182$1_0$20               GSLib
     000011EA  C$GSLib.c$184$1_0$20               GSLib
     000011EA  G$GSL_getMapWidthInPixels$0$0      GSLib
     000011EA  _GSL_getMapWidthInPixels           GSLib
     000011ED  A$GSLib$299                        GSLib
     000011ED  C$GSLib.c$185$1_0$20               GSLib
     000011ED  XG$GSL_getMapWidthInPixels$0$0     GSLib
     000011EE  A$GSLib$312                        GSLib
     000011EE  C$GSLib.c$189$1_0$21               GSLib
     000011EE  C$GSLib.c$191$1_0$21               GSLib
     000011EE  G$GSL_getMapHeightInPixels$0$0     GSLib
     000011EE  _GSL_getMapHeightInPixels          GSLib
     000011F1  A$GSLib$320                        GSLib
     000011F1  C$GSLib.c$192$1_0$21               GSLib
ASxxxx Linker V03.00 + NoICE + sdld,  page 5.
Hexadecimal  [32-Bits]

Area                                    Addr        Size        Decimal Bytes (Attributes)
--------------------------------        ----        ----        ------- ----- ------------
_CODE                               00000200    00001E33 =        7731. bytes (REL,CON)

      Value  Global                              Global Defined In Module
      -----  --------------------------------   ------------------------
     000011F1  XG$GSL_getMapHeightInPixels$0$0    GSLib
     000011F2  A$GSLib$333                        GSLib
     000011F2  C$GSLib.c$196$1_0$22               GSLib
     000011F2  C$GSLib.c$198$1_0$22               GSLib
     000011F2  G$GSL_getMapWidthInMetatiles$0$0   GSLib
     000011F2  _GSL_getMapWidthInMetatiles        GSLib
     000011F5  A$GSLib$341                        GSLib
     000011F5  C$GSLib.c$199$1_0$22               GSLib
     000011F5  XG$GSL_getMapWidthInMetatiles$0$   GSLib
     000011F6  A$GSLib$354                        GSLib
     000011F6  C$GSLib.c$203$1_0$23               GSLib
     000011F6  C$GSLib.c$205$1_0$23               GSLib
     000011F6  G$GSL_getMapHeightInMetatiles$0$   GSLib
     000011F6  _GSL_getMapHeightInMetatiles       GSLib
     000011F9  A$GSLib$362                        GSLib
     000011F9  C$GSLib.c$206$1_0$23               GSLib
     000011F9  XG$GSL_getMapHeightInMetatiles$0   GSLib
     000011FA  A$GSLib$375                        GSLib
     000011FA  C$GSLib.c$210$1_0$24               GSLib
     000011FA  C$GSLib.c$212$1_0$24               GSLib
     000011FA  G$GSL_getScrolltableSize$0$0       GSLib
     000011FA  _GSL_getScrolltableSize            GSLib
     000011FD  A$GSLib$383                        GSLib
     000011FD  C$GSLib.c$213$1_0$24               GSLib
     000011FD  XG$GSL_getScrolltableSize$0$0      GSLib
     000011FE  A$GSLib$396                        GSLib
     000011FE  C$GSLib.c$217$1_0$25               GSLib
     000011FE  C$GSLib.c$219$1_0$25               GSLib
     000011FE  G$GSL_getCurrentX$0$0              GSLib
     000011FE  _GSL_getCurrentX                   GSLib
     00001201  A$GSLib$404                        GSLib
     00001201  C$GSLib.c$220$1_0$25               GSLib
     00001201  XG$GSL_getCurrentX$0$0             GSLib
     00001202  A$GSLib$417                        GSLib
     00001202  C$GSLib.c$224$1_0$26               GSLib
     00001202  C$GSLib.c$226$1_0$26               GSLib
     00001202  G$GSL_getCurrentY$0$0              GSLib
     00001202  _GSL_getCurrentY                   GSLib
     00001205  A$GSLib$425                        GSLib
     00001205  C$GSLib.c$227$1_0$26               GSLib
     00001205  XG$GSL_getCurrentY$0$0             GSLib
     00001206  A$GSLib$438                        GSLib
     00001206  C$GSLib.c$231$1_0$27               GSLib
     00001206  C$GSLib.c$233$1_0$27               GSLib
     00001206  G$GSL_getCollisionCount$0$0        GSLib
     00001206  _GSL_getCollisionCount             GSLib
     00001209  A$GSLib$439                        GSLib
     0000120A  A$GSLib$447                        GSLib
     0000120A  C$GSLib.c$234$1_0$27               GSLib
     0000120A  XG$GSL_getCollisionCount$0$0       GSLib
     0000120B  A$GSLib$460                        GSLib
ASxxxx Linker V03.00 + NoICE + sdld,  page 6.
Hexadecimal  [32-Bits]

Area                                    Addr        Size        Decimal Bytes (Attributes)
--------------------------------        ----        ----        ------- ----- ------------
_CODE                               00000200    00001E33 =        7731. bytes (REL,CON)

      Value  Global                              Global Defined In Module
      -----  --------------------------------   ------------------------
     0000120B  C$GSLib.c$237$1_0$28               GSLib
     0000120B  C$GSLib.c$239$1_0$28               GSLib
     0000120B  G$GSL_getScrolltableAddress$0$0    GSLib
     0000120B  _GSL_getScrolltableAddress         GSLib
     0000120E  A$GSLib$468                        GSLib
     0000120E  C$GSLib.c$240$1_0$28               GSLib
     0000120E  XG$GSL_getScrolltableAddress$0$0   GSLib
     0000120F  A$GSLib$481                        GSLib
     0000120F  C$GSLib.c$1724$1_0$30              GSLib
     0000120F  C$GSLib.c$244$1_0$30               GSLib
     0000120F  G$GSL_initializeMap$0$0            GSLib
     0000120F  _GSL_initializeMap                 GSLib
     00001210  A$GSLib$482                        GSLib
     00001211  A$GSLib$483                        GSLib
     00001212  A$GSLib$484                        GSLib
     00001213  A$GSLib$485                        GSLib
     00001214  A$GSLib$486                        GSLib
     00001215  A$GSLib$487                        GSLib
     00001218  A$GSLib$488                        GSLib
     0000121B  A$GSLib$493                        GSLib
     0000121F  A$GSLib$495                        GSLib
     00001220  A$GSLib$496                        GSLib
     00001221  A$GSLib$497                        GSLib
     00001222  A$GSLib$498                        GSLib
     00001223  A$GSLib$499                        GSLib
     00001226  A$GSLib$501                        GSLib
     00001229  A$GSLib$502                        GSLib
     0000122C  A$GSLib$503                        GSLib
     0000122E  A$GSLib$505                        GSLib
     00001231  A$GSLib$507                        GSLib
     00001234  A$GSLib$508                        GSLib
     00001237  A$GSLib$509                        GSLib
     00001238  A$GSLib$510                        GSLib
     0000123B  A$GSLib$511                        GSLib
     0000123E  A$GSLib$512                        GSLib
     00001241  A$GSLib$513                        GSLib
     00001242  A$GSLib$516                        GSLib
     00001246  A$GSLib$517                        GSLib
     00001249  A$GSLib$519                        GSLib
     0000124C  A$GSLib$521                        GSLib
     0000124F  A$GSLib$524                        GSLib
     00001252  A$GSLib$525                        GSLib
     00001254  A$GSLib$526                        GSLib
     00001256  A$GSLib$528                        GSLib
     00001258  A$GSLib$529                        GSLib
     00001259  A$GSLib$530                        GSLib
     0000125B  A$GSLib$531                        GSLib
     0000125C  A$GSLib$532                        GSLib
     0000125E  A$GSLib$534                        GSLib
     0000125F  A$GSLib$535                        GSLib
     00001260  A$GSLib$536                        GSLib
ASxxxx Linker V03.00 + NoICE + sdld,  page 7.
Hexadecimal  [32-Bits]

Area                                    Addr        Size        Decimal Bytes (Attributes)
--------------------------------        ----        ----        ------- ----- ------------
_CODE                               00000200    00001E33 =        7731. bytes (REL,CON)

      Value  Global                              Global Defined In Module
      -----  --------------------------------   ------------------------
     00001261  A$GSLib$538                        GSLib
     00001263  A$GSLib$539                        GSLib
     00001264  A$GSLib$540                        GSLib
     00001265  A$GSLib$541                        GSLib
     00001266  A$GSLib$543                        GSLib
     00001267  A$GSLib$544                        GSLib
     0000126A  A$GSLib$547                        GSLib
     0000126C  A$GSLib$548                        GSLib
     0000126D  A$GSLib$549                        GSLib
     0000126E  A$GSLib$550                        GSLib
     0000126F  A$GSLib$551                        GSLib
     00001270  A$GSLib$552                        GSLib
     00001271  A$GSLib$553                        GSLib
     00001272  A$GSLib$554                        GSLib
     00001273  A$GSLib$555                        GSLib
     00001274  A$GSLib$558                        GSLib
     00001277  A$GSLib$559                        GSLib
     00001279  A$GSLib$560                        GSLib
     0000127A  A$GSLib$561                        GSLib
     0000127B  A$GSLib$562                        GSLib
     0000127C  A$GSLib$563                        GSLib
     0000127D  A$GSLib$565                        GSLib
     00001280  A$GSLib$566                        GSLib
     00001281  A$GSLib$568                        GSLib
     00001282  A$GSLib$569                        GSLib
     00001283  A$GSLib$570                        GSLib
     00001286  A$GSLib$572                        GSLib
     00001289  A$GSLib$573                        GSLib
     0000128B  A$GSLib$574                        GSLib
     0000128D  A$GSLib$575                        GSLib
     0000128F  A$GSLib$576                        GSLib
     00001292  A$GSLib$577                        GSLib
     00001294  A$GSLib$578                        GSLib
     00001296  A$GSLib$579                        GSLib
     00001298  A$GSLib$580                        GSLib
     00001299  A$GSLib$583                        GSLib
     0000129C  A$GSLib$584                        GSLib
     000012A0  A$GSLib$586                        GSLib
     000012A1  A$GSLib$587                        GSLib
     000012A3  A$GSLib$588                        GSLib
     000012A4  A$GSLib$589                        GSLib
     000012A6  A$GSLib$590                        GSLib
     000012A7  A$GSLib$591                        GSLib
     000012A9  A$GSLib$592                        GSLib
     000012AA  A$GSLib$593                        GSLib
     000012AC  A$GSLib$594                        GSLib
     000012AD  A$GSLib$595                        GSLib
     000012AE  A$GSLib$597                        GSLib
     000012B2  A$GSLib$598                        GSLib
     000012B5  A$GSLib$599                        GSLib
     000012B6  A$GSLib$600                        GSLib
ASxxxx Linker V03.00 + NoICE + sdld,  page 8.
Hexadecimal  [32-Bits]

Area                                    Addr        Size        Decimal Bytes (Attributes)
--------------------------------        ----        ----        ------- ----- ------------
_CODE                               00000200    00001E33 =        7731. bytes (REL,CON)

      Value  Global                              Global Defined In Module
      -----  --------------------------------   ------------------------
     000012B8  A$GSLib$602                        GSLib
     000012B9  A$GSLib$603                        GSLib
     000012BB  A$GSLib$604                        GSLib
     000012BC  A$GSLib$605                        GSLib
     000012BE  A$GSLib$606                        GSLib
     000012BF  A$GSLib$608                        GSLib
     000012C1  A$GSLib$610                        GSLib
     000012C5  A$GSLib$611                        GSLib
     000012C6  A$GSLib$612                        GSLib
     000012C8  A$GSLib$613                        GSLib
     000012C9  A$GSLib$614                        GSLib
     000012CB  A$GSLib$615                        GSLib
     000012CC  A$GSLib$616                        GSLib
     000012CE  A$GSLib$617                        GSLib
     000012CF  A$GSLib$618                        GSLib
     000012D1  A$GSLib$619                        GSLib
     000012D2  A$GSLib$620                        GSLib
     000012D3  A$GSLib$621                        GSLib
     000012D4  A$GSLib$623                        GSLib
     000012D8  A$GSLib$624                        GSLib
     000012D9  A$GSLib$626                        GSLib
     000012DC  A$GSLib$627                        GSLib
     000012DD  A$GSLib$630                        GSLib
     000012DF  A$GSLib$631                        GSLib
     000012E0  A$GSLib$632                        GSLib
     000012E1  A$GSLib$633                        GSLib
     000012E2  A$GSLib$634                        GSLib
     000012E3  A$GSLib$635                        GSLib
     000012E5  A$GSLib$636                        GSLib
     000012E6  A$GSLib$637                        GSLib
     000012E7  A$GSLib$638                        GSLib
     000012E8  A$GSLib$639                        GSLib
     000012E9  A$GSLib$641                        GSLib
     000012EC  A$GSLib$643                        GSLib
     000012ED  A$GSLib$644                        GSLib
     000012EE  A$GSLib$645                        GSLib
     000012F0  A$GSLib$646                        GSLib
     000012F1  A$GSLib$647                        GSLib
     000012F2  A$GSLib$648                        GSLib
     000012F4  A$GSLib$649                        GSLib
     000012F5  A$GSLib$650                        GSLib
     000012F6  A$GSLib$651                        GSLib
     000012F7  A$GSLib$652                        GSLib
     000012F8  A$GSLib$653                        GSLib
     000012FC  A$GSLib$654                        GSLib
     000012FD  A$GSLib$656                        GSLib
     000012FE  A$GSLib$657                        GSLib
     000012FF  A$GSLib$658                        GSLib
     00001300  A$GSLib$659                        GSLib
     00001301  A$GSLib$660                        GSLib
     00001302  A$GSLib$663                        GSLib
ASxxxx Linker V03.00 + NoICE + sdld,  page 9.
Hexadecimal  [32-Bits]

Area                                    Addr        Size        Decimal Bytes (Attributes)
--------------------------------        ----        ----        ------- ----- ------------
_CODE                               00000200    00001E33 =        7731. bytes (REL,CON)

      Value  Global                              Global Defined In Module
      -----  --------------------------------   ------------------------
     00001305  A$GSLib$664                        GSLib
     00001308  A$GSLib$666                        GSLib
     0000130B  A$GSLib$667                        GSLib
     0000130E  A$GSLib$668                        GSLib
     00001311  A$GSLib$669                        GSLib
     00001313  A$GSLib$670                        GSLib
     00001315  A$GSLib$671                        GSLib
     00001317  A$GSLib$672                        GSLib
     00001319  A$GSLib$673                        GSLib
     0000131C  A$GSLib$674                        GSLib
     0000131E  A$GSLib$675                        GSLib
     00001321  A$GSLib$678                        GSLib
     00001324  A$GSLib$679                        GSLib
     00001326  A$GSLib$680                        GSLib
     00001328  A$GSLib$681                        GSLib
     0000132A  A$GSLib$683                        GSLib
     0000132E  A$GSLib$684                        GSLib
     00001331  A$GSLib$685                        GSLib
     00001334  A$GSLib$687                        GSLib
     00001335  A$GSLib$688                        GSLib
     00001337  A$GSLib$690                        GSLib
     0000133A  A$GSLib$691                        GSLib
     0000133C  A$GSLib$692                        GSLib
     0000133D  A$GSLib$693                        GSLib
     00001340  A$GSLib$694                        GSLib
     00001343  A$GSLib$696                        GSLib
     00001346  A$GSLib$697                        GSLib
     00001347  A$GSLib$698                        GSLib
     00001348  A$GSLib$699                        GSLib
     0000134A  A$GSLib$700                        GSLib
     0000134C  A$GSLib$701                        GSLib
     0000134F  A$GSLib$702                        GSLib
     00001350  A$GSLib$703                        GSLib
     00001351  A$GSLib$704                        GSLib
     00001352  A$GSLib$705                        GSLib
     00001353  A$GSLib$707                        GSLib
     00001356  A$GSLib$708                        GSLib
     00001358  A$GSLib$709                        GSLib
     0000135A  A$GSLib$710                        GSLib
     0000135B  A$GSLib$711                        GSLib
     0000135C  A$GSLib$712                        GSLib
     0000135D  A$GSLib$713                        GSLib
     0000135F  A$GSLib$714                        GSLib
     00001360  A$GSLib$715                        GSLib
     00001362  A$GSLib$716                        GSLib
     00001363  A$GSLib$718                        GSLib
     00001365  A$GSLib$720                        GSLib
     00001367  A$GSLib$721                        GSLib
     00001368  A$GSLib$722                        GSLib
     0000136B  A$GSLib$724                        GSLib
     0000136F  A$GSLib$725                        GSLib
ASxxxx Linker V03.00 + NoICE + sdld,  page 10.
Hexadecimal  [32-Bits]

Area                                    Addr        Size        Decimal Bytes (Attributes)
--------------------------------        ----        ----        ------- ----- ------------
_CODE                               00000200    00001E33 =        7731. bytes (REL,CON)

      Value  Global                              Global Defined In Module
      -----  --------------------------------   ------------------------
     00001371  A$GSLib$726                        GSLib
     00001373  A$GSLib$727                        GSLib
     00001374  A$GSLib$728                        GSLib
     00001376  A$GSLib$729                        GSLib
     00001378  A$GSLib$731                        GSLib
     0000137B  A$GSLib$732                        GSLib
     0000137D  A$GSLib$733                        GSLib
     0000137F  A$GSLib$734                        GSLib
     00001380  A$GSLib$735                        GSLib
     00001381  A$GSLib$736                        GSLib
     00001382  A$GSLib$737                        GSLib
     00001384  A$GSLib$740                        GSLib
     00001386  A$GSLib$741                        GSLib
     00001387  A$GSLib$742                        GSLib
     0000138A  A$GSLib$745                        GSLib
     0000138D  A$GSLib$746                        GSLib
     00001390  A$GSLib$747                        GSLib
     00001391  A$GSLib$748                        GSLib
     00001394  A$GSLib$750                        GSLib
     00001397  A$GSLib$751                        GSLib
     00001398  A$GSLib$752                        GSLib
     00001399  A$GSLib$753                        GSLib
     0000139C  A$GSLib$755                        GSLib
     0000139F  A$GSLib$756                        GSLib
     000013A0  A$GSLib$757                        GSLib
     000013A3  A$GSLib$758                        GSLib
     000013A6  A$GSLib$759                        GSLib
     000013A9  A$GSLib$760                        GSLib
     000013AB  A$GSLib$761                        GSLib
     000013AD  A$GSLib$762                        GSLib
     000013AE  A$GSLib$763                        GSLib
     000013AF  A$GSLib$764                        GSLib
     000013B2  A$GSLib$767                        GSLib
     000013B5  A$GSLib$768                        GSLib
     000013B7  A$GSLib$769                        GSLib
     000013B9  A$GSLib$770                        GSLib
     000013BA  A$GSLib$771                        GSLib
     000013BD  A$GSLib$772                        GSLib
     000013C0  A$GSLib$775                        GSLib
     000013C3  A$GSLib$776                        GSLib
     000013C7  A$GSLib$778                        GSLib
     000013CA  A$GSLib$779                        GSLib
     000013CB  A$GSLib$780                        GSLib
     000013CE  A$GSLib$784                        GSLib
     000013D1  A$GSLib$785                        GSLib
     000013D3  A$GSLib$786                        GSLib
     000013D5  A$GSLib$788                        GSLib
     000013D7  A$GSLib$789                        GSLib
     000013D8  A$GSLib$790                        GSLib
     000013DA  A$GSLib$791                        GSLib
     000013DB  A$GSLib$792                        GSLib
ASxxxx Linker V03.00 + NoICE + sdld,  page 11.
Hexadecimal  [32-Bits]

Area                                    Addr        Size        Decimal Bytes (Attributes)
--------------------------------        ----        ----        ------- ----- ------------
_CODE                               00000200    00001E33 =        7731. bytes (REL,CON)

      Value  Global                              Global Defined In Module
      -----  --------------------------------   ------------------------
     000013DD  A$GSLib$794                        GSLib
     000013DE  A$GSLib$795                        GSLib
     000013DF  A$GSLib$796                        GSLib
     000013E0  A$GSLib$798                        GSLib
     000013E2  A$GSLib$799                        GSLib
     000013E3  A$GSLib$800                        GSLib
     000013E4  A$GSLib$801                        GSLib
     000013E5  A$GSLib$802                        GSLib
     000013E6  A$GSLib$803                        GSLib
     000013E7  A$GSLib$804                        GSLib
     000013E8  A$GSLib$805                        GSLib
     000013E9  A$GSLib$806                        GSLib
     000013EA  A$GSLib$807                        GSLib
     000013EC  A$GSLib$808                        GSLib
     000013EE  A$GSLib$809                        GSLib
     000013EF  A$GSLib$810                        GSLib
     000013F0  A$GSLib$811                        GSLib
     000013F1  A$GSLib$812                        GSLib
     000013F2  A$GSLib$813                        GSLib
     000013F4  A$GSLib$814                        GSLib
     000013F6  A$GSLib$816                        GSLib
     000013F9  A$GSLib$817                        GSLib
     000013FB  A$GSLib$818                        GSLib
     000013FC  A$GSLib$819                        GSLib
     000013FD  A$GSLib$820                        GSLib
     000013FE  A$GSLib$821                        GSLib
     000013FF  A$GSLib$823                        GSLib
     00001400  A$GSLib$824                        GSLib
     00001403  A$GSLib$825                        GSLib
     00001404  A$GSLib$826                        GSLib
     00001405  A$GSLib$827                        GSLib
     00001406  A$GSLib$828                        GSLib
     00001407  A$GSLib$829                        GSLib
     00001408  A$GSLib$831                        GSLib
     0000140B  A$GSLib$832                        GSLib
     0000140C  A$GSLib$833                        GSLib
     0000140D  A$GSLib$834                        GSLib
     0000140F  A$GSLib$836                        GSLib
     00001410  A$GSLib$837                        GSLib
     00001411  A$GSLib$838                        GSLib
     00001413  A$GSLib$839                        GSLib
     00001414  A$GSLib$840                        GSLib
     00001418  A$GSLib$841                        GSLib
     00001419  A$GSLib$843                        GSLib
     0000141B  A$GSLib$844                        GSLib
     0000141D  A$GSLib$845                        GSLib
     0000141F  A$GSLib$846                        GSLib
     00001421  A$GSLib$847                        GSLib
     00001423  A$GSLib$848                        GSLib
     00001425  A$GSLib$849                        GSLib
     00001427  A$GSLib$850                        GSLib
ASxxxx Linker V03.00 + NoICE + sdld,  page 12.
Hexadecimal  [32-Bits]

Area                                    Addr        Size        Decimal Bytes (Attributes)
--------------------------------        ----        ----        ------- ----- ------------
_CODE                               00000200    00001E33 =        7731. bytes (REL,CON)

      Value  Global                              Global Defined In Module
      -----  --------------------------------   ------------------------
     00001429  A$GSLib$852                        GSLib
     0000142D  A$GSLib$853                        GSLib
     00001430  A$GSLib$854                        GSLib
     00001431  A$GSLib$855                        GSLib
     00001432  A$GSLib$857                        GSLib
     00001435  A$GSLib$858                        GSLib
     00001437  A$GSLib$860                        GSLib
     0000143A  A$GSLib$861                        GSLib
     0000143B  A$GSLib$862                        GSLib
     0000143D  A$GSLib$863                        GSLib
     0000143E  A$GSLib$864                        GSLib
     0000143F  A$GSLib$865                        GSLib
     00001441  A$GSLib$866                        GSLib
     00001442  A$GSLib$867                        GSLib
     00001445  A$GSLib$868                        GSLib
     00001446  A$GSLib$869                        GSLib
     00001447  A$GSLib$870                        GSLib
     00001448  A$GSLib$871                        GSLib
     0000144C  A$GSLib$872                        GSLib
     0000144D  A$GSLib$873                        GSLib
     0000144E  A$GSLib$874                        GSLib
     00001450  A$GSLib$875                        GSLib
     00001452  A$GSLib$876                        GSLib
     00001454  A$GSLib$877                        GSLib
     00001456  A$GSLib$878                        GSLib
     00001457  A$GSLib$879                        GSLib
     00001458  A$GSLib$880                        GSLib
     00001459  A$GSLib$881                        GSLib
     0000145B  A$GSLib$882                        GSLib
     0000145E  A$GSLib$884                        GSLib
     00001461  A$GSLib$885                        GSLib
     00001463  A$GSLib$887                        GSLib
     00001466  A$GSLib$888                        GSLib
     00001467  A$GSLib$889                        GSLib
     00001469  A$GSLib$890                        GSLib
     0000146A  A$GSLib$891                        GSLib
     0000146B  A$GSLib$892                        GSLib
     0000146D  A$GSLib$893                        GSLib
     0000146E  A$GSLib$894                        GSLib
     00001471  A$GSLib$895                        GSLib
     00001472  A$GSLib$896                        GSLib
     00001473  A$GSLib$897                        GSLib
     00001474  A$GSLib$898                        GSLib
     00001478  A$GSLib$899                        GSLib
     00001479  A$GSLib$900                        GSLib
     0000147A  A$GSLib$901                        GSLib
     0000147C  A$GSLib$902                        GSLib
     0000147E  A$GSLib$903                        GSLib
     0000147F  A$GSLib$904                        GSLib
     00001480  A$GSLib$905                        GSLib
     00001482  A$GSLib$906                        GSLib
ASxxxx Linker V03.00 + NoICE + sdld,  page 13.
Hexadecimal  [32-Bits]

Area                                    Addr        Size        Decimal Bytes (Attributes)
--------------------------------        ----        ----        ------- ----- ------------
_CODE                               00000200    00001E33 =        7731. bytes (REL,CON)

      Value  Global                              Global Defined In Module
      -----  --------------------------------   ------------------------
     00001484  A$GSLib$907                        GSLib
     00001485  A$GSLib$908                        GSLib
     00001486  A$GSLib$909                        GSLib
     00001487  A$GSLib$910                        GSLib
     0000148A  A$GSLib$911                        GSLib
     0000148B  A$GSLib$912                        GSLib
     0000148D  A$GSLib$913                        GSLib
     0000148E  A$GSLib$914                        GSLib
     00001491  A$GSLib$917                        GSLib
     00001495  A$GSLib$918                        GSLib
     00001496  A$GSLib$919                        GSLib
     00001499  A$GSLib$920                        GSLib
     0000149C  A$GSLib$923                        GSLib
     0000149F  A$GSLib$924                        GSLib
     000014A0  A$GSLib$925                        GSLib
     000014A3  A$GSLib$926                        GSLib
     000014A6  A$GSLib$929                        GSLib
     000014A9  A$GSLib$930                        GSLib
     000014AA  A$GSLib$931                        GSLib
     000014AB  A$GSLib$932                        GSLib
     000014AD  A$GSLib$933                        GSLib
     000014AE  A$GSLib$935                        GSLib
     000014AF  A$GSLib$936                        GSLib
     000014B0  A$GSLib$937                        GSLib
     000014B1  A$GSLib$938                        GSLib
     000014B4  A$GSLib$941                        GSLib
     000014B6  A$GSLib$942                        GSLib
     000014B9  A$GSLib$944                        GSLib
     000014BB  A$GSLib$945                        GSLib
     000014BE  A$GSLib$946                        GSLib
     000014C1  A$GSLib$947                        GSLib
     000014C2  A$GSLib$948                        GSLib
     000014C4  A$GSLib$949                        GSLib
     000014C5  A$GSLib$950                        GSLib
     000014C6  A$GSLib$951                        GSLib
     000014C8  A$GSLib$952                        GSLib
     000014CA  A$GSLib$953                        GSLib
     000014CB  A$GSLib$954                        GSLib
     000014CE  A$GSLib$957                        GSLib
     000014CF  A$GSLib$958                        GSLib
     000014D1  A$GSLib$959                        GSLib
     000014D4  A$GSLib$961                        GSLib
     000014D7  A$GSLib$962                        GSLib
     000014D8  A$GSLib$963                        GSLib
     000014DB  A$GSLib$964                        GSLib
     000014DE  A$GSLib$967                        GSLib
     000014E1  A$GSLib$968                        GSLib
     000014E2  A$GSLib$969                        GSLib
     000014E3  A$GSLib$970                        GSLib
     000014E5  A$GSLib$971                        GSLib
     000014E6  A$GSLib$973                        GSLib
ASxxxx Linker V03.00 + NoICE + sdld,  page 14.
Hexadecimal  [32-Bits]

Area                                    Addr        Size        Decimal Bytes (Attributes)
--------------------------------        ----        ----        ------- ----- ------------
_CODE                               00000200    00001E33 =        7731. bytes (REL,CON)

      Value  Global                              Global Defined In Module
      -----  --------------------------------   ------------------------
     000014E7  A$GSLib$974                        GSLib
     000014E8  A$GSLib$975                        GSLib
     000014E9  A$GSLib$976                        GSLib
     000014EC  A$GSLib$979                        GSLib
     000014EE  A$GSLib$980                        GSLib
     000014F1  A$GSLib$982                        GSLib
     000014F3  A$GSLib$983                        GSLib
     000014F6  A$GSLib$984                        GSLib
     000014F9  A$GSLib$985                        GSLib
     000014FA  A$GSLib$986                        GSLib
     000014FC  A$GSLib$987                        GSLib
     000014FD  A$GSLib$988                        GSLib
     000014FE  A$GSLib$989                        GSLib
     00001500  A$GSLib$990                        GSLib
     00001502  A$GSLib$991                        GSLib
     00001503  A$GSLib$992                        GSLib
     00001506  A$GSLib$995                        GSLib
     00001507  A$GSLib$996                        GSLib
     00001509  A$GSLib$997                        GSLib
     0000150C  A$GSLib$999                        GSLib
     0000150F  A$GSLib$1000                       GSLib
     00001510  A$GSLib$1001                       GSLib
     00001513  A$GSLib$1004                       GSLib
     00001516  A$GSLib$1005                       GSLib
     00001517  A$GSLib$1006                       GSLib
     0000151A  A$GSLib$1007                       GSLib
     0000151D  A$GSLib$1010                       GSLib
     0000151E  A$GSLib$1011                       GSLib
     00001521  A$GSLib$1012                       GSLib
     00001522  A$GSLib$1013                       GSLib
     00001524  A$GSLib$1014                       GSLib
     00001527  A$GSLib$1015                       GSLib
     00001529  A$GSLib$1017                       GSLib
     0000152C  A$GSLib$1018                       GSLib
     0000152D  A$GSLib$1020                       GSLib
     00001530  A$GSLib$1021                       GSLib
     00001531  A$GSLib$1022                       GSLib
     00001532  A$GSLib$1023                       GSLib
     00001534  A$GSLib$1024                       GSLib
     00001535  A$GSLib$1026                       GSLib
     00001536  A$GSLib$1027                       GSLib
     00001537  A$GSLib$1028                       GSLib
     00001538  A$GSLib$1029                       GSLib
     0000153B  A$GSLib$1032                       GSLib
     0000153D  A$GSLib$1033                       GSLib
     00001540  A$GSLib$1035                       GSLib
     00001542  A$GSLib$1036                       GSLib
     00001545  A$GSLib$1037                       GSLib
     00001548  A$GSLib$1038                       GSLib
     0000154B  A$GSLib$1039                       GSLib
     0000154C  A$GSLib$1040                       GSLib
ASxxxx Linker V03.00 + NoICE + sdld,  page 15.
Hexadecimal  [32-Bits]

Area                                    Addr        Size        Decimal Bytes (Attributes)
--------------------------------        ----        ----        ------- ----- ------------
_CODE                               00000200    00001E33 =        7731. bytes (REL,CON)

      Value  Global                              Global Defined In Module
      -----  --------------------------------   ------------------------
     0000154E  A$GSLib$1041                       GSLib
     0000154F  A$GSLib$1042                       GSLib
     00001552  A$GSLib$1043                       GSLib
     00001554  A$GSLib$1045                       GSLib
     00001557  A$GSLib$1048                       GSLib
     00001558  A$GSLib$1049                       GSLib
     0000155A  A$GSLib$1050                       GSLib
     0000155D  A$GSLib$1052                       GSLib
     00001560  A$GSLib$1053                       GSLib
     00001564  A$GSLib$1054                       GSLib
     00001565  A$GSLib$1055                       GSLib
     00001568  A$GSLib$1056                       GSLib
     0000156B  A$GSLib$1059                       GSLib
     0000156C  A$GSLib$1060                       GSLib
     0000156F  A$GSLib$1061                       GSLib
     00001570  A$GSLib$1062                       GSLib
     00001573  A$GSLib$1063                       GSLib
     00001575  A$GSLib$1065                       GSLib
     00001578  A$GSLib$1066                       GSLib
     00001579  A$GSLib$1068                       GSLib
     0000157C  A$GSLib$1069                       GSLib
     0000157D  A$GSLib$1070                       GSLib
     0000157E  A$GSLib$1071                       GSLib
     00001580  A$GSLib$1072                       GSLib
     00001581  A$GSLib$1074                       GSLib
     00001582  A$GSLib$1075                       GSLib
     00001583  A$GSLib$1076                       GSLib
     00001584  A$GSLib$1077                       GSLib
     00001587  A$GSLib$1080                       GSLib
     00001588  A$GSLib$1081                       GSLib
     0000158A  A$GSLib$1082                       GSLib
     0000158D  A$GSLib$1084                       GSLib
     0000158F  A$GSLib$1085                       GSLib
     00001592  A$GSLib$1086                       GSLib
     00001595  A$GSLib$1087                       GSLib
     00001598  A$GSLib$1088                       GSLib
     00001599  A$GSLib$1089                       GSLib
     0000159B  A$GSLib$1090                       GSLib
     0000159D  A$GSLib$1091                       GSLib
     0000159E  A$GSLib$1092                       GSLib
     000015A1  A$GSLib$1093                       GSLib
     000015A3  A$GSLib$1095                       GSLib
     000015A6  A$GSLib$1098                       GSLib
     000015A7  A$GSLib$1099                       GSLib
     000015A9  A$GSLib$1100                       GSLib
     000015AC  A$GSLib$1102                       GSLib
     000015AF  A$GSLib$1103                       GSLib
     000015B3  A$GSLib$1104                       GSLib
     000015B4  A$GSLib$1105                       GSLib
     000015B6  A$GSLib$1106                       GSLib
     000015B9  A$GSLib$1110                       GSLib
ASxxxx Linker V03.00 + NoICE + sdld,  page 16.
Hexadecimal  [32-Bits]

Area                                    Addr        Size        Decimal Bytes (Attributes)
--------------------------------        ----        ----        ------- ----- ------------
_CODE                               00000200    00001E33 =        7731. bytes (REL,CON)

      Value  Global                              Global Defined In Module
      -----  --------------------------------   ------------------------
     000015BC  A$GSLib$1111                       GSLib
     000015BD  A$GSLib$1112                       GSLib
     000015C0  A$GSLib$1113                       GSLib
     000015C3  A$GSLib$1116                       GSLib
     000015C7  A$GSLib$1117                       GSLib
     000015CA  A$GSLib$1118                       GSLib
     000015CC  A$GSLib$1120                       GSLib
     000015CF  A$GSLib$1121                       GSLib
     000015D1  A$GSLib$1122                       GSLib
     000015D2  A$GSLib$1123                       GSLib
     000015D3  A$GSLib$1124                       GSLib
     000015D6  A$GSLib$1126                       GSLib
     000015D9  A$GSLib$1128                       GSLib
     000015DC  A$GSLib$1129                       GSLib
     000015DD  A$GSLib$1130                       GSLib
     000015DF  A$GSLib$1131                       GSLib
     000015E0  A$GSLib$1132                       GSLib
     000015E1  A$GSLib$1133                       GSLib
     000015E3  A$GSLib$1134                       GSLib
     000015E5  A$GSLib$1135                       GSLib
     000015E6  A$GSLib$1136                       GSLib
     000015E9  A$GSLib$1137                       GSLib
     000015EC  A$GSLib$1138                       GSLib
     000015EF  A$GSLib$1139                       GSLib
     000015F2  A$GSLib$1142                       GSLib
     000015F3  A$GSLib$1143                       GSLib
     000015F6  A$GSLib$1145                       GSLib
     000015FA  A$GSLib$1146                       GSLib
     000015FD  A$GSLib$1147                       GSLib
     000015FF  A$GSLib$1148                       GSLib
     00001601  A$GSLib$1149                       GSLib
     00001604  A$GSLib$1150                       GSLib
     00001606  A$GSLib$1153                       GSLib
     00001607  A$GSLib$1154                       GSLib
     00001608  A$GSLib$1155                       GSLib
     0000160B  A$GSLib$1157                       GSLib
     0000160E  A$GSLib$1159                       GSLib
     00001611  A$GSLib$1160                       GSLib
     00001614  A$GSLib$1163                       GSLib
     00001617  A$GSLib$1164                       GSLib
     00001618  A$GSLib$1165                       GSLib
     00001619  A$GSLib$1166                       GSLib
     0000161C  A$GSLib$1169                       GSLib
     0000161D  A$GSLib$1170                       GSLib
     0000161E  A$GSLib$1172                       GSLib
     00001622  A$GSLib$1173                       GSLib
     00001626  A$GSLib$1174                       GSLib
     00001628  A$GSLib$1175                       GSLib
     0000162C  A$GSLib$1176                       GSLib
     0000162F  A$GSLib$1177                       GSLib
     00001631  A$GSLib$1178                       GSLib
ASxxxx Linker V03.00 + NoICE + sdld,  page 17.
Hexadecimal  [32-Bits]

Area                                    Addr        Size        Decimal Bytes (Attributes)
--------------------------------        ----        ----        ------- ----- ------------
_CODE                               00000200    00001E33 =        7731. bytes (REL,CON)

      Value  Global                              Global Defined In Module
      -----  --------------------------------   ------------------------
     00001633  A$GSLib$1179                       GSLib
     00001636  A$GSLib$1180                       GSLib
     00001638  A$GSLib$1182                       GSLib
     00001639  A$GSLib$1183                       GSLib
     0000163C  A$GSLib$1185                       GSLib
     0000163F  A$GSLib$1187                       GSLib
     00001642  A$GSLib$1188                       GSLib
     00001645  A$GSLib$1189                       GSLib
     00001646  A$GSLib$1190                       GSLib
     00001648  A$GSLib$1191                       GSLib
     0000164A  A$GSLib$1192                       GSLib
     0000164B  A$GSLib$1193                       GSLib
     0000164E  A$GSLib$1194                       GSLib
     00001650  A$GSLib$1196                       GSLib
     00001653  A$GSLib$1197                       GSLib
     00001654  A$GSLib$1200                       GSLib
     00001655  A$GSLib$1201                       GSLib
     00001656  A$GSLib$1203                       GSLib
     0000165A  A$GSLib$1205                       GSLib
     0000165D  A$GSLib$1206                       GSLib
     0000165F  A$GSLib$1207                       GSLib
     00001660  A$GSLib$1208                       GSLib
     00001663  A$GSLib$1209                       GSLib
     00001666  A$GSLib$1211                       GSLib
     00001669  A$GSLib$1212                       GSLib
     0000166C  A$GSLib$1213                       GSLib
     0000166D  A$GSLib$1216                       GSLib
     00001670  A$GSLib$1217                       GSLib
     00001671  A$GSLib$1218                       GSLib
     00001674  A$GSLib$1221                       GSLib
     00001675  A$GSLib$1222                       GSLib
     00001678  A$GSLib$1223                       GSLib
     0000167A  A$GSLib$1224                       GSLib
     0000167C  A$GSLib$1225                       GSLib
     0000167E  A$GSLib$1226                       GSLib
     0000167F  A$GSLib$1227                       GSLib
     00001681  A$GSLib$1229                       GSLib
     00001684  A$GSLib$1230                       GSLib
     00001686  A$GSLib$1231                       GSLib
     00001687  A$GSLib$1232                       GSLib
     00001688  A$GSLib$1233                       GSLib
     0000168B  A$GSLib$1234                       GSLib
     0000168C  A$GSLib$1235                       GSLib
     0000168F  A$GSLib$1236                       GSLib
     00001690  A$GSLib$1238                       GSLib
     00001691  A$GSLib$1239                       GSLib
     00001692  A$GSLib$1242                       GSLib
     00001693  A$GSLib$1243                       GSLib
     00001694  A$GSLib$1244                       GSLib
     00001695  A$GSLib$1245                       GSLib
     00001699  A$GSLib$1246                       GSLib
ASxxxx Linker V03.00 + NoICE + sdld,  page 18.
Hexadecimal  [32-Bits]

Area                                    Addr        Size        Decimal Bytes (Attributes)
--------------------------------        ----        ----        ------- ----- ------------
_CODE                               00000200    00001E33 =        7731. bytes (REL,CON)

      Value  Global                              Global Defined In Module
      -----  --------------------------------   ------------------------
     0000169B  A$GSLib$1248                       GSLib
     0000169E  A$GSLib$1249                       GSLib
     0000169F  A$GSLib$1250                       GSLib
     000016A0  A$GSLib$1251                       GSLib
     000016A2  A$GSLib$1252                       GSLib
     000016A4  A$GSLib$1253                       GSLib
     000016A7  A$GSLib$1254                       GSLib
     000016A8  A$GSLib$1255                       GSLib
     000016A9  A$GSLib$1256                       GSLib
     000016AA  A$GSLib$1257                       GSLib
     000016AB  A$GSLib$1258                       GSLib
     000016AE  A$GSLib$1262                       GSLib
     000016AF  A$GSLib$1263                       GSLib
     000016B1  A$GSLib$1264                       GSLib
     000016B2  A$GSLib$1265                       GSLib
     000016B4  A$GSLib$1266                       GSLib
     000016B6  A$GSLib$1267                       GSLib
     000016B7  A$GSLib$1269                       GSLib
     000016B8  A$GSLib$1270                       GSLib
     000016B9  A$GSLib$1271                       GSLib
     000016BB  A$GSLib$1272                       GSLib
     000016BC  A$GSLib$1273                       GSLib
     000016BD  A$GSLib$1274                       GSLib
     000016C0  A$GSLib$1275                       GSLib
     000016C1  A$GSLib$1279                       GSLib
     000016C2  A$GSLib$1280                       GSLib
     000016C3  A$GSLib$1281                       GSLib
     000016C4  A$GSLib$1282                       GSLib
     000016C8  A$GSLib$1283                       GSLib
     000016CA  A$GSLib$1284                       GSLib
     000016CB  A$GSLib$1285                       GSLib
     000016CD  A$GSLib$1286                       GSLib
     000016D0  A$GSLib$1289                       GSLib
     000016D3  A$GSLib$1290                       GSLib
     000016D4  A$GSLib$1291                       GSLib
     000016D7  A$GSLib$1293                       GSLib
     000016D8  A$GSLib$1294                       GSLib
     000016DB  A$GSLib$1295                       GSLib
     000016DE  A$GSLib$1296                       GSLib
     000016E0  A$GSLib$1297                       GSLib
     000016E1  A$GSLib$1298                       GSLib
     000016E3  A$GSLib$1300                       GSLib
     000016E6  A$GSLib$1301                       GSLib
     000016E8  A$GSLib$1302                       GSLib
     000016E9  A$GSLib$1303                       GSLib
     000016EA  A$GSLib$1304                       GSLib
     000016ED  A$GSLib$1305                       GSLib
     000016EE  A$GSLib$1306                       GSLib
     000016F1  A$GSLib$1307                       GSLib
     000016F2  A$GSLib$1309                       GSLib
     000016F3  A$GSLib$1310                       GSLib
ASxxxx Linker V03.00 + NoICE + sdld,  page 19.
Hexadecimal  [32-Bits]

Area                                    Addr        Size        Decimal Bytes (Attributes)
--------------------------------        ----        ----        ------- ----- ------------
_CODE                               00000200    00001E33 =        7731. bytes (REL,CON)

      Value  Global                              Global Defined In Module
      -----  --------------------------------   ------------------------
     000016F4  A$GSLib$1313                       GSLib
     000016F5  A$GSLib$1314                       GSLib
     000016F6  A$GSLib$1315                       GSLib
     000016F7  A$GSLib$1316                       GSLib
     000016FB  A$GSLib$1317                       GSLib
     000016FD  A$GSLib$1319                       GSLib
     00001700  A$GSLib$1320                       GSLib
     00001702  A$GSLib$1321                       GSLib
     00001703  A$GSLib$1322                       GSLib
     00001704  A$GSLib$1323                       GSLib
     00001707  A$GSLib$1324                       GSLib
     00001708  A$GSLib$1325                       GSLib
     00001709  A$GSLib$1326                       GSLib
     0000170A  A$GSLib$1327                       GSLib
     0000170B  A$GSLib$1328                       GSLib
     0000170E  A$GSLib$1332                       GSLib
     0000170F  A$GSLib$1333                       GSLib
     00001712  A$GSLib$1334                       GSLib
     00001714  A$GSLib$1335                       GSLib
     00001716  A$GSLib$1336                       GSLib
     00001717  A$GSLib$1337                       GSLib
     00001718  A$GSLib$1339                       GSLib
     00001719  A$GSLib$1340                       GSLib
     0000171A  A$GSLib$1341                       GSLib
     0000171C  A$GSLib$1342                       GSLib
     0000171D  A$GSLib$1343                       GSLib
     0000171E  A$GSLib$1344                       GSLib
     00001721  A$GSLib$1345                       GSLib
     00001722  A$GSLib$1349                       GSLib
     00001723  A$GSLib$1350                       GSLib
     00001724  A$GSLib$1351                       GSLib
     00001725  A$GSLib$1352                       GSLib
     00001729  A$GSLib$1353                       GSLib
     0000172B  A$GSLib$1354                       GSLib
     0000172C  A$GSLib$1355                       GSLib
     0000172E  A$GSLib$1356                       GSLib
     00001731  A$GSLib$1359                       GSLib
     00001734  A$GSLib$1360                       GSLib
     00001735  A$GSLib$1361                       GSLib
     00001738  A$GSLib$1362                       GSLib
     0000173B  A$GSLib$1363                       GSLib
     0000173C  A$GSLib$1366                       GSLib
     0000173E  A$GSLib$1367                       GSLib
     0000173F  A$GSLib$1368                       GSLib
     00001740  A$GSLib$1370                       GSLib
     00001741  A$GSLib$1371                       GSLib
     00001742  A$GSLib$1372                       GSLib
     00001743  A$GSLib$1373                       GSLib
     00001744  A$GSLib$1374                       GSLib
     00001746  A$GSLib$1375                       GSLib
     00001748  A$GSLib$1376                       GSLib
ASxxxx Linker V03.00 + NoICE + sdld,  page 20.
Hexadecimal  [32-Bits]

Area                                    Addr        Size        Decimal Bytes (Attributes)
--------------------------------        ----        ----        ------- ----- ------------
_CODE                               00000200    00001E33 =        7731. bytes (REL,CON)

      Value  Global                              Global Defined In Module
      -----  --------------------------------   ------------------------
     0000174A  A$GSLib$1378                       GSLib
     0000174B  A$GSLib$1379                       GSLib
     0000174D  A$GSLib$1380                       GSLib
     0000174F  A$GSLib$1381                       GSLib
     00001751  A$GSLib$1382                       GSLib
     00001753  A$GSLib$1384                       GSLib
     00001755  A$GSLib$1385                       GSLib
     00001756  A$GSLib$1386                       GSLib
     00001757  A$GSLib$1387                       GSLib
     00001758  A$GSLib$1388                       GSLib
     0000175A  A$GSLib$1389                       GSLib
     0000175C  A$GSLib$1391                       GSLib
     0000175D  A$GSLib$1392                       GSLib
     0000175F  A$GSLib$1393                       GSLib
     00001761  A$GSLib$1394                       GSLib
     00001763  A$GSLib$1395                       GSLib
     00001765  A$GSLib$1397                       GSLib
     00001766  A$GSLib$1398                       GSLib
     00001767  A$GSLib$1399                       GSLib
     0000176A  A$GSLib$1402                       GSLib
     0000176D  A$GSLib$1403                       GSLib
     00001770  A$GSLib$1404                       GSLib
     00001771  A$GSLib$1405                       GSLib
     00001774  A$GSLib$1406                       GSLib
     00001777  A$GSLib$1407                       GSLib
     0000177A  A$GSLib$1409                       GSLib
     0000177D  A$GSLib$1410                       GSLib
     0000177F  A$GSLib$1411                       GSLib
     00001781  A$GSLib$1412                       GSLib
     00001783  A$GSLib$1413                       GSLib
     00001785  A$GSLib$1414                       GSLib
     00001788  A$GSLib$1415                       GSLib
     0000178A  A$GSLib$1416                       GSLib
     0000178C  A$GSLib$1417                       GSLib
     0000178E  A$GSLib$1418                       GSLib
     0000178F  A$GSLib$1420                       GSLib
     00001791  A$GSLib$1421                       GSLib
     00001792  A$GSLib$1422                       GSLib
     00001794  A$GSLib$1423                       GSLib
     00001796  A$GSLib$1424                       GSLib
     00001798  A$GSLib$1425                       GSLib
     0000179A  A$GSLib$1426                       GSLib
     0000179C  A$GSLib$1427                       GSLib
     0000179E  A$GSLib$1428                       GSLib
     000017A0  A$GSLib$1429                       GSLib
     000017A2  A$GSLib$1430                       GSLib
     000017A4  A$GSLib$1431                       GSLib
     000017A6  A$GSLib$1432                       GSLib
     000017A8  A$GSLib$1433                       GSLib
     000017AA  A$GSLib$1434                       GSLib
     000017AC  A$GSLib$1435                       GSLib
ASxxxx Linker V03.00 + NoICE + sdld,  page 21.
Hexadecimal  [32-Bits]

Area                                    Addr        Size        Decimal Bytes (Attributes)
--------------------------------        ----        ----        ------- ----- ------------
_CODE                               00000200    00001E33 =        7731. bytes (REL,CON)

      Value  Global                              Global Defined In Module
      -----  --------------------------------   ------------------------
     000017AE  A$GSLib$1436                       GSLib
     000017B0  A$GSLib$1437                       GSLib
     000017B2  A$GSLib$1438                       GSLib
     000017B4  A$GSLib$1439                       GSLib
     000017B6  A$GSLib$1440                       GSLib
     000017B8  A$GSLib$1441                       GSLib
     000017BA  A$GSLib$1442                       GSLib
     000017BC  A$GSLib$1443                       GSLib
     000017BE  A$GSLib$1444                       GSLib
     000017C0  A$GSLib$1445                       GSLib
     000017C2  A$GSLib$1446                       GSLib
     000017C4  A$GSLib$1447                       GSLib
     000017C6  A$GSLib$1448                       GSLib
     000017C8  A$GSLib$1449                       GSLib
     000017CA  A$GSLib$1450                       GSLib
     000017CC  A$GSLib$1451                       GSLib
     000017CE  A$GSLib$1452                       GSLib
     000017D0  A$GSLib$1453                       GSLib
     000017D2  A$GSLib$1454                       GSLib
     000017D4  A$GSLib$1455                       GSLib
     000017D6  A$GSLib$1456                       GSLib
     000017D8  A$GSLib$1457                       GSLib
     000017DA  A$GSLib$1458                       GSLib
     000017DC  A$GSLib$1459                       GSLib
     000017DE  A$GSLib$1460                       GSLib
     000017E0  A$GSLib$1461                       GSLib
     000017E2  A$GSLib$1462                       GSLib
     000017E4  A$GSLib$1463                       GSLib
     000017E6  A$GSLib$1464                       GSLib
     000017E8  A$GSLib$1465                       GSLib
     000017EA  A$GSLib$1466                       GSLib
     000017EC  A$GSLib$1467                       GSLib
     000017EE  A$GSLib$1468                       GSLib
     000017F0  A$GSLib$1469                       GSLib
     000017F2  A$GSLib$1470                       GSLib
     000017F4  A$GSLib$1471                       GSLib
     000017F6  A$GSLib$1472                       GSLib
     000017F8  A$GSLib$1473                       GSLib
     000017FA  A$GSLib$1474                       GSLib
     000017FC  A$GSLib$1475                       GSLib
     000017FE  A$GSLib$1476                       GSLib
     00001800  A$GSLib$1477                       GSLib
     00001802  A$GSLib$1478                       GSLib
     00001804  A$GSLib$1479                       GSLib
     00001806  A$GSLib$1480                       GSLib
     00001808  A$GSLib$1481                       GSLib
     0000180A  A$GSLib$1482                       GSLib
     0000180C  A$GSLib$1483                       GSLib
     0000180E  A$GSLib$1484                       GSLib
     00001810  A$GSLib$1485                       GSLib
     00001812  A$GSLib$1487                       GSLib
ASxxxx Linker V03.00 + NoICE + sdld,  page 22.
Hexadecimal  [32-Bits]

Area                                    Addr        Size        Decimal Bytes (Attributes)
--------------------------------        ----        ----        ------- ----- ------------
_CODE                               00000200    00001E33 =        7731. bytes (REL,CON)

      Value  Global                              Global Defined In Module
      -----  --------------------------------   ------------------------
     00001813  A$GSLib$1488                       GSLib
     00001814  A$GSLib$1489                       GSLib
     00001816  A$GSLib$1490                       GSLib
     00001818  A$GSLib$1491                       GSLib
     00001819  A$GSLib$1492                       GSLib
     0000181A  A$GSLib$1493                       GSLib
     0000181C  A$GSLib$1494                       GSLib
     0000181E  A$GSLib$1495                       GSLib
     0000181F  A$GSLib$1496                       GSLib
     00001821  A$GSLib$1497                       GSLib
     00001823  A$GSLib$1498                       GSLib
     00001824  A$GSLib$1499                       GSLib
     00001825  A$GSLib$1500                       GSLib
     00001827  A$GSLib$1501                       GSLib
     00001829  A$GSLib$1502                       GSLib
     0000182A  A$GSLib$1503                       GSLib
     0000182C  A$GSLib$1504                       GSLib
     0000182E  A$GSLib$1505                       GSLib
     0000182F  A$GSLib$1506                       GSLib
     00001830  A$GSLib$1507                       GSLib
     00001832  A$GSLib$1508                       GSLib
     00001834  A$GSLib$1509                       GSLib
     00001835  A$GSLib$1510                       GSLib
     00001837  A$GSLib$1511                       GSLib
     00001839  A$GSLib$1512                       GSLib
     0000183A  A$GSLib$1513                       GSLib
     0000183B  A$GSLib$1514                       GSLib
     0000183D  A$GSLib$1515                       GSLib
     0000183F  A$GSLib$1516                       GSLib
     00001840  A$GSLib$1517                       GSLib
     00001842  A$GSLib$1518                       GSLib
     00001844  A$GSLib$1519                       GSLib
     00001845  A$GSLib$1520                       GSLib
     00001846  A$GSLib$1521                       GSLib
     00001848  A$GSLib$1522                       GSLib
     0000184A  A$GSLib$1523                       GSLib
     0000184B  A$GSLib$1524                       GSLib
     0000184D  A$GSLib$1525                       GSLib
     0000184F  A$GSLib$1526                       GSLib
     00001850  A$GSLib$1527                       GSLib
     00001851  A$GSLib$1528                       GSLib
     00001853  A$GSLib$1529                       GSLib
     00001855  A$GSLib$1530                       GSLib
     00001856  A$GSLib$1531                       GSLib
     00001858  A$GSLib$1532                       GSLib
     0000185A  A$GSLib$1533                       GSLib
     0000185B  A$GSLib$1534                       GSLib
     0000185C  A$GSLib$1535                       GSLib
     0000185E  A$GSLib$1536                       GSLib
     00001860  A$GSLib$1537                       GSLib
     00001861  A$GSLib$1538                       GSLib
ASxxxx Linker V03.00 + NoICE + sdld,  page 23.
Hexadecimal  [32-Bits]

Area                                    Addr        Size        Decimal Bytes (Attributes)
--------------------------------        ----        ----        ------- ----- ------------
_CODE                               00000200    00001E33 =        7731. bytes (REL,CON)

      Value  Global                              Global Defined In Module
      -----  --------------------------------   ------------------------
     00001863  A$GSLib$1539                       GSLib
     00001865  A$GSLib$1540                       GSLib
     00001866  A$GSLib$1541                       GSLib
     00001867  A$GSLib$1542                       GSLib
     00001869  A$GSLib$1543                       GSLib
     0000186B  A$GSLib$1544                       GSLib
     0000186C  A$GSLib$1545                       GSLib
     0000186E  A$GSLib$1546                       GSLib
     00001870  A$GSLib$1547                       GSLib
     00001871  A$GSLib$1548                       GSLib
     00001872  A$GSLib$1549                       GSLib
     00001874  A$GSLib$1550                       GSLib
     00001876  A$GSLib$1551                       GSLib
     00001877  A$GSLib$1552                       GSLib
     00001879  A$GSLib$1553                       GSLib
     0000187B  A$GSLib$1554                       GSLib
     0000187C  A$GSLib$1555                       GSLib
     0000187D  A$GSLib$1556                       GSLib
     0000187F  A$GSLib$1557                       GSLib
     00001881  A$GSLib$1558                       GSLib
     00001882  A$GSLib$1559                       GSLib
     00001884  A$GSLib$1560                       GSLib
     00001886  A$GSLib$1561                       GSLib
     00001887  A$GSLib$1562                       GSLib
     00001888  A$GSLib$1563                       GSLib
     0000188A  A$GSLib$1564                       GSLib
     0000188C  A$GSLib$1565                       GSLib
     0000188D  A$GSLib$1566                       GSLib
     0000188F  A$GSLib$1567                       GSLib
     00001891  A$GSLib$1568                       GSLib
     00001892  A$GSLib$1569                       GSLib
     00001893  A$GSLib$1570                       GSLib
     00001895  A$GSLib$1571                       GSLib
     00001897  A$GSLib$1572                       GSLib
     00001898  A$GSLib$1573                       GSLib
     0000189A  A$GSLib$1574                       GSLib
     0000189C  A$GSLib$1575                       GSLib
     0000189D  A$GSLib$1576                       GSLib
     0000189E  A$GSLib$1577                       GSLib
     000018A0  A$GSLib$1578                       GSLib
     000018A2  A$GSLib$1579                       GSLib
     000018A3  A$GSLib$1580                       GSLib
     000018A5  A$GSLib$1581                       GSLib
     000018A7  A$GSLib$1582                       GSLib
     000018A8  A$GSLib$1583                       GSLib
     000018A9  A$GSLib$1584                       GSLib
     000018AB  A$GSLib$1585                       GSLib
     000018AD  A$GSLib$1586                       GSLib
     000018AE  A$GSLib$1587                       GSLib
     000018B0  A$GSLib$1588                       GSLib
     000018B2  A$GSLib$1589                       GSLib
ASxxxx Linker V03.00 + NoICE + sdld,  page 24.
Hexadecimal  [32-Bits]

Area                                    Addr        Size        Decimal Bytes (Attributes)
--------------------------------        ----        ----        ------- ----- ------------
_CODE                               00000200    00001E33 =        7731. bytes (REL,CON)

      Value  Global                              Global Defined In Module
      -----  --------------------------------   ------------------------
     000018B3  A$GSLib$1590                       GSLib
     000018B4  A$GSLib$1591                       GSLib
     000018B6  A$GSLib$1592                       GSLib
     000018B8  A$GSLib$1593                       GSLib
     000018B9  A$GSLib$1594                       GSLib
     000018BB  A$GSLib$1595                       GSLib
     000018BD  A$GSLib$1596                       GSLib
     000018BE  A$GSLib$1597                       GSLib
     000018BF  A$GSLib$1598                       GSLib
     000018C1  A$GSLib$1599                       GSLib
     000018C3  A$GSLib$1600                       GSLib
     000018C4  A$GSLib$1601                       GSLib
     000018C6  A$GSLib$1602                       GSLib
     000018C8  A$GSLib$1603                       GSLib
     000018C9  A$GSLib$1604                       GSLib
     000018CA  A$GSLib$1605                       GSLib
     000018CC  A$GSLib$1606                       GSLib
     000018CE  A$GSLib$1607                       GSLib
     000018CF  A$GSLib$1608                       GSLib
     000018D1  A$GSLib$1609                       GSLib
     000018D3  A$GSLib$1610                       GSLib
     000018D4  A$GSLib$1611                       GSLib
     000018D5  A$GSLib$1612                       GSLib
     000018D7  A$GSLib$1613                       GSLib
     000018D9  A$GSLib$1614                       GSLib
     000018DA  A$GSLib$1615                       GSLib
     000018DC  A$GSLib$1616                       GSLib
     000018DE  A$GSLib$1617                       GSLib
     000018DF  A$GSLib$1618                       GSLib
     000018E0  A$GSLib$1619                       GSLib
     000018E2  A$GSLib$1620                       GSLib
     000018E4  A$GSLib$1621                       GSLib
     000018E5  A$GSLib$1622                       GSLib
     000018E7  A$GSLib$1623                       GSLib
     000018E9  A$GSLib$1624                       GSLib
     000018EA  A$GSLib$1625                       GSLib
     000018EB  A$GSLib$1626                       GSLib
     000018ED  A$GSLib$1627                       GSLib
     000018EF  A$GSLib$1628                       GSLib
     000018F0  A$GSLib$1629                       GSLib
     000018F2  A$GSLib$1630                       GSLib
     000018F4  A$GSLib$1631                       GSLib
     000018F5  A$GSLib$1632                       GSLib
     000018F6  A$GSLib$1633                       GSLib
     000018F8  A$GSLib$1634                       GSLib
     000018FA  A$GSLib$1635                       GSLib
     000018FB  A$GSLib$1636                       GSLib
     000018FD  A$GSLib$1637                       GSLib
     000018FF  A$GSLib$1638                       GSLib
     00001900  A$GSLib$1639                       GSLib
     00001901  A$GSLib$1640                       GSLib
ASxxxx Linker V03.00 + NoICE + sdld,  page 25.
Hexadecimal  [32-Bits]

Area                                    Addr        Size        Decimal Bytes (Attributes)
--------------------------------        ----        ----        ------- ----- ------------
_CODE                               00000200    00001E33 =        7731. bytes (REL,CON)

      Value  Global                              Global Defined In Module
      -----  --------------------------------   ------------------------
     00001903  A$GSLib$1641                       GSLib
     00001905  A$GSLib$1642                       GSLib
     00001906  A$GSLib$1643                       GSLib
     00001908  A$GSLib$1644                       GSLib
     0000190A  A$GSLib$1645                       GSLib
     0000190B  A$GSLib$1646                       GSLib
     0000190C  A$GSLib$1647                       GSLib
     0000190E  A$GSLib$1648                       GSLib
     00001910  A$GSLib$1649                       GSLib
     00001911  A$GSLib$1650                       GSLib
     00001913  A$GSLib$1651                       GSLib
     00001915  A$GSLib$1652                       GSLib
     00001916  A$GSLib$1653                       GSLib
     00001917  A$GSLib$1654                       GSLib
     00001919  A$GSLib$1655                       GSLib
     0000191B  A$GSLib$1656                       GSLib
     0000191C  A$GSLib$1657                       GSLib
     0000191E  A$GSLib$1658                       GSLib
     00001920  A$GSLib$1659                       GSLib
     00001921  A$GSLib$1660                       GSLib
     00001922  A$GSLib$1661                       GSLib
     00001924  A$GSLib$1662                       GSLib
     00001926  A$GSLib$1663                       GSLib
     00001927  A$GSLib$1664                       GSLib
     00001929  A$GSLib$1665                       GSLib
     0000192B  A$GSLib$1666                       GSLib
     0000192C  A$GSLib$1667                       GSLib
     0000192D  A$GSLib$1668                       GSLib
     0000192F  A$GSLib$1669                       GSLib
     00001931  A$GSLib$1670                       GSLib
     00001932  A$GSLib$1671                       GSLib
     00001934  A$GSLib$1672                       GSLib
     00001936  A$GSLib$1673                       GSLib
     00001937  A$GSLib$1674                       GSLib
     00001938  A$GSLib$1675                       GSLib
     0000193A  A$GSLib$1676                       GSLib
     0000193C  A$GSLib$1677                       GSLib
     0000193D  A$GSLib$1678                       GSLib
     0000193F  A$GSLib$1679                       GSLib
     00001941  A$GSLib$1680                       GSLib
     00001942  A$GSLib$1681                       GSLib
     00001943  A$GSLib$1682                       GSLib
     00001945  A$GSLib$1683                       GSLib
     00001947  A$GSLib$1685                       GSLib
     00001948  A$GSLib$1694                       GSLib
     00001948  C$GSLib.c$1725$1_0$30              GSLib
     00001948  XG$GSL_initializeMap$0$0           GSLib
     00001949  G$GSL_LUTColumnUpdate$0_0$0        GSLib
     00001949  _GSL_LUTColumnUpdate               GSLib
     000019B9  G$GSL_LUTRowUpdate$0_0$0           GSLib
     000019B9  _GSL_LUTRowUpdate                  GSLib
ASxxxx Linker V03.00 + NoICE + sdld,  page 26.
Hexadecimal  [32-Bits]

Area                                    Addr        Size        Decimal Bytes (Attributes)
--------------------------------        ----        ----        ------- ----- ------------
_CODE                               00000200    00001E33 =        7731. bytes (REL,CON)

      Value  Global                              Global Defined In Module
      -----  --------------------------------   ------------------------
     00001A39  _spriteMoveUp                      resources
     00001A41  _spriteMoveDown                    resources
     00001A49  _spriteMoveLeft                    resources
     00001A51  _spriteMoveRight                   resources
     00001A59  _spriteAttackUp                    resources
     00001A63  _spriteAttackDown                  resources
     00001A6D  _spriteAttackLeft                  resources
     00001A77  _spriteAttackRight                 resources
     00001A81  _spriteAttackUpMeta                resources
     00001ACD  _spriteAttackDownMeta              resources
     00001B19  _spriteAttackLeftMeta              resources
     00001B65  _spriteAttackRightMeta             resources
     00001BB1  _metatilesMetaLUT                  resources
     00001CB1  _UNSAFE_SMS_copySpritestoSAT       SMSlib_UNSAFE
     00001CF8  _UNSAFE_SMS_VRAMmemcpy32           SMSlib_UNSAFE
     00001D18  _UNSAFE_SMS_VRAMmemcpy64           SMSlib_UNSAFE
     00001D38  _UNSAFE_SMS_VRAMmemcpy128          SMSlib_UNSAFE
     00001D58  _SMS_init                          SMSlib
     00001D8A  _VDPReg_init                       SMSlib
     00001D95  _SMS_VDPturnOnFeature              SMSlib
     00001DAA  _SMS_VDPturnOffFeature             SMSlib
     00001DC2  _SMS_setBGScrollX                  SMSlib
     00001DCC  _SMS_setBGScrollY                  SMSlib
     00001DD6  _SMS_setBackdropColor              SMSlib
     00001DE0  _SMS_useFirstHalfTilesforSprites   SMSlib
     00001DF6  _SMS_setSpriteMode                 SMSlib
     00001E44  _SMS_setBGPaletteColor             SMSlib
     00001E58  _SMS_setSpritePaletteColor         SMSlib
     00001E6C  _SMS_loadBGPalette                 SMSlib
     00001E81  _SMS_loadSpritePalette             SMSlib
     00001E96  _SMS_setColor                      SMSlib
     00001E9A  _SMS_waitForVBlank                 SMSlib
     00001EA7  _SMS_getKeysStatus                 SMSlib
     00001EAB  _SMS_getKeysPressed                SMSlib
     00001EC8  _SMS_getKeysHeld                   SMSlib
     00001EDC  _SMS_getKeysReleased               SMSlib
     00001EF9  _SMS_queryPauseRequested           SMSlib
     00001EFE  _SMS_resetPauseRequest             SMSlib
     00001F04  _SMS_setLineInterruptHandler       SMSlib
     00001F08  _SMS_setLineCounter                SMSlib
     00001F12  _SMS_getVCount                     SMSlib
     00001F16  _SMS_getHCount                     SMSlib
     00001F1A  _SMS_isr                           SMSlib
     00001F50  _SMS_nmi_isr                       SMSlib
     00001F59  _SMS_initSprites                   SMSlib_sprite
     00001F5F  _SMS_addSprite                     SMSlib_sprite
     00001F92  _SMS_copySpritestoSAT              SMSlib_sprite
     00001FC8  ___sdcc_call_hl                    
     00001FC9  _SMS_VRAMmemset                    SMSlib_VRAMmemset
     00001FEC  _SMS_VRAMmemsetW                   SMSlib_VRAMmemset
     0000201A  _SMS_VRAMmemcpy                    SMSlib_VRAMmemcpy

ASxxxx Linker V03.00 + NoICE + sdld,  page 27.
Hexadecimal  [32-Bits]

Area                                    Addr        Size        Decimal Bytes (Attributes)
--------------------------------        ----        ----        ------- ----- ------------
_HEADER0                            00000000    00000008 =           8. bytes (ABS,CON)

      Value  Global                              Global Defined In Module
      -----  --------------------------------   ------------------------
     00000008  _SMS_crt0_RST08                    crt0

ASxxxx Linker V03.00 + NoICE + sdld,  page 28.
Hexadecimal  [32-Bits]

Area                                    Addr        Size        Decimal Bytes (Attributes)
--------------------------------        ----        ----        ------- ----- ------------
_HEADER1                            00000000    00000009 =           9. bytes (ABS,CON)

      Value  Global                              Global Defined In Module
      -----  --------------------------------   ------------------------
     00000011  _SMS_crt0_RST18                    crt0

ASxxxx Linker V03.00 + NoICE + sdld,  page 29.
Hexadecimal  [32-Bits]

Area                                    Addr        Size        Decimal Bytes (Attributes)
--------------------------------        ----        ----        ------- ----- ------------
_HEADER2                            00000000    00000018 =          24. bytes (ABS,CON)

      Value  Global                              Global Defined In Module
      -----  --------------------------------   ------------------------
ASxxxx Linker V03.00 + NoICE + sdld,  page 30.
Hexadecimal  [32-Bits]

Area                                    Addr        Size        Decimal Bytes (Attributes)
--------------------------------        ----        ----        ------- ----- ------------
_HEADER3                            00000000    00000026 =          38. bytes (ABS,CON)

      Value  Global                              Global Defined In Module
      -----  --------------------------------   ------------------------
ASxxxx Linker V03.00 + NoICE + sdld,  page 31.
Hexadecimal  [32-Bits]

Area                                    Addr        Size        Decimal Bytes (Attributes)
--------------------------------        ----        ----        ------- ----- ------------
_HEADER4                            00000000    00000104 =         260. bytes (ABS,CON)

      Value  Global                              Global Defined In Module
      -----  --------------------------------   ------------------------
     00000069  _OUTI128                           crt0
     000000E9  _OUTI64                            crt0
     00000129  _OUTI32                            crt0
     00000169  _outi_block                        crt0

ASxxxx Linker V03.00 + NoICE + sdld,  page 32.
Hexadecimal  [32-Bits]

Area                                    Addr        Size        Decimal Bytes (Attributes)
--------------------------------        ----        ----        ------- ----- ------------
_INITIALIZER                        00002033    0000001A =          26. bytes (REL,CON)

      Value  Global                              Global Defined In Module
      -----  --------------------------------   ------------------------
ASxxxx Linker V03.00 + NoICE + sdld,  page 33.
Hexadecimal  [32-Bits]

Area                                    Addr        Size        Decimal Bytes (Attributes)
--------------------------------        ----        ----        ------- ----- ------------
_GSINIT                             0000204D    0000000F =          15. bytes (REL,CON)

      Value  Global                              Global Defined In Module
      -----  --------------------------------   ------------------------
     0000204D  gsinit                             crt0

ASxxxx Linker V03.00 + NoICE + sdld,  page 34.
Hexadecimal  [32-Bits]

Area                                    Addr        Size        Decimal Bytes (Attributes)
--------------------------------        ----        ----        ------- ----- ------------
_GSFINAL                            0000205C    00000001 =           1. bytes (REL,CON)

      Value  Global                              Global Defined In Module
      -----  --------------------------------   ------------------------
ASxxxx Linker V03.00 + NoICE + sdld,  page 35.
Hexadecimal  [32-Bits]

Area                                    Addr        Size        Decimal Bytes (Attributes)
--------------------------------        ----        ----        ------- ----- ------------
_DATA                               0000C000    00001209 =        4617. bytes (REL,CON)

      Value  Global                              Global Defined In Module
      -----  --------------------------------   ------------------------
     0000C000  _attackSprites                     main
     0000C002  _currentAttackSprites              main
     0000C004  _scrolltable                       main
     0000D011  _PSGMusicStatus                    PSGlib
     0000D012  _PSGMusicStart                     PSGlib
     0000D014  _PSGMusicPointer                   PSGlib
     0000D016  _PSGMusicLoopPoint                 PSGlib
     0000D018  _PSGMusicSkipFrames                PSGlib
     0000D019  _PSGLoopFlag                       PSGlib
     0000D01A  _PSGLoopCounter                    PSGlib
     0000D01B  _PSGMusicLastLatch                 PSGlib
     0000D01C  _PSGMusicVolumeAttenuation         PSGlib
     0000D01D  _PSGMusicSubstringLen              PSGlib
     0000D01E  _PSGMusicSubstringRetAddr          PSGlib
     0000D020  _PSGChan0Volume                    PSGlib
     0000D021  _PSGChan1Volume                    PSGlib
     0000D022  _PSGChan2Volume                    PSGlib
     0000D023  _PSGChan3Volume                    PSGlib
     0000D024  _PSGChan2LowTone                   PSGlib
     0000D025  _PSGChan2HighTone                  PSGlib
     0000D026  _PSGChan3LowTone                   PSGlib
     0000D027  _PSGChannel2SFX                    PSGlib
     0000D028  _PSGChannel3SFX                    PSGlib
     0000D029  _PSGSFXChan2Volume                 PSGlib
     0000D02A  _PSGSFXChan3Volume                 PSGlib
     0000D02B  _PSGSFXStatus                      PSGlib
     0000D02C  _PSGSFXStart                       PSGlib
     0000D02E  _PSGSFXPointer                     PSGlib
     0000D030  _PSGSFXLoopPoint                   PSGlib
     0000D032  _PSGSFXSkipFrames                  PSGlib
     0000D033  _PSGSFXLoopFlag                    PSGlib
     0000D034  _PSGSFXSubstringLen                PSGlib
     0000D035  _PSGSFXSubstringRetAddr            PSGlib
     0000D037  G$GSL_RAM$0_0$0                    GSLib
     0000D037  _GSL_RAM                           GSLib
     0000D13E  _VDPBlank                          SMSlib
     0000D13F  _SMS_VDPFlags                      SMSlib
     0000D140  _PauseRequested                    SMSlib
     0000D141  _SMS_Port3EBIOSvalue               SMSlib
     0000D142  _KeysStatus                        SMSlib
     0000D144  _PreviousKeysStatus                SMSlib
     0000D146  _SMS_theLineInterruptHandler       SMSlib
     0000D148  _SpriteTableY                      SMSlib_sprite
     0000D188  _SpriteTableXN                     SMSlib_sprite
     0000D208  _SpriteNextFree                    SMSlib_sprite
ASxxxx Linker V03.00 + NoICE + sdld,  page 36.
Hexadecimal  [32-Bits]

Area                                    Addr        Size        Decimal Bytes (Attributes)
--------------------------------        ----        ----        ------- ----- ------------
_INITIALIZED                        0000D209    0000001A =          26. bytes (REL,CON)

      Value  Global                              Global Defined In Module
      -----  --------------------------------   ------------------------
     0000D209  _playerX                           main
     0000D20B  _playerY                           main
     0000D20D  _playerSpriteX                     main
     0000D20E  _playerSpriteY                     main
     0000D20F  _animationCount                    main
     0000D210  _actionCount                       main
     0000D211  _action                            main
     0000D212  _actionButtonWatch                 main
     0000D213  _spriteTileOffsets                 main
     0000D215  _scrollXOffset                     main
     0000D216  _scrollYOffset                     main
     0000D217  _spriteXOffset                     main
     0000D218  _spriteYOffset                     main
     0000D219  _playerXOffset                     main
     0000D21B  _playerYOffset                     main
     0000D21D  _direction                         main
     0000D21E  _VDPReg                            SMSlib
     0000D220  _spritesHeight                     SMSlib
     0000D221  _spritesWidth                      SMSlib
     0000D222  _spritesTileOffset                 SMSlib

ASxxxx Linker V03.00 + NoICE + sdld,  page 37.
Hexadecimal  [32-Bits]

Area                                    Addr        Size        Decimal Bytes (Attributes)
--------------------------------        ----        ----        ------- ----- ------------
_CABS0                              00000000    00000010 =          16. bytes (ABS,CON)

      Value  Global                              Global Defined In Module
      -----  --------------------------------   ------------------------
     00007FF0  ___SMS__SEGA_signature             main

ASxxxx Linker V03.00 + NoICE + sdld,  page 38.
Hexadecimal  [32-Bits]

Area                                    Addr        Size        Decimal Bytes (Attributes)
--------------------------------        ----        ----        ------- ----- ------------
_BANK2                              00004000    00003F9F =       16287. bytes (REL,CON)

      Value  Global                              Global Defined In Module
      -----  --------------------------------   ------------------------
     00004000  _resources_c                       bank2
     0000586E  _sprite_tiles_bin                  bank2
     0000706E  _tiles_bin                         bank2
     00007B6E  _village_psg                       bank2
     00007F8B  _palette_bin                       bank2
     00007F98  _sprite_palette_bin                bank2
ASxxxx Linker V03.00 + NoICE + sdld,  page 39.
Hexadecimal  [32-Bits]

Area                                    Addr        Size        Decimal Bytes (Attributes)
--------------------------------        ----        ----        ------- ----- ------------
_BANK3                              00004000    0000121D =        4637. bytes (REL,CON)

      Value  Global                              Global Defined In Module
      -----  --------------------------------   ------------------------
     00004000  _scrolltable_bin                   bank3
     0000500D  _metatiles_bin                     bank3

ASxxxx Linker V03.00 + NoICE + sdld,  page 40.

Files Linked                              [ module(s) ]

../crt0/crt0_sms.rel                      [ crt0 ]
main.rel                                  [ main ]
../lib/PSGlib.rel                         [ PSGlib ]
../lib/GSLib.rel                          [ GSLib ]
bank2.rel                                 [ bank2 ]
bank3.rel                                 [ bank3 ]
resources.rel                             [ resources ]


Libraries Linked                          [ object file ]

../lib/SMSlib.lib                         [ SMSlib_UNSAFE.rel ]
../lib/SMSlib.lib                         [ SMSlib.rel ]
../lib/SMSlib.lib                         [ SMSlib_sprite.rel ]
C:\Program Files\SDCC\bin\..\lib\z80/z80.lib
                                          [ __sdcc_call_hl.rel ]
../lib/SMSlib.lib                         [ SMSlib_VRAMmemset.rel ]
../lib/SMSlib.lib                         [ SMSlib_VRAMmemcpy.rel ]

ASxxxx Linker V03.00 + NoICE + sdld,  page 41.

User Base Address Definitions

_CODE = 0x0200
_DATA = 0xc000
_BANK2=0x4000
_BANK3=0x4000

