ASxxxx Linker V03.00 + NoICE + sdld,  page 1.
Hexadecimal  [32-Bits]

Area                                    Addr        Size        Decimal Bytes (Attributes)
--------------------------------        ----        ----        ------- ----- ------------
.  .ABS.                            00000000    00000000 =           0. bytes (ABS,CON)

      Value  Global                              Global Defined In Module
      -----  --------------------------------   ------------------------
     00000000  .__.ABS.                           
     00000000  l__BSEG                         
     00000000  l__BSS                          
     00000000  l__CABS                         
     00000000  l__DABS                         
     00000000  l__HEADER                       
     00000000  l__HEAP                         
     00000000  l__HOME                         
     00000000  s__CABS                         
     00000000  s__CABS0                        
     00000000  s__CABS1                        
     00000000  s__CABS2                        
     00000000  s__CABS3                        
     00000000  s__CABS4                        
     00000000  s__DABS                         
     00000000  s__HEADER                       
     00000000  s__HEADER0                      
     00000000  s__HEADER1                      
     00000000  s__HEADER2                      
     00000000  s__HEADER3                      
     00000000  s__HEADER4                      
     00000000  s__HEADER5                      
     00000001  l__GSFINAL                      
     00000003  l__HEADER3                      
     00000003  l__HEADER4                      
     00000006  l__BANK10                       
     00000006  l__BANK11                       
     00000006  l__BANK12                       
     00000006  l__BANK13                       
     00000006  l__BANK14                       
     00000006  l__BANK15                       
     00000006  l__HEADER0                      
     00000009  l__HEADER1                      
     0000000A  l__HEADER2                      
     0000000F  l__GSINIT                       
     00000010  l__CABS0                        
     00000010  l__CABS4                        
     00000011  l__CABS1                        
     00000014  l__CABS2                        
     0000003D  l__CABS3                        
     000000BE  G$VDPDataPort$0_0$0                asm_manager
     000000BF  G$VDPControlPort$0_0$0             asm_manager
     0000012A  l__HEADER5                      
     000001F9  l__INITIALIZED                  
     000001F9  l__INITIALIZER                  
     00000200  s__CODE                         
     00000442  l__DATA                         
     00000F76  l__BANK2                        
     00001F11  l__BANK8                        
     00002029  l__BANK7                        
ASxxxx Linker V03.00 + NoICE + sdld,  page 2.
Hexadecimal  [32-Bits]

Area                                    Addr        Size        Decimal Bytes (Attributes)
--------------------------------        ----        ----        ------- ----- ------------
.  .ABS.                            00000000    00000000 =           0. bytes (ABS,CON)

      Value  Global                              Global Defined In Module
      -----  --------------------------------   ------------------------
     000021C0  l__BANK4                        
     000021C0  l__BANK5                        
     000026B4  l__BANK6                        
     000026D4  l__BANK9                        
     00003B84  l__BANK3                        
     0000636D  l__CODE                         
     0000656D  s__HOME                         
     0000656D  s__INITIALIZER                  
     00006766  s__GSINIT                       
     00006775  s__GSFINAL                      
     00008000  G$SMS_SRAM$0_0$0                   _sms_manager
     00008000  _SMS_SRAM                          SMSlib_PSGaiden
     00008000  s__BANK10                       
     00008000  s__BANK11                       
     00008000  s__BANK12                       
     00008000  s__BANK13                       
     00008000  s__BANK14                       
     00008000  s__BANK15                       
     00008000  s__BANK2                        
     00008000  s__BANK3                        
     00008000  s__BANK4                        
     00008000  s__BANK5                        
     00008000  s__BANK6                        
     00008000  s__BANK7                        
     00008000  s__BANK8                        
     00008000  s__BANK9                        
     0000C000  s__DATA                         
     0000C442  s__INITIALIZED                  
     0000C63B  s__BSEG                         
     0000C63B  s__BSS                          
     0000C63B  s__HEAP                         
     0000FFFC  G$SRAM_bank_to_be_mapped_on_slot   _sms_manager
     0000FFFC  _SRAM_bank_to_be_mapped_on_slot2   SMSlib_PSGaiden
     0000FFFF  G$ROM_bank_to_be_mapped_on_slot2   _sms_manager
     0000FFFF  _ROM_bank_to_be_mapped_on_slot2    SMSlib_PSGaiden

ASxxxx Linker V03.00 + NoICE + sdld,  page 3.
Hexadecimal  [32-Bits]

Area                                    Addr        Size        Decimal Bytes (Attributes)
--------------------------------        ----        ----        ------- ----- ------------
_CODE                               00000200    0000636D =       25453. bytes (REL,CON)

      Value  Global                              Global Defined In Module
      -----  --------------------------------   ------------------------
     00000200  __clock                            crt0
     00000204  _exit                              crt0
     0000020A  A$main$83                          main
     0000020A  C$main.c$3$0_0$58                  main
     0000020A  C$main.c$9$1_0$58                  main
     0000020A  G$main$0$0                         main
     0000020A  _main                              main
     0000020D  A$main$87                          main
     0000020D  C$main.c$10$1_0$58                 main
     00000210  A$main$91                          main
     00000210  C$main.c$11$1_0$58                 main
     00000213  A$main$95                          main
     00000213  C$main.c$13$1_0$58                 main
     00000216  A$main$96                          main
     00000217  A$main$97                          main
     00000218  A$main$98                          main
     00000219  A$main$99                          main
     0000021C  A$main$100                         main
     0000021D  A$main$104                         main
     0000021D  C$main.c$14$1_0$58                 main
     00000220  A$main$108                         main
     00000220  C$main.c$15$1_0$58                 main
     00000223  A$main$109                         main
     00000224  A$main$110                         main
     00000227  A$main$111                         main
     00000228  A$main$115                         main
     00000228  C$main.c$17$1_0$58                 main
     0000022B  A$main$119                         main
     0000022B  C$main.c$18$1_0$58                 main
     0000022E  A$main$123                         main
     0000022E  C$main.c$25$1_0$58                 main
     00000231  A$main$127                         main
     00000231  C$main.c$26$1_0$58                 main
     00000233  A$main$128                         main
     00000234  A$main$129                         main
     00000235  A$main$130                         main
     00000238  A$main$131                         main
     00000239  A$main$135                         main
     00000239  C$main.c$27$1_0$58                 main
     0000023C  A$main$140                         main
     0000023C  C$main.c$30$3_0$60                 main
     0000023F  A$main$141                         main
     00000240  A$main$142                         main
     00000241  A$main$143                         main
     00000243  A$main$147                         main
     00000243  C$main.c$32$4_0$61                 main
     00000246  A$main$151                         main
     00000246  C$main.c$33$4_0$61                 main
     0000024A  A$main$152                         main
     0000024D  A$main$153                         main
ASxxxx Linker V03.00 + NoICE + sdld,  page 4.
Hexadecimal  [32-Bits]

Area                                    Addr        Size        Decimal Bytes (Attributes)
--------------------------------        ----        ----        ------- ----- ------------
_CODE                               00000200    0000636D =       25453. bytes (REL,CON)

      Value  Global                              Global Defined In Module
      -----  --------------------------------   ------------------------
     0000024F  A$main$154                         main
     00000252  A$main$158                         main
     00000252  C$main.c$34$4_0$61                 main
     00000256  A$main$159                         main
     00000258  A$main$163                         main
     00000258  C$main.c$36$5_0$62                 main
     0000025B  A$main$164                         main
     0000025D  A$main$169                         main
     0000025D  C$main.c$40$5_0$63                 main
     00000260  A$main$174                         main
     00000260  C$main.c$44$3_0$60                 main
     00000263  A$main$175                         main
     00000265  A$main$176                         main
     00000267  A$main$180                         main
     00000267  C$main.c$49$3_0$60                 main
     0000026A  A$main$184                         main
     0000026A  C$main.c$50$3_0$60                 main
     0000026D  A$main$188                         main
     0000026D  C$main.c$52$3_0$60                 main
     00000270  A$main$192                         main
     00000270  C$main.c$54$3_0$60                 main
     00000273  A$main$196                         main
     00000273  C$main.c$55$3_0$60                 main
     00000276  A$main$200                         main
     00000276  C$main.c$56$3_0$60                 main
     00000279  A$main$204                         main
     00000279  C$main.c$58$3_0$60                 main
     0000027C  A$main$208                         main
     0000027C  C$main.c$59$3_0$60                 main
     0000027F  A$main$216                         main
     0000027F  C$main.c$61$2_0$58                 main
     0000027F  XG$main$0$0                        main
     00000281  _PSGStop                           PSGlib
     000002A8  _PSGResume                         PSGlib
     000002F4  _PSGPlay                           PSGlib
     00000321  _PSGCancelLoop                     PSGlib
     00000327  _PSGPlayNoRepeat                   PSGlib
     00000336  _PSGGetStatus                      PSGlib
     0000033E  _PSGSilenceChannels                PSGlib
     0000034F  _PSGRestoreVolumes                 PSGlib
     00000420  _PSGSetMusicVolumeAttenuation      PSGlib
     000004E5  _PSGSFXStop                        PSGlib
     0000059E  _PSGSFXPlay                        PSGlib
     000005EB  _PSGSFXCancelLoop                  PSGlib
     000005F1  _PSGSFXGetStatus                   PSGlib
     000005F9  _PSGSFXPlayLoop                    PSGlib
     00000613  _PSGFrame                          PSGlib
     0000072C  _PSGSFXFrame                       PSGlib
     000007B2  A$asm_manager$59                   asm_manager
     000007B2  C$asm_manager.c$11$0_0$1           asm_manager
     000007B2  C$asm_manager.c$30$1_0$1           asm_manager
ASxxxx Linker V03.00 + NoICE + sdld,  page 5.
Hexadecimal  [32-Bits]

Area                                    Addr        Size        Decimal Bytes (Attributes)
--------------------------------        ----        ----        ------- ----- ------------
_CODE                               00000200    0000636D =       25453. bytes (REL,CON)

      Value  Global                              Global Defined In Module
      -----  --------------------------------   ------------------------
     000007B2  G$engine_asm_manager_clear_VRAM$   asm_manager
     000007B2  _engine_asm_manager_clear_VRAM     asm_manager
     000007B4  A$asm_manager$60                   asm_manager
     000007B6  A$asm_manager$61                   asm_manager
     000007B8  A$asm_manager$62                   asm_manager
     000007BA  A$asm_manager$63                   asm_manager
     000007BD  A$asm_manager$65                   asm_manager
     000007BF  A$asm_manager$66                   asm_manager
     000007C1  A$asm_manager$67                   asm_manager
     000007C2  A$asm_manager$68                   asm_manager
     000007C3  A$asm_manager$69                   asm_manager
     000007C4  A$asm_manager$70                   asm_manager
     000007C7  A$asm_manager$78                   asm_manager
     000007C7  C$asm_manager.c$33$1_0$1           asm_manager
     000007C7  XG$engine_asm_manager_clear_VRAM   asm_manager
     000007C8  A$_sms_manager$129                 _sms_manager
     000007C8  C$_sms_manager.c$11$0_0$71         _sms_manager
     000007C8  C$_sms_manager.c$13$1_0$71         _sms_manager
     000007C8  C$_sms_manager.c$14$1_0$71         _sms_manager
     000007C8  G$devkit_SMS_init$0$0              _sms_manager
     000007C8  XG$devkit_SMS_init$0$0             _sms_manager
     000007C8  _devkit_SMS_init                   _sms_manager
     000007CB  A$_sms_manager$142                 _sms_manager
     000007CB  C$_sms_manager.c$15$1_0$72         _sms_manager
     000007CB  C$_sms_manager.c$17$1_0$72         _sms_manager
     000007CB  G$devkit_SMS_displayOn$0$0         _sms_manager
     000007CB  _devkit_SMS_displayOn              _sms_manager
     000007CE  A$_sms_manager$150                 _sms_manager
     000007CE  C$_sms_manager.c$18$1_0$72         _sms_manager
     000007CE  XG$devkit_SMS_displayOn$0$0        _sms_manager
     000007D1  A$_sms_manager$163                 _sms_manager
     000007D1  C$_sms_manager.c$19$1_0$73         _sms_manager
     000007D1  C$_sms_manager.c$21$1_0$73         _sms_manager
     000007D1  G$devkit_SMS_displayOff$0$0        _sms_manager
     000007D1  _devkit_SMS_displayOff             _sms_manager
     000007D4  A$_sms_manager$171                 _sms_manager
     000007D4  C$_sms_manager.c$22$1_0$73         _sms_manager
     000007D4  XG$devkit_SMS_displayOff$0$0       _sms_manager
     000007D7  A$_sms_manager$184                 _sms_manager
     000007D7  C$_sms_manager.c$23$1_0$75         _sms_manager
     000007D7  C$_sms_manager.c$25$1_0$75         _sms_manager
     000007D7  G$devkit_SMS_mapROMBank$0$0        _sms_manager
     000007D7  _devkit_SMS_mapROMBank             _sms_manager
     000007DB  A$_sms_manager$185                 _sms_manager
     000007DD  A$_sms_manager$186                 _sms_manager
     000007E0  A$_sms_manager$187                 _sms_manager
     000007E3  A$_sms_manager$195                 _sms_manager
     000007E3  C$_sms_manager.c$26$1_0$75         _sms_manager
     000007E3  XG$devkit_SMS_mapROMBank$0$0       _sms_manager
     000007E4  A$_sms_manager$208                 _sms_manager
     000007E4  C$_sms_manager.c$28$1_0$77         _sms_manager
ASxxxx Linker V03.00 + NoICE + sdld,  page 6.
Hexadecimal  [32-Bits]

Area                                    Addr        Size        Decimal Bytes (Attributes)
--------------------------------        ----        ----        ------- ----- ------------
_CODE                               00000200    0000636D =       25453. bytes (REL,CON)

      Value  Global                              Global Defined In Module
      -----  --------------------------------   ------------------------
     000007E4  C$_sms_manager.c$30$1_0$77         _sms_manager
     000007E4  G$devkit_SMS_setSpriteMode$0$0     _sms_manager
     000007E4  _devkit_SMS_setSpriteMode          _sms_manager
     000007E8  A$_sms_manager$209                 _sms_manager
     000007EA  A$_sms_manager$210                 _sms_manager
     000007ED  A$_sms_manager$218                 _sms_manager
     000007ED  C$_sms_manager.c$31$1_0$77         _sms_manager
     000007ED  XG$devkit_SMS_setSpriteMode$0$0    _sms_manager
     000007F0  A$_sms_manager$231                 _sms_manager
     000007F0  C$_sms_manager.c$32$1_0$78         _sms_manager
     000007F0  C$_sms_manager.c$34$1_0$78         _sms_manager
     000007F0  G$devkit_SMS_useFirstHalfTilesfo   _sms_manager
     000007F0  _devkit_SMS_useFirstHalfTilesfor   _sms_manager
     000007F2  A$_sms_manager$239                 _sms_manager
     000007F2  C$_sms_manager.c$35$1_0$78         _sms_manager
     000007F2  XG$devkit_SMS_useFirstHalfTilesf   _sms_manager
     000007F5  A$_sms_manager$252                 _sms_manager
     000007F5  C$_sms_manager.c$36$1_0$79         _sms_manager
     000007F5  C$_sms_manager.c$38$1_0$79         _sms_manager
     000007F5  G$devkit_SMS_useFirstHalfTilesfo   _sms_manager
     000007F5  _devkit_SMS_useFirstHalfTilesfor   _sms_manager
     000007F7  A$_sms_manager$260                 _sms_manager
     000007F7  C$_sms_manager.c$39$1_0$79         _sms_manager
     000007F7  XG$devkit_SMS_useFirstHalfTilesf   _sms_manager
     000007FA  A$_sms_manager$273                 _sms_manager
     000007FA  C$_sms_manager.c$40$1_0$81         _sms_manager
     000007FA  C$_sms_manager.c$42$1_0$81         _sms_manager
     000007FA  G$devkit_SMS_VDPturnOnFeature$0$   _sms_manager
     000007FA  _devkit_SMS_VDPturnOnFeature       _sms_manager
     000007FE  A$_sms_manager$274                 _sms_manager
     00000800  A$_sms_manager$275                 _sms_manager
     00000803  A$_sms_manager$276                 _sms_manager
     00000806  A$_sms_manager$284                 _sms_manager
     00000806  C$_sms_manager.c$43$1_0$81         _sms_manager
     00000806  XG$devkit_SMS_VDPturnOnFeature$0   _sms_manager
     00000809  A$_sms_manager$297                 _sms_manager
     00000809  C$_sms_manager.c$45$1_0$83         _sms_manager
     00000809  C$_sms_manager.c$47$1_0$83         _sms_manager
     00000809  G$devkit_SMS_loadPSGaidencompres   _sms_manager
     00000809  _devkit_SMS_loadPSGaidencompress   _sms_manager
     0000080D  A$_sms_manager$298                 _sms_manager
     0000080F  A$_sms_manager$299                 _sms_manager
     00000812  A$_sms_manager$300                 _sms_manager
     00000815  A$_sms_manager$301                 _sms_manager
     00000816  A$_sms_manager$302                 _sms_manager
     00000819  A$_sms_manager$303                 _sms_manager
     0000081C  A$_sms_manager$304                 _sms_manager
     0000081D  A$_sms_manager$305                 _sms_manager
     00000820  A$_sms_manager$306                 _sms_manager
     00000821  A$_sms_manager$307                 _sms_manager
     00000822  A$_sms_manager$315                 _sms_manager
ASxxxx Linker V03.00 + NoICE + sdld,  page 7.
Hexadecimal  [32-Bits]

Area                                    Addr        Size        Decimal Bytes (Attributes)
--------------------------------        ----        ----        ------- ----- ------------
_CODE                               00000200    0000636D =       25453. bytes (REL,CON)

      Value  Global                              Global Defined In Module
      -----  --------------------------------   ------------------------
     00000822  C$_sms_manager.c$48$1_0$83         _sms_manager
     00000822  XG$devkit_SMS_loadPSGaidencompre   _sms_manager
     00000823  A$_sms_manager$328                 _sms_manager
     00000823  C$_sms_manager.c$49$1_0$85         _sms_manager
     00000823  C$_sms_manager.c$51$1_0$85         _sms_manager
     00000823  G$devkit_SMS_loadSTMcompressedTi   _sms_manager
     00000823  _devkit_SMS_loadSTMcompressedTil   _sms_manager
     00000825  A$_sms_manager$329                 _sms_manager
     00000826  A$_sms_manager$330                 _sms_manager
     00000827  A$_sms_manager$331                 _sms_manager
     0000082B  A$_sms_manager$332                 _sms_manager
     0000082D  A$_sms_manager$333                 _sms_manager
     00000830  A$_sms_manager$334                 _sms_manager
     00000833  A$_sms_manager$335                 _sms_manager
     00000834  A$_sms_manager$336                 _sms_manager
     00000837  A$_sms_manager$337                 _sms_manager
     00000839  A$_sms_manager$338                 _sms_manager
     0000083A  A$_sms_manager$339                 _sms_manager
     0000083B  A$_sms_manager$340                 _sms_manager
     0000083E  A$_sms_manager$341                 _sms_manager
     0000083F  A$_sms_manager$342                 _sms_manager
     00000840  A$_sms_manager$343                 _sms_manager
     00000843  A$_sms_manager$344                 _sms_manager
     00000844  A$_sms_manager$345                 _sms_manager
     00000845  A$_sms_manager$346                 _sms_manager
     00000846  A$_sms_manager$354                 _sms_manager
     00000846  C$_sms_manager.c$52$1_0$85         _sms_manager
     00000846  XG$devkit_SMS_loadSTMcompressedT   _sms_manager
     00000847  A$_sms_manager$367                 _sms_manager
     00000847  C$_sms_manager.c$54$1_0$87         _sms_manager
     00000847  C$_sms_manager.c$56$1_0$87         _sms_manager
     00000847  G$devkit_SMS_loadBGPalette$0$0     _sms_manager
     00000847  _devkit_SMS_loadBGPalette          _sms_manager
     0000084B  A$_sms_manager$368                 _sms_manager
     0000084D  A$_sms_manager$369                 _sms_manager
     00000850  A$_sms_manager$370                 _sms_manager
     00000853  A$_sms_manager$378                 _sms_manager
     00000853  C$_sms_manager.c$57$1_0$87         _sms_manager
     00000853  XG$devkit_SMS_loadBGPalette$0$0    _sms_manager
     00000856  A$_sms_manager$391                 _sms_manager
     00000856  C$_sms_manager.c$58$1_0$89         _sms_manager
     00000856  C$_sms_manager.c$60$1_0$89         _sms_manager
     00000856  G$devkit_SMS_loadSpritePalette$0   _sms_manager
     00000856  _devkit_SMS_loadSpritePalette      _sms_manager
     0000085A  A$_sms_manager$392                 _sms_manager
     0000085C  A$_sms_manager$393                 _sms_manager
     0000085F  A$_sms_manager$394                 _sms_manager
     00000862  A$_sms_manager$402                 _sms_manager
     00000862  C$_sms_manager.c$61$1_0$89         _sms_manager
     00000862  XG$devkit_SMS_loadSpritePalette$   _sms_manager
     00000865  A$_sms_manager$415                 _sms_manager
ASxxxx Linker V03.00 + NoICE + sdld,  page 8.
Hexadecimal  [32-Bits]

Area                                    Addr        Size        Decimal Bytes (Attributes)
--------------------------------        ----        ----        ------- ----- ------------
_CODE                               00000200    0000636D =       25453. bytes (REL,CON)

      Value  Global                              Global Defined In Module
      -----  --------------------------------   ------------------------
     00000865  C$_sms_manager.c$62$1_0$91         _sms_manager
     00000865  C$_sms_manager.c$64$1_0$91         _sms_manager
     00000865  G$devkit_SMS_setSpritePaletteCol   _sms_manager
     00000865  _devkit_SMS_setSpritePaletteColo   _sms_manager
     00000869  A$_sms_manager$416                 _sms_manager
     0000086B  A$_sms_manager$417                 _sms_manager
     0000086E  A$_sms_manager$418                 _sms_manager
     0000086F  A$_sms_manager$419                 _sms_manager
     00000870  A$_sms_manager$420                 _sms_manager
     00000872  A$_sms_manager$421                 _sms_manager
     00000875  A$_sms_manager$422                 _sms_manager
     00000876  A$_sms_manager$423                 _sms_manager
     00000879  A$_sms_manager$424                 _sms_manager
     0000087B  A$_sms_manager$425                 _sms_manager
     0000087D  A$_sms_manager$426                 _sms_manager
     0000087E  A$_sms_manager$427                 _sms_manager
     0000087F  A$_sms_manager$428                 _sms_manager
     00000880  A$_sms_manager$429                 _sms_manager
     00000881  A$_sms_manager$430                 _sms_manager
     00000882  A$_sms_manager$434                 _sms_manager
     00000882  C$_sms_manager.c$65$1_0$91         _sms_manager
     00000883  A$_sms_manager$435                 _sms_manager
     00000884  A$_sms_manager$436                 _sms_manager
     00000887  A$_sms_manager$437                 _sms_manager
     00000888  A$_sms_manager$438                 _sms_manager
     00000889  A$_sms_manager$439                 _sms_manager
     0000088C  A$_sms_manager$440                 _sms_manager
     0000088D  A$_sms_manager$448                 _sms_manager
     0000088D  C$_sms_manager.c$66$1_0$91         _sms_manager
     0000088D  XG$devkit_SMS_setSpritePaletteCo   _sms_manager
     0000088E  A$_sms_manager$458                 _sms_manager
     0000088E  C$_sms_manager.c$68$1_0$93         _sms_manager
     0000088E  G$devkit_SMS_setNextTileatXY$0$0   _sms_manager
     0000088E  _devkit_SMS_setNextTileatXY        _sms_manager
     00000890  A$_sms_manager$459                 _sms_manager
     00000894  A$_sms_manager$460                 _sms_manager
     00000896  A$_sms_manager$464                 _sms_manager
     00000896  C$_sms_manager.c$70$1_0$93         _sms_manager
     00000899  A$_sms_manager$465                 _sms_manager
     0000089B  A$_sms_manager$466                 _sms_manager
     0000089C  A$_sms_manager$467                 _sms_manager
     0000089D  A$_sms_manager$468                 _sms_manager
     0000089E  A$_sms_manager$469                 _sms_manager
     0000089F  A$_sms_manager$470                 _sms_manager
     000008A0  A$_sms_manager$471                 _sms_manager
     000008A1  A$_sms_manager$472                 _sms_manager
     000008A2  A$_sms_manager$473                 _sms_manager
     000008A3  A$_sms_manager$474                 _sms_manager
     000008A4  A$_sms_manager$475                 _sms_manager
     000008A6  A$_sms_manager$476                 _sms_manager
     000008A7  A$_sms_manager$477                 _sms_manager
ASxxxx Linker V03.00 + NoICE + sdld,  page 9.
Hexadecimal  [32-Bits]

Area                                    Addr        Size        Decimal Bytes (Attributes)
--------------------------------        ----        ----        ------- ----- ------------
_CODE                               00000200    0000636D =       25453. bytes (REL,CON)

      Value  Global                              Global Defined In Module
      -----  --------------------------------   ------------------------
     000008A8  A$_sms_manager$478                 _sms_manager
     000008AB  A$_sms_manager$479                 _sms_manager
     000008AD  A$_sms_manager$480                 _sms_manager
     000008AE  A$_sms_manager$481                 _sms_manager
     000008AF  A$_sms_manager$482                 _sms_manager
     000008B0  A$_sms_manager$483                 _sms_manager
     000008B1  A$_sms_manager$484                 _sms_manager
     000008B2  A$_sms_manager$485                 _sms_manager
     000008B3  A$_sms_manager$493                 _sms_manager
     000008B3  C$_sms_manager.c$71$1_0$93         _sms_manager
     000008B3  XG$devkit_SMS_setNextTileatXY$0$   _sms_manager
     000008B5  A$_sms_manager$494                 _sms_manager
     000008B8  A$_sms_manager$507                 _sms_manager
     000008B8  C$_sms_manager.c$72$1_0$95         _sms_manager
     000008B8  C$_sms_manager.c$74$1_0$95         _sms_manager
     000008B8  G$devkit_SMS_setTile$0$0           _sms_manager
     000008B8  _devkit_SMS_setTile                _sms_manager
     000008BC  A$_sms_manager$508                 _sms_manager
     000008BE  A$_sms_manager$509                 _sms_manager
     000008C1  A$_sms_manager$510                 _sms_manager
     000008C3  A$_sms_manager$518                 _sms_manager
     000008C3  C$_sms_manager.c$75$1_0$95         _sms_manager
     000008C3  XG$devkit_SMS_setTile$0$0          _sms_manager
     000008C6  A$_sms_manager$531                 _sms_manager
     000008C6  C$_sms_manager.c$77$1_0$97         _sms_manager
     000008C6  C$_sms_manager.c$79$1_0$97         _sms_manager
     000008C6  G$devkit_SMS_addSprite$0$0         _sms_manager
     000008C6  _devkit_SMS_addSprite              _sms_manager
     000008CA  A$_sms_manager$532                 _sms_manager
     000008CC  A$_sms_manager$533                 _sms_manager
     000008CF  A$_sms_manager$534                 _sms_manager
     000008D0  A$_sms_manager$535                 _sms_manager
     000008D1  A$_sms_manager$536                 _sms_manager
     000008D4  A$_sms_manager$537                 _sms_manager
     000008D6  A$_sms_manager$538                 _sms_manager
     000008D7  A$_sms_manager$539                 _sms_manager
     000008D8  A$_sms_manager$540                 _sms_manager
     000008DB  A$_sms_manager$541                 _sms_manager
     000008DC  A$_sms_manager$542                 _sms_manager
     000008DD  A$_sms_manager$543                 _sms_manager
     000008E0  A$_sms_manager$544                 _sms_manager
     000008E1  A$_sms_manager$545                 _sms_manager
     000008E2  A$_sms_manager$553                 _sms_manager
     000008E2  C$_sms_manager.c$80$1_0$97         _sms_manager
     000008E2  XG$devkit_SMS_addSprite$0$0        _sms_manager
     000008E3  A$_sms_manager$563                 _sms_manager
     000008E3  C$_sms_manager.c$81$1_0$99         _sms_manager
     000008E3  G$devkit_SMS_addSprite_bulk8$0$0   _sms_manager
     000008E3  _devkit_SMS_addSprite_bulk8        _sms_manager
     000008E5  A$_sms_manager$564                 _sms_manager
     000008E9  A$_sms_manager$565                 _sms_manager
ASxxxx Linker V03.00 + NoICE + sdld,  page 10.
Hexadecimal  [32-Bits]

Area                                    Addr        Size        Decimal Bytes (Attributes)
--------------------------------        ----        ----        ------- ----- ------------
_CODE                               00000200    0000636D =       25453. bytes (REL,CON)

      Value  Global                              Global Defined In Module
      -----  --------------------------------   ------------------------
     000008EB  A$_sms_manager$569                 _sms_manager
     000008EB  C$_sms_manager.c$83$1_0$99         _sms_manager
     000008EE  A$_sms_manager$570                 _sms_manager
     000008F1  A$_sms_manager$571                 _sms_manager
     000008F2  A$_sms_manager$572                 _sms_manager
     000008F5  A$_sms_manager$573                 _sms_manager
     000008F6  A$_sms_manager$574                 _sms_manager
     000008F7  A$_sms_manager$575                 _sms_manager
     000008FA  A$_sms_manager$576                 _sms_manager
     000008FB  A$_sms_manager$577                 _sms_manager
     000008FC  A$_sms_manager$581                 _sms_manager
     000008FC  C$_sms_manager.c$84$1_0$99         _sms_manager
     000008FF  A$_sms_manager$582                 _sms_manager
     00000900  A$_sms_manager$583                 _sms_manager
     00000901  A$_sms_manager$584                 _sms_manager
     00000904  A$_sms_manager$585                 _sms_manager
     00000906  A$_sms_manager$586                 _sms_manager
     00000907  A$_sms_manager$587                 _sms_manager
     00000908  A$_sms_manager$588                 _sms_manager
     00000909  A$_sms_manager$589                 _sms_manager
     0000090A  A$_sms_manager$590                 _sms_manager
     0000090D  A$_sms_manager$591                 _sms_manager
     0000090E  A$_sms_manager$592                 _sms_manager
     0000090F  A$_sms_manager$593                 _sms_manager
     00000910  A$_sms_manager$594                 _sms_manager
     00000911  A$_sms_manager$595                 _sms_manager
     00000914  A$_sms_manager$596                 _sms_manager
     00000915  A$_sms_manager$597                 _sms_manager
     00000916  A$_sms_manager$598                 _sms_manager
     00000917  A$_sms_manager$602                 _sms_manager
     00000917  C$_sms_manager.c$86$1_0$99         _sms_manager
     00000918  A$_sms_manager$603                 _sms_manager
     00000919  A$_sms_manager$604                 _sms_manager
     0000091A  A$_sms_manager$605                 _sms_manager
     0000091D  A$_sms_manager$606                 _sms_manager
     0000091E  A$_sms_manager$607                 _sms_manager
     00000920  A$_sms_manager$608                 _sms_manager
     00000921  A$_sms_manager$609                 _sms_manager
     00000922  A$_sms_manager$610                 _sms_manager
     00000923  A$_sms_manager$611                 _sms_manager
     00000924  A$_sms_manager$612                 _sms_manager
     00000925  A$_sms_manager$613                 _sms_manager
     00000926  A$_sms_manager$614                 _sms_manager
     00000927  A$_sms_manager$615                 _sms_manager
     00000928  A$_sms_manager$616                 _sms_manager
     0000092B  A$_sms_manager$617                 _sms_manager
     0000092C  A$_sms_manager$618                 _sms_manager
     0000092D  A$_sms_manager$619                 _sms_manager
     00000930  A$_sms_manager$620                 _sms_manager
     00000931  A$_sms_manager$621                 _sms_manager
     00000932  A$_sms_manager$622                 _sms_manager
ASxxxx Linker V03.00 + NoICE + sdld,  page 11.
Hexadecimal  [32-Bits]

Area                                    Addr        Size        Decimal Bytes (Attributes)
--------------------------------        ----        ----        ------- ----- ------------
_CODE                               00000200    0000636D =       25453. bytes (REL,CON)

      Value  Global                              Global Defined In Module
      -----  --------------------------------   ------------------------
     00000933  A$_sms_manager$623                 _sms_manager
     00000934  A$_sms_manager$627                 _sms_manager
     00000934  C$_sms_manager.c$87$1_0$99         _sms_manager
     00000935  A$_sms_manager$628                 _sms_manager
     00000936  A$_sms_manager$629                 _sms_manager
     00000937  A$_sms_manager$630                 _sms_manager
     00000938  A$_sms_manager$631                 _sms_manager
     00000939  A$_sms_manager$632                 _sms_manager
     0000093A  A$_sms_manager$633                 _sms_manager
     0000093B  A$_sms_manager$634                 _sms_manager
     0000093C  A$_sms_manager$635                 _sms_manager
     0000093D  A$_sms_manager$636                 _sms_manager
     0000093E  A$_sms_manager$637                 _sms_manager
     00000941  A$_sms_manager$638                 _sms_manager
     00000942  A$_sms_manager$639                 _sms_manager
     00000943  A$_sms_manager$640                 _sms_manager
     00000944  A$_sms_manager$641                 _sms_manager
     00000945  A$_sms_manager$645                 _sms_manager
     00000945  C$_sms_manager.c$89$1_0$99         _sms_manager
     00000946  A$_sms_manager$646                 _sms_manager
     00000947  A$_sms_manager$647                 _sms_manager
     00000948  A$_sms_manager$648                 _sms_manager
     00000949  A$_sms_manager$649                 _sms_manager
     0000094A  A$_sms_manager$650                 _sms_manager
     0000094B  A$_sms_manager$651                 _sms_manager
     0000094D  A$_sms_manager$652                 _sms_manager
     0000094E  A$_sms_manager$653                 _sms_manager
     0000094F  A$_sms_manager$654                 _sms_manager
     00000950  A$_sms_manager$655                 _sms_manager
     00000951  A$_sms_manager$656                 _sms_manager
     00000952  A$_sms_manager$657                 _sms_manager
     00000955  A$_sms_manager$658                 _sms_manager
     00000956  A$_sms_manager$659                 _sms_manager
     00000957  A$_sms_manager$660                 _sms_manager
     0000095A  A$_sms_manager$661                 _sms_manager
     0000095B  A$_sms_manager$662                 _sms_manager
     0000095C  A$_sms_manager$663                 _sms_manager
     0000095D  A$_sms_manager$664                 _sms_manager
     0000095E  A$_sms_manager$668                 _sms_manager
     0000095E  C$_sms_manager.c$90$1_0$99         _sms_manager
     0000095F  A$_sms_manager$669                 _sms_manager
     00000961  A$_sms_manager$670                 _sms_manager
     00000962  A$_sms_manager$671                 _sms_manager
     00000963  A$_sms_manager$672                 _sms_manager
     00000964  A$_sms_manager$673                 _sms_manager
     00000965  A$_sms_manager$674                 _sms_manager
     00000966  A$_sms_manager$675                 _sms_manager
     00000967  A$_sms_manager$676                 _sms_manager
     0000096A  A$_sms_manager$677                 _sms_manager
     0000096B  A$_sms_manager$678                 _sms_manager
     0000096C  A$_sms_manager$679                 _sms_manager
ASxxxx Linker V03.00 + NoICE + sdld,  page 12.
Hexadecimal  [32-Bits]

Area                                    Addr        Size        Decimal Bytes (Attributes)
--------------------------------        ----        ----        ------- ----- ------------
_CODE                               00000200    0000636D =       25453. bytes (REL,CON)

      Value  Global                              Global Defined In Module
      -----  --------------------------------   ------------------------
     0000096D  A$_sms_manager$680                 _sms_manager
     0000096E  A$_sms_manager$684                 _sms_manager
     0000096E  C$_sms_manager.c$92$1_0$99         _sms_manager
     0000096F  A$_sms_manager$685                 _sms_manager
     00000971  A$_sms_manager$686                 _sms_manager
     00000972  A$_sms_manager$687                 _sms_manager
     00000973  A$_sms_manager$688                 _sms_manager
     00000975  A$_sms_manager$689                 _sms_manager
     00000976  A$_sms_manager$690                 _sms_manager
     00000977  A$_sms_manager$691                 _sms_manager
     00000978  A$_sms_manager$692                 _sms_manager
     00000979  A$_sms_manager$693                 _sms_manager
     0000097A  A$_sms_manager$694                 _sms_manager
     0000097D  A$_sms_manager$695                 _sms_manager
     0000097E  A$_sms_manager$696                 _sms_manager
     0000097F  A$_sms_manager$697                 _sms_manager
     00000982  A$_sms_manager$698                 _sms_manager
     00000983  A$_sms_manager$699                 _sms_manager
     00000984  A$_sms_manager$700                 _sms_manager
     00000985  A$_sms_manager$701                 _sms_manager
     00000986  A$_sms_manager$705                 _sms_manager
     00000986  C$_sms_manager.c$93$1_0$99         _sms_manager
     00000987  A$_sms_manager$706                 _sms_manager
     00000989  A$_sms_manager$707                 _sms_manager
     0000098A  A$_sms_manager$708                 _sms_manager
     0000098B  A$_sms_manager$709                 _sms_manager
     0000098C  A$_sms_manager$710                 _sms_manager
     0000098D  A$_sms_manager$711                 _sms_manager
     00000990  A$_sms_manager$712                 _sms_manager
     00000991  A$_sms_manager$713                 _sms_manager
     00000992  A$_sms_manager$717                 _sms_manager
     00000994  A$_sms_manager$722                 _sms_manager
     00000994  C$_sms_manager.c$94$1_0$99         _sms_manager
     00000994  XG$devkit_SMS_addSprite_bulk8$0$   _sms_manager
     00000995  A$_sms_manager$732                 _sms_manager
     00000995  C$_sms_manager.c$95$1_0$101        _sms_manager
     00000995  G$devkit_SMS_addSprite_bulk12$0$   _sms_manager
     00000995  _devkit_SMS_addSprite_bulk12       _sms_manager
     00000997  A$_sms_manager$733                 _sms_manager
     0000099B  A$_sms_manager$734                 _sms_manager
     0000099D  A$_sms_manager$735                 _sms_manager
     0000099E  A$_sms_manager$739                 _sms_manager
     0000099E  C$_sms_manager.c$97$1_0$101        _sms_manager
     000009A1  A$_sms_manager$740                 _sms_manager
     000009A4  A$_sms_manager$741                 _sms_manager
     000009A5  A$_sms_manager$742                 _sms_manager
     000009A8  A$_sms_manager$743                 _sms_manager
     000009A9  A$_sms_manager$744                 _sms_manager
     000009AA  A$_sms_manager$745                 _sms_manager
     000009AD  A$_sms_manager$746                 _sms_manager
     000009AE  A$_sms_manager$747                 _sms_manager
ASxxxx Linker V03.00 + NoICE + sdld,  page 13.
Hexadecimal  [32-Bits]

Area                                    Addr        Size        Decimal Bytes (Attributes)
--------------------------------        ----        ----        ------- ----- ------------
_CODE                               00000200    0000636D =       25453. bytes (REL,CON)

      Value  Global                              Global Defined In Module
      -----  --------------------------------   ------------------------
     000009AF  A$_sms_manager$751                 _sms_manager
     000009AF  C$_sms_manager.c$98$1_0$101        _sms_manager
     000009B2  A$_sms_manager$752                 _sms_manager
     000009B3  A$_sms_manager$753                 _sms_manager
     000009B4  A$_sms_manager$754                 _sms_manager
     000009B7  A$_sms_manager$755                 _sms_manager
     000009B8  A$_sms_manager$756                 _sms_manager
     000009BA  A$_sms_manager$757                 _sms_manager
     000009BD  A$_sms_manager$758                 _sms_manager
     000009BE  A$_sms_manager$759                 _sms_manager
     000009BF  A$_sms_manager$760                 _sms_manager
     000009C0  A$_sms_manager$761                 _sms_manager
     000009C3  A$_sms_manager$762                 _sms_manager
     000009C6  A$_sms_manager$763                 _sms_manager
     000009C7  A$_sms_manager$764                 _sms_manager
     000009CA  A$_sms_manager$765                 _sms_manager
     000009CB  A$_sms_manager$766                 _sms_manager
     000009CC  A$_sms_manager$767                 _sms_manager
     000009CD  A$_sms_manager$771                 _sms_manager
     000009CD  C$_sms_manager.c$99$1_0$101        _sms_manager
     000009CE  A$_sms_manager$772                 _sms_manager
     000009CF  A$_sms_manager$773                 _sms_manager
     000009D0  A$_sms_manager$774                 _sms_manager
     000009D1  A$_sms_manager$775                 _sms_manager
     000009D3  A$_sms_manager$776                 _sms_manager
     000009D4  A$_sms_manager$777                 _sms_manager
     000009D5  A$_sms_manager$778                 _sms_manager
     000009D6  A$_sms_manager$779                 _sms_manager
     000009D9  A$_sms_manager$780                 _sms_manager
     000009DA  A$_sms_manager$781                 _sms_manager
     000009DB  A$_sms_manager$782                 _sms_manager
     000009DC  A$_sms_manager$783                 _sms_manager
     000009DF  A$_sms_manager$784                 _sms_manager
     000009E0  A$_sms_manager$785                 _sms_manager
     000009E1  A$_sms_manager$786                 _sms_manager
     000009E2  A$_sms_manager$790                 _sms_manager
     000009E2  C$_sms_manager.c$101$1_0$101       _sms_manager
     000009E3  A$_sms_manager$791                 _sms_manager
     000009E4  A$_sms_manager$792                 _sms_manager
     000009E5  A$_sms_manager$793                 _sms_manager
     000009E6  A$_sms_manager$794                 _sms_manager
     000009E9  A$_sms_manager$795                 _sms_manager
     000009EA  A$_sms_manager$796                 _sms_manager
     000009EC  A$_sms_manager$797                 _sms_manager
     000009ED  A$_sms_manager$798                 _sms_manager
     000009EE  A$_sms_manager$799                 _sms_manager
     000009EF  A$_sms_manager$800                 _sms_manager
     000009F0  A$_sms_manager$801                 _sms_manager
     000009F1  A$_sms_manager$802                 _sms_manager
     000009F2  A$_sms_manager$803                 _sms_manager
     000009F3  A$_sms_manager$804                 _sms_manager
ASxxxx Linker V03.00 + NoICE + sdld,  page 14.
Hexadecimal  [32-Bits]

Area                                    Addr        Size        Decimal Bytes (Attributes)
--------------------------------        ----        ----        ------- ----- ------------
_CODE                               00000200    0000636D =       25453. bytes (REL,CON)

      Value  Global                              Global Defined In Module
      -----  --------------------------------   ------------------------
     000009F4  A$_sms_manager$805                 _sms_manager
     000009F7  A$_sms_manager$806                 _sms_manager
     000009F8  A$_sms_manager$807                 _sms_manager
     000009F9  A$_sms_manager$808                 _sms_manager
     000009FC  A$_sms_manager$809                 _sms_manager
     000009FD  A$_sms_manager$810                 _sms_manager
     000009FE  A$_sms_manager$811                 _sms_manager
     000009FF  A$_sms_manager$812                 _sms_manager
     00000A00  A$_sms_manager$816                 _sms_manager
     00000A00  C$_sms_manager.c$102$1_0$101       _sms_manager
     00000A01  A$_sms_manager$817                 _sms_manager
     00000A02  A$_sms_manager$818                 _sms_manager
     00000A03  A$_sms_manager$819                 _sms_manager
     00000A04  A$_sms_manager$820                 _sms_manager
     00000A05  A$_sms_manager$821                 _sms_manager
     00000A06  A$_sms_manager$822                 _sms_manager
     00000A07  A$_sms_manager$823                 _sms_manager
     00000A08  A$_sms_manager$824                 _sms_manager
     00000A09  A$_sms_manager$825                 _sms_manager
     00000A0A  A$_sms_manager$826                 _sms_manager
     00000A0B  A$_sms_manager$827                 _sms_manager
     00000A0E  A$_sms_manager$828                 _sms_manager
     00000A0F  A$_sms_manager$829                 _sms_manager
     00000A10  A$_sms_manager$830                 _sms_manager
     00000A13  A$_sms_manager$831                 _sms_manager
     00000A14  A$_sms_manager$832                 _sms_manager
     00000A15  A$_sms_manager$833                 _sms_manager
     00000A16  A$_sms_manager$834                 _sms_manager
     00000A17  A$_sms_manager$838                 _sms_manager
     00000A17  C$_sms_manager.c$103$1_0$101       _sms_manager
     00000A18  A$_sms_manager$839                 _sms_manager
     00000A1A  A$_sms_manager$840                 _sms_manager
     00000A1B  A$_sms_manager$841                 _sms_manager
     00000A1C  A$_sms_manager$842                 _sms_manager
     00000A1D  A$_sms_manager$843                 _sms_manager
     00000A1E  A$_sms_manager$844                 _sms_manager
     00000A1F  A$_sms_manager$845                 _sms_manager
     00000A20  A$_sms_manager$846                 _sms_manager
     00000A23  A$_sms_manager$847                 _sms_manager
     00000A24  A$_sms_manager$848                 _sms_manager
     00000A25  A$_sms_manager$849                 _sms_manager
     00000A26  A$_sms_manager$850                 _sms_manager
     00000A27  A$_sms_manager$854                 _sms_manager
     00000A27  C$_sms_manager.c$105$1_0$101       _sms_manager
     00000A28  A$_sms_manager$855                 _sms_manager
     00000A2A  A$_sms_manager$856                 _sms_manager
     00000A2B  A$_sms_manager$857                 _sms_manager
     00000A2C  A$_sms_manager$858                 _sms_manager
     00000A2E  A$_sms_manager$859                 _sms_manager
     00000A2F  A$_sms_manager$860                 _sms_manager
     00000A30  A$_sms_manager$861                 _sms_manager
ASxxxx Linker V03.00 + NoICE + sdld,  page 15.
Hexadecimal  [32-Bits]

Area                                    Addr        Size        Decimal Bytes (Attributes)
--------------------------------        ----        ----        ------- ----- ------------
_CODE                               00000200    0000636D =       25453. bytes (REL,CON)

      Value  Global                              Global Defined In Module
      -----  --------------------------------   ------------------------
     00000A31  A$_sms_manager$862                 _sms_manager
     00000A32  A$_sms_manager$863                 _sms_manager
     00000A33  A$_sms_manager$864                 _sms_manager
     00000A36  A$_sms_manager$865                 _sms_manager
     00000A37  A$_sms_manager$866                 _sms_manager
     00000A38  A$_sms_manager$867                 _sms_manager
     00000A3B  A$_sms_manager$868                 _sms_manager
     00000A3C  A$_sms_manager$869                 _sms_manager
     00000A3D  A$_sms_manager$870                 _sms_manager
     00000A3E  A$_sms_manager$871                 _sms_manager
     00000A3F  A$_sms_manager$875                 _sms_manager
     00000A3F  C$_sms_manager.c$106$1_0$101       _sms_manager
     00000A40  A$_sms_manager$876                 _sms_manager
     00000A42  A$_sms_manager$877                 _sms_manager
     00000A43  A$_sms_manager$878                 _sms_manager
     00000A44  A$_sms_manager$879                 _sms_manager
     00000A45  A$_sms_manager$880                 _sms_manager
     00000A46  A$_sms_manager$881                 _sms_manager
     00000A47  A$_sms_manager$882                 _sms_manager
     00000A48  A$_sms_manager$883                 _sms_manager
     00000A4B  A$_sms_manager$884                 _sms_manager
     00000A4C  A$_sms_manager$885                 _sms_manager
     00000A4D  A$_sms_manager$886                 _sms_manager
     00000A50  A$_sms_manager$887                 _sms_manager
     00000A51  A$_sms_manager$888                 _sms_manager
     00000A52  A$_sms_manager$889                 _sms_manager
     00000A53  A$_sms_manager$890                 _sms_manager
     00000A54  A$_sms_manager$894                 _sms_manager
     00000A54  C$_sms_manager.c$107$1_0$101       _sms_manager
     00000A55  A$_sms_manager$895                 _sms_manager
     00000A57  A$_sms_manager$896                 _sms_manager
     00000A58  A$_sms_manager$897                 _sms_manager
     00000A59  A$_sms_manager$898                 _sms_manager
     00000A5A  A$_sms_manager$899                 _sms_manager
     00000A5B  A$_sms_manager$900                 _sms_manager
     00000A5C  A$_sms_manager$901                 _sms_manager
     00000A5D  A$_sms_manager$902                 _sms_manager
     00000A60  A$_sms_manager$903                 _sms_manager
     00000A61  A$_sms_manager$904                 _sms_manager
     00000A62  A$_sms_manager$905                 _sms_manager
     00000A63  A$_sms_manager$906                 _sms_manager
     00000A64  A$_sms_manager$910                 _sms_manager
     00000A64  C$_sms_manager.c$109$1_0$101       _sms_manager
     00000A65  A$_sms_manager$911                 _sms_manager
     00000A67  A$_sms_manager$912                 _sms_manager
     00000A68  A$_sms_manager$913                 _sms_manager
     00000A69  A$_sms_manager$914                 _sms_manager
     00000A6B  A$_sms_manager$915                 _sms_manager
     00000A6C  A$_sms_manager$916                 _sms_manager
     00000A6D  A$_sms_manager$917                 _sms_manager
     00000A6E  A$_sms_manager$918                 _sms_manager
ASxxxx Linker V03.00 + NoICE + sdld,  page 16.
Hexadecimal  [32-Bits]

Area                                    Addr        Size        Decimal Bytes (Attributes)
--------------------------------        ----        ----        ------- ----- ------------
_CODE                               00000200    0000636D =       25453. bytes (REL,CON)

      Value  Global                              Global Defined In Module
      -----  --------------------------------   ------------------------
     00000A6F  A$_sms_manager$919                 _sms_manager
     00000A70  A$_sms_manager$920                 _sms_manager
     00000A73  A$_sms_manager$921                 _sms_manager
     00000A74  A$_sms_manager$922                 _sms_manager
     00000A75  A$_sms_manager$923                 _sms_manager
     00000A78  A$_sms_manager$924                 _sms_manager
     00000A79  A$_sms_manager$925                 _sms_manager
     00000A7A  A$_sms_manager$926                 _sms_manager
     00000A7B  A$_sms_manager$927                 _sms_manager
     00000A7C  A$_sms_manager$931                 _sms_manager
     00000A7C  C$_sms_manager.c$110$1_0$101       _sms_manager
     00000A7D  A$_sms_manager$932                 _sms_manager
     00000A7F  A$_sms_manager$933                 _sms_manager
     00000A80  A$_sms_manager$934                 _sms_manager
     00000A81  A$_sms_manager$935                 _sms_manager
     00000A82  A$_sms_manager$936                 _sms_manager
     00000A83  A$_sms_manager$937                 _sms_manager
     00000A84  A$_sms_manager$938                 _sms_manager
     00000A85  A$_sms_manager$939                 _sms_manager
     00000A88  A$_sms_manager$940                 _sms_manager
     00000A89  A$_sms_manager$941                 _sms_manager
     00000A8A  A$_sms_manager$942                 _sms_manager
     00000A8D  A$_sms_manager$943                 _sms_manager
     00000A8E  A$_sms_manager$944                 _sms_manager
     00000A8F  A$_sms_manager$945                 _sms_manager
     00000A90  A$_sms_manager$946                 _sms_manager
     00000A91  A$_sms_manager$950                 _sms_manager
     00000A91  C$_sms_manager.c$111$1_0$101       _sms_manager
     00000A92  A$_sms_manager$951                 _sms_manager
     00000A94  A$_sms_manager$952                 _sms_manager
     00000A95  A$_sms_manager$953                 _sms_manager
     00000A96  A$_sms_manager$954                 _sms_manager
     00000A97  A$_sms_manager$955                 _sms_manager
     00000A98  A$_sms_manager$956                 _sms_manager
     00000A9B  A$_sms_manager$957                 _sms_manager
     00000A9C  A$_sms_manager$958                 _sms_manager
     00000A9D  A$_sms_manager$962                 _sms_manager
     00000A9E  A$_sms_manager$963                 _sms_manager
     00000AA0  A$_sms_manager$968                 _sms_manager
     00000AA0  C$_sms_manager.c$112$1_0$101       _sms_manager
     00000AA0  XG$devkit_SMS_addSprite_bulk12$0   _sms_manager
     00000AA1  A$_sms_manager$988                 _sms_manager
     00000AA1  C$_sms_manager.c$114$1_0$102       _sms_manager
     00000AA1  C$_sms_manager.c$116$1_0$102       _sms_manager
     00000AA1  C$_sms_manager.c$117$1_0$102       _sms_manager
     00000AA1  G$devkit_SMS_initSprites$0$0       _sms_manager
     00000AA1  XG$devkit_SMS_initSprites$0$0      _sms_manager
     00000AA1  _devkit_SMS_initSprites            _sms_manager
     00000AA4  A$_sms_manager$1008                _sms_manager
     00000AA4  C$_sms_manager.c$118$1_0$103       _sms_manager
     00000AA4  C$_sms_manager.c$120$1_0$103       _sms_manager
ASxxxx Linker V03.00 + NoICE + sdld,  page 17.
Hexadecimal  [32-Bits]

Area                                    Addr        Size        Decimal Bytes (Attributes)
--------------------------------        ----        ----        ------- ----- ------------
_CODE                               00000200    0000636D =       25453. bytes (REL,CON)

      Value  Global                              Global Defined In Module
      -----  --------------------------------   ------------------------
     00000AA4  C$_sms_manager.c$121$1_0$103       _sms_manager
     00000AA4  G$devkit_SMS_finalizeSprites$0$0   _sms_manager
     00000AA4  XG$devkit_SMS_finalizeSprites$0$   _sms_manager
     00000AA4  _devkit_SMS_finalizeSprites        _sms_manager
     00000AA7  A$_sms_manager$1028                _sms_manager
     00000AA7  C$_sms_manager.c$122$1_0$104       _sms_manager
     00000AA7  C$_sms_manager.c$124$1_0$104       _sms_manager
     00000AA7  C$_sms_manager.c$125$1_0$104       _sms_manager
     00000AA7  G$devkit_SMS_waitForVBlank$0$0     _sms_manager
     00000AA7  XG$devkit_SMS_waitForVBlank$0$0    _sms_manager
     00000AA7  _devkit_SMS_waitForVBlank          _sms_manager
     00000AAA  A$_sms_manager$1048                _sms_manager
     00000AAA  C$_sms_manager.c$126$1_0$105       _sms_manager
     00000AAA  C$_sms_manager.c$128$1_0$105       _sms_manager
     00000AAA  C$_sms_manager.c$129$1_0$105       _sms_manager
     00000AAA  G$devkit_SMS_copySpritestoSAT$0$   _sms_manager
     00000AAA  XG$devkit_SMS_copySpritestoSAT$0   _sms_manager
     00000AAA  _devkit_SMS_copySpritestoSAT       _sms_manager
     00000AAD  A$_sms_manager$1068                _sms_manager
     00000AAD  C$_sms_manager.c$130$1_0$106       _sms_manager
     00000AAD  C$_sms_manager.c$132$1_0$106       _sms_manager
     00000AAD  C$_sms_manager.c$133$1_0$106       _sms_manager
     00000AAD  G$devkit_UNSAFE_SMS_copySpritest   _sms_manager
     00000AAD  XG$devkit_UNSAFE_SMS_copySprites   _sms_manager
     00000AAD  _devkit_UNSAFE_SMS_copySpritesto   _sms_manager
     00000AB0  A$_sms_manager$1088                _sms_manager
     00000AB0  C$_sms_manager.c$135$1_0$107       _sms_manager
     00000AB0  C$_sms_manager.c$137$1_0$107       _sms_manager
     00000AB0  C$_sms_manager.c$138$1_0$107       _sms_manager
     00000AB0  G$devkit_SMS_queryPauseRequested   _sms_manager
     00000AB0  XG$devkit_SMS_queryPauseRequeste   _sms_manager
     00000AB0  _devkit_SMS_queryPauseRequested    _sms_manager
     00000AB3  A$_sms_manager$1108                _sms_manager
     00000AB3  C$_sms_manager.c$139$1_0$108       _sms_manager
     00000AB3  C$_sms_manager.c$141$1_0$108       _sms_manager
     00000AB3  C$_sms_manager.c$142$1_0$108       _sms_manager
     00000AB3  G$devkit_SMS_resetPauseRequest$0   _sms_manager
     00000AB3  XG$devkit_SMS_resetPauseRequest$   _sms_manager
     00000AB3  _devkit_SMS_resetPauseRequest      _sms_manager
     00000AB6  A$_sms_manager$1128                _sms_manager
     00000AB6  C$_sms_manager.c$145$1_0$109       _sms_manager
     00000AB6  C$_sms_manager.c$147$1_0$109       _sms_manager
     00000AB6  C$_sms_manager.c$148$1_0$109       _sms_manager
     00000AB6  G$devkit_SMS_getKeysStatus$0$0     _sms_manager
     00000AB6  XG$devkit_SMS_getKeysStatus$0$0    _sms_manager
     00000AB6  _devkit_SMS_getKeysStatus          _sms_manager
     00000AB9  A$_sms_manager$1141                _sms_manager
     00000AB9  C$_sms_manager.c$149$1_0$110       _sms_manager
     00000AB9  C$_sms_manager.c$151$1_0$110       _sms_manager
     00000AB9  G$devkit_PORT_A_KEY_UP$0$0         _sms_manager
     00000AB9  _devkit_PORT_A_KEY_UP              _sms_manager
ASxxxx Linker V03.00 + NoICE + sdld,  page 18.
Hexadecimal  [32-Bits]

Area                                    Addr        Size        Decimal Bytes (Attributes)
--------------------------------        ----        ----        ------- ----- ------------
_CODE                               00000200    0000636D =       25453. bytes (REL,CON)

      Value  Global                              Global Defined In Module
      -----  --------------------------------   ------------------------
     00000ABC  A$_sms_manager$1149                _sms_manager
     00000ABC  C$_sms_manager.c$152$1_0$110       _sms_manager
     00000ABC  XG$devkit_PORT_A_KEY_UP$0$0        _sms_manager
     00000ABD  A$_sms_manager$1162                _sms_manager
     00000ABD  C$_sms_manager.c$153$1_0$111       _sms_manager
     00000ABD  C$_sms_manager.c$155$1_0$111       _sms_manager
     00000ABD  G$devkit_PORT_A_KEY_DOWN$0$0       _sms_manager
     00000ABD  _devkit_PORT_A_KEY_DOWN            _sms_manager
     00000AC0  A$_sms_manager$1170                _sms_manager
     00000AC0  C$_sms_manager.c$156$1_0$111       _sms_manager
     00000AC0  XG$devkit_PORT_A_KEY_DOWN$0$0      _sms_manager
     00000AC1  A$_sms_manager$1183                _sms_manager
     00000AC1  C$_sms_manager.c$157$1_0$112       _sms_manager
     00000AC1  C$_sms_manager.c$159$1_0$112       _sms_manager
     00000AC1  G$devkit_PORT_A_KEY_LEFT$0$0       _sms_manager
     00000AC1  _devkit_PORT_A_KEY_LEFT            _sms_manager
     00000AC4  A$_sms_manager$1191                _sms_manager
     00000AC4  C$_sms_manager.c$160$1_0$112       _sms_manager
     00000AC4  XG$devkit_PORT_A_KEY_LEFT$0$0      _sms_manager
     00000AC5  A$_sms_manager$1204                _sms_manager
     00000AC5  C$_sms_manager.c$161$1_0$113       _sms_manager
     00000AC5  C$_sms_manager.c$163$1_0$113       _sms_manager
     00000AC5  G$devkit_PORT_A_KEY_RIGHT$0$0      _sms_manager
     00000AC5  _devkit_PORT_A_KEY_RIGHT           _sms_manager
     00000AC8  A$_sms_manager$1212                _sms_manager
     00000AC8  C$_sms_manager.c$164$1_0$113       _sms_manager
     00000AC8  XG$devkit_PORT_A_KEY_RIGHT$0$0     _sms_manager
     00000AC9  A$_sms_manager$1225                _sms_manager
     00000AC9  C$_sms_manager.c$165$1_0$114       _sms_manager
     00000AC9  C$_sms_manager.c$167$1_0$114       _sms_manager
     00000AC9  G$devkit_PORT_A_KEY_1$0$0          _sms_manager
     00000AC9  _devkit_PORT_A_KEY_1               _sms_manager
     00000ACC  A$_sms_manager$1233                _sms_manager
     00000ACC  C$_sms_manager.c$168$1_0$114       _sms_manager
     00000ACC  XG$devkit_PORT_A_KEY_1$0$0         _sms_manager
     00000ACD  A$_sms_manager$1246                _sms_manager
     00000ACD  C$_sms_manager.c$169$1_0$115       _sms_manager
     00000ACD  C$_sms_manager.c$171$1_0$115       _sms_manager
     00000ACD  G$devkit_PORT_A_KEY_2$0$0          _sms_manager
     00000ACD  _devkit_PORT_A_KEY_2               _sms_manager
     00000AD0  A$_sms_manager$1254                _sms_manager
     00000AD0  C$_sms_manager.c$172$1_0$115       _sms_manager
     00000AD0  XG$devkit_PORT_A_KEY_2$0$0         _sms_manager
     00000AD1  A$_sms_manager$1267                _sms_manager
     00000AD1  C$_sms_manager.c$175$1_0$116       _sms_manager
     00000AD1  C$_sms_manager.c$177$1_0$116       _sms_manager
     00000AD1  G$devkit_SPRITEMODE_NORMAL$0$0     _sms_manager
     00000AD1  _devkit_SPRITEMODE_NORMAL          _sms_manager
     00000AD3  A$_sms_manager$1275                _sms_manager
     00000AD3  C$_sms_manager.c$178$1_0$116       _sms_manager
     00000AD3  XG$devkit_SPRITEMODE_NORMAL$0$0    _sms_manager
ASxxxx Linker V03.00 + NoICE + sdld,  page 19.
Hexadecimal  [32-Bits]

Area                                    Addr        Size        Decimal Bytes (Attributes)
--------------------------------        ----        ----        ------- ----- ------------
_CODE                               00000200    0000636D =       25453. bytes (REL,CON)

      Value  Global                              Global Defined In Module
      -----  --------------------------------   ------------------------
     00000AD4  A$_sms_manager$1288                _sms_manager
     00000AD4  C$_sms_manager.c$179$1_0$117       _sms_manager
     00000AD4  C$_sms_manager.c$181$1_0$117       _sms_manager
     00000AD4  G$devkit_VDPFEATURE_HIDEFIRSTCOL   _sms_manager
     00000AD4  _devkit_VDPFEATURE_HIDEFIRSTCOL    _sms_manager
     00000AD7  A$_sms_manager$1296                _sms_manager
     00000AD7  C$_sms_manager.c$182$1_0$117       _sms_manager
     00000AD7  XG$devkit_VDPFEATURE_HIDEFIRSTCO   _sms_manager
     00000AD8  F_sms_manager$__str_0$0_0$0        _sms_manager
     00000AE9  F_sms_manager$__str_1$0_0$0        _sms_manager
     00000AFD  F_sms_manager$__str_2$0_0$0        _sms_manager
     00000B3A  A$_snd_manager$89                  _snd_manager
     00000B3A  C$_snd_manager.c$11$1_0$34         _snd_manager
     00000B3A  C$_snd_manager.c$9$0_0$34          _snd_manager
     00000B3A  G$devkit_PSGPlay$0$0               _snd_manager
     00000B3A  _devkit_PSGPlay                    _snd_manager
     00000B3B  A$_snd_manager$90                  _snd_manager
     00000B3C  A$_snd_manager$91                  _snd_manager
     00000B3D  A$_snd_manager$92                  _snd_manager
     00000B3E  A$_snd_manager$93                  _snd_manager
     00000B3F  A$_snd_manager$94                  _snd_manager
     00000B42  A$_snd_manager$95                  _snd_manager
     00000B43  A$_snd_manager$103                 _snd_manager
     00000B43  C$_snd_manager.c$12$1_0$34         _snd_manager
     00000B43  XG$devkit_PSGPlay$0$0              _snd_manager
     00000B44  A$_snd_manager$123                 _snd_manager
     00000B44  C$_snd_manager.c$13$1_0$36         _snd_manager
     00000B44  C$_snd_manager.c$15$1_0$36         _snd_manager
     00000B44  C$_snd_manager.c$16$1_0$36         _snd_manager
     00000B44  G$devkit_PSGCancelLoop$0$0         _snd_manager
     00000B44  XG$devkit_PSGCancelLoop$0$0        _snd_manager
     00000B44  _devkit_PSGCancelLoop              _snd_manager
     00000B47  A$_snd_manager$136                 _snd_manager
     00000B47  C$_snd_manager.c$17$1_0$38         _snd_manager
     00000B47  C$_snd_manager.c$19$1_0$38         _snd_manager
     00000B47  G$devkit_PSGPlayNoRepeat$0$0       _snd_manager
     00000B47  _devkit_PSGPlayNoRepeat            _snd_manager
     00000B48  A$_snd_manager$137                 _snd_manager
     00000B49  A$_snd_manager$138                 _snd_manager
     00000B4A  A$_snd_manager$139                 _snd_manager
     00000B4B  A$_snd_manager$140                 _snd_manager
     00000B4C  A$_snd_manager$141                 _snd_manager
     00000B4F  A$_snd_manager$142                 _snd_manager
     00000B50  A$_snd_manager$150                 _snd_manager
     00000B50  C$_snd_manager.c$20$1_0$38         _snd_manager
     00000B50  XG$devkit_PSGPlayNoRepeat$0$0      _snd_manager
     00000B51  A$_snd_manager$170                 _snd_manager
     00000B51  C$_snd_manager.c$21$1_0$40         _snd_manager
     00000B51  C$_snd_manager.c$23$1_0$40         _snd_manager
     00000B51  C$_snd_manager.c$24$1_0$40         _snd_manager
     00000B51  G$devkit_PSGStop$0$0               _snd_manager
ASxxxx Linker V03.00 + NoICE + sdld,  page 20.
Hexadecimal  [32-Bits]

Area                                    Addr        Size        Decimal Bytes (Attributes)
--------------------------------        ----        ----        ------- ----- ------------
_CODE                               00000200    0000636D =       25453. bytes (REL,CON)

      Value  Global                              Global Defined In Module
      -----  --------------------------------   ------------------------
     00000B51  XG$devkit_PSGStop$0$0              _snd_manager
     00000B51  _devkit_PSGStop                    _snd_manager
     00000B54  A$_snd_manager$190                 _snd_manager
     00000B54  C$_snd_manager.c$25$1_0$42         _snd_manager
     00000B54  C$_snd_manager.c$27$1_0$42         _snd_manager
     00000B54  C$_snd_manager.c$28$1_0$42         _snd_manager
     00000B54  G$devkit_PSGResume$0$0             _snd_manager
     00000B54  XG$devkit_PSGResume$0$0            _snd_manager
     00000B54  _devkit_PSGResume                  _snd_manager
     00000B57  A$_snd_manager$210                 _snd_manager
     00000B57  C$_snd_manager.c$29$1_0$44         _snd_manager
     00000B57  C$_snd_manager.c$31$1_0$44         _snd_manager
     00000B57  C$_snd_manager.c$32$1_0$44         _snd_manager
     00000B57  G$devkit_PSGGetStatus$0$0          _snd_manager
     00000B57  XG$devkit_PSGGetStatus$0$0         _snd_manager
     00000B57  _devkit_PSGGetStatus               _snd_manager
     00000B5A  A$_snd_manager$223                 _snd_manager
     00000B5A  C$_snd_manager.c$33$1_0$46         _snd_manager
     00000B5A  C$_snd_manager.c$35$1_0$46         _snd_manager
     00000B5A  G$devkit_PSGSetMusicVolumeAttenu   _snd_manager
     00000B5A  _devkit_PSGSetMusicVolumeAttenua   _snd_manager
     00000B5D  A$_snd_manager$224                 _snd_manager
     00000B5E  A$_snd_manager$225                 _snd_manager
     00000B5F  A$_snd_manager$226                 _snd_manager
     00000B60  A$_snd_manager$227                 _snd_manager
     00000B61  A$_snd_manager$228                 _snd_manager
     00000B64  A$_snd_manager$229                 _snd_manager
     00000B65  A$_snd_manager$237                 _snd_manager
     00000B65  C$_snd_manager.c$36$1_0$46         _snd_manager
     00000B65  XG$devkit_PSGSetMusicVolumeAtten   _snd_manager
     00000B66  A$_snd_manager$250                 _snd_manager
     00000B66  C$_snd_manager.c$38$1_0$48         _snd_manager
     00000B66  C$_snd_manager.c$40$1_0$48         _snd_manager
     00000B66  G$devkit_PSGSFXPlay$0$0            _snd_manager
     00000B66  _devkit_PSGSFXPlay                 _snd_manager
     00000B6A  A$_snd_manager$251                 _snd_manager
     00000B6C  A$_snd_manager$252                 _snd_manager
     00000B6F  A$_snd_manager$253                 _snd_manager
     00000B70  A$_snd_manager$254                 _snd_manager
     00000B71  A$_snd_manager$255                 _snd_manager
     00000B74  A$_snd_manager$256                 _snd_manager
     00000B77  A$_snd_manager$257                 _snd_manager
     00000B78  A$_snd_manager$258                 _snd_manager
     00000B7B  A$_snd_manager$259                 _snd_manager
     00000B7C  A$_snd_manager$260                 _snd_manager
     00000B7D  A$_snd_manager$268                 _snd_manager
     00000B7D  C$_snd_manager.c$41$1_0$48         _snd_manager
     00000B7D  XG$devkit_PSGSFXPlay$0$0           _snd_manager
     00000B7E  A$_snd_manager$281                 _snd_manager
     00000B7E  C$_snd_manager.c$42$1_0$50         _snd_manager
     00000B7E  C$_snd_manager.c$44$1_0$50         _snd_manager
ASxxxx Linker V03.00 + NoICE + sdld,  page 21.
Hexadecimal  [32-Bits]

Area                                    Addr        Size        Decimal Bytes (Attributes)
--------------------------------        ----        ----        ------- ----- ------------
_CODE                               00000200    0000636D =       25453. bytes (REL,CON)

      Value  Global                              Global Defined In Module
      -----  --------------------------------   ------------------------
     00000B7E  G$devkit_PSGSFXPlayLoop$0$0        _snd_manager
     00000B7E  _devkit_PSGSFXPlayLoop             _snd_manager
     00000B82  A$_snd_manager$282                 _snd_manager
     00000B84  A$_snd_manager$283                 _snd_manager
     00000B87  A$_snd_manager$284                 _snd_manager
     00000B88  A$_snd_manager$285                 _snd_manager
     00000B89  A$_snd_manager$286                 _snd_manager
     00000B8C  A$_snd_manager$287                 _snd_manager
     00000B8F  A$_snd_manager$288                 _snd_manager
     00000B90  A$_snd_manager$289                 _snd_manager
     00000B93  A$_snd_manager$290                 _snd_manager
     00000B94  A$_snd_manager$291                 _snd_manager
     00000B95  A$_snd_manager$299                 _snd_manager
     00000B95  C$_snd_manager.c$45$1_0$50         _snd_manager
     00000B95  XG$devkit_PSGSFXPlayLoop$0$0       _snd_manager
     00000B96  A$_snd_manager$319                 _snd_manager
     00000B96  C$_snd_manager.c$46$1_0$52         _snd_manager
     00000B96  C$_snd_manager.c$48$1_0$52         _snd_manager
     00000B96  C$_snd_manager.c$49$1_0$52         _snd_manager
     00000B96  G$devkit_PSGSFXCancelLoop$0$0      _snd_manager
     00000B96  XG$devkit_PSGSFXCancelLoop$0$0     _snd_manager
     00000B96  _devkit_PSGSFXCancelLoop           _snd_manager
     00000B99  A$_snd_manager$339                 _snd_manager
     00000B99  C$_snd_manager.c$50$1_0$54         _snd_manager
     00000B99  C$_snd_manager.c$52$1_0$54         _snd_manager
     00000B99  C$_snd_manager.c$53$1_0$54         _snd_manager
     00000B99  G$devkit_PSGSFXStop$0$0            _snd_manager
     00000B99  XG$devkit_PSGSFXStop$0$0           _snd_manager
     00000B99  _devkit_PSGSFXStop                 _snd_manager
     00000B9C  A$_snd_manager$359                 _snd_manager
     00000B9C  C$_snd_manager.c$54$1_0$56         _snd_manager
     00000B9C  C$_snd_manager.c$56$1_0$56         _snd_manager
     00000B9C  C$_snd_manager.c$57$1_0$56         _snd_manager
     00000B9C  G$devkit_PSGSFXGetStatus$0$0       _snd_manager
     00000B9C  XG$devkit_PSGSFXGetStatus$0$0      _snd_manager
     00000B9C  _devkit_PSGSFXGetStatus            _snd_manager
     00000B9F  A$_snd_manager$379                 _snd_manager
     00000B9F  C$_snd_manager.c$59$1_0$58         _snd_manager
     00000B9F  C$_snd_manager.c$61$1_0$58         _snd_manager
     00000B9F  C$_snd_manager.c$62$1_0$58         _snd_manager
     00000B9F  G$devkit_PSGSilenceChannels$0$0    _snd_manager
     00000B9F  XG$devkit_PSGSilenceChannels$0$0   _snd_manager
     00000B9F  _devkit_PSGSilenceChannels         _snd_manager
     00000BA2  A$_snd_manager$399                 _snd_manager
     00000BA2  C$_snd_manager.c$63$1_0$60         _snd_manager
     00000BA2  C$_snd_manager.c$65$1_0$60         _snd_manager
     00000BA2  C$_snd_manager.c$66$1_0$60         _snd_manager
     00000BA2  G$devkit_PSGRestoreVolumes$0$0     _snd_manager
     00000BA2  XG$devkit_PSGRestoreVolumes$0$0    _snd_manager
     00000BA2  _devkit_PSGRestoreVolumes          _snd_manager
     00000BA5  A$_snd_manager$419                 _snd_manager
ASxxxx Linker V03.00 + NoICE + sdld,  page 22.
Hexadecimal  [32-Bits]

Area                                    Addr        Size        Decimal Bytes (Attributes)
--------------------------------        ----        ----        ------- ----- ------------
_CODE                               00000200    0000636D =       25453. bytes (REL,CON)

      Value  Global                              Global Defined In Module
      -----  --------------------------------   ------------------------
     00000BA5  C$_snd_manager.c$68$1_0$62         _snd_manager
     00000BA5  C$_snd_manager.c$70$1_0$62         _snd_manager
     00000BA5  C$_snd_manager.c$71$1_0$62         _snd_manager
     00000BA5  G$devkit_PSGFrame$0$0              _snd_manager
     00000BA5  XG$devkit_PSGFrame$0$0             _snd_manager
     00000BA5  _devkit_PSGFrame                   _snd_manager
     00000BA8  A$_snd_manager$439                 _snd_manager
     00000BA8  C$_snd_manager.c$72$1_0$64         _snd_manager
     00000BA8  C$_snd_manager.c$74$1_0$64         _snd_manager
     00000BA8  C$_snd_manager.c$75$1_0$64         _snd_manager
     00000BA8  G$devkit_PSGSFXFrame$0$0           _snd_manager
     00000BA8  XG$devkit_PSGSFXFrame$0$0          _snd_manager
     00000BA8  _devkit_PSGSFXFrame                _snd_manager
     00000BAB  A$_snd_manager$452                 _snd_manager
     00000BAB  C$_snd_manager.c$78$1_0$65         _snd_manager
     00000BAB  C$_snd_manager.c$80$1_0$65         _snd_manager
     00000BAB  G$devkit_SFX_CHANNEL2$0$0          _snd_manager
     00000BAB  _devkit_SFX_CHANNEL2               _snd_manager
     00000BAD  A$_snd_manager$460                 _snd_manager
     00000BAD  C$_snd_manager.c$81$1_0$65         _snd_manager
     00000BAD  XG$devkit_SFX_CHANNEL2$0$0         _snd_manager
     00000BAE  A$_snd_manager$473                 _snd_manager
     00000BAE  C$_snd_manager.c$82$1_0$66         _snd_manager
     00000BAE  C$_snd_manager.c$84$1_0$66         _snd_manager
     00000BAE  G$devkit_SFX_CHANNEL3$0$0          _snd_manager
     00000BAE  _devkit_SFX_CHANNEL3               _snd_manager
     00000BB0  A$_snd_manager$481                 _snd_manager
     00000BB0  C$_snd_manager.c$85$1_0$66         _snd_manager
     00000BB0  XG$devkit_SFX_CHANNEL3$0$0         _snd_manager
     00000BB1  A$_snd_manager$494                 _snd_manager
     00000BB1  C$_snd_manager.c$86$1_0$67         _snd_manager
     00000BB1  C$_snd_manager.c$88$1_0$67         _snd_manager
     00000BB1  G$devkit_SFX_CHANNELS2AND3$0$0     _snd_manager
     00000BB1  _devkit_SFX_CHANNELS2AND3          _snd_manager
     00000BB3  A$_snd_manager$502                 _snd_manager
     00000BB3  C$_snd_manager.c$89$1_0$67         _snd_manager
     00000BB3  XG$devkit_SFX_CHANNELS2AND3$0$0    _snd_manager
     00000BB4  Fglobal_manager$__str_0$0_0$0      global_manager
     00000BB7  Fglobal_manager$__str_1$0_0$0      global_manager
     00000BBA  Fglobal_manager$__str_2$0_0$0      global_manager
     00000BBD  Fglobal_manager$__str_3$0_0$0      global_manager
     00000BC0  Fglobal_manager$__str_4$0_0$0      global_manager
     00000BC3  Fglobal_manager$__str_5$0_0$0      global_manager
     00000BC6  Fglobal_manager$__str_6$0_0$0      global_manager
     00000BC9  Fglobal_manager$__str_7$0_0$0      global_manager
     00000BCC  Fglobal_manager$__str_8$0_0$0      global_manager
     00000BCF  Fglobal_manager$__str_9$0_0$0      global_manager
     00000BD2  Fglobal_manager$__str_10$0_0$0     global_manager
     00000BD4  Fglobal_manager$__str_11$0_0$0     global_manager
     00000BD6  Fglobal_manager$__str_12$0_0$0     global_manager
     00000BD8  Fglobal_manager$__str_13$0_0$0     global_manager
ASxxxx Linker V03.00 + NoICE + sdld,  page 23.
Hexadecimal  [32-Bits]

Area                                    Addr        Size        Decimal Bytes (Attributes)
--------------------------------        ----        ----        ------- ----- ------------
_CODE                               00000200    0000636D =       25453. bytes (REL,CON)

      Value  Global                              Global Defined In Module
      -----  --------------------------------   ------------------------
     00000BDA  Fglobal_manager$__str_14$0_0$0     global_manager
     00000BDC  Fglobal_manager$__str_15$0_0$0     global_manager
     00000BDE  Fglobal_manager$__str_16$0_0$0     global_manager
     00000BE0  Fglobal_manager$__str_17$0_0$0     global_manager
     00000BE2  Fglobal_manager$__str_18$0_0$0     global_manager
     00000BE4  Fglobal_manager$__str_19$0_0$0     global_manager
     00000BE6  A$debug_manager$56                 debug_manager
     00000BE6  C$debug_manager.c$5$0_0$9          debug_manager
     00000BE6  G$engine_debug_manager_draw_grid   debug_manager
     00000BE6  _engine_debug_manager_draw_grid    debug_manager
     00000BE8  A$debug_manager$61                 debug_manager
     00000BEA  A$debug_manager$66                 debug_manager
     00000BEA  C$debug_manager.c$12$5_0$12        debug_manager
     00000BEB  A$debug_manager$67                 debug_manager
     00000BEC  A$debug_manager$68                 debug_manager
     00000BED  A$debug_manager$69                 debug_manager
     00000BEE  A$debug_manager$70                 debug_manager
     00000BF0  A$debug_manager$71                 debug_manager
     00000BF1  A$debug_manager$72                 debug_manager
     00000BF4  A$debug_manager$73                 debug_manager
     00000BF5  A$debug_manager$74                 debug_manager
     00000BF6  A$debug_manager$75                 debug_manager
     00000BF7  A$debug_manager$79                 debug_manager
     00000BF7  C$debug_manager.c$10$4_0$11        debug_manager
     00000BF8  A$debug_manager$80                 debug_manager
     00000BF9  A$debug_manager$81                 debug_manager
     00000BFA  A$debug_manager$82                 debug_manager
     00000BFC  A$debug_manager$83                 debug_manager
     00000BFE  A$debug_manager$87                 debug_manager
     00000BFE  C$debug_manager.c$8$2_0$9          debug_manager
     00000BFF  A$debug_manager$88                 debug_manager
     00000C00  A$debug_manager$89                 debug_manager
     00000C01  A$debug_manager$90                 debug_manager
     00000C03  A$debug_manager$91                 debug_manager
     00000C05  A$debug_manager$99                 debug_manager
     00000C05  C$debug_manager.c$15$2_0$9         debug_manager
     00000C05  XG$engine_debug_manager_draw_gri   debug_manager
     00000C06  A$hack_manager$63                  hack_manager
     00000C06  C$hack_manager.c$13$0_0$1          hack_manager
     00000C06  C$hack_manager.c$15$1_0$1          hack_manager
     00000C06  C$hack_manager.c$17$1_0$1          hack_manager
     00000C06  G$engine_hack_manager_init$0$0     hack_manager
     00000C06  _engine_hack_manager_init          hack_manager
     00000C09  A$hack_manager$64                  hack_manager
     00000C0B  A$hack_manager$68                  hack_manager
     00000C0B  C$hack_manager.c$19$1_0$1          hack_manager
     00000C0E  A$hack_manager$69                  hack_manager
     00000C10  A$hack_manager$73                  hack_manager
     00000C10  C$hack_manager.c$20$1_0$1          hack_manager
     00000C13  A$hack_manager$74                  hack_manager
     00000C15  A$hack_manager$78                  hack_manager
ASxxxx Linker V03.00 + NoICE + sdld,  page 24.
Hexadecimal  [32-Bits]

Area                                    Addr        Size        Decimal Bytes (Attributes)
--------------------------------        ----        ----        ------- ----- ------------
_CODE                               00000200    0000636D =       25453. bytes (REL,CON)

      Value  Global                              Global Defined In Module
      -----  --------------------------------   ------------------------
     00000C15  C$hack_manager.c$21$1_0$1          hack_manager
     00000C18  A$hack_manager$79                  hack_manager
     00000C1A  A$hack_manager$83                  hack_manager
     00000C1A  C$hack_manager.c$22$1_0$1          hack_manager
     00000C1D  A$hack_manager$84                  hack_manager
     00000C1F  A$hack_manager$88                  hack_manager
     00000C1F  C$hack_manager.c$23$1_0$1          hack_manager
     00000C22  A$hack_manager$89                  hack_manager
     00000C24  A$hack_manager$93                  hack_manager
     00000C24  C$hack_manager.c$24$1_0$1          hack_manager
     00000C27  A$hack_manager$94                  hack_manager
     00000C29  A$hack_manager$98                  hack_manager
     00000C29  C$hack_manager.c$25$1_0$1          hack_manager
     00000C2C  A$hack_manager$99                  hack_manager
     00000C2D  A$hack_manager$100                 hack_manager
     00000C2E  A$hack_manager$104                 hack_manager
     00000C2E  C$hack_manager.c$26$1_0$1          hack_manager
     00000C31  A$hack_manager$105                 hack_manager
     00000C32  A$hack_manager$106                 hack_manager
     00000C33  A$hack_manager$110                 hack_manager
     00000C33  C$hack_manager.c$30$1_0$1          hack_manager
     00000C36  A$hack_manager$111                 hack_manager
     00000C39  A$hack_manager$115                 hack_manager
     00000C39  C$hack_manager.c$31$1_0$1          hack_manager
     00000C3C  A$hack_manager$116                 hack_manager
     00000C3F  A$hack_manager$120                 hack_manager
     00000C3F  C$hack_manager.c$32$1_0$1          hack_manager
     00000C42  A$hack_manager$121                 hack_manager
     00000C45  A$hack_manager$125                 hack_manager
     00000C45  C$hack_manager.c$33$1_0$1          hack_manager
     00000C48  A$hack_manager$126                 hack_manager
     00000C4B  A$hack_manager$130                 hack_manager
     00000C4B  C$hack_manager.c$34$1_0$1          hack_manager
     00000C4E  A$hack_manager$131                 hack_manager
     00000C51  A$hack_manager$135                 hack_manager
     00000C51  C$hack_manager.c$35$1_0$1          hack_manager
     00000C54  A$hack_manager$136                 hack_manager
     00000C57  A$hack_manager$140                 hack_manager
     00000C57  C$hack_manager.c$36$1_0$1          hack_manager
     00000C5A  A$hack_manager$141                 hack_manager
     00000C5D  A$hack_manager$145                 hack_manager
     00000C5D  C$hack_manager.c$37$1_0$1          hack_manager
     00000C60  A$hack_manager$146                 hack_manager
     00000C61  A$hack_manager$150                 hack_manager
     00000C61  C$hack_manager.c$38$1_0$1          hack_manager
     00000C64  A$hack_manager$151                 hack_manager
     00000C65  A$hack_manager$152                 hack_manager
     00000C66  A$hack_manager$160                 hack_manager
     00000C66  C$hack_manager.c$42$1_0$1          hack_manager
     00000C66  XG$engine_hack_manager_init$0$0    hack_manager
     00000C67  A$hack_manager$176                 hack_manager
ASxxxx Linker V03.00 + NoICE + sdld,  page 25.
Hexadecimal  [32-Bits]

Area                                    Addr        Size        Decimal Bytes (Attributes)
--------------------------------        ----        ----        ------- ----- ------------
_CODE                               00000200    0000636D =       25453. bytes (REL,CON)

      Value  Global                              Global Defined In Module
      -----  --------------------------------   ------------------------
     00000C67  C$hack_manager.c$44$1_0$2          hack_manager
     00000C67  C$hack_manager.c$46$1_0$2          hack_manager
     00000C67  C$hack_manager.c$47$1_0$2          hack_manager
     00000C67  G$engine_hack_manager_invert$0$0   hack_manager
     00000C67  _engine_hack_manager_invert        hack_manager
     00000C6A  A$hack_manager$177                 hack_manager
     00000C6C  A$hack_manager$178                 hack_manager
     00000C6E  A$hack_manager$179                 hack_manager
     00000C6F  A$hack_manager$180                 hack_manager
     00000C72  A$hack_manager$181                 hack_manager
     00000C73  A$hack_manager$185                 hack_manager
     00000C73  C$hack_manager.c$50$1_0$2          hack_manager
     00000C74  A$hack_manager$186                 hack_manager
     00000C75  A$hack_manager$187                 hack_manager
     00000C76  A$hack_manager$188                 hack_manager
     00000C78  A$hack_manager$189                 hack_manager
     00000C79  A$hack_manager$190                 hack_manager
     00000C7B  A$hack_manager$194                 hack_manager
     00000C7B  C$hack_manager.c$52$2_0$3          hack_manager
     00000C7D  A$hack_manager$199                 hack_manager
     00000C7D  C$hack_manager.c$56$1_0$2          hack_manager
     00000C80  A$hack_manager$200                 hack_manager
     00000C81  A$hack_manager$201                 hack_manager
     00000C82  A$hack_manager$202                 hack_manager
     00000C84  A$hack_manager$203                 hack_manager
     00000C85  A$hack_manager$204                 hack_manager
     00000C87  A$hack_manager$208                 hack_manager
     00000C87  C$hack_manager.c$58$2_0$4          hack_manager
     00000C88  A$hack_manager$209                 hack_manager
     00000C89  A$hack_manager$214                 hack_manager
     00000C89  C$hack_manager.c$62$1_0$2          hack_manager
     00000C8C  A$hack_manager$215                 hack_manager
     00000C8D  A$hack_manager$216                 hack_manager
     00000C8E  A$hack_manager$217                 hack_manager
     00000C8F  A$hack_manager$218                 hack_manager
     00000C91  A$hack_manager$222                 hack_manager
     00000C91  C$hack_manager.c$64$2_0$5          hack_manager
     00000C93  A$hack_manager$223                 hack_manager
     00000C94  A$hack_manager$224                 hack_manager
     00000C96  A$hack_manager$228                 hack_manager
     00000C96  C$hack_manager.c$66$3_0$6          hack_manager
     00000C98  A$hack_manager$233                 hack_manager
     00000C98  C$hack_manager.c$70$2_0$5          hack_manager
     00000C99  A$hack_manager$234                 hack_manager
     00000C9A  A$hack_manager$235                 hack_manager
     00000C9B  A$hack_manager$240                 hack_manager
     00000C9B  C$hack_manager.c$74$1_0$2          hack_manager
     00000C9E  A$hack_manager$241                 hack_manager
     00000C9F  A$hack_manager$242                 hack_manager
     00000CA0  A$hack_manager$243                 hack_manager
     00000CA1  A$hack_manager$244                 hack_manager
ASxxxx Linker V03.00 + NoICE + sdld,  page 26.
Hexadecimal  [32-Bits]

Area                                    Addr        Size        Decimal Bytes (Attributes)
--------------------------------        ----        ----        ------- ----- ------------
_CODE                               00000200    0000636D =       25453. bytes (REL,CON)

      Value  Global                              Global Defined In Module
      -----  --------------------------------   ------------------------
     00000CA3  A$hack_manager$248                 hack_manager
     00000CA3  C$hack_manager.c$76$2_0$7          hack_manager
     00000CA5  A$hack_manager$249                 hack_manager
     00000CA6  A$hack_manager$250                 hack_manager
     00000CA8  A$hack_manager$254                 hack_manager
     00000CA8  C$hack_manager.c$78$3_0$8          hack_manager
     00000CAA  A$hack_manager$259                 hack_manager
     00000CAA  C$hack_manager.c$82$2_0$7          hack_manager
     00000CAB  A$hack_manager$260                 hack_manager
     00000CAC  A$hack_manager$261                 hack_manager
     00000CAD  A$hack_manager$266                 hack_manager
     00000CAD  C$hack_manager.c$86$1_0$2          hack_manager
     00000CAE  A$hack_manager$267                 hack_manager
     00000CB0  A$hack_manager$268                 hack_manager
     00000CB2  A$hack_manager$269                 hack_manager
     00000CB3  A$hack_manager$270                 hack_manager
     00000CB4  A$hack_manager$274                 hack_manager
     00000CB4  C$hack_manager.c$87$1_0$2          hack_manager
     00000CB7  A$hack_manager$275                 hack_manager
     00000CB8  A$hack_manager$276                 hack_manager
     00000CBA  A$hack_manager$277                 hack_manager
     00000CBC  A$hack_manager$278                 hack_manager
     00000CBD  A$hack_manager$279                 hack_manager
     00000CBE  A$hack_manager$283                 hack_manager
     00000CBE  C$hack_manager.c$88$1_0$2          hack_manager
     00000CC1  A$hack_manager$284                 hack_manager
     00000CC2  A$hack_manager$285                 hack_manager
     00000CC4  A$hack_manager$286                 hack_manager
     00000CC6  A$hack_manager$287                 hack_manager
     00000CC7  A$hack_manager$288                 hack_manager
     00000CC8  A$hack_manager$292                 hack_manager
     00000CC8  C$hack_manager.c$89$1_0$2          hack_manager
     00000CCB  A$hack_manager$293                 hack_manager
     00000CCC  A$hack_manager$294                 hack_manager
     00000CCE  A$hack_manager$295                 hack_manager
     00000CD0  A$hack_manager$296                 hack_manager
     00000CD1  A$hack_manager$297                 hack_manager
     00000CD2  A$hack_manager$305                 hack_manager
     00000CD2  C$hack_manager.c$90$1_0$2          hack_manager
     00000CD2  XG$engine_hack_manager_invert$0$   hack_manager
     00000CD3  G$tutorialsize$0_0$0               level_object
     00000CD3  _tutorialsize                      level_object
     00000CDD  G$tutorialbank$0_0$0               level_object
     00000CDD  _tutorialbank                      level_object
     00000CE7  G$levelAAsize$0_0$0                level_object
     00000CE7  _levelAAsize                       level_object
     00000D0F  G$levelAAbank$0_0$0                level_object
     00000D0F  _levelAAbank                       level_object
     00000D37  G$levelBBsize$0_0$0                level_object
     00000D37  _levelBBsize                       level_object
     00000D5F  G$levelBBbank$0_0$0                level_object
ASxxxx Linker V03.00 + NoICE + sdld,  page 27.
Hexadecimal  [32-Bits]

Area                                    Addr        Size        Decimal Bytes (Attributes)
--------------------------------        ----        ----        ------- ----- ------------
_CODE                               00000200    0000636D =       25453. bytes (REL,CON)

      Value  Global                              Global Defined In Module
      -----  --------------------------------   ------------------------
     00000D5F  _levelBBbank                       level_object
     00000D87  G$player_anim_bank$0_0$0           anim_object
     00000D87  _player_anim_bank                  anim_object
     00000D91  G$enemyA_anim_bank$0_0$0           anim_object
     00000D91  _enemyA_anim_bank                  anim_object
     00000D92  G$enemyB_anim_bank$0_0$0           anim_object
     00000D92  _enemyB_anim_bank                  anim_object
     00000D93  G$enemyC_anim_bank$0_0$0           anim_object
     00000D93  _enemyC_anim_bank                  anim_object
     00000D94  G$enemyD_anim_bank$0_0$0           anim_object
     00000D94  _enemyD_anim_bank                  anim_object
     00000D95  G$game_audio_bank$0_0$0            audio_object
     00000D95  _game_audio_bank                   audio_object
     00000D98  G$title_audio_bank$0_0$0           audio_object
     00000D98  _title_audio_bank                  audio_object
     00000D99  G$beat_audio_bank$0_0$0            audio_object
     00000D99  _beat_audio_bank                   audio_object
     00000D9A  G$over_audio_bank$0_0$0            audio_object
     00000D9A  _over_audio_bank                   audio_object
     00000D9B  Fintro_object$__str_0$0_0$0        intro_object
     00000DAE  Fintro_object$__str_1$0_0$0        intro_object
     00000DC1  Fintro_object$__str_2$0_0$0        intro_object
     00000DD4  Fintro_object$__str_3$0_0$0        intro_object
     00000DE7  Fintro_object$__str_4$0_0$0        intro_object
     00000DFA  Fintro_object$__str_5$0_0$0        intro_object
     00000E0D  Fintro_object$__str_6$0_0$0        intro_object
     00000E20  Fintro_object$__str_7$0_0$0        intro_object
     00000E33  Fintro_object$__str_8$0_0$0        intro_object
     00000E46  Fintro_object$__str_9$0_0$0        intro_object
     00000E59  Fintro_object$__str_10$0_0$0       intro_object
     00000E6C  Fintro_object$__str_11$0_0$0       intro_object
     00000E7F  Fintro_object$__str_12$0_0$0       intro_object
     00000E92  Fintro_object$__str_13$0_0$0       intro_object
     00000EA5  Fintro_object$__str_14$0_0$0       intro_object
     00000EB8  Fintro_object$__str_15$0_0$0       intro_object
     00000ECB  Fintro_object$__str_16$0_0$0       intro_object
     00000EDE  Fintro_object$__str_17$0_0$0       intro_object
     00000EF1  Fintro_object$__str_18$0_0$0       intro_object
     00000F04  Fintro_object$__str_19$0_0$0       intro_object
     00000F18  Ftutorial_object$__str_0$0_0$0     tutorial_object
     00000F26  Ftutorial_object$__str_1$0_0$0     tutorial_object
     00000F2E  Ftutorial_object$__str_2$0_0$0     tutorial_object
     00000F3F  Ftutorial_object$__str_3$0_0$0     tutorial_object
     00000F4E  Ftutorial_object$__str_4$0_0$0     tutorial_object
     00000F5C  Ftutorial_object$__str_5$0_0$0     tutorial_object
     00000F6A  Ftutorial_object$__str_6$0_0$0     tutorial_object
     00000F78  Ftutorial_object$__str_7$0_0$0     tutorial_object
     00000F87  Ftutorial_object$__str_8$0_0$0     tutorial_object
     00000FA0  Ftutorial_object$__str_9$0_0$0     tutorial_object
     00000FBA  Ftutorial_object$__str_10$0_0$0    tutorial_object
     00000FCC  Ftutorial_object$__str_11$0_0$0    tutorial_object
ASxxxx Linker V03.00 + NoICE + sdld,  page 28.
Hexadecimal  [32-Bits]

Area                                    Addr        Size        Decimal Bytes (Attributes)
--------------------------------        ----        ----        ------- ----- ------------
_CODE                               00000200    0000636D =       25453. bytes (REL,CON)

      Value  Global                              Global Defined In Module
      -----  --------------------------------   ------------------------
     00000FD4  Ftutorial_object$__str_12$0_0$0    tutorial_object
     00000FD6  Ftutorial_object$__str_13$0_0$0    tutorial_object
     00000FEC  Ftutorial_object$__str_14$0_0$0    tutorial_object
     00001003  Ftutorial_object$__str_15$0_0$0    tutorial_object
     00001018  Ftutorial_object$__str_16$0_0$0    tutorial_object
     00001030  Ftutorial_object$__str_17$0_0$0    tutorial_object
     00001037  A$content_manager$64               content_manager
     00001037  C$content_manager.c$12$0_0$14      content_manager
     00001037  C$content_manager.c$15$1_0$14      content_manager
     00001037  G$engine_content_manager_load_ba   content_manager
     00001037  _engine_content_manager_load_bac   content_manager
     0000103A  A$content_manager$65               content_manager
     0000103B  A$content_manager$66               content_manager
     0000103E  A$content_manager$67               content_manager
     0000103F  A$content_manager$68               content_manager
     00001042  A$content_manager$69               content_manager
     00001043  A$content_manager$73               content_manager
     00001043  C$content_manager.c$16$1_0$14      content_manager
     00001046  A$content_manager$74               content_manager
     00001047  A$content_manager$75               content_manager
     0000104A  A$content_manager$76               content_manager
     0000104B  A$content_manager$84               content_manager
     0000104B  C$content_manager.c$17$1_0$14      content_manager
     0000104B  XG$engine_content_manager_load_b   content_manager
     0000104C  A$content_manager$97               content_manager
     0000104C  C$content_manager.c$19$1_0$15      content_manager
     0000104C  C$content_manager.c$22$1_0$15      content_manager
     0000104C  G$engine_content_manager_load_sp   content_manager
     0000104C  _engine_content_manager_load_spr   content_manager
     0000104E  A$content_manager$98               content_manager
     0000104F  A$content_manager$99               content_manager
     00001050  A$content_manager$100              content_manager
     00001053  A$content_manager$101              content_manager
     00001054  A$content_manager$105              content_manager
     00001054  C$content_manager.c$23$1_0$15      content_manager
     00001057  A$content_manager$106              content_manager
     00001058  A$content_manager$107              content_manager
     0000105B  A$content_manager$108              content_manager
     0000105C  A$content_manager$116              content_manager
     0000105C  C$content_manager.c$24$1_0$15      content_manager
     0000105C  XG$engine_content_manager_load_s   content_manager
     0000105D  A$content_manager$129              content_manager
     0000105D  C$content_manager.c$26$1_0$16      content_manager
     0000105D  C$content_manager.c$28$1_0$16      content_manager
     0000105D  G$engine_content_manager_load_sp   content_manager
     0000105D  _engine_content_manager_load_spl   content_manager
     0000105F  A$content_manager$130              content_manager
     00001060  A$content_manager$131              content_manager
     00001061  A$content_manager$132              content_manager
     00001064  A$content_manager$133              content_manager
     00001065  A$content_manager$137              content_manager
ASxxxx Linker V03.00 + NoICE + sdld,  page 29.
Hexadecimal  [32-Bits]

Area                                    Addr        Size        Decimal Bytes (Attributes)
--------------------------------        ----        ----        ------- ----- ------------
_CODE                               00000200    0000636D =       25453. bytes (REL,CON)

      Value  Global                              Global Defined In Module
      -----  --------------------------------   ------------------------
     00001065  C$content_manager.c$29$1_0$16      content_manager
     00001068  A$content_manager$138              content_manager
     00001069  A$content_manager$139              content_manager
     0000106C  A$content_manager$140              content_manager
     0000106D  A$content_manager$141              content_manager
     00001070  A$content_manager$142              content_manager
     00001071  A$content_manager$146              content_manager
     00001071  C$content_manager.c$30$1_0$16      content_manager
     00001074  A$content_manager$147              content_manager
     00001075  A$content_manager$148              content_manager
     00001076  A$content_manager$149              content_manager
     00001077  A$content_manager$150              content_manager
     00001078  A$content_manager$151              content_manager
     00001079  A$content_manager$152              content_manager
     0000107A  A$content_manager$153              content_manager
     0000107B  A$content_manager$154              content_manager
     0000107E  A$content_manager$155              content_manager
     0000107F  A$content_manager$156              content_manager
     00001080  A$content_manager$164              content_manager
     00001080  C$content_manager.c$31$1_0$16      content_manager
     00001080  XG$engine_content_manager_load_s   content_manager
     00001081  A$content_manager$177              content_manager
     00001081  C$content_manager.c$33$1_0$17      content_manager
     00001081  C$content_manager.c$40$1_0$17      content_manager
     00001081  G$engine_content_manager_load_ti   content_manager
     00001081  _engine_content_manager_load_tit   content_manager
     00001083  A$content_manager$178              content_manager
     00001084  A$content_manager$179              content_manager
     00001085  A$content_manager$180              content_manager
     00001088  A$content_manager$181              content_manager
     00001089  A$content_manager$185              content_manager
     00001089  C$content_manager.c$41$1_0$17      content_manager
     0000108C  A$content_manager$186              content_manager
     0000108D  A$content_manager$187              content_manager
     00001090  A$content_manager$188              content_manager
     00001091  A$content_manager$189              content_manager
     00001094  A$content_manager$190              content_manager
     00001095  A$content_manager$194              content_manager
     00001095  C$content_manager.c$42$1_0$17      content_manager
     00001098  A$content_manager$195              content_manager
     00001099  A$content_manager$196              content_manager
     0000109A  A$content_manager$197              content_manager
     0000109B  A$content_manager$198              content_manager
     0000109C  A$content_manager$199              content_manager
     0000109D  A$content_manager$200              content_manager
     0000109E  A$content_manager$201              content_manager
     0000109F  A$content_manager$202              content_manager
     000010A2  A$content_manager$203              content_manager
     000010A3  A$content_manager$204              content_manager
     000010A4  A$content_manager$212              content_manager
     000010A4  C$content_manager.c$43$1_0$17      content_manager
ASxxxx Linker V03.00 + NoICE + sdld,  page 30.
Hexadecimal  [32-Bits]

Area                                    Addr        Size        Decimal Bytes (Attributes)
--------------------------------        ----        ----        ------- ----- ------------
_CODE                               00000200    0000636D =       25453. bytes (REL,CON)

      Value  Global                              Global Defined In Module
      -----  --------------------------------   ------------------------
     000010A4  XG$engine_content_manager_load_t   content_manager
     000010A5  A$content_manager$225              content_manager
     000010A5  C$content_manager.c$45$1_0$18      content_manager
     000010A5  C$content_manager.c$48$1_0$18      content_manager
     000010A5  G$engine_content_manager_load_gu   content_manager
     000010A5  _engine_content_manager_load_gua   content_manager
     000010A7  A$content_manager$226              content_manager
     000010A8  A$content_manager$227              content_manager
     000010A9  A$content_manager$228              content_manager
     000010AC  A$content_manager$229              content_manager
     000010AD  A$content_manager$233              content_manager
     000010AD  C$content_manager.c$49$1_0$18      content_manager
     000010B0  A$content_manager$234              content_manager
     000010B1  A$content_manager$235              content_manager
     000010B4  A$content_manager$236              content_manager
     000010B5  A$content_manager$237              content_manager
     000010B8  A$content_manager$238              content_manager
     000010B9  A$content_manager$242              content_manager
     000010B9  C$content_manager.c$50$1_0$18      content_manager
     000010BC  A$content_manager$243              content_manager
     000010BD  A$content_manager$244              content_manager
     000010C0  A$content_manager$245              content_manager
     000010C1  A$content_manager$246              content_manager
     000010C4  A$content_manager$247              content_manager
     000010C5  A$content_manager$251              content_manager
     000010C5  C$content_manager.c$51$1_0$18      content_manager
     000010C8  A$content_manager$252              content_manager
     000010C9  A$content_manager$253              content_manager
     000010CC  A$content_manager$254              content_manager
     000010CD  A$content_manager$255              content_manager
     000010D0  A$content_manager$256              content_manager
     000010D1  A$content_manager$260              content_manager
     000010D1  C$content_manager.c$52$1_0$18      content_manager
     000010D4  A$content_manager$261              content_manager
     000010D5  A$content_manager$262              content_manager
     000010D8  A$content_manager$263              content_manager
     000010D9  A$content_manager$264              content_manager
     000010DC  A$content_manager$265              content_manager
     000010DD  A$content_manager$266              content_manager
     000010DE  A$content_manager$274              content_manager
     000010DE  C$content_manager.c$53$1_0$18      content_manager
     000010DE  XG$engine_content_manager_load_g   content_manager
     000010DF  A$font_manager$63                  font_manager
     000010DF  C$font_manager.c$10$0_0$19         font_manager
     000010DF  C$font_manager.c$12$2_0$19         font_manager
     000010DF  C$font_manager.c$13$1_0$19         font_manager
     000010DF  G$engine_font_manager_draw_char$   font_manager
     000010DF  _engine_font_manager_draw_char     font_manager
     000010E3  A$font_manager$64                  font_manager
     000010E5  A$font_manager$65                  font_manager
     000010E8  A$font_manager$66                  font_manager
ASxxxx Linker V03.00 + NoICE + sdld,  page 31.
Hexadecimal  [32-Bits]

Area                                    Addr        Size        Decimal Bytes (Attributes)
--------------------------------        ----        ----        ------- ----- ------------
_CODE                               00000200    0000636D =       25453. bytes (REL,CON)

      Value  Global                              Global Defined In Module
      -----  --------------------------------   ------------------------
     000010EA  A$font_manager$67                  font_manager
     000010EB  A$font_manager$71                  font_manager
     000010EB  C$font_manager.c$14$1_0$19         font_manager
     000010EC  A$font_manager$72                  font_manager
     000010EF  A$font_manager$73                  font_manager
     000010F1  A$font_manager$74                  font_manager
     000010F3  A$font_manager$75                  font_manager
     000010F4  A$font_manager$76                  font_manager
     000010F5  A$font_manager$77                  font_manager
     000010F8  A$font_manager$78                  font_manager
     000010F9  A$font_manager$79                  font_manager
     000010FA  A$font_manager$80                  font_manager
     000010FD  A$font_manager$81                  font_manager
     000010FE  A$font_manager$82                  font_manager
     000010FF  A$font_manager$86                  font_manager
     000010FF  C$font_manager.c$15$1_0$19         font_manager
     00001102  A$font_manager$87                  font_manager
     00001103  A$font_manager$88                  font_manager
     00001104  A$font_manager$89                  font_manager
     00001105  A$font_manager$90                  font_manager
     00001108  A$font_manager$91                  font_manager
     00001109  A$font_manager$99                  font_manager
     00001109  C$font_manager.c$16$1_0$19         font_manager
     00001109  XG$engine_font_manager_draw_char   font_manager
     0000110A  A$font_manager$109                 font_manager
     0000110A  C$font_manager.c$18$1_0$21         font_manager
     0000110A  G$engine_font_manager_draw_text$   font_manager
     0000110A  _engine_font_manager_draw_text     font_manager
     0000110C  A$font_manager$110                 font_manager
     00001110  A$font_manager$111                 font_manager
     00001112  A$font_manager$112                 font_manager
     00001113  A$font_manager$119                 font_manager
     00001113  C$font_manager.c$20$2_0$21         font_manager
     00001113  C$font_manager.c$23$1_0$21         font_manager
     00001116  A$font_manager$120                 font_manager
     00001118  A$font_manager$122                 font_manager
     0000111B  A$font_manager$123                 font_manager
     0000111E  A$font_manager$124                 font_manager
     00001120  A$font_manager$125                 font_manager
     00001121  A$font_manager$126                 font_manager
     00001122  A$font_manager$127                 font_manager
     00001123  A$font_manager$128                 font_manager
     00001125  A$font_manager$132                 font_manager
     00001125  C$font_manager.c$25$2_0$22         font_manager
     00001127  A$font_manager$133                 font_manager
     0000112A  A$font_manager$137                 font_manager
     0000112A  C$font_manager.c$26$2_0$22         font_manager
     0000112B  A$font_manager$138                 font_manager
     0000112C  A$font_manager$139                 font_manager
     0000112F  A$font_manager$140                 font_manager
     00001130  A$font_manager$141                 font_manager
ASxxxx Linker V03.00 + NoICE + sdld,  page 32.
Hexadecimal  [32-Bits]

Area                                    Addr        Size        Decimal Bytes (Attributes)
--------------------------------        ----        ----        ------- ----- ------------
_CODE                               00000200    0000636D =       25453. bytes (REL,CON)

      Value  Global                              Global Defined In Module
      -----  --------------------------------   ------------------------
     00001131  A$font_manager$142                 font_manager
     00001134  A$font_manager$143                 font_manager
     00001135  A$font_manager$144                 font_manager
     00001136  A$font_manager$145                 font_manager
     00001137  A$font_manager$146                 font_manager
     00001138  A$font_manager$147                 font_manager
     0000113B  A$font_manager$148                 font_manager
     0000113C  A$font_manager$149                 font_manager
     0000113D  A$font_manager$150                 font_manager
     0000113E  A$font_manager$154                 font_manager
     0000113E  C$font_manager.c$27$2_0$22         font_manager
     00001141  A$font_manager$155                 font_manager
     00001144  A$font_manager$156                 font_manager
     00001145  A$font_manager$157                 font_manager
     00001146  A$font_manager$158                 font_manager
     00001147  A$font_manager$159                 font_manager
     00001148  A$font_manager$160                 font_manager
     0000114B  A$font_manager$161                 font_manager
     0000114C  A$font_manager$162                 font_manager
     0000114D  A$font_manager$163                 font_manager
     0000114E  A$font_manager$167                 font_manager
     0000114E  C$font_manager.c$28$2_0$22         font_manager
     0000114F  A$font_manager$168                 font_manager
     00001151  A$font_manager$173                 font_manager
     00001152  A$font_manager$174                 font_manager
     00001154  A$font_manager$179                 font_manager
     00001154  C$font_manager.c$30$1_0$21         font_manager
     00001154  XG$engine_font_manager_draw_text   font_manager
     00001155  A$font_manager$189                 font_manager
     00001155  C$font_manager.c$32$1_0$25         font_manager
     00001155  G$engine_font_manager_draw_data$   font_manager
     00001155  _engine_font_manager_draw_data     font_manager
     00001157  A$font_manager$190                 font_manager
     0000115B  A$font_manager$191                 font_manager
     0000115D  A$font_manager$192                 font_manager
     00001160  A$font_manager$193                 font_manager
     00001161  A$font_manager$194                 font_manager
     00001162  A$font_manager$201                 font_manager
     00001162  C$font_manager.c$34$2_0$25         font_manager
     00001162  C$font_manager.c$43$3_0$26         font_manager
     00001165  A$font_manager$202                 font_manager
     00001166  A$font_manager$203                 font_manager
     00001167  A$font_manager$204                 font_manager
     00001168  A$font_manager$205                 font_manager
     0000116B  A$font_manager$206                 font_manager
     0000116E  A$font_manager$207                 font_manager
     00001172  A$font_manager$212                 font_manager
     00001172  C$font_manager.c$45$2_0$25         font_manager
     00001173  A$font_manager$213                 font_manager
     00001176  A$font_manager$214                 font_manager
     00001177  A$font_manager$215                 font_manager
ASxxxx Linker V03.00 + NoICE + sdld,  page 33.
Hexadecimal  [32-Bits]

Area                                    Addr        Size        Decimal Bytes (Attributes)
--------------------------------        ----        ----        ------- ----- ------------
_CODE                               00000200    0000636D =       25453. bytes (REL,CON)

      Value  Global                              Global Defined In Module
      -----  --------------------------------   ------------------------
     0000117A  A$font_manager$216                 font_manager
     0000117D  A$font_manager$217                 font_manager
     0000117E  A$font_manager$218                 font_manager
     00001181  A$font_manager$219                 font_manager
     00001182  A$font_manager$220                 font_manager
     00001183  A$font_manager$221                 font_manager
     00001184  A$font_manager$222                 font_manager
     00001185  A$font_manager$223                 font_manager
     00001188  A$font_manager$224                 font_manager
     0000118B  A$font_manager$228                 font_manager
     0000118B  C$font_manager.c$46$2_0$25         font_manager
     0000118C  A$font_manager$229                 font_manager
     0000118D  A$font_manager$230                 font_manager
     00001190  A$font_manager$231                 font_manager
     00001191  A$font_manager$232                 font_manager
     00001194  A$font_manager$233                 font_manager
     00001197  A$font_manager$234                 font_manager
     00001198  A$font_manager$235                 font_manager
     0000119B  A$font_manager$236                 font_manager
     0000119C  A$font_manager$237                 font_manager
     0000119D  A$font_manager$238                 font_manager
     0000119E  A$font_manager$239                 font_manager
     0000119F  A$font_manager$240                 font_manager
     000011A2  A$font_manager$244                 font_manager
     000011A2  C$font_manager.c$48$3_0$26         font_manager
     000011A5  A$font_manager$245                 font_manager
     000011A7  A$font_manager$246                 font_manager
     000011A8  A$font_manager$247                 font_manager
     000011AB  A$font_manager$248                 font_manager
     000011AC  A$font_manager$252                 font_manager
     000011AC  C$font_manager.c$49$3_0$26         font_manager
     000011AF  A$font_manager$253                 font_manager
     000011B2  A$font_manager$257                 font_manager
     000011B2  C$font_manager.c$51$3_0$26         font_manager
     000011B5  A$font_manager$258                 font_manager
     000011B7  A$font_manager$259                 font_manager
     000011B8  A$font_manager$263                 font_manager
     000011B8  C$font_manager.c$52$3_0$26         font_manager
     000011BB  A$font_manager$264                 font_manager
     000011BE  A$font_manager$265                 font_manager
     000011C0  A$font_manager$266                 font_manager
     000011C3  A$font_manager$267                 font_manager
     000011C4  A$font_manager$268                 font_manager
     000011C6  A$font_manager$269                 font_manager
     000011C9  A$font_manager$270                 font_manager
     000011CA  A$font_manager$271                 font_manager
     000011CC  A$font_manager$275                 font_manager
     000011CC  C$font_manager.c$55$4_0$27         font_manager
     000011CE  A$font_manager$280                 font_manager
     000011CE  C$font_manager.c$58$3_0$26         font_manager
     000011D1  A$font_manager$281                 font_manager
ASxxxx Linker V03.00 + NoICE + sdld,  page 34.
Hexadecimal  [32-Bits]

Area                                    Addr        Size        Decimal Bytes (Attributes)
--------------------------------        ----        ----        ------- ----- ------------
_CODE                               00000200    0000636D =       25453. bytes (REL,CON)

      Value  Global                              Global Defined In Module
      -----  --------------------------------   ------------------------
     000011D4  A$font_manager$282                 font_manager
     000011D7  A$font_manager$283                 font_manager
     000011DA  A$font_manager$284                 font_manager
     000011DB  A$font_manager$285                 font_manager
     000011DC  A$font_manager$286                 font_manager
     000011DF  A$font_manager$287                 font_manager
     000011E0  A$font_manager$288                 font_manager
     000011E1  A$font_manager$289                 font_manager
     000011E2  A$font_manager$290                 font_manager
     000011E3  A$font_manager$291                 font_manager
     000011E6  A$font_manager$292                 font_manager
     000011E7  A$font_manager$293                 font_manager
     000011E8  A$font_manager$294                 font_manager
     000011E9  A$font_manager$298                 font_manager
     000011E9  C$font_manager.c$59$3_0$26         font_manager
     000011EC  A$font_manager$299                 font_manager
     000011ED  A$font_manager$300                 font_manager
     000011EE  A$font_manager$301                 font_manager
     000011EF  A$font_manager$302                 font_manager
     000011F0  A$font_manager$303                 font_manager
     000011F3  A$font_manager$304                 font_manager
     000011F4  A$font_manager$305                 font_manager
     000011F5  A$font_manager$309                 font_manager
     000011F5  C$font_manager.c$43$2_0$25         font_manager
     000011F8  A$font_manager$310                 font_manager
     000011FB  A$font_manager$311                 font_manager
     000011FD  A$font_manager$312                 font_manager
     00001200  A$font_manager$316                 font_manager
     00001202  A$font_manager$317                 font_manager
     00001204  A$font_manager$322                 font_manager
     00001204  C$font_manager.c$61$2_0$25         font_manager
     00001204  XG$engine_font_manager_draw_data   font_manager
     00001205  A$font_manager$332                 font_manager
     00001205  C$font_manager.c$63$2_0$30         font_manager
     00001205  G$engine_font_manager_draw_data_   font_manager
     00001205  _engine_font_manager_draw_data_Z   font_manager
     00001207  A$font_manager$333                 font_manager
     0000120B  A$font_manager$334                 font_manager
     0000120D  A$font_manager$335                 font_manager
     00001210  A$font_manager$336                 font_manager
     00001211  A$font_manager$337                 font_manager
     00001212  A$font_manager$344                 font_manager
     00001212  C$font_manager.c$65$2_0$30         font_manager
     00001212  C$font_manager.c$72$3_0$31         font_manager
     00001215  A$font_manager$345                 font_manager
     00001216  A$font_manager$346                 font_manager
     00001219  A$font_manager$347                 font_manager
     0000121C  A$font_manager$348                 font_manager
     0000121F  A$font_manager$349                 font_manager
     00001222  A$font_manager$350                 font_manager
     00001224  A$font_manager$355                 font_manager
ASxxxx Linker V03.00 + NoICE + sdld,  page 35.
Hexadecimal  [32-Bits]

Area                                    Addr        Size        Decimal Bytes (Attributes)
--------------------------------        ----        ----        ------- ----- ------------
_CODE                               00000200    0000636D =       25453. bytes (REL,CON)

      Value  Global                              Global Defined In Module
      -----  --------------------------------   ------------------------
     00001224  C$font_manager.c$74$3_0$31         font_manager
     00001227  A$font_manager$356                 font_manager
     0000122A  A$font_manager$357                 font_manager
     0000122C  A$font_manager$358                 font_manager
     0000122D  A$font_manager$359                 font_manager
     0000122E  A$font_manager$360                 font_manager
     0000122F  A$font_manager$361                 font_manager
     00001232  A$font_manager$362                 font_manager
     00001233  A$font_manager$363                 font_manager
     00001236  A$font_manager$364                 font_manager
     00001239  A$font_manager$365                 font_manager
     0000123A  A$font_manager$366                 font_manager
     0000123D  A$font_manager$367                 font_manager
     0000123E  A$font_manager$368                 font_manager
     0000123F  A$font_manager$369                 font_manager
     00001240  A$font_manager$370                 font_manager
     00001241  A$font_manager$371                 font_manager
     00001242  A$font_manager$372                 font_manager
     00001243  A$font_manager$373                 font_manager
     00001244  A$font_manager$377                 font_manager
     00001244  C$font_manager.c$75$2_0$30         font_manager
     00001245  A$font_manager$378                 font_manager
     00001248  A$font_manager$379                 font_manager
     00001249  A$font_manager$380                 font_manager
     0000124C  A$font_manager$381                 font_manager
     0000124F  A$font_manager$382                 font_manager
     00001250  A$font_manager$383                 font_manager
     00001253  A$font_manager$384                 font_manager
     00001254  A$font_manager$385                 font_manager
     00001255  A$font_manager$386                 font_manager
     00001256  A$font_manager$387                 font_manager
     00001259  A$font_manager$388                 font_manager
     0000125C  A$font_manager$392                 font_manager
     0000125C  C$font_manager.c$77$3_0$31         font_manager
     0000125D  A$font_manager$393                 font_manager
     0000125F  A$font_manager$394                 font_manager
     00001260  A$font_manager$398                 font_manager
     00001260  C$font_manager.c$79$3_0$31         font_manager
     00001263  A$font_manager$399                 font_manager
     00001266  A$font_manager$400                 font_manager
     00001269  A$font_manager$401                 font_manager
     0000126C  A$font_manager$402                 font_manager
     0000126D  A$font_manager$403                 font_manager
     00001270  A$font_manager$404                 font_manager
     00001271  A$font_manager$405                 font_manager
     00001272  A$font_manager$406                 font_manager
     00001273  A$font_manager$407                 font_manager
     00001274  A$font_manager$408                 font_manager
     00001277  A$font_manager$409                 font_manager
     00001278  A$font_manager$410                 font_manager
     00001279  A$font_manager$414                 font_manager
ASxxxx Linker V03.00 + NoICE + sdld,  page 36.
Hexadecimal  [32-Bits]

Area                                    Addr        Size        Decimal Bytes (Attributes)
--------------------------------        ----        ----        ------- ----- ------------
_CODE                               00000200    0000636D =       25453. bytes (REL,CON)

      Value  Global                              Global Defined In Module
      -----  --------------------------------   ------------------------
     00001279  C$font_manager.c$80$3_0$31         font_manager
     0000127C  A$font_manager$415                 font_manager
     0000127D  A$font_manager$416                 font_manager
     0000127E  A$font_manager$417                 font_manager
     0000127F  A$font_manager$418                 font_manager
     00001280  A$font_manager$419                 font_manager
     00001283  A$font_manager$420                 font_manager
     00001284  A$font_manager$421                 font_manager
     00001285  A$font_manager$425                 font_manager
     00001285  C$font_manager.c$72$2_0$30         font_manager
     00001286  A$font_manager$426                 font_manager
     00001287  A$font_manager$427                 font_manager
     00001289  A$font_manager$428                 font_manager
     0000128B  A$font_manager$432                 font_manager
     0000128D  A$font_manager$433                 font_manager
     0000128F  A$font_manager$438                 font_manager
     0000128F  C$font_manager.c$82$2_0$30         font_manager
     0000128F  XG$engine_font_manager_draw_data   font_manager
     00001290  A$text_manager$61                  text_manager
     00001290  C$text_manager.c$10$0_0$7          text_manager
     00001290  C$text_manager.c$13$3_0$8          text_manager
     00001290  G$engine_text_manager_clear_all$   text_manager
     00001290  _engine_text_manager_clear_all     text_manager
     00001292  A$text_manager$66                  text_manager
     00001292  C$text_manager.c$15$3_0$8          text_manager
     00001293  A$text_manager$67                  text_manager
     00001294  A$text_manager$68                  text_manager
     00001295  A$text_manager$69                  text_manager
     00001296  A$text_manager$70                  text_manager
     00001297  A$text_manager$71                  text_manager
     00001298  A$text_manager$72                  text_manager
     0000129B  A$text_manager$73                  text_manager
     0000129C  A$text_manager$74                  text_manager
     0000129F  A$text_manager$75                  text_manager
     000012A0  A$text_manager$76                  text_manager
     000012A1  A$text_manager$77                  text_manager
     000012A2  A$text_manager$81                  text_manager
     000012A2  C$text_manager.c$13$2_0$7          text_manager
     000012A3  A$text_manager$82                  text_manager
     000012A4  A$text_manager$83                  text_manager
     000012A6  A$text_manager$84                  text_manager
     000012A8  A$text_manager$92                  text_manager
     000012A8  C$text_manager.c$17$2_0$7          text_manager
     000012A8  XG$engine_text_manager_clear_all   text_manager
     000012A9  Ftext_manager$__str_0$0_0$0        text_manager
     000012CA  A$text_manager$109                 text_manager
     000012CA  C$text_manager.c$18$2_0$10         text_manager
     000012CA  C$text_manager.c$23$3_0$11         text_manager
     000012CA  G$engine_text_manager_clear_thre   text_manager
     000012CA  _engine_text_manager_clear_three   text_manager
     000012CC  A$text_manager$114                 text_manager
ASxxxx Linker V03.00 + NoICE + sdld,  page 37.
Hexadecimal  [32-Bits]

Area                                    Addr        Size        Decimal Bytes (Attributes)
--------------------------------        ----        ----        ------- ----- ------------
_CODE                               00000200    0000636D =       25453. bytes (REL,CON)

      Value  Global                              Global Defined In Module
      -----  --------------------------------   ------------------------
     000012CC  C$text_manager.c$25$3_0$11         text_manager
     000012CD  A$text_manager$115                 text_manager
     000012CF  A$text_manager$116                 text_manager
     000012D0  A$text_manager$117                 text_manager
     000012D1  A$text_manager$118                 text_manager
     000012D2  A$text_manager$119                 text_manager
     000012D3  A$text_manager$120                 text_manager
     000012D4  A$text_manager$121                 text_manager
     000012D5  A$text_manager$122                 text_manager
     000012D8  A$text_manager$123                 text_manager
     000012D9  A$text_manager$124                 text_manager
     000012DC  A$text_manager$125                 text_manager
     000012DD  A$text_manager$126                 text_manager
     000012DE  A$text_manager$127                 text_manager
     000012DF  A$text_manager$131                 text_manager
     000012DF  C$text_manager.c$23$2_0$10         text_manager
     000012E0  A$text_manager$132                 text_manager
     000012E1  A$text_manager$133                 text_manager
     000012E3  A$text_manager$134                 text_manager
     000012E5  A$text_manager$142                 text_manager
     000012E5  C$text_manager.c$27$2_0$10         text_manager
     000012E5  XG$engine_text_manager_clear_thr   text_manager
     000012E6  Ftext_manager$__str_1$0_0$0        text_manager
     00001307  A$text_manager$159                 text_manager
     00001307  C$text_manager.c$29$2_0$12         text_manager
     00001307  C$text_manager.c$31$1_0$12         text_manager
     00001307  G$engine_text_manager_cheat_blan   text_manager
     00001307  _engine_text_manager_cheat_blank   text_manager
     0000130A  A$text_manager$160                 text_manager
     0000130B  A$text_manager$161                 text_manager
     0000130E  A$text_manager$162                 text_manager
     0000130F  A$text_manager$163                 text_manager
     00001312  A$text_manager$164                 text_manager
     00001313  A$text_manager$165                 text_manager
     00001314  A$text_manager$173                 text_manager
     00001314  C$text_manager.c$32$1_0$12         text_manager
     00001314  XG$engine_text_manager_cheat_bla   text_manager
     00001315  Ftext_manager$__str_2$0_0$0        text_manager
     00001320  A$text_manager$190                 text_manager
     00001320  C$text_manager.c$33$1_0$13         text_manager
     00001320  C$text_manager.c$35$1_0$13         text_manager
     00001320  G$engine_text_manager_cheat_writ   text_manager
     00001320  _engine_text_manager_cheat_write   text_manager
     00001323  A$text_manager$191                 text_manager
     00001324  A$text_manager$192                 text_manager
     00001327  A$text_manager$193                 text_manager
     00001328  A$text_manager$194                 text_manager
     0000132B  A$text_manager$195                 text_manager
     0000132C  A$text_manager$196                 text_manager
     0000132D  A$text_manager$204                 text_manager
     0000132D  C$text_manager.c$36$1_0$13         text_manager
ASxxxx Linker V03.00 + NoICE + sdld,  page 38.
Hexadecimal  [32-Bits]

Area                                    Addr        Size        Decimal Bytes (Attributes)
--------------------------------        ----        ----        ------- ----- ------------
_CODE                               00000200    0000636D =       25453. bytes (REL,CON)

      Value  Global                              Global Defined In Module
      -----  --------------------------------   ------------------------
     0000132D  XG$engine_text_manager_cheat_wri   text_manager
     0000132E  Ftext_manager$__str_3$0_0$0        text_manager
     00001335  A$text_manager$221                 text_manager
     00001335  C$text_manager.c$38$1_0$14         text_manager
     00001335  C$text_manager.c$40$1_0$14         text_manager
     00001335  G$engine_text_manager_write_gems   text_manager
     00001335  _engine_text_manager_write_gems    text_manager
     00001338  A$text_manager$222                 text_manager
     00001339  A$text_manager$223                 text_manager
     0000133C  A$text_manager$224                 text_manager
     0000133D  A$text_manager$225                 text_manager
     00001340  A$text_manager$226                 text_manager
     00001341  A$text_manager$227                 text_manager
     00001342  A$text_manager$235                 text_manager
     00001342  C$text_manager.c$41$1_0$14         text_manager
     00001342  XG$engine_text_manager_write_gem   text_manager
     00001343  Ftext_manager$__str_4$0_0$0        text_manager
     00001348  A$text_manager$249                 text_manager
     00001348  C$text_manager.c$43$1_0$16         text_manager
     00001348  G$engine_text_manager_write_info   text_manager
     00001348  _engine_text_manager_write_info    text_manager
     0000134A  A$text_manager$250                 text_manager
     0000134E  A$text_manager$251                 text_manager
     00001350  A$text_manager$255                 text_manager
     00001350  C$text_manager.c$49$1_0$16         text_manager
     00001353  A$text_manager$256                 text_manager
     00001354  A$text_manager$257                 text_manager
     00001356  A$text_manager$261                 text_manager
     00001356  C$text_manager.c$51$2_0$17         text_manager
     00001359  A$text_manager$262                 text_manager
     0000135C  A$text_manager$263                 text_manager
     0000135E  A$text_manager$264                 text_manager
     0000135F  A$text_manager$265                 text_manager
     00001360  A$text_manager$266                 text_manager
     00001361  A$text_manager$267                 text_manager
     00001362  A$text_manager$268                 text_manager
     00001363  A$text_manager$269                 text_manager
     00001364  A$text_manager$270                 text_manager
     00001365  A$text_manager$271                 text_manager
     00001366  A$text_manager$272                 text_manager
     00001369  A$text_manager$273                 text_manager
     0000136A  A$text_manager$274                 text_manager
     0000136B  A$text_manager$275                 text_manager
     0000136E  A$text_manager$276                 text_manager
     0000136F  A$text_manager$277                 text_manager
     00001370  A$text_manager$278                 text_manager
     00001371  A$text_manager$282                 text_manager
     00001371  C$text_manager.c$52$2_0$17         text_manager
     00001374  A$text_manager$283                 text_manager
     00001375  A$text_manager$284                 text_manager
     00001376  A$text_manager$285                 text_manager
ASxxxx Linker V03.00 + NoICE + sdld,  page 39.
Hexadecimal  [32-Bits]

Area                                    Addr        Size        Decimal Bytes (Attributes)
--------------------------------        ----        ----        ------- ----- ------------
_CODE                               00000200    0000636D =       25453. bytes (REL,CON)

      Value  Global                              Global Defined In Module
      -----  --------------------------------   ------------------------
     00001377  A$text_manager$286                 text_manager
     00001378  A$text_manager$287                 text_manager
     0000137B  A$text_manager$288                 text_manager
     0000137C  A$text_manager$289                 text_manager
     0000137D  A$text_manager$290                 text_manager
     00001380  A$text_manager$291                 text_manager
     00001381  A$text_manager$292                 text_manager
     00001382  A$text_manager$296                 text_manager
     00001382  C$text_manager.c$53$2_0$17         text_manager
     00001385  A$text_manager$297                 text_manager
     00001386  A$text_manager$298                 text_manager
     00001389  A$text_manager$299                 text_manager
     0000138A  A$text_manager$300                 text_manager
     0000138D  A$text_manager$301                 text_manager
     0000138E  A$text_manager$302                 text_manager
     0000138F  A$text_manager$303                 text_manager
     00001392  A$text_manager$308                 text_manager
     00001392  C$text_manager.c$55$1_0$16         text_manager
     00001395  A$text_manager$309                 text_manager
     00001396  A$text_manager$310                 text_manager
     00001398  A$text_manager$314                 text_manager
     00001398  C$text_manager.c$57$2_0$18         text_manager
     0000139B  A$text_manager$315                 text_manager
     0000139D  A$text_manager$316                 text_manager
     0000139E  A$text_manager$317                 text_manager
     0000139F  A$text_manager$318                 text_manager
     000013A0  A$text_manager$319                 text_manager
     000013A3  A$text_manager$320                 text_manager
     000013A4  A$text_manager$321                 text_manager
     000013A5  A$text_manager$322                 text_manager
     000013A6  A$text_manager$323                 text_manager
     000013A7  A$text_manager$324                 text_manager
     000013A8  A$text_manager$325                 text_manager
     000013AB  A$text_manager$326                 text_manager
     000013AC  A$text_manager$327                 text_manager
     000013AD  A$text_manager$328                 text_manager
     000013B0  A$text_manager$329                 text_manager
     000013B1  A$text_manager$330                 text_manager
     000013B2  A$text_manager$331                 text_manager
     000013B3  A$text_manager$335                 text_manager
     000013B3  C$text_manager.c$58$2_0$18         text_manager
     000013B6  A$text_manager$336                 text_manager
     000013B7  A$text_manager$337                 text_manager
     000013B8  A$text_manager$338                 text_manager
     000013B9  A$text_manager$339                 text_manager
     000013BA  A$text_manager$340                 text_manager
     000013BD  A$text_manager$341                 text_manager
     000013BE  A$text_manager$342                 text_manager
     000013BF  A$text_manager$343                 text_manager
     000013C2  A$text_manager$344                 text_manager
     000013C3  A$text_manager$345                 text_manager
ASxxxx Linker V03.00 + NoICE + sdld,  page 40.
Hexadecimal  [32-Bits]

Area                                    Addr        Size        Decimal Bytes (Attributes)
--------------------------------        ----        ----        ------- ----- ------------
_CODE                               00000200    0000636D =       25453. bytes (REL,CON)

      Value  Global                              Global Defined In Module
      -----  --------------------------------   ------------------------
     000013C4  A$text_manager$349                 text_manager
     000013C4  C$text_manager.c$60$2_0$18         text_manager
     000013C7  A$text_manager$350                 text_manager
     000013C8  A$text_manager$351                 text_manager
     000013CB  A$text_manager$352                 text_manager
     000013CC  A$text_manager$353                 text_manager
     000013CF  A$text_manager$354                 text_manager
     000013D0  A$text_manager$355                 text_manager
     000013D1  A$text_manager$359                 text_manager
     000013D1  C$text_manager.c$61$2_0$18         text_manager
     000013D4  A$text_manager$360                 text_manager
     000013D5  A$text_manager$361                 text_manager
     000013D8  A$text_manager$362                 text_manager
     000013D9  A$text_manager$363                 text_manager
     000013DC  A$text_manager$364                 text_manager
     000013DD  A$text_manager$365                 text_manager
     000013DE  A$text_manager$366                 text_manager
     000013E1  A$text_manager$371                 text_manager
     000013E1  C$text_manager.c$63$1_0$16         text_manager
     000013E4  A$text_manager$372                 text_manager
     000013E6  A$text_manager$373                 text_manager
     000013E8  A$text_manager$377                 text_manager
     000013E8  C$text_manager.c$65$2_0$19         text_manager
     000013EB  A$text_manager$378                 text_manager
     000013ED  A$text_manager$379                 text_manager
     000013EE  A$text_manager$380                 text_manager
     000013F1  A$text_manager$381                 text_manager
     000013F2  A$text_manager$382                 text_manager
     000013F3  A$text_manager$383                 text_manager
     000013F4  A$text_manager$384                 text_manager
     000013F5  A$text_manager$385                 text_manager
     000013F8  A$text_manager$386                 text_manager
     000013F9  A$text_manager$387                 text_manager
     000013FA  A$text_manager$388                 text_manager
     000013FD  A$text_manager$389                 text_manager
     000013FE  A$text_manager$390                 text_manager
     000013FF  A$text_manager$391                 text_manager
     00001402  A$text_manager$396                 text_manager
     00001402  C$text_manager.c$67$1_0$16         text_manager
     00001405  A$text_manager$397                 text_manager
     00001407  A$text_manager$398                 text_manager
     00001409  A$text_manager$402                 text_manager
     00001409  C$text_manager.c$69$2_0$20         text_manager
     0000140C  A$text_manager$403                 text_manager
     0000140E  A$text_manager$404                 text_manager
     0000140F  A$text_manager$405                 text_manager
     00001412  A$text_manager$406                 text_manager
     00001413  A$text_manager$407                 text_manager
     00001414  A$text_manager$408                 text_manager
     00001415  A$text_manager$409                 text_manager
     00001416  A$text_manager$410                 text_manager
ASxxxx Linker V03.00 + NoICE + sdld,  page 41.
Hexadecimal  [32-Bits]

Area                                    Addr        Size        Decimal Bytes (Attributes)
--------------------------------        ----        ----        ------- ----- ------------
_CODE                               00000200    0000636D =       25453. bytes (REL,CON)

      Value  Global                              Global Defined In Module
      -----  --------------------------------   ------------------------
     00001419  A$text_manager$411                 text_manager
     0000141A  A$text_manager$412                 text_manager
     0000141B  A$text_manager$413                 text_manager
     0000141E  A$text_manager$414                 text_manager
     0000141F  A$text_manager$415                 text_manager
     00001420  A$text_manager$416                 text_manager
     00001423  A$text_manager$421                 text_manager
     00001423  C$text_manager.c$71$1_0$16         text_manager
     00001426  A$text_manager$422                 text_manager
     00001428  A$text_manager$423                 text_manager
     0000142A  A$text_manager$427                 text_manager
     0000142A  C$text_manager.c$73$2_0$21         text_manager
     0000142D  A$text_manager$428                 text_manager
     0000142F  A$text_manager$429                 text_manager
     00001430  A$text_manager$430                 text_manager
     00001431  A$text_manager$431                 text_manager
     00001432  A$text_manager$432                 text_manager
     00001435  A$text_manager$433                 text_manager
     00001436  A$text_manager$434                 text_manager
     00001437  A$text_manager$435                 text_manager
     00001438  A$text_manager$436                 text_manager
     00001439  A$text_manager$437                 text_manager
     0000143A  A$text_manager$438                 text_manager
     0000143D  A$text_manager$439                 text_manager
     0000143E  A$text_manager$440                 text_manager
     0000143F  A$text_manager$441                 text_manager
     00001442  A$text_manager$442                 text_manager
     00001443  A$text_manager$443                 text_manager
     00001444  A$text_manager$444                 text_manager
     00001445  A$text_manager$448                 text_manager
     00001445  C$text_manager.c$74$2_0$21         text_manager
     00001448  A$text_manager$449                 text_manager
     00001449  A$text_manager$450                 text_manager
     0000144A  A$text_manager$451                 text_manager
     0000144B  A$text_manager$452                 text_manager
     0000144C  A$text_manager$453                 text_manager
     0000144F  A$text_manager$454                 text_manager
     00001450  A$text_manager$455                 text_manager
     00001451  A$text_manager$456                 text_manager
     00001454  A$text_manager$457                 text_manager
     00001455  A$text_manager$458                 text_manager
     00001456  A$text_manager$459                 text_manager
     00001459  A$text_manager$464                 text_manager
     00001459  C$text_manager.c$76$1_0$16         text_manager
     0000145C  A$text_manager$465                 text_manager
     0000145E  A$text_manager$466                 text_manager
     00001460  A$text_manager$470                 text_manager
     00001460  C$text_manager.c$78$2_0$22         text_manager
     00001463  A$text_manager$471                 text_manager
     00001465  A$text_manager$472                 text_manager
     00001466  A$text_manager$473                 text_manager
ASxxxx Linker V03.00 + NoICE + sdld,  page 42.
Hexadecimal  [32-Bits]

Area                                    Addr        Size        Decimal Bytes (Attributes)
--------------------------------        ----        ----        ------- ----- ------------
_CODE                               00000200    0000636D =       25453. bytes (REL,CON)

      Value  Global                              Global Defined In Module
      -----  --------------------------------   ------------------------
     00001467  A$text_manager$474                 text_manager
     00001468  A$text_manager$475                 text_manager
     0000146B  A$text_manager$476                 text_manager
     0000146C  A$text_manager$477                 text_manager
     0000146D  A$text_manager$478                 text_manager
     0000146E  A$text_manager$479                 text_manager
     0000146F  A$text_manager$480                 text_manager
     00001470  A$text_manager$481                 text_manager
     00001473  A$text_manager$482                 text_manager
     00001474  A$text_manager$483                 text_manager
     00001475  A$text_manager$484                 text_manager
     00001478  A$text_manager$485                 text_manager
     00001479  A$text_manager$486                 text_manager
     0000147A  A$text_manager$487                 text_manager
     0000147B  A$text_manager$491                 text_manager
     0000147B  C$text_manager.c$79$2_0$22         text_manager
     0000147E  A$text_manager$492                 text_manager
     0000147F  A$text_manager$493                 text_manager
     00001480  A$text_manager$494                 text_manager
     00001481  A$text_manager$495                 text_manager
     00001482  A$text_manager$496                 text_manager
     00001485  A$text_manager$497                 text_manager
     00001486  A$text_manager$498                 text_manager
     00001487  A$text_manager$499                 text_manager
     0000148A  A$text_manager$500                 text_manager
     0000148B  A$text_manager$501                 text_manager
     0000148C  A$text_manager$502                 text_manager
     0000148F  A$text_manager$507                 text_manager
     0000148F  C$text_manager.c$81$1_0$16         text_manager
     00001492  A$text_manager$508                 text_manager
     00001494  A$text_manager$509                 text_manager
     00001496  A$text_manager$513                 text_manager
     00001496  C$text_manager.c$83$2_0$23         text_manager
     00001499  A$text_manager$514                 text_manager
     0000149B  A$text_manager$515                 text_manager
     0000149C  A$text_manager$516                 text_manager
     0000149D  A$text_manager$517                 text_manager
     0000149E  A$text_manager$518                 text_manager
     000014A1  A$text_manager$519                 text_manager
     000014A2  A$text_manager$520                 text_manager
     000014A3  A$text_manager$521                 text_manager
     000014A4  A$text_manager$522                 text_manager
     000014A5  A$text_manager$523                 text_manager
     000014A6  A$text_manager$524                 text_manager
     000014A9  A$text_manager$525                 text_manager
     000014AA  A$text_manager$526                 text_manager
     000014AB  A$text_manager$527                 text_manager
     000014AE  A$text_manager$528                 text_manager
     000014AF  A$text_manager$529                 text_manager
     000014B0  A$text_manager$530                 text_manager
     000014B1  A$text_manager$534                 text_manager
ASxxxx Linker V03.00 + NoICE + sdld,  page 43.
Hexadecimal  [32-Bits]

Area                                    Addr        Size        Decimal Bytes (Attributes)
--------------------------------        ----        ----        ------- ----- ------------
_CODE                               00000200    0000636D =       25453. bytes (REL,CON)

      Value  Global                              Global Defined In Module
      -----  --------------------------------   ------------------------
     000014B1  C$text_manager.c$84$2_0$23         text_manager
     000014B4  A$text_manager$535                 text_manager
     000014B5  A$text_manager$536                 text_manager
     000014B6  A$text_manager$537                 text_manager
     000014B7  A$text_manager$538                 text_manager
     000014B8  A$text_manager$539                 text_manager
     000014BB  A$text_manager$540                 text_manager
     000014BC  A$text_manager$541                 text_manager
     000014BD  A$text_manager$542                 text_manager
     000014C0  A$text_manager$543                 text_manager
     000014C1  A$text_manager$544                 text_manager
     000014C2  A$text_manager$545                 text_manager
     000014C4  A$text_manager$550                 text_manager
     000014C4  C$text_manager.c$86$1_0$16         text_manager
     000014C7  A$text_manager$551                 text_manager
     000014C9  A$text_manager$552                 text_manager
     000014CB  A$text_manager$556                 text_manager
     000014CB  C$text_manager.c$88$2_0$24         text_manager
     000014CE  A$text_manager$557                 text_manager
     000014D0  A$text_manager$558                 text_manager
     000014D1  A$text_manager$559                 text_manager
     000014D2  A$text_manager$560                 text_manager
     000014D3  A$text_manager$561                 text_manager
     000014D6  A$text_manager$562                 text_manager
     000014D7  A$text_manager$563                 text_manager
     000014D8  A$text_manager$564                 text_manager
     000014D9  A$text_manager$565                 text_manager
     000014DA  A$text_manager$566                 text_manager
     000014DB  A$text_manager$567                 text_manager
     000014DE  A$text_manager$568                 text_manager
     000014DF  A$text_manager$569                 text_manager
     000014E0  A$text_manager$570                 text_manager
     000014E3  A$text_manager$571                 text_manager
     000014E4  A$text_manager$572                 text_manager
     000014E5  A$text_manager$573                 text_manager
     000014E6  A$text_manager$577                 text_manager
     000014E6  C$text_manager.c$89$2_0$24         text_manager
     000014E9  A$text_manager$578                 text_manager
     000014EA  A$text_manager$579                 text_manager
     000014EB  A$text_manager$580                 text_manager
     000014EC  A$text_manager$581                 text_manager
     000014ED  A$text_manager$582                 text_manager
     000014F0  A$text_manager$583                 text_manager
     000014F1  A$text_manager$584                 text_manager
     000014F2  A$text_manager$585                 text_manager
     000014F5  A$text_manager$586                 text_manager
     000014F6  A$text_manager$587                 text_manager
     000014F7  A$text_manager$588                 text_manager
     000014F9  A$text_manager$593                 text_manager
     000014F9  C$text_manager.c$91$1_0$16         text_manager
     000014FC  A$text_manager$594                 text_manager
ASxxxx Linker V03.00 + NoICE + sdld,  page 44.
Hexadecimal  [32-Bits]

Area                                    Addr        Size        Decimal Bytes (Attributes)
--------------------------------        ----        ----        ------- ----- ------------
_CODE                               00000200    0000636D =       25453. bytes (REL,CON)

      Value  Global                              Global Defined In Module
      -----  --------------------------------   ------------------------
     000014FE  A$text_manager$595                 text_manager
     00001500  A$text_manager$599                 text_manager
     00001500  C$text_manager.c$93$2_0$25         text_manager
     00001503  A$text_manager$600                 text_manager
     00001505  A$text_manager$601                 text_manager
     00001506  A$text_manager$602                 text_manager
     00001509  A$text_manager$603                 text_manager
     0000150A  A$text_manager$604                 text_manager
     0000150B  A$text_manager$605                 text_manager
     0000150C  A$text_manager$606                 text_manager
     0000150D  A$text_manager$607                 text_manager
     00001510  A$text_manager$608                 text_manager
     00001511  A$text_manager$609                 text_manager
     00001512  A$text_manager$610                 text_manager
     00001515  A$text_manager$611                 text_manager
     00001516  A$text_manager$612                 text_manager
     00001517  A$text_manager$617                 text_manager
     00001517  C$text_manager.c$95$1_0$16         text_manager
     0000151A  A$text_manager$618                 text_manager
     0000151C  A$text_manager$619                 text_manager
     0000151E  A$text_manager$623                 text_manager
     0000151E  C$text_manager.c$97$2_0$26         text_manager
     00001521  A$text_manager$624                 text_manager
     00001524  A$text_manager$625                 text_manager
     00001526  A$text_manager$626                 text_manager
     00001527  A$text_manager$627                 text_manager
     00001528  A$text_manager$628                 text_manager
     00001529  A$text_manager$629                 text_manager
     0000152A  A$text_manager$630                 text_manager
     0000152B  A$text_manager$631                 text_manager
     0000152C  A$text_manager$632                 text_manager
     0000152D  A$text_manager$633                 text_manager
     0000152E  A$text_manager$634                 text_manager
     00001531  A$text_manager$635                 text_manager
     00001532  A$text_manager$636                 text_manager
     00001533  A$text_manager$637                 text_manager
     00001536  A$text_manager$638                 text_manager
     00001537  A$text_manager$639                 text_manager
     00001538  A$text_manager$640                 text_manager
     00001539  A$text_manager$644                 text_manager
     00001539  C$text_manager.c$98$2_0$26         text_manager
     0000153C  A$text_manager$645                 text_manager
     0000153D  A$text_manager$646                 text_manager
     0000153E  A$text_manager$647                 text_manager
     0000153F  A$text_manager$648                 text_manager
     00001540  A$text_manager$649                 text_manager
     00001543  A$text_manager$650                 text_manager
     00001544  A$text_manager$651                 text_manager
     00001545  A$text_manager$652                 text_manager
     00001548  A$text_manager$653                 text_manager
     00001549  A$text_manager$654                 text_manager
ASxxxx Linker V03.00 + NoICE + sdld,  page 45.
Hexadecimal  [32-Bits]

Area                                    Addr        Size        Decimal Bytes (Attributes)
--------------------------------        ----        ----        ------- ----- ------------
_CODE                               00000200    0000636D =       25453. bytes (REL,CON)

      Value  Global                              Global Defined In Module
      -----  --------------------------------   ------------------------
     0000154A  A$text_manager$659                 text_manager
     0000154C  A$text_manager$664                 text_manager
     0000154C  C$text_manager.c$101$1_0$16        text_manager
     0000154C  XG$engine_text_manager_write_inf   text_manager
     0000154D  Ftext_manager$__str_5$0_0$0        text_manager
     00001552  Ftext_manager$__str_6$0_0$0        text_manager
     0000155C  Ftext_manager$__str_7$0_0$0        text_manager
     00001566  A$delay_manager$57                 delay_manager
     00001566  C$delay_manager.c$7$0_0$3          delay_manager
     00001566  G$engine_delay_manager_load$0$0    delay_manager
     00001566  _engine_delay_manager_load         delay_manager
     00001568  A$delay_manager$58                 delay_manager
     0000156C  A$delay_manager$59                 delay_manager
     0000156E  A$delay_manager$63                 delay_manager
     0000156E  C$delay_manager.c$9$1_0$3          delay_manager
     00001571  A$delay_manager$70                 delay_manager
     00001571  C$delay_manager.c$10$1_0$3         delay_manager
     00001571  C$delay_manager.c$11$1_0$3         delay_manager
     00001572  A$delay_manager$71                 delay_manager
     00001573  A$delay_manager$72                 delay_manager
     00001576  A$delay_manager$73                 delay_manager
     00001577  A$delay_manager$74                 delay_manager
     00001578  A$delay_manager$75                 delay_manager
     0000157B  A$delay_manager$76                 delay_manager
     0000157C  A$delay_manager$80                 delay_manager
     0000157C  C$delay_manager.c$12$1_0$3         delay_manager
     0000157F  A$delay_manager$81                 delay_manager
     00001582  A$delay_manager$85                 delay_manager
     00001582  C$delay_manager.c$15$1_0$3         delay_manager
     00001585  A$delay_manager$86                 delay_manager
     00001586  A$delay_manager$87                 delay_manager
     00001588  A$delay_manager$91                 delay_manager
     00001588  C$delay_manager.c$17$2_0$4         delay_manager
     00001589  A$delay_manager$92                 delay_manager
     0000158A  A$delay_manager$93                 delay_manager
     0000158B  A$delay_manager$94                 delay_manager
     0000158C  A$delay_manager$99                 delay_manager
     0000158E  A$delay_manager$104                delay_manager
     0000158E  C$delay_manager.c$19$1_0$3         delay_manager
     0000158E  XG$engine_delay_manager_load$0$0   delay_manager
     0000158F  A$delay_manager$120                delay_manager
     0000158F  C$delay_manager.c$21$1_0$5         delay_manager
     0000158F  C$delay_manager.c$23$1_0$5         delay_manager
     0000158F  C$delay_manager.c$26$1_0$5         delay_manager
     0000158F  G$engine_delay_manager_update$0$   delay_manager
     0000158F  _engine_delay_manager_update       delay_manager
     00001593  A$delay_manager$121                delay_manager
     00001594  A$delay_manager$122                delay_manager
     00001598  A$delay_manager$126                delay_manager
     00001598  C$delay_manager.c$27$1_0$5         delay_manager
     0000159B  A$delay_manager$127                delay_manager
ASxxxx Linker V03.00 + NoICE + sdld,  page 46.
Hexadecimal  [32-Bits]

Area                                    Addr        Size        Decimal Bytes (Attributes)
--------------------------------        ----        ----        ------- ----- ------------
_CODE                               00000200    0000636D =       25453. bytes (REL,CON)

      Value  Global                              Global Defined In Module
      -----  --------------------------------   ------------------------
     0000159C  A$delay_manager$128                delay_manager
     0000159D  A$delay_manager$129                delay_manager
     0000159E  A$delay_manager$130                delay_manager
     0000159F  A$delay_manager$131                delay_manager
     000015A1  A$delay_manager$132                delay_manager
     000015A2  A$delay_manager$133                delay_manager
     000015A4  A$delay_manager$134                delay_manager
     000015A5  A$delay_manager$138                delay_manager
     000015A5  C$delay_manager.c$28$1_0$5         delay_manager
     000015A6  A$delay_manager$139                delay_manager
     000015A8  A$delay_manager$143                delay_manager
     000015A8  C$delay_manager.c$30$2_0$6         delay_manager
     000015AB  A$delay_manager$144                delay_manager
     000015AE  A$delay_manager$149                delay_manager
     000015AE  C$delay_manager.c$33$1_0$5         delay_manager
     000015AF  A$delay_manager$157                delay_manager
     000015AF  C$delay_manager.c$34$1_0$5         delay_manager
     000015AF  XG$engine_delay_manager_update$0   delay_manager
     000015B0  A$reset_manager$64                 reset_manager
     000015B0  C$reset_manager.c$10$1_0$7         reset_manager
     000015B0  C$reset_manager.c$11$1_0$7         reset_manager
     000015B0  C$reset_manager.c$8$0_0$7          reset_manager
     000015B0  G$engine_reset_manager_load$0$0    reset_manager
     000015B0  _engine_reset_manager_load         reset_manager
     000015B3  A$reset_manager$65                 reset_manager
     000015B7  A$reset_manager$66                 reset_manager
     000015B9  A$reset_manager$67                 reset_manager
     000015BC  A$reset_manager$68                 reset_manager
     000015BD  A$reset_manager$79                 reset_manager
     000015BD  C$reset_manager.c$12$1_0$7         reset_manager
     000015BD  C$reset_manager.c$13$1_0$7         reset_manager
     000015BD  XG$engine_reset_manager_load$0$0   reset_manager
     000015C0  A$reset_manager$95                 reset_manager
     000015C0  C$reset_manager.c$15$1_0$8         reset_manager
     000015C0  C$reset_manager.c$17$1_0$8         reset_manager
     000015C0  C$reset_manager.c$18$1_0$8         reset_manager
     000015C0  G$engine_reset_manager_reset$0$0   reset_manager
     000015C0  _engine_reset_manager_reset        reset_manager
     000015C3  A$reset_manager$96                 reset_manager
     000015C5  A$reset_manager$104                reset_manager
     000015C5  C$reset_manager.c$19$1_0$8         reset_manager
     000015C5  XG$engine_reset_manager_reset$0$   reset_manager
     000015C6  A$reset_manager$120                reset_manager
     000015C6  C$reset_manager.c$21$1_0$9         reset_manager
     000015C6  C$reset_manager.c$23$1_0$9         reset_manager
     000015C6  C$reset_manager.c$26$1_0$9         reset_manager
     000015C6  G$engine_reset_manager_update$0$   reset_manager
     000015C6  _engine_reset_manager_update       reset_manager
     000015C9  A$reset_manager$121                reset_manager
     000015CA  A$reset_manager$122                reset_manager
     000015CB  A$reset_manager$123                reset_manager
ASxxxx Linker V03.00 + NoICE + sdld,  page 47.
Hexadecimal  [32-Bits]

Area                                    Addr        Size        Decimal Bytes (Attributes)
--------------------------------        ----        ----        ------- ----- ------------
_CODE                               00000200    0000636D =       25453. bytes (REL,CON)

      Value  Global                              Global Defined In Module
      -----  --------------------------------   ------------------------
     000015CC  A$reset_manager$124                reset_manager
     000015CD  A$reset_manager$125                reset_manager
     000015CE  A$reset_manager$129                reset_manager
     000015CE  C$reset_manager.c$27$1_0$9         reset_manager
     000015D1  A$reset_manager$130                reset_manager
     000015D2  A$reset_manager$131                reset_manager
     000015D3  A$reset_manager$132                reset_manager
     000015D4  A$reset_manager$133                reset_manager
     000015D6  A$reset_manager$134                reset_manager
     000015D7  A$reset_manager$135                reset_manager
     000015D9  A$reset_manager$136                reset_manager
     000015DA  A$reset_manager$140                reset_manager
     000015DA  C$reset_manager.c$28$1_0$9         reset_manager
     000015DB  A$reset_manager$141                reset_manager
     000015DD  A$reset_manager$145                reset_manager
     000015DD  C$reset_manager.c$30$2_0$10        reset_manager
     000015DE  A$reset_manager$146                reset_manager
     000015DF  A$reset_manager$151                reset_manager
     000015DF  C$reset_manager.c$33$1_0$9         reset_manager
     000015E0  A$reset_manager$159                reset_manager
     000015E0  C$reset_manager.c$34$1_0$9         reset_manager
     000015E0  XG$engine_reset_manager_update$0   reset_manager
     000015E1  A$sprite_manager$58                sprite_manager
     000015E1  C$sprite_manager.c$4$0_0$17        sprite_manager
     000015E1  C$sprite_manager.c$6$1_0$17        sprite_manager
     000015E1  G$engine_sprite_manager_draw_pla   sprite_manager
     000015E1  _engine_sprite_manager_draw_play   sprite_manager
     000015E5  A$sprite_manager$59                sprite_manager
     000015E7  A$sprite_manager$60                sprite_manager
     000015EA  A$sprite_manager$61                sprite_manager
     000015EB  A$sprite_manager$62                sprite_manager
     000015EC  A$sprite_manager$63                sprite_manager
     000015EF  A$sprite_manager$64                sprite_manager
     000015F1  A$sprite_manager$65                sprite_manager
     000015F2  A$sprite_manager$66                sprite_manager
     000015F3  A$sprite_manager$67                sprite_manager
     000015F6  A$sprite_manager$68                sprite_manager
     000015F7  A$sprite_manager$69                sprite_manager
     000015F8  A$sprite_manager$70                sprite_manager
     000015FB  A$sprite_manager$71                sprite_manager
     000015FC  A$sprite_manager$72                sprite_manager
     000015FD  A$sprite_manager$80                sprite_manager
     000015FD  C$sprite_manager.c$7$1_0$17        sprite_manager
     000015FD  XG$engine_sprite_manager_draw_pl   sprite_manager
     000015FE  A$sprite_manager$93                sprite_manager
     000015FE  C$sprite_manager.c$11$1_0$19       sprite_manager
     000015FE  C$sprite_manager.c$9$1_0$19        sprite_manager
     000015FE  G$engine_sprite_manager_draw_ene   sprite_manager
     000015FE  _engine_sprite_manager_draw_enem   sprite_manager
     00001602  A$sprite_manager$94                sprite_manager
     00001604  A$sprite_manager$95                sprite_manager
ASxxxx Linker V03.00 + NoICE + sdld,  page 48.
Hexadecimal  [32-Bits]

Area                                    Addr        Size        Decimal Bytes (Attributes)
--------------------------------        ----        ----        ------- ----- ------------
_CODE                               00000200    0000636D =       25453. bytes (REL,CON)

      Value  Global                              Global Defined In Module
      -----  --------------------------------   ------------------------
     00001607  A$sprite_manager$96                sprite_manager
     00001608  A$sprite_manager$97                sprite_manager
     00001609  A$sprite_manager$98                sprite_manager
     0000160C  A$sprite_manager$99                sprite_manager
     0000160E  A$sprite_manager$100               sprite_manager
     0000160F  A$sprite_manager$101               sprite_manager
     00001610  A$sprite_manager$102               sprite_manager
     00001613  A$sprite_manager$103               sprite_manager
     00001614  A$sprite_manager$104               sprite_manager
     00001615  A$sprite_manager$105               sprite_manager
     00001618  A$sprite_manager$106               sprite_manager
     00001619  A$sprite_manager$107               sprite_manager
     0000161A  A$sprite_manager$115               sprite_manager
     0000161A  C$sprite_manager.c$12$1_0$19       sprite_manager
     0000161A  XG$engine_sprite_manager_draw_en   sprite_manager
     0000161B  A$tile_manager$65                  tile_manager
     0000161B  C$tile_manager.c$19$0_0$48         tile_manager
     0000161B  G$engine_tile_manager_draw_tile$   tile_manager
     0000161B  _engine_tile_manager_draw_tile     tile_manager
     0000161D  A$tile_manager$66                  tile_manager
     00001621  A$tile_manager$67                  tile_manager
     00001623  A$tile_manager$74                  tile_manager
     00001623  C$tile_manager.c$21$2_0$48         tile_manager
     00001623  C$tile_manager.c$22$1_0$48         tile_manager
     00001626  A$tile_manager$75                  tile_manager
     00001628  A$tile_manager$76                  tile_manager
     00001629  A$tile_manager$77                  tile_manager
     0000162A  A$tile_manager$78                  tile_manager
     0000162C  A$tile_manager$79                  tile_manager
     0000162E  A$tile_manager$80                  tile_manager
     00001631  A$tile_manager$81                  tile_manager
     00001632  A$tile_manager$83                  tile_manager
     00001634  A$tile_manager$84                  tile_manager
     00001636  A$tile_manager$85                  tile_manager
     00001638  A$tile_manager$86                  tile_manager
     0000163A  A$tile_manager$87                  tile_manager
     0000163C  A$tile_manager$88                  tile_manager
     0000163E  A$tile_manager$89                  tile_manager
     0000163F  A$tile_manager$90                  tile_manager
     00001640  A$tile_manager$91                  tile_manager
     00001641  A$tile_manager$92                  tile_manager
     00001642  A$tile_manager$93                  tile_manager
     00001643  A$tile_manager$94                  tile_manager
     00001645  A$tile_manager$95                  tile_manager
     00001648  A$tile_manager$96                  tile_manager
     0000164A  A$tile_manager$97                  tile_manager
     0000164B  A$tile_manager$98                  tile_manager
     0000164E  A$tile_manager$102                 tile_manager
     0000164E  C$tile_manager.c$24$1_0$48         tile_manager
     00001651  A$tile_manager$103                 tile_manager
     00001654  A$tile_manager$104                 tile_manager
ASxxxx Linker V03.00 + NoICE + sdld,  page 49.
Hexadecimal  [32-Bits]

Area                                    Addr        Size        Decimal Bytes (Attributes)
--------------------------------        ----        ----        ------- ----- ------------
_CODE                               00000200    0000636D =       25453. bytes (REL,CON)

      Value  Global                              Global Defined In Module
      -----  --------------------------------   ------------------------
     00001655  A$tile_manager$105                 tile_manager
     00001658  A$tile_manager$106                 tile_manager
     00001659  A$tile_manager$107                 tile_manager
     0000165C  A$tile_manager$108                 tile_manager
     0000165F  A$tile_manager$109                 tile_manager
     00001660  A$tile_manager$110                 tile_manager
     00001661  A$tile_manager$111                 tile_manager
     00001664  A$tile_manager$112                 tile_manager
     00001665  A$tile_manager$116                 tile_manager
     00001665  C$tile_manager.c$25$1_0$48         tile_manager
     00001668  A$tile_manager$117                 tile_manager
     00001669  A$tile_manager$118                 tile_manager
     0000166A  A$tile_manager$119                 tile_manager
     0000166D  A$tile_manager$120                 tile_manager
     0000166E  A$tile_manager$121                 tile_manager
     00001671  A$tile_manager$122                 tile_manager
     00001672  A$tile_manager$123                 tile_manager
     00001673  A$tile_manager$124                 tile_manager
     00001676  A$tile_manager$125                 tile_manager
     00001679  A$tile_manager$126                 tile_manager
     0000167A  A$tile_manager$127                 tile_manager
     0000167B  A$tile_manager$128                 tile_manager
     0000167C  A$tile_manager$129                 tile_manager
     0000167D  A$tile_manager$130                 tile_manager
     00001680  A$tile_manager$131                 tile_manager
     00001681  A$tile_manager$132                 tile_manager
     00001682  A$tile_manager$136                 tile_manager
     00001682  C$tile_manager.c$26$1_0$48         tile_manager
     00001685  A$tile_manager$137                 tile_manager
     00001686  A$tile_manager$138                 tile_manager
     00001687  A$tile_manager$139                 tile_manager
     00001688  A$tile_manager$140                 tile_manager
     00001689  A$tile_manager$141                 tile_manager
     0000168C  A$tile_manager$142                 tile_manager
     0000168D  A$tile_manager$143                 tile_manager
     0000168E  A$tile_manager$144                 tile_manager
     00001691  A$tile_manager$145                 tile_manager
     00001692  A$tile_manager$146                 tile_manager
     00001693  A$tile_manager$147                 tile_manager
     00001696  A$tile_manager$148                 tile_manager
     00001699  A$tile_manager$149                 tile_manager
     0000169B  A$tile_manager$150                 tile_manager
     0000169C  A$tile_manager$151                 tile_manager
     0000169D  A$tile_manager$152                 tile_manager
     0000169E  A$tile_manager$153                 tile_manager
     000016A1  A$tile_manager$154                 tile_manager
     000016A2  A$tile_manager$155                 tile_manager
     000016A5  A$tile_manager$156                 tile_manager
     000016A6  A$tile_manager$157                 tile_manager
     000016A9  A$tile_manager$158                 tile_manager
     000016AC  A$tile_manager$159                 tile_manager
ASxxxx Linker V03.00 + NoICE + sdld,  page 50.
Hexadecimal  [32-Bits]

Area                                    Addr        Size        Decimal Bytes (Attributes)
--------------------------------        ----        ----        ------- ----- ------------
_CODE                               00000200    0000636D =       25453. bytes (REL,CON)

      Value  Global                              Global Defined In Module
      -----  --------------------------------   ------------------------
     000016AE  A$tile_manager$160                 tile_manager
     000016AF  A$tile_manager$161                 tile_manager
     000016B0  A$tile_manager$162                 tile_manager
     000016B3  A$tile_manager$163                 tile_manager
     000016B4  A$tile_manager$167                 tile_manager
     000016B6  A$tile_manager$172                 tile_manager
     000016B6  C$tile_manager.c$28$1_0$48         tile_manager
     000016B6  XG$engine_tile_manager_draw_tile   tile_manager
     000016B7  A$tile_manager$182                 tile_manager
     000016B7  C$tile_manager.c$30$1_0$50         tile_manager
     000016B7  G$engine_tile_manager_draw_guard   tile_manager
     000016B7  _engine_tile_manager_draw_guard    tile_manager
     000016B9  A$tile_manager$183                 tile_manager
     000016BD  A$tile_manager$184                 tile_manager
     000016BF  A$tile_manager$185                 tile_manager
     000016C0  A$tile_manager$189                 tile_manager
     000016C0  C$tile_manager.c$32$1_0$50         tile_manager
     000016C3  A$tile_manager$190                 tile_manager
     000016C5  A$tile_manager$191                 tile_manager
     000016C6  A$tile_manager$192                 tile_manager
     000016C9  A$tile_manager$193                 tile_manager
     000016CA  A$tile_manager$194                 tile_manager
     000016CB  A$tile_manager$195                 tile_manager
     000016CC  A$tile_manager$196                 tile_manager
     000016CD  A$tile_manager$200                 tile_manager
     000016CD  C$tile_manager.c$33$1_0$50         tile_manager
     000016CE  A$tile_manager$201                 tile_manager
     000016D0  A$tile_manager$202                 tile_manager
     000016D1  A$tile_manager$203                 tile_manager
     000016D2  A$tile_manager$204                 tile_manager
     000016D5  A$tile_manager$205                 tile_manager
     000016D6  A$tile_manager$206                 tile_manager
     000016D9  A$tile_manager$207                 tile_manager
     000016DC  A$tile_manager$208                 tile_manager
     000016DD  A$tile_manager$209                 tile_manager
     000016E0  A$tile_manager$210                 tile_manager
     000016E1  A$tile_manager$211                 tile_manager
     000016E2  A$tile_manager$212                 tile_manager
     000016E3  A$tile_manager$213                 tile_manager
     000016E4  A$tile_manager$214                 tile_manager
     000016E5  A$tile_manager$215                 tile_manager
     000016E6  A$tile_manager$216                 tile_manager
     000016E9  A$tile_manager$217                 tile_manager
     000016EA  A$tile_manager$218                 tile_manager
     000016EB  A$tile_manager$222                 tile_manager
     000016EB  C$tile_manager.c$36$1_0$50         tile_manager
     000016EE  A$tile_manager$223                 tile_manager
     000016EF  A$tile_manager$224                 tile_manager
     000016F2  A$tile_manager$225                 tile_manager
     000016F3  A$tile_manager$226                 tile_manager
     000016F6  A$tile_manager$227                 tile_manager
ASxxxx Linker V03.00 + NoICE + sdld,  page 51.
Hexadecimal  [32-Bits]

Area                                    Addr        Size        Decimal Bytes (Attributes)
--------------------------------        ----        ----        ------- ----- ------------
_CODE                               00000200    0000636D =       25453. bytes (REL,CON)

      Value  Global                              Global Defined In Module
      -----  --------------------------------   ------------------------
     000016F9  A$tile_manager$228                 tile_manager
     000016FA  A$tile_manager$229                 tile_manager
     000016FD  A$tile_manager$230                 tile_manager
     000016FE  A$tile_manager$231                 tile_manager
     000016FF  A$tile_manager$232                 tile_manager
     00001700  A$tile_manager$233                 tile_manager
     00001701  A$tile_manager$234                 tile_manager
     00001702  A$tile_manager$235                 tile_manager
     00001703  A$tile_manager$236                 tile_manager
     00001704  A$tile_manager$237                 tile_manager
     00001707  A$tile_manager$238                 tile_manager
     00001708  A$tile_manager$239                 tile_manager
     00001709  A$tile_manager$243                 tile_manager
     00001709  C$tile_manager.c$37$1_0$50         tile_manager
     0000170C  A$tile_manager$244                 tile_manager
     0000170F  A$tile_manager$245                 tile_manager
     00001710  A$tile_manager$246                 tile_manager
     00001711  A$tile_manager$247                 tile_manager
     00001712  A$tile_manager$248                 tile_manager
     00001713  A$tile_manager$249                 tile_manager
     00001714  A$tile_manager$250                 tile_manager
     00001715  A$tile_manager$251                 tile_manager
     00001718  A$tile_manager$252                 tile_manager
     00001719  A$tile_manager$253                 tile_manager
     0000171A  A$tile_manager$254                 tile_manager
     0000171D  A$tile_manager$255                 tile_manager
     0000171E  A$tile_manager$256                 tile_manager
     0000171F  A$tile_manager$257                 tile_manager
     00001720  A$tile_manager$258                 tile_manager
     00001721  A$tile_manager$259                 tile_manager
     00001723  A$tile_manager$260                 tile_manager
     00001724  A$tile_manager$261                 tile_manager
     00001725  A$tile_manager$262                 tile_manager
     00001726  A$tile_manager$263                 tile_manager
     00001727  A$tile_manager$264                 tile_manager
     0000172A  A$tile_manager$265                 tile_manager
     0000172B  A$tile_manager$266                 tile_manager
     0000172C  A$tile_manager$267                 tile_manager
     0000172F  A$tile_manager$268                 tile_manager
     00001730  A$tile_manager$269                 tile_manager
     00001731  A$tile_manager$270                 tile_manager
     00001734  A$tile_manager$271                 tile_manager
     00001735  A$tile_manager$272                 tile_manager
     00001736  A$tile_manager$273                 tile_manager
     00001737  A$tile_manager$274                 tile_manager
     00001739  A$tile_manager$275                 tile_manager
     0000173A  A$tile_manager$276                 tile_manager
     0000173B  A$tile_manager$277                 tile_manager
     0000173C  A$tile_manager$278                 tile_manager
     0000173F  A$tile_manager$279                 tile_manager
     00001740  A$tile_manager$280                 tile_manager
ASxxxx Linker V03.00 + NoICE + sdld,  page 52.
Hexadecimal  [32-Bits]

Area                                    Addr        Size        Decimal Bytes (Attributes)
--------------------------------        ----        ----        ------- ----- ------------
_CODE                               00000200    0000636D =       25453. bytes (REL,CON)

      Value  Global                              Global Defined In Module
      -----  --------------------------------   ------------------------
     00001741  A$tile_manager$284                 tile_manager
     00001741  C$tile_manager.c$39$1_0$50         tile_manager
     00001744  A$tile_manager$285                 tile_manager
     00001745  A$tile_manager$286                 tile_manager
     00001746  A$tile_manager$287                 tile_manager
     00001747  A$tile_manager$288                 tile_manager
     00001748  A$tile_manager$289                 tile_manager
     00001749  A$tile_manager$290                 tile_manager
     0000174A  A$tile_manager$291                 tile_manager
     0000174D  A$tile_manager$292                 tile_manager
     0000174E  A$tile_manager$293                 tile_manager
     0000174F  A$tile_manager$294                 tile_manager
     00001752  A$tile_manager$295                 tile_manager
     00001753  A$tile_manager$296                 tile_manager
     00001754  A$tile_manager$297                 tile_manager
     00001755  A$tile_manager$298                 tile_manager
     00001756  A$tile_manager$299                 tile_manager
     00001758  A$tile_manager$300                 tile_manager
     00001759  A$tile_manager$301                 tile_manager
     0000175A  A$tile_manager$302                 tile_manager
     0000175B  A$tile_manager$303                 tile_manager
     0000175C  A$tile_manager$304                 tile_manager
     0000175F  A$tile_manager$305                 tile_manager
     00001760  A$tile_manager$306                 tile_manager
     00001761  A$tile_manager$307                 tile_manager
     00001764  A$tile_manager$308                 tile_manager
     00001765  A$tile_manager$309                 tile_manager
     00001766  A$tile_manager$310                 tile_manager
     00001769  A$tile_manager$311                 tile_manager
     0000176A  A$tile_manager$312                 tile_manager
     0000176B  A$tile_manager$313                 tile_manager
     0000176C  A$tile_manager$314                 tile_manager
     0000176E  A$tile_manager$315                 tile_manager
     0000176F  A$tile_manager$316                 tile_manager
     00001770  A$tile_manager$317                 tile_manager
     00001771  A$tile_manager$318                 tile_manager
     00001774  A$tile_manager$319                 tile_manager
     00001775  A$tile_manager$320                 tile_manager
     00001776  A$tile_manager$324                 tile_manager
     00001776  C$tile_manager.c$41$1_0$50         tile_manager
     00001779  A$tile_manager$325                 tile_manager
     0000177A  A$tile_manager$326                 tile_manager
     0000177B  A$tile_manager$327                 tile_manager
     0000177C  A$tile_manager$328                 tile_manager
     0000177D  A$tile_manager$329                 tile_manager
     0000177E  A$tile_manager$330                 tile_manager
     0000177F  A$tile_manager$331                 tile_manager
     00001780  A$tile_manager$332                 tile_manager
     00001783  A$tile_manager$333                 tile_manager
     00001784  A$tile_manager$334                 tile_manager
     00001785  A$tile_manager$335                 tile_manager
ASxxxx Linker V03.00 + NoICE + sdld,  page 53.
Hexadecimal  [32-Bits]

Area                                    Addr        Size        Decimal Bytes (Attributes)
--------------------------------        ----        ----        ------- ----- ------------
_CODE                               00000200    0000636D =       25453. bytes (REL,CON)

      Value  Global                              Global Defined In Module
      -----  --------------------------------   ------------------------
     00001788  A$tile_manager$336                 tile_manager
     00001789  A$tile_manager$337                 tile_manager
     0000178A  A$tile_manager$338                 tile_manager
     0000178B  A$tile_manager$339                 tile_manager
     0000178C  A$tile_manager$340                 tile_manager
     0000178E  A$tile_manager$341                 tile_manager
     0000178F  A$tile_manager$342                 tile_manager
     00001790  A$tile_manager$343                 tile_manager
     00001791  A$tile_manager$344                 tile_manager
     00001792  A$tile_manager$345                 tile_manager
     00001795  A$tile_manager$346                 tile_manager
     00001796  A$tile_manager$347                 tile_manager
     00001797  A$tile_manager$348                 tile_manager
     0000179A  A$tile_manager$349                 tile_manager
     0000179B  A$tile_manager$350                 tile_manager
     0000179C  A$tile_manager$351                 tile_manager
     0000179F  A$tile_manager$352                 tile_manager
     000017A0  A$tile_manager$353                 tile_manager
     000017A1  A$tile_manager$354                 tile_manager
     000017A2  A$tile_manager$355                 tile_manager
     000017A4  A$tile_manager$356                 tile_manager
     000017A5  A$tile_manager$357                 tile_manager
     000017A6  A$tile_manager$358                 tile_manager
     000017A9  A$tile_manager$362                 tile_manager
     000017AB  A$tile_manager$363                 tile_manager
     000017AD  A$tile_manager$368                 tile_manager
     000017AD  C$tile_manager.c$43$1_0$50         tile_manager
     000017AD  XG$engine_tile_manager_draw_guar   tile_manager
     000017AE  A$tile_manager$384                 tile_manager
     000017AE  C$tile_manager.c$45$1_0$52         tile_manager
     000017AE  C$tile_manager.c$47$2_0$52         tile_manager
     000017AE  C$tile_manager.c$48$1_0$52         tile_manager
     000017AE  G$engine_tile_manager_draw_small   tile_manager
     000017AE  _engine_tile_manager_draw_small    tile_manager
     000017B2  A$tile_manager$385                 tile_manager
     000017B4  A$tile_manager$386                 tile_manager
     000017B7  A$tile_manager$387                 tile_manager
     000017BA  A$tile_manager$388                 tile_manager
     000017BB  A$tile_manager$389                 tile_manager
     000017BE  A$tile_manager$390                 tile_manager
     000017BF  A$tile_manager$394                 tile_manager
     000017BF  C$tile_manager.c$49$1_0$52         tile_manager
     000017C2  A$tile_manager$395                 tile_manager
     000017C5  A$tile_manager$396                 tile_manager
     000017C6  A$tile_manager$397                 tile_manager
     000017C7  A$tile_manager$398                 tile_manager
     000017C8  A$tile_manager$399                 tile_manager
     000017C9  A$tile_manager$400                 tile_manager
     000017CC  A$tile_manager$401                 tile_manager
     000017CD  A$tile_manager$409                 tile_manager
     000017CD  C$tile_manager.c$50$1_0$52         tile_manager
ASxxxx Linker V03.00 + NoICE + sdld,  page 54.
Hexadecimal  [32-Bits]

Area                                    Addr        Size        Decimal Bytes (Attributes)
--------------------------------        ----        ----        ------- ----- ------------
_CODE                               00000200    0000636D =       25453. bytes (REL,CON)

      Value  Global                              Global Defined In Module
      -----  --------------------------------   ------------------------
     000017CD  XG$engine_tile_manager_draw_smal   tile_manager
     000017CE  A$tile_manager$419                 tile_manager
     000017CE  C$tile_manager.c$52$1_0$54         tile_manager
     000017CE  G$engine_tile_manager_draw_tile_   tile_manager
     000017CE  _engine_tile_manager_draw_tile_s   tile_manager
     000017D0  A$tile_manager$420                 tile_manager
     000017D4  A$tile_manager$421                 tile_manager
     000017D6  A$tile_manager$428                 tile_manager
     000017D6  C$tile_manager.c$54$2_0$54         tile_manager
     000017D6  C$tile_manager.c$55$1_0$54         tile_manager
     000017D9  A$tile_manager$429                 tile_manager
     000017DB  A$tile_manager$430                 tile_manager
     000017DC  A$tile_manager$431                 tile_manager
     000017DD  A$tile_manager$432                 tile_manager
     000017DF  A$tile_manager$433                 tile_manager
     000017E1  A$tile_manager$434                 tile_manager
     000017E4  A$tile_manager$435                 tile_manager
     000017E5  A$tile_manager$437                 tile_manager
     000017E7  A$tile_manager$438                 tile_manager
     000017E9  A$tile_manager$439                 tile_manager
     000017EB  A$tile_manager$440                 tile_manager
     000017ED  A$tile_manager$441                 tile_manager
     000017EF  A$tile_manager$442                 tile_manager
     000017F1  A$tile_manager$443                 tile_manager
     000017F2  A$tile_manager$444                 tile_manager
     000017F3  A$tile_manager$445                 tile_manager
     000017F4  A$tile_manager$446                 tile_manager
     000017F5  A$tile_manager$447                 tile_manager
     000017F6  A$tile_manager$448                 tile_manager
     000017F8  A$tile_manager$449                 tile_manager
     000017FB  A$tile_manager$450                 tile_manager
     000017FD  A$tile_manager$451                 tile_manager
     000017FE  A$tile_manager$452                 tile_manager
     00001801  A$tile_manager$456                 tile_manager
     00001801  C$tile_manager.c$57$1_0$54         tile_manager
     00001804  A$tile_manager$457                 tile_manager
     00001805  A$tile_manager$458                 tile_manager
     00001807  A$tile_manager$462                 tile_manager
     00001807  C$tile_manager.c$59$2_0$55         tile_manager
     0000180A  A$tile_manager$463                 tile_manager
     0000180D  A$tile_manager$464                 tile_manager
     0000180E  A$tile_manager$465                 tile_manager
     00001811  A$tile_manager$466                 tile_manager
     00001812  A$tile_manager$467                 tile_manager
     00001815  A$tile_manager$468                 tile_manager
     00001818  A$tile_manager$469                 tile_manager
     00001819  A$tile_manager$470                 tile_manager
     0000181A  A$tile_manager$471                 tile_manager
     0000181D  A$tile_manager$472                 tile_manager
     0000181E  A$tile_manager$476                 tile_manager
     0000181E  C$tile_manager.c$60$2_0$55         tile_manager
ASxxxx Linker V03.00 + NoICE + sdld,  page 55.
Hexadecimal  [32-Bits]

Area                                    Addr        Size        Decimal Bytes (Attributes)
--------------------------------        ----        ----        ------- ----- ------------
_CODE                               00000200    0000636D =       25453. bytes (REL,CON)

      Value  Global                              Global Defined In Module
      -----  --------------------------------   ------------------------
     00001821  A$tile_manager$477                 tile_manager
     00001822  A$tile_manager$478                 tile_manager
     00001823  A$tile_manager$479                 tile_manager
     00001824  A$tile_manager$480                 tile_manager
     00001827  A$tile_manager$481                 tile_manager
     00001828  A$tile_manager$482                 tile_manager
     00001829  A$tile_manager$483                 tile_manager
     0000182C  A$tile_manager$484                 tile_manager
     0000182D  A$tile_manager$485                 tile_manager
     00001830  A$tile_manager$486                 tile_manager
     00001833  A$tile_manager$487                 tile_manager
     00001835  A$tile_manager$488                 tile_manager
     00001836  A$tile_manager$489                 tile_manager
     00001837  A$tile_manager$490                 tile_manager
     0000183A  A$tile_manager$491                 tile_manager
     0000183B  A$tile_manager$492                 tile_manager
     0000183D  A$tile_manager$497                 tile_manager
     0000183D  C$tile_manager.c$62$1_0$54         tile_manager
     00001840  A$tile_manager$498                 tile_manager
     00001841  A$tile_manager$499                 tile_manager
     00001843  A$tile_manager$503                 tile_manager
     00001843  C$tile_manager.c$64$2_0$56         tile_manager
     00001846  A$tile_manager$504                 tile_manager
     00001847  A$tile_manager$505                 tile_manager
     00001848  A$tile_manager$506                 tile_manager
     0000184B  A$tile_manager$507                 tile_manager
     0000184C  A$tile_manager$508                 tile_manager
     0000184D  A$tile_manager$509                 tile_manager
     0000184E  A$tile_manager$510                 tile_manager
     0000184F  A$tile_manager$511                 tile_manager
     00001852  A$tile_manager$512                 tile_manager
     00001853  A$tile_manager$513                 tile_manager
     00001854  A$tile_manager$514                 tile_manager
     00001857  A$tile_manager$515                 tile_manager
     0000185A  A$tile_manager$516                 tile_manager
     0000185B  A$tile_manager$517                 tile_manager
     0000185C  A$tile_manager$518                 tile_manager
     0000185D  A$tile_manager$519                 tile_manager
     0000185E  A$tile_manager$520                 tile_manager
     00001861  A$tile_manager$521                 tile_manager
     00001862  A$tile_manager$522                 tile_manager
     00001863  A$tile_manager$526                 tile_manager
     00001863  C$tile_manager.c$65$2_0$56         tile_manager
     00001866  A$tile_manager$527                 tile_manager
     00001867  A$tile_manager$528                 tile_manager
     00001868  A$tile_manager$529                 tile_manager
     00001869  A$tile_manager$530                 tile_manager
     0000186A  A$tile_manager$531                 tile_manager
     0000186B  A$tile_manager$532                 tile_manager
     0000186E  A$tile_manager$533                 tile_manager
     0000186F  A$tile_manager$534                 tile_manager
ASxxxx Linker V03.00 + NoICE + sdld,  page 56.
Hexadecimal  [32-Bits]

Area                                    Addr        Size        Decimal Bytes (Attributes)
--------------------------------        ----        ----        ------- ----- ------------
_CODE                               00000200    0000636D =       25453. bytes (REL,CON)

      Value  Global                              Global Defined In Module
      -----  --------------------------------   ------------------------
     00001872  A$tile_manager$535                 tile_manager
     00001875  A$tile_manager$536                 tile_manager
     00001877  A$tile_manager$537                 tile_manager
     00001878  A$tile_manager$538                 tile_manager
     00001879  A$tile_manager$539                 tile_manager
     0000187C  A$tile_manager$540                 tile_manager
     0000187D  A$tile_manager$545                 tile_manager
     0000187F  A$tile_manager$550                 tile_manager
     0000187F  C$tile_manager.c$67$1_0$54         tile_manager
     0000187F  XG$engine_tile_manager_draw_tile   tile_manager
     00001880  A$tile_manager$560                 tile_manager
     00001880  C$tile_manager.c$69$1_0$58         tile_manager
     00001880  G$engine_tile_manager_get_tile$0   tile_manager
     00001880  _engine_tile_manager_get_tile      tile_manager
     00001882  A$tile_manager$561                 tile_manager
     00001886  A$tile_manager$562                 tile_manager
     00001888  A$tile_manager$566                 tile_manager
     00001888  C$tile_manager.c$73$1_0$58         tile_manager
     0000188B  A$tile_manager$567                 tile_manager
     0000188E  A$tile_manager$571                 tile_manager
     0000188E  C$tile_manager.c$71$1_0$58         tile_manager
     00001891  A$tile_manager$572                 tile_manager
     00001893  A$tile_manager$573                 tile_manager
     00001895  A$tile_manager$577                 tile_manager
     00001895  C$tile_manager.c$73$2_0$59         tile_manager
     00001896  A$tile_manager$578                 tile_manager
     00001899  A$tile_manager$579                 tile_manager
     0000189C  A$tile_manager$580                 tile_manager
     0000189D  A$tile_manager$581                 tile_manager
     0000189E  A$tile_manager$582                 tile_manager
     000018A1  A$tile_manager$583                 tile_manager
     000018A2  A$tile_manager$584                 tile_manager
     000018A3  A$tile_manager$585                 tile_manager
     000018A4  A$tile_manager$586                 tile_manager
     000018A5  A$tile_manager$587                 tile_manager
     000018A6  A$tile_manager$588                 tile_manager
     000018A7  A$tile_manager$592                 tile_manager
     000018A7  C$tile_manager.c$74$2_0$59         tile_manager
     000018A9  A$tile_manager$597                 tile_manager
     000018A9  C$tile_manager.c$76$1_0$58         tile_manager
     000018AC  A$tile_manager$598                 tile_manager
     000018AE  A$tile_manager$599                 tile_manager
     000018B0  A$tile_manager$600                 tile_manager
     000018B3  A$tile_manager$601                 tile_manager
     000018B5  A$tile_manager$602                 tile_manager
     000018B7  A$tile_manager$607                 tile_manager
     000018B7  C$tile_manager.c$78$2_0$60         tile_manager
     000018B9  A$tile_manager$608                 tile_manager
     000018BA  A$tile_manager$612                 tile_manager
     000018BA  C$tile_manager.c$79$2_0$60         tile_manager
     000018BC  A$tile_manager$617                 tile_manager
ASxxxx Linker V03.00 + NoICE + sdld,  page 57.
Hexadecimal  [32-Bits]

Area                                    Addr        Size        Decimal Bytes (Attributes)
--------------------------------        ----        ----        ------- ----- ------------
_CODE                               00000200    0000636D =       25453. bytes (REL,CON)

      Value  Global                              Global Defined In Module
      -----  --------------------------------   ------------------------
     000018BC  C$tile_manager.c$81$1_0$58         tile_manager
     000018BF  A$tile_manager$618                 tile_manager
     000018C1  A$tile_manager$619                 tile_manager
     000018C3  A$tile_manager$623                 tile_manager
     000018C3  C$tile_manager.c$84$2_0$61         tile_manager
     000018C6  A$tile_manager$624                 tile_manager
     000018C7  A$tile_manager$625                 tile_manager
     000018C9  A$tile_manager$629                 tile_manager
     000018C9  C$tile_manager.c$86$3_0$62         tile_manager
     000018CA  A$tile_manager$630                 tile_manager
     000018CB  A$tile_manager$634                 tile_manager
     000018CB  C$tile_manager.c$87$3_0$62         tile_manager
     000018CD  A$tile_manager$639                 tile_manager
     000018CD  C$tile_manager.c$90$2_0$61         tile_manager
     000018CF  A$tile_manager$640                 tile_manager
     000018D0  A$tile_manager$644                 tile_manager
     000018D0  C$tile_manager.c$91$2_0$61         tile_manager
     000018D2  A$tile_manager$649                 tile_manager
     000018D2  C$tile_manager.c$93$1_0$58         tile_manager
     000018D5  A$tile_manager$650                 tile_manager
     000018D7  A$tile_manager$651                 tile_manager
     000018D9  A$tile_manager$655                 tile_manager
     000018D9  C$tile_manager.c$95$2_0$63         tile_manager
     000018DB  A$tile_manager$656                 tile_manager
     000018DC  A$tile_manager$660                 tile_manager
     000018DC  C$tile_manager.c$96$2_0$63         tile_manager
     000018DE  A$tile_manager$665                 tile_manager
     000018DE  C$tile_manager.c$98$1_0$58         tile_manager
     000018E1  A$tile_manager$666                 tile_manager
     000018E3  A$tile_manager$667                 tile_manager
     000018E5  A$tile_manager$671                 tile_manager
     000018E5  C$tile_manager.c$100$2_0$64        tile_manager
     000018E7  A$tile_manager$672                 tile_manager
     000018E8  A$tile_manager$676                 tile_manager
     000018E8  C$tile_manager.c$101$2_0$64        tile_manager
     000018EA  A$tile_manager$681                 tile_manager
     000018EA  C$tile_manager.c$103$1_0$58        tile_manager
     000018ED  A$tile_manager$682                 tile_manager
     000018EF  A$tile_manager$683                 tile_manager
     000018F1  A$tile_manager$687                 tile_manager
     000018F1  C$tile_manager.c$105$2_0$65        tile_manager
     000018F3  A$tile_manager$688                 tile_manager
     000018F4  A$tile_manager$692                 tile_manager
     000018F4  C$tile_manager.c$106$2_0$65        tile_manager
     000018F6  A$tile_manager$697                 tile_manager
     000018F6  C$tile_manager.c$109$1_0$58        tile_manager
     000018F7  A$tile_manager$698                 tile_manager
     000018F8  A$tile_manager$703                 tile_manager
     000018FA  A$tile_manager$708                 tile_manager
     000018FA  C$tile_manager.c$110$1_0$58        tile_manager
     000018FA  XG$engine_tile_manager_get_tile$   tile_manager
ASxxxx Linker V03.00 + NoICE + sdld,  page 58.
Hexadecimal  [32-Bits]

Area                                    Addr        Size        Decimal Bytes (Attributes)
--------------------------------        ----        ----        ------- ----- ------------
_CODE                               00000200    0000636D =       25453. bytes (REL,CON)

      Value  Global                              Global Defined In Module
      -----  --------------------------------   ------------------------
     000018FB  A$tile_manager$718                 tile_manager
     000018FB  C$tile_manager.c$112$1_0$67        tile_manager
     000018FB  G$engine_tile_manager_get_collis   tile_manager
     000018FB  _engine_tile_manager_get_collisi   tile_manager
     000018FD  A$tile_manager$719                 tile_manager
     00001901  A$tile_manager$720                 tile_manager
     00001903  A$tile_manager$724                 tile_manager
     00001903  C$tile_manager.c$116$1_0$67        tile_manager
     00001906  A$tile_manager$725                 tile_manager
     00001909  A$tile_manager$729                 tile_manager
     00001909  C$tile_manager.c$114$1_0$67        tile_manager
     0000190C  A$tile_manager$730                 tile_manager
     0000190E  A$tile_manager$731                 tile_manager
     00001910  A$tile_manager$735                 tile_manager
     00001910  C$tile_manager.c$116$2_0$68        tile_manager
     00001912  A$tile_manager$739                 tile_manager
     00001912  C$tile_manager.c$117$2_0$68        tile_manager
     00001914  A$tile_manager$744                 tile_manager
     00001914  C$tile_manager.c$119$1_0$67        tile_manager
     00001917  A$tile_manager$745                 tile_manager
     00001919  A$tile_manager$746                 tile_manager
     0000191B  A$tile_manager$747                 tile_manager
     0000191E  A$tile_manager$748                 tile_manager
     00001920  A$tile_manager$749                 tile_manager
     00001922  A$tile_manager$754                 tile_manager
     00001922  C$tile_manager.c$121$2_0$69        tile_manager
     00001924  A$tile_manager$758                 tile_manager
     00001924  C$tile_manager.c$122$2_0$69        tile_manager
     00001926  A$tile_manager$763                 tile_manager
     00001926  C$tile_manager.c$124$1_0$67        tile_manager
     00001929  A$tile_manager$764                 tile_manager
     0000192B  A$tile_manager$765                 tile_manager
     0000192D  A$tile_manager$769                 tile_manager
     0000192D  C$tile_manager.c$127$2_0$70        tile_manager
     00001930  A$tile_manager$773                 tile_manager
     00001930  C$tile_manager.c$129$3_0$71        tile_manager
     00001931  A$tile_manager$774                 tile_manager
     00001933  A$tile_manager$775                 tile_manager
     00001934  A$tile_manager$779                 tile_manager
     00001934  C$tile_manager.c$130$3_0$71        tile_manager
     00001936  A$tile_manager$784                 tile_manager
     00001936  C$tile_manager.c$133$2_0$70        tile_manager
     00001938  A$tile_manager$788                 tile_manager
     00001938  C$tile_manager.c$134$2_0$70        tile_manager
     0000193A  A$tile_manager$793                 tile_manager
     0000193A  C$tile_manager.c$137$1_0$67        tile_manager
     0000193C  A$tile_manager$798                 tile_manager
     0000193E  A$tile_manager$803                 tile_manager
     0000193E  C$tile_manager.c$138$1_0$67        tile_manager
     0000193E  XG$engine_tile_manager_get_colli   tile_manager
     0000193F  A$tile_manager$813                 tile_manager
ASxxxx Linker V03.00 + NoICE + sdld,  page 59.
Hexadecimal  [32-Bits]

Area                                    Addr        Size        Decimal Bytes (Attributes)
--------------------------------        ----        ----        ------- ----- ------------
_CODE                               00000200    0000636D =       25453. bytes (REL,CON)

      Value  Global                              Global Defined In Module
      -----  --------------------------------   ------------------------
     0000193F  C$tile_manager.c$140$1_0$73        tile_manager
     0000193F  G$engine_tile_manager_get_sprite   tile_manager
     0000193F  _engine_tile_manager_get_sprite    tile_manager
     00001941  A$tile_manager$814                 tile_manager
     00001945  A$tile_manager$815                 tile_manager
     00001947  A$tile_manager$819                 tile_manager
     00001947  C$tile_manager.c$144$1_0$73        tile_manager
     0000194A  A$tile_manager$820                 tile_manager
     0000194D  A$tile_manager$824                 tile_manager
     0000194D  C$tile_manager.c$142$1_0$73        tile_manager
     00001950  A$tile_manager$825                 tile_manager
     00001952  A$tile_manager$826                 tile_manager
     00001954  A$tile_manager$830                 tile_manager
     00001954  C$tile_manager.c$144$2_0$74        tile_manager
     00001956  A$tile_manager$834                 tile_manager
     00001956  C$tile_manager.c$145$2_0$74        tile_manager
     00001958  A$tile_manager$839                 tile_manager
     00001958  C$tile_manager.c$147$1_0$73        tile_manager
     0000195B  A$tile_manager$840                 tile_manager
     0000195D  A$tile_manager$841                 tile_manager
     0000195F  A$tile_manager$842                 tile_manager
     00001962  A$tile_manager$843                 tile_manager
     00001964  A$tile_manager$844                 tile_manager
     00001966  A$tile_manager$849                 tile_manager
     00001966  C$tile_manager.c$149$2_0$75        tile_manager
     00001968  A$tile_manager$853                 tile_manager
     00001968  C$tile_manager.c$150$2_0$75        tile_manager
     0000196A  A$tile_manager$858                 tile_manager
     0000196A  C$tile_manager.c$152$1_0$73        tile_manager
     0000196D  A$tile_manager$859                 tile_manager
     0000196F  A$tile_manager$860                 tile_manager
     00001971  A$tile_manager$861                 tile_manager
     00001974  A$tile_manager$862                 tile_manager
     00001976  A$tile_manager$863                 tile_manager
     00001978  A$tile_manager$868                 tile_manager
     00001978  C$tile_manager.c$154$2_0$76        tile_manager
     0000197A  A$tile_manager$872                 tile_manager
     0000197A  C$tile_manager.c$155$2_0$76        tile_manager
     0000197C  A$tile_manager$877                 tile_manager
     0000197C  C$tile_manager.c$157$1_0$73        tile_manager
     0000197F  A$tile_manager$878                 tile_manager
     00001981  A$tile_manager$879                 tile_manager
     00001983  A$tile_manager$880                 tile_manager
     00001986  A$tile_manager$881                 tile_manager
     00001988  A$tile_manager$882                 tile_manager
     0000198A  A$tile_manager$887                 tile_manager
     0000198A  C$tile_manager.c$159$2_0$77        tile_manager
     0000198C  A$tile_manager$891                 tile_manager
     0000198C  C$tile_manager.c$160$2_0$77        tile_manager
     0000198E  A$tile_manager$896                 tile_manager
     0000198E  C$tile_manager.c$162$1_0$73        tile_manager
ASxxxx Linker V03.00 + NoICE + sdld,  page 60.
Hexadecimal  [32-Bits]

Area                                    Addr        Size        Decimal Bytes (Attributes)
--------------------------------        ----        ----        ------- ----- ------------
_CODE                               00000200    0000636D =       25453. bytes (REL,CON)

      Value  Global                              Global Defined In Module
      -----  --------------------------------   ------------------------
     00001991  A$tile_manager$897                 tile_manager
     00001993  A$tile_manager$898                 tile_manager
     00001995  A$tile_manager$899                 tile_manager
     00001998  A$tile_manager$900                 tile_manager
     0000199A  A$tile_manager$901                 tile_manager
     0000199C  A$tile_manager$906                 tile_manager
     0000199C  C$tile_manager.c$164$2_0$78        tile_manager
     0000199E  A$tile_manager$910                 tile_manager
     0000199E  C$tile_manager.c$165$2_0$78        tile_manager
     000019A0  A$tile_manager$915                 tile_manager
     000019A0  C$tile_manager.c$168$1_0$73        tile_manager
     000019A2  A$tile_manager$920                 tile_manager
     000019A4  A$tile_manager$925                 tile_manager
     000019A4  C$tile_manager.c$169$1_0$73        tile_manager
     000019A4  XG$engine_tile_manager_get_sprit   tile_manager
     000019A5  A$memo_manager$75                  memo_manager
     000019A5  C$memo_manager.c$26$0_0$42         memo_manager
     000019A5  C$memo_manager.c$28$1_0$42         memo_manager
     000019A5  G$engine_memo_manager_init$0$0     memo_manager
     000019A5  _engine_memo_manager_init          memo_manager
     000019A7  A$memo_manager$76                  memo_manager
     000019AA  A$memo_manager$80                  memo_manager
     000019AA  C$memo_manager.c$29$1_0$42         memo_manager
     000019AC  A$memo_manager$81                  memo_manager
     000019AF  A$memo_manager$89                  memo_manager
     000019AF  C$memo_manager.c$30$1_0$42         memo_manager
     000019AF  XG$engine_memo_manager_init$0$0    memo_manager
     000019B0  A$memo_manager$102                 memo_manager
     000019B0  C$memo_manager.c$32$1_0$43         memo_manager
     000019B0  C$memo_manager.c$34$1_0$43         memo_manager
     000019B0  G$engine_memo_manager_draw_title   memo_manager
     000019B0  _engine_memo_manager_draw_title    memo_manager
     000019B1  A$memo_manager$103                 memo_manager
     000019B2  A$memo_manager$104                 memo_manager
     000019B4  A$memo_manager$105                 memo_manager
     000019B5  A$memo_manager$106                 memo_manager
     000019B8  A$memo_manager$107                 memo_manager
     000019B9  A$memo_manager$108                 memo_manager
     000019BC  A$memo_manager$109                 memo_manager
     000019BD  A$memo_manager$110                 memo_manager
     000019BE  A$memo_manager$114                 memo_manager
     000019BE  C$memo_manager.c$35$1_0$43         memo_manager
     000019C1  A$memo_manager$115                 memo_manager
     000019C2  A$memo_manager$116                 memo_manager
     000019C5  A$memo_manager$117                 memo_manager
     000019C6  A$memo_manager$118                 memo_manager
     000019C9  A$memo_manager$119                 memo_manager
     000019CA  A$memo_manager$120                 memo_manager
     000019CB  A$memo_manager$128                 memo_manager
     000019CB  C$memo_manager.c$37$1_0$43         memo_manager
     000019CB  XG$engine_memo_manager_draw_titl   memo_manager
ASxxxx Linker V03.00 + NoICE + sdld,  page 61.
Hexadecimal  [32-Bits]

Area                                    Addr        Size        Decimal Bytes (Attributes)
--------------------------------        ----        ----        ------- ----- ------------
_CODE                               00000200    0000636D =       25453. bytes (REL,CON)

      Value  Global                              Global Defined In Module
      -----  --------------------------------   ------------------------
     000019CC  Fmemo_manager$__str_0$0_0$0        memo_manager
     000019D5  Fmemo_manager$__str_1$0_0$0        memo_manager
     000019DE  A$memo_manager$146                 memo_manager
     000019DE  C$memo_manager.c$39$1_0$45         memo_manager
     000019DE  G$engine_memo_manager_draw_level   memo_manager
     000019DE  _engine_memo_manager_draw_level    memo_manager
     000019E0  A$memo_manager$147                 memo_manager
     000019E4  A$memo_manager$148                 memo_manager
     000019E6  A$memo_manager$152                 memo_manager
     000019E6  C$memo_manager.c$44$1_0$45         memo_manager
     000019E9  A$memo_manager$153                 memo_manager
     000019EA  A$memo_manager$154                 memo_manager
     000019EC  A$memo_manager$155                 memo_manager
     000019ED  A$memo_manager$156                 memo_manager
     000019EE  A$memo_manager$157                 memo_manager
     000019F1  A$memo_manager$158                 memo_manager
     000019F2  A$memo_manager$159                 memo_manager
     000019F5  A$memo_manager$160                 memo_manager
     000019F6  A$memo_manager$161                 memo_manager
     000019F9  A$memo_manager$162                 memo_manager
     000019FA  A$memo_manager$163                 memo_manager
     000019FD  A$memo_manager$164                 memo_manager
     00001A00  A$memo_manager$165                 memo_manager
     00001A01  A$memo_manager$166                 memo_manager
     00001A02  A$memo_manager$170                 memo_manager
     00001A02  C$memo_manager.c$46$1_0$45         memo_manager
     00001A05  A$memo_manager$171                 memo_manager
     00001A06  A$memo_manager$172                 memo_manager
     00001A08  A$memo_manager$176                 memo_manager
     00001A08  C$memo_manager.c$48$2_0$46         memo_manager
     00001A0B  A$memo_manager$177                 memo_manager
     00001A0C  A$memo_manager$178                 memo_manager
     00001A0F  A$memo_manager$179                 memo_manager
     00001A10  A$memo_manager$180                 memo_manager
     00001A13  A$memo_manager$181                 memo_manager
     00001A14  A$memo_manager$182                 memo_manager
     00001A15  A$memo_manager$183                 memo_manager
     00001A17  A$memo_manager$188                 memo_manager
     00001A17  C$memo_manager.c$52$2_0$47         memo_manager
     00001A1A  A$memo_manager$189                 memo_manager
     00001A1D  A$memo_manager$190                 memo_manager
     00001A1F  A$memo_manager$191                 memo_manager
     00001A20  A$memo_manager$192                 memo_manager
     00001A21  A$memo_manager$193                 memo_manager
     00001A22  A$memo_manager$194                 memo_manager
     00001A23  A$memo_manager$195                 memo_manager
     00001A24  A$memo_manager$196                 memo_manager
     00001A27  A$memo_manager$197                 memo_manager
     00001A28  A$memo_manager$198                 memo_manager
     00001A29  A$memo_manager$199                 memo_manager
     00001A2C  A$memo_manager$200                 memo_manager
ASxxxx Linker V03.00 + NoICE + sdld,  page 62.
Hexadecimal  [32-Bits]

Area                                    Addr        Size        Decimal Bytes (Attributes)
--------------------------------        ----        ----        ------- ----- ------------
_CODE                               00000200    0000636D =       25453. bytes (REL,CON)

      Value  Global                              Global Defined In Module
      -----  --------------------------------   ------------------------
     00001A2D  A$memo_manager$201                 memo_manager
     00001A2E  A$memo_manager$206                 memo_manager
     00001A2E  C$memo_manager.c$55$1_0$45         memo_manager
     00001A31  A$memo_manager$207                 memo_manager
     00001A34  A$memo_manager$208                 memo_manager
     00001A36  A$memo_manager$209                 memo_manager
     00001A37  A$memo_manager$210                 memo_manager
     00001A38  A$memo_manager$211                 memo_manager
     00001A39  A$memo_manager$212                 memo_manager
     00001A3A  A$memo_manager$213                 memo_manager
     00001A3B  A$memo_manager$214                 memo_manager
     00001A3E  A$memo_manager$215                 memo_manager
     00001A3F  A$memo_manager$216                 memo_manager
     00001A40  A$memo_manager$217                 memo_manager
     00001A43  A$memo_manager$218                 memo_manager
     00001A44  A$memo_manager$219                 memo_manager
     00001A45  A$memo_manager$223                 memo_manager
     00001A47  A$memo_manager$228                 memo_manager
     00001A47  C$memo_manager.c$56$1_0$45         memo_manager
     00001A47  XG$engine_memo_manager_draw_leve   memo_manager
     00001A48  Fmemo_manager$__str_2$0_0$0        memo_manager
     00001A53  Fmemo_manager$__str_3$0_0$0        memo_manager
     00001A5E  Fmemo_manager$__str_4$0_0$0        memo_manager
     00001A69  Fmemo_manager$__str_5$0_0$0        memo_manager
     00001A6C  A$memo_manager$257                 memo_manager
     00001A6C  C$memo_manager.c$58$1_0$48         memo_manager
     00001A6C  C$memo_manager.c$63$1_0$48         memo_manager
     00001A6C  G$engine_memo_manager_draw_reset   memo_manager
     00001A6C  _engine_memo_manager_draw_reset    memo_manager
     00001A6F  A$memo_manager$258                 memo_manager
     00001A70  A$memo_manager$259                 memo_manager
     00001A72  A$memo_manager$260                 memo_manager
     00001A73  A$memo_manager$261                 memo_manager
     00001A74  A$memo_manager$262                 memo_manager
     00001A77  A$memo_manager$263                 memo_manager
     00001A78  A$memo_manager$264                 memo_manager
     00001A7B  A$memo_manager$265                 memo_manager
     00001A7C  A$memo_manager$266                 memo_manager
     00001A7F  A$memo_manager$267                 memo_manager
     00001A80  A$memo_manager$268                 memo_manager
     00001A83  A$memo_manager$269                 memo_manager
     00001A86  A$memo_manager$270                 memo_manager
     00001A87  A$memo_manager$271                 memo_manager
     00001A88  A$memo_manager$279                 memo_manager
     00001A88  C$memo_manager.c$64$1_0$48         memo_manager
     00001A88  XG$engine_memo_manager_draw_rese   memo_manager
     00001A89  Fmemo_manager$__str_6$0_0$0        memo_manager
     00001A94  Fmemo_manager$__str_7$0_0$0        memo_manager
     00001A9F  Fmemo_manager$__str_8$0_0$0        memo_manager
     00001AAB  A$memo_manager$301                 memo_manager
     00001AAB  C$memo_manager.c$65$1_0$50         memo_manager
ASxxxx Linker V03.00 + NoICE + sdld,  page 63.
Hexadecimal  [32-Bits]

Area                                    Addr        Size        Decimal Bytes (Attributes)
--------------------------------        ----        ----        ------- ----- ------------
_CODE                               00000200    0000636D =       25453. bytes (REL,CON)

      Value  Global                              Global Defined In Module
      -----  --------------------------------   ------------------------
     00001AAB  G$engine_memo_manager_draw_pass$   memo_manager
     00001AAB  _engine_memo_manager_draw_pass     memo_manager
     00001AAD  A$memo_manager$305                 memo_manager
     00001AAD  C$memo_manager.c$71$1_0$50         memo_manager
     00001AB0  A$memo_manager$306                 memo_manager
     00001AB1  A$memo_manager$307                 memo_manager
     00001AB2  A$memo_manager$308                 memo_manager
     00001AB3  A$memo_manager$309                 memo_manager
     00001AB5  A$memo_manager$313                 memo_manager
     00001AB5  C$memo_manager.c$73$2_0$51         memo_manager
     00001AB8  A$memo_manager$314                 memo_manager
     00001AB9  A$memo_manager$315                 memo_manager
     00001ABB  A$memo_manager$316                 memo_manager
     00001ABC  A$memo_manager$317                 memo_manager
     00001ABD  A$memo_manager$318                 memo_manager
     00001AC0  A$memo_manager$319                 memo_manager
     00001AC1  A$memo_manager$320                 memo_manager
     00001AC4  A$memo_manager$321                 memo_manager
     00001AC5  A$memo_manager$322                 memo_manager
     00001AC8  A$memo_manager$323                 memo_manager
     00001AC9  A$memo_manager$324                 memo_manager
     00001ACC  A$memo_manager$325                 memo_manager
     00001ACF  A$memo_manager$326                 memo_manager
     00001AD0  A$memo_manager$327                 memo_manager
     00001AD1  A$memo_manager$328                 memo_manager
     00001AD3  A$memo_manager$333                 memo_manager
     00001AD3  C$memo_manager.c$77$2_0$52         memo_manager
     00001AD6  A$memo_manager$334                 memo_manager
     00001AD7  A$memo_manager$335                 memo_manager
     00001AD9  A$memo_manager$336                 memo_manager
     00001ADA  A$memo_manager$337                 memo_manager
     00001ADB  A$memo_manager$338                 memo_manager
     00001ADE  A$memo_manager$339                 memo_manager
     00001ADF  A$memo_manager$340                 memo_manager
     00001AE2  A$memo_manager$341                 memo_manager
     00001AE3  A$memo_manager$342                 memo_manager
     00001AE6  A$memo_manager$343                 memo_manager
     00001AE7  A$memo_manager$344                 memo_manager
     00001AEA  A$memo_manager$345                 memo_manager
     00001AED  A$memo_manager$346                 memo_manager
     00001AEE  A$memo_manager$347                 memo_manager
     00001AEF  A$memo_manager$352                 memo_manager
     00001AF1  A$memo_manager$357                 memo_manager
     00001AF1  C$memo_manager.c$80$1_0$50         memo_manager
     00001AF1  XG$engine_memo_manager_draw_pass   memo_manager
     00001AF2  Fmemo_manager$__str_9$0_0$0        memo_manager
     00001AFD  Fmemo_manager$__str_10$0_0$0       memo_manager
     00001B08  Fmemo_manager$__str_11$0_0$0       memo_manager
     00001B13  Fmemo_manager$__str_12$0_0$0       memo_manager
     00001B1E  A$memo_manager$386                 memo_manager
     00001B1E  C$memo_manager.c$81$1_0$53         memo_manager
ASxxxx Linker V03.00 + NoICE + sdld,  page 64.
Hexadecimal  [32-Bits]

Area                                    Addr        Size        Decimal Bytes (Attributes)
--------------------------------        ----        ----        ------- ----- ------------
_CODE                               00000200    0000636D =       25453. bytes (REL,CON)

      Value  Global                              Global Defined In Module
      -----  --------------------------------   ------------------------
     00001B1E  C$memo_manager.c$87$1_0$53         memo_manager
     00001B1E  G$engine_memo_manager_draw_gems$   memo_manager
     00001B1E  _engine_memo_manager_draw_gems     memo_manager
     00001B21  A$memo_manager$387                 memo_manager
     00001B22  A$memo_manager$388                 memo_manager
     00001B23  A$memo_manager$389                 memo_manager
     00001B24  A$memo_manager$390                 memo_manager
     00001B25  A$memo_manager$391                 memo_manager
     00001B27  A$memo_manager$392                 memo_manager
     00001B28  A$memo_manager$393                 memo_manager
     00001B29  A$memo_manager$394                 memo_manager
     00001B2B  A$memo_manager$395                 memo_manager
     00001B2C  A$memo_manager$396                 memo_manager
     00001B2D  A$memo_manager$397                 memo_manager
     00001B2F  A$memo_manager$398                 memo_manager
     00001B30  A$memo_manager$399                 memo_manager
     00001B31  A$memo_manager$400                 memo_manager
     00001B32  A$memo_manager$401                 memo_manager
     00001B33  A$memo_manager$402                 memo_manager
     00001B34  A$memo_manager$403                 memo_manager
     00001B37  A$memo_manager$404                 memo_manager
     00001B3A  A$memo_manager$405                 memo_manager
     00001B3B  A$memo_manager$406                 memo_manager
     00001B3C  A$memo_manager$410                 memo_manager
     00001B3C  C$memo_manager.c$88$1_0$53         memo_manager
     00001B3F  A$memo_manager$411                 memo_manager
     00001B40  A$memo_manager$412                 memo_manager
     00001B43  A$memo_manager$413                 memo_manager
     00001B44  A$memo_manager$414                 memo_manager
     00001B47  A$memo_manager$415                 memo_manager
     00001B48  A$memo_manager$416                 memo_manager
     00001B49  A$memo_manager$424                 memo_manager
     00001B49  C$memo_manager.c$89$1_0$53         memo_manager
     00001B49  XG$engine_memo_manager_draw_gems   memo_manager
     00001B4A  Fmemo_manager$__str_13$0_0$0       memo_manager
     00001B55  Fmemo_manager$__str_14$0_0$0       memo_manager
     00001B5A  A$memo_manager$445                 memo_manager
     00001B5A  C$memo_manager.c$91$1_0$54         memo_manager
     00001B5A  C$memo_manager.c$96$1_0$54         memo_manager
     00001B5A  G$engine_memo_manager_draw_dead$   memo_manager
     00001B5A  _engine_memo_manager_draw_dead     memo_manager
     00001B5D  A$memo_manager$446                 memo_manager
     00001B5E  A$memo_manager$447                 memo_manager
     00001B60  A$memo_manager$448                 memo_manager
     00001B61  A$memo_manager$449                 memo_manager
     00001B62  A$memo_manager$450                 memo_manager
     00001B65  A$memo_manager$451                 memo_manager
     00001B66  A$memo_manager$452                 memo_manager
     00001B69  A$memo_manager$453                 memo_manager
     00001B6A  A$memo_manager$454                 memo_manager
     00001B6D  A$memo_manager$455                 memo_manager
ASxxxx Linker V03.00 + NoICE + sdld,  page 65.
Hexadecimal  [32-Bits]

Area                                    Addr        Size        Decimal Bytes (Attributes)
--------------------------------        ----        ----        ------- ----- ------------
_CODE                               00000200    0000636D =       25453. bytes (REL,CON)

      Value  Global                              Global Defined In Module
      -----  --------------------------------   ------------------------
     00001B6E  A$memo_manager$456                 memo_manager
     00001B71  A$memo_manager$457                 memo_manager
     00001B74  A$memo_manager$458                 memo_manager
     00001B75  A$memo_manager$459                 memo_manager
     00001B76  A$memo_manager$467                 memo_manager
     00001B76  C$memo_manager.c$97$1_0$54         memo_manager
     00001B76  XG$engine_memo_manager_draw_dead   memo_manager
     00001B77  Fmemo_manager$__str_15$0_0$0       memo_manager
     00001B82  Fmemo_manager$__str_16$0_0$0       memo_manager
     00001B8D  Fmemo_manager$__str_17$0_0$0       memo_manager
     00001B98  A$memo_manager$492                 memo_manager
     00001B98  C$memo_manager.c$105$1_0$55        memo_manager
     00001B98  C$memo_manager.c$99$1_0$55         memo_manager
     00001B98  G$engine_memo_manager_draw_cont$   memo_manager
     00001B98  _engine_memo_manager_draw_cont     memo_manager
     00001B9B  A$memo_manager$493                 memo_manager
     00001B9C  A$memo_manager$494                 memo_manager
     00001B9E  A$memo_manager$495                 memo_manager
     00001B9F  A$memo_manager$496                 memo_manager
     00001BA0  A$memo_manager$497                 memo_manager
     00001BA3  A$memo_manager$498                 memo_manager
     00001BA4  A$memo_manager$499                 memo_manager
     00001BA7  A$memo_manager$500                 memo_manager
     00001BA8  A$memo_manager$501                 memo_manager
     00001BAB  A$memo_manager$502                 memo_manager
     00001BAC  A$memo_manager$503                 memo_manager
     00001BAF  A$memo_manager$504                 memo_manager
     00001BB2  A$memo_manager$505                 memo_manager
     00001BB3  A$memo_manager$506                 memo_manager
     00001BB4  A$memo_manager$514                 memo_manager
     00001BB4  C$memo_manager.c$106$1_0$55        memo_manager
     00001BB4  XG$engine_memo_manager_draw_cont   memo_manager
     00001BB5  Fmemo_manager$__str_18$0_0$0       memo_manager
     00001BC0  Fmemo_manager$__str_19$0_0$0       memo_manager
     00001BCB  Fmemo_manager$__str_20$0_0$0       memo_manager
     00001BD6  A$memo_manager$539                 memo_manager
     00001BD6  C$memo_manager.c$108$1_0$56        memo_manager
     00001BD6  C$memo_manager.c$114$1_0$56        memo_manager
     00001BD6  G$engine_memo_manager_draw_over$   memo_manager
     00001BD6  _engine_memo_manager_draw_over     memo_manager
     00001BD9  A$memo_manager$540                 memo_manager
     00001BDA  A$memo_manager$541                 memo_manager
     00001BDC  A$memo_manager$542                 memo_manager
     00001BDD  A$memo_manager$543                 memo_manager
     00001BDE  A$memo_manager$544                 memo_manager
     00001BE1  A$memo_manager$545                 memo_manager
     00001BE2  A$memo_manager$546                 memo_manager
     00001BE5  A$memo_manager$547                 memo_manager
     00001BE6  A$memo_manager$548                 memo_manager
     00001BE9  A$memo_manager$549                 memo_manager
     00001BEA  A$memo_manager$550                 memo_manager
ASxxxx Linker V03.00 + NoICE + sdld,  page 66.
Hexadecimal  [32-Bits]

Area                                    Addr        Size        Decimal Bytes (Attributes)
--------------------------------        ----        ----        ------- ----- ------------
_CODE                               00000200    0000636D =       25453. bytes (REL,CON)

      Value  Global                              Global Defined In Module
      -----  --------------------------------   ------------------------
     00001BED  A$memo_manager$551                 memo_manager
     00001BF0  A$memo_manager$552                 memo_manager
     00001BF1  A$memo_manager$553                 memo_manager
     00001BF2  A$memo_manager$561                 memo_manager
     00001BF2  C$memo_manager.c$115$1_0$56        memo_manager
     00001BF2  XG$engine_memo_manager_draw_over   memo_manager
     00001BF3  Fmemo_manager$__str_21$0_0$0       memo_manager
     00001BFE  Fmemo_manager$__str_22$0_0$0       memo_manager
     00001C09  Fmemo_manager$__str_23$0_0$0       memo_manager
     00001C14  A$memo_manager$586                 memo_manager
     00001C14  C$memo_manager.c$117$1_0$57        memo_manager
     00001C14  C$memo_manager.c$122$1_0$57        memo_manager
     00001C14  G$engine_memo_manager_draw_beat$   memo_manager
     00001C14  _engine_memo_manager_draw_beat     memo_manager
     00001C17  A$memo_manager$587                 memo_manager
     00001C18  A$memo_manager$588                 memo_manager
     00001C1A  A$memo_manager$589                 memo_manager
     00001C1B  A$memo_manager$590                 memo_manager
     00001C1C  A$memo_manager$591                 memo_manager
     00001C1F  A$memo_manager$592                 memo_manager
     00001C20  A$memo_manager$593                 memo_manager
     00001C23  A$memo_manager$594                 memo_manager
     00001C24  A$memo_manager$595                 memo_manager
     00001C27  A$memo_manager$596                 memo_manager
     00001C28  A$memo_manager$597                 memo_manager
     00001C2B  A$memo_manager$598                 memo_manager
     00001C2E  A$memo_manager$599                 memo_manager
     00001C2F  A$memo_manager$600                 memo_manager
     00001C30  A$memo_manager$608                 memo_manager
     00001C30  C$memo_manager.c$123$1_0$57        memo_manager
     00001C30  XG$engine_memo_manager_draw_beat   memo_manager
     00001C31  Fmemo_manager$__str_24$0_0$0       memo_manager
     00001C43  Fmemo_manager$__str_25$0_0$0       memo_manager
     00001C55  Fmemo_manager$__str_26$0_0$0       memo_manager
     00001C67  A$memo_manager$633                 memo_manager
     00001C67  C$memo_manager.c$125$1_0$58        memo_manager
     00001C67  C$memo_manager.c$127$1_0$58        memo_manager
     00001C67  Fmemo_manager$get_tile$0$0         memo_manager
     00001C6B  A$memo_manager$634                 memo_manager
     00001C6E  A$memo_manager$638                 memo_manager
     00001C6E  C$memo_manager.c$128$1_0$58        memo_manager
     00001C71  A$memo_manager$639                 memo_manager
     00001C73  A$memo_manager$640                 memo_manager
     00001C75  A$memo_manager$644                 memo_manager
     00001C75  C$memo_manager.c$130$2_0$59        memo_manager
     00001C79  A$memo_manager$649                 memo_manager
     00001C79  C$memo_manager.c$133$1_0$58        memo_manager
     00001C7C  A$memo_manager$650                 memo_manager
     00001C7F  A$memo_manager$651                 memo_manager
     00001C81  A$memo_manager$652                 memo_manager
     00001C82  A$memo_manager$653                 memo_manager
ASxxxx Linker V03.00 + NoICE + sdld,  page 67.
Hexadecimal  [32-Bits]

Area                                    Addr        Size        Decimal Bytes (Attributes)
--------------------------------        ----        ----        ------- ----- ------------
_CODE                               00000200    0000636D =       25453. bytes (REL,CON)

      Value  Global                              Global Defined In Module
      -----  --------------------------------   ------------------------
     00001C83  A$memo_manager$661                 memo_manager
     00001C83  C$memo_manager.c$134$1_0$58        memo_manager
     00001C83  XFmemo_manager$get_tile$0$0        memo_manager
     00001C84  A$memo_manager$671                 memo_manager
     00001C84  C$memo_manager.c$135$1_0$61        memo_manager
     00001C84  Fmemo_manager$draw_tile$0$0        memo_manager
     00001C86  A$memo_manager$672                 memo_manager
     00001C8A  A$memo_manager$673                 memo_manager
     00001C8C  A$memo_manager$677                 memo_manager
     00001C8C  C$memo_manager.c$140$3_0$63        memo_manager
     00001C8F  A$memo_manager$678                 memo_manager
     00001C90  A$memo_manager$679                 memo_manager
     00001C91  A$memo_manager$680                 memo_manager
     00001C92  A$memo_manager$681                 memo_manager
     00001C94  A$memo_manager$683                 memo_manager
     00001C95  A$memo_manager$684                 memo_manager
     00001C98  A$memo_manager$685                 memo_manager
     00001C9A  A$memo_manager$689                 memo_manager
     00001C9A  C$memo_manager.c$142$3_0$63        memo_manager
     00001C9B  A$memo_manager$690                 memo_manager
     00001C9E  A$memo_manager$691                 memo_manager
     00001C9F  A$memo_manager$692                 memo_manager
     00001CA2  A$memo_manager$693                 memo_manager
     00001CA3  A$memo_manager$694                 memo_manager
     00001CA4  A$memo_manager$695                 memo_manager
     00001CA5  A$memo_manager$696                 memo_manager
     00001CA6  A$memo_manager$697                 memo_manager
     00001CA7  A$memo_manager$698                 memo_manager
     00001CAA  A$memo_manager$699                 memo_manager
     00001CAB  A$memo_manager$700                 memo_manager
     00001CAC  A$memo_manager$701                 memo_manager
     00001CAD  A$memo_manager$702                 memo_manager
     00001CB0  A$memo_manager$703                 memo_manager
     00001CB1  A$memo_manager$704                 memo_manager
     00001CB2  A$memo_manager$705                 memo_manager
     00001CB5  A$memo_manager$706                 memo_manager
     00001CB6  A$memo_manager$707                 memo_manager
     00001CB7  A$memo_manager$708                 memo_manager
     00001CB8  A$memo_manager$709                 memo_manager
     00001CB9  A$memo_manager$710                 memo_manager
     00001CBA  A$memo_manager$711                 memo_manager
     00001CBB  A$memo_manager$712                 memo_manager
     00001CBC  A$memo_manager$713                 memo_manager
     00001CBD  A$memo_manager$714                 memo_manager
     00001CC0  A$memo_manager$715                 memo_manager
     00001CC1  A$memo_manager$716                 memo_manager
     00001CC2  A$memo_manager$717                 memo_manager
     00001CC3  A$memo_manager$721                 memo_manager
     00001CC3  C$memo_manager.c$140$2_0$62        memo_manager
     00001CC4  A$memo_manager$722                 memo_manager
     00001CC6  A$memo_manager$727                 memo_manager
ASxxxx Linker V03.00 + NoICE + sdld,  page 68.
Hexadecimal  [32-Bits]

Area                                    Addr        Size        Decimal Bytes (Attributes)
--------------------------------        ----        ----        ------- ----- ------------
_CODE                               00000200    0000636D =       25453. bytes (REL,CON)

      Value  Global                              Global Defined In Module
      -----  --------------------------------   ------------------------
     00001CC6  C$memo_manager.c$146$3_0$65        memo_manager
     00001CC9  A$memo_manager$728                 memo_manager
     00001CCC  A$memo_manager$729                 memo_manager
     00001CCD  A$memo_manager$730                 memo_manager
     00001CCF  A$memo_manager$732                 memo_manager
     00001CD0  A$memo_manager$733                 memo_manager
     00001CD2  A$memo_manager$734                 memo_manager
     00001CD4  A$memo_manager$738                 memo_manager
     00001CD4  C$memo_manager.c$148$3_0$65        memo_manager
     00001CD5  A$memo_manager$739                 memo_manager
     00001CD8  A$memo_manager$740                 memo_manager
     00001CD9  A$memo_manager$741                 memo_manager
     00001CDC  A$memo_manager$742                 memo_manager
     00001CDD  A$memo_manager$743                 memo_manager
     00001CDE  A$memo_manager$744                 memo_manager
     00001CDF  A$memo_manager$745                 memo_manager
     00001CE0  A$memo_manager$746                 memo_manager
     00001CE1  A$memo_manager$747                 memo_manager
     00001CE2  A$memo_manager$748                 memo_manager
     00001CE5  A$memo_manager$749                 memo_manager
     00001CE6  A$memo_manager$750                 memo_manager
     00001CE7  A$memo_manager$751                 memo_manager
     00001CEA  A$memo_manager$752                 memo_manager
     00001CEB  A$memo_manager$753                 memo_manager
     00001CEC  A$memo_manager$754                 memo_manager
     00001CEF  A$memo_manager$755                 memo_manager
     00001CF0  A$memo_manager$756                 memo_manager
     00001CF1  A$memo_manager$757                 memo_manager
     00001CF2  A$memo_manager$758                 memo_manager
     00001CF3  A$memo_manager$759                 memo_manager
     00001CF4  A$memo_manager$760                 memo_manager
     00001CF5  A$memo_manager$761                 memo_manager
     00001CF6  A$memo_manager$762                 memo_manager
     00001CF7  A$memo_manager$763                 memo_manager
     00001CF8  A$memo_manager$764                 memo_manager
     00001CF9  A$memo_manager$765                 memo_manager
     00001CFA  A$memo_manager$766                 memo_manager
     00001CFD  A$memo_manager$767                 memo_manager
     00001CFE  A$memo_manager$768                 memo_manager
     00001CFF  A$memo_manager$769                 memo_manager
     00001D00  A$memo_manager$773                 memo_manager
     00001D00  C$memo_manager.c$146$2_0$64        memo_manager
     00001D01  A$memo_manager$774                 memo_manager
     00001D03  A$memo_manager$779                 memo_manager
     00001D05  A$memo_manager$784                 memo_manager
     00001D05  C$memo_manager.c$151$2_0$61        memo_manager
     00001D05  XFmemo_manager$draw_tile$0$0       memo_manager
     00001D06  A$memo_manager$794                 memo_manager
     00001D06  C$memo_manager.c$152$2_0$67        memo_manager
     00001D06  Fmemo_manager$draw_memo$0$0        memo_manager
     00001D08  A$memo_manager$795                 memo_manager
ASxxxx Linker V03.00 + NoICE + sdld,  page 69.
Hexadecimal  [32-Bits]

Area                                    Addr        Size        Decimal Bytes (Attributes)
--------------------------------        ----        ----        ------- ----- ------------
_CODE                               00000200    0000636D =       25453. bytes (REL,CON)

      Value  Global                              Global Defined In Module
      -----  --------------------------------   ------------------------
     00001D0C  A$memo_manager$796                 memo_manager
     00001D0E  A$memo_manager$800                 memo_manager
     00001D0E  C$memo_manager.c$154$1_0$67        memo_manager
     00001D11  A$memo_manager$801                 memo_manager
     00001D12  A$memo_manager$805                 memo_manager
     00001D12  C$memo_manager.c$155$1_0$67        memo_manager
     00001D15  A$memo_manager$809                 memo_manager
     00001D15  C$memo_manager.c$156$1_0$67        memo_manager
     00001D18  A$memo_manager$810                 memo_manager
     00001D1A  A$memo_manager$814                 memo_manager
     00001D1A  C$memo_manager.c$158$1_0$67        memo_manager
     00001D1B  A$memo_manager$815                 memo_manager
     00001D1C  A$memo_manager$816                 memo_manager
     00001D1D  A$memo_manager$817                 memo_manager
     00001D1E  A$memo_manager$818                 memo_manager
     00001D1F  A$memo_manager$819                 memo_manager
     00001D20  A$memo_manager$820                 memo_manager
     00001D21  A$memo_manager$821                 memo_manager
     00001D24  A$memo_manager$822                 memo_manager
     00001D25  A$memo_manager$823                 memo_manager
     00001D26  A$memo_manager$824                 memo_manager
     00001D29  A$memo_manager$825                 memo_manager
     00001D2C  A$memo_manager$826                 memo_manager
     00001D2D  A$memo_manager$827                 memo_manager
     00001D30  A$memo_manager$828                 memo_manager
     00001D31  A$memo_manager$829                 memo_manager
     00001D32  A$memo_manager$830                 memo_manager
     00001D33  A$memo_manager$831                 memo_manager
     00001D34  A$memo_manager$832                 memo_manager
     00001D35  A$memo_manager$833                 memo_manager
     00001D36  A$memo_manager$834                 memo_manager
     00001D39  A$memo_manager$835                 memo_manager
     00001D3A  A$memo_manager$836                 memo_manager
     00001D3B  A$memo_manager$837                 memo_manager
     00001D3E  A$memo_manager$838                 memo_manager
     00001D41  A$memo_manager$839                 memo_manager
     00001D42  A$memo_manager$840                 memo_manager
     00001D45  A$memo_manager$841                 memo_manager
     00001D46  A$memo_manager$842                 memo_manager
     00001D47  A$memo_manager$843                 memo_manager
     00001D48  A$memo_manager$844                 memo_manager
     00001D49  A$memo_manager$848                 memo_manager
     00001D49  C$memo_manager.c$160$1_0$67        memo_manager
     00001D4A  A$memo_manager$849                 memo_manager
     00001D4B  A$memo_manager$850                 memo_manager
     00001D4C  A$memo_manager$851                 memo_manager
     00001D4D  A$memo_manager$852                 memo_manager
     00001D4E  A$memo_manager$853                 memo_manager
     00001D4F  A$memo_manager$854                 memo_manager
     00001D52  A$memo_manager$855                 memo_manager
     00001D53  A$memo_manager$856                 memo_manager
ASxxxx Linker V03.00 + NoICE + sdld,  page 70.
Hexadecimal  [32-Bits]

Area                                    Addr        Size        Decimal Bytes (Attributes)
--------------------------------        ----        ----        ------- ----- ------------
_CODE                               00000200    0000636D =       25453. bytes (REL,CON)

      Value  Global                              Global Defined In Module
      -----  --------------------------------   ------------------------
     00001D54  A$memo_manager$857                 memo_manager
     00001D57  A$memo_manager$858                 memo_manager
     00001D5A  A$memo_manager$859                 memo_manager
     00001D5B  A$memo_manager$860                 memo_manager
     00001D5E  A$memo_manager$861                 memo_manager
     00001D5F  A$memo_manager$862                 memo_manager
     00001D60  A$memo_manager$863                 memo_manager
     00001D61  A$memo_manager$867                 memo_manager
     00001D61  C$memo_manager.c$162$1_0$67        memo_manager
     00001D64  A$memo_manager$868                 memo_manager
     00001D65  A$memo_manager$872                 memo_manager
     00001D65  C$memo_manager.c$164$2_0$68        memo_manager
     00001D67  A$memo_manager$876                 memo_manager
     00001D67  C$memo_manager.c$167$1_0$67        memo_manager
     00001D6A  A$memo_manager$877                 memo_manager
     00001D6B  A$memo_manager$878                 memo_manager
     00001D6C  A$memo_manager$879                 memo_manager
     00001D6D  A$memo_manager$880                 memo_manager
     00001D70  A$memo_manager$881                 memo_manager
     00001D71  A$memo_manager$882                 memo_manager
     00001D72  A$memo_manager$887                 memo_manager
     00001D74  A$memo_manager$892                 memo_manager
     00001D74  C$memo_manager.c$168$1_0$67        memo_manager
     00001D74  XFmemo_manager$draw_memo$0$0       memo_manager
     00001D75  A$level_manager$69                 level_manager
     00001D75  C$level_manager.c$22$0_0$60        level_manager
     00001D75  G$engine_level_manager_init_leve   level_manager
     00001D75  _engine_level_manager_init_level   level_manager
     00001D77  A$level_manager$70                 level_manager
     00001D7B  A$level_manager$71                 level_manager
     00001D7D  A$level_manager$72                 level_manager
     00001D7E  A$level_manager$73                 level_manager
     00001D7F  A$level_manager$77                 level_manager
     00001D7F  C$level_manager.c$24$1_0$60        level_manager
     00001D82  A$level_manager$81                 level_manager
     00001D82  C$level_manager.c$27$5_0$64        level_manager
     00001D85  A$level_manager$82                 level_manager
     00001D86  A$level_manager$83                 level_manager
     00001D87  A$level_manager$84                 level_manager
     00001D8B  A$level_manager$89                 level_manager
     00001D8B  C$level_manager.c$29$2_0$60        level_manager
     00001D8F  A$level_manager$94                 level_manager
     00001D8F  C$level_manager.c$31$5_0$64        level_manager
     00001D92  A$level_manager$95                 level_manager
     00001D93  A$level_manager$96                 level_manager
     00001D94  A$level_manager$97                 level_manager
     00001D95  A$level_manager$98                 level_manager
     00001D96  A$level_manager$99                 level_manager
     00001D99  A$level_manager$100                level_manager
     00001D9A  A$level_manager$104                level_manager
     00001D9A  C$level_manager.c$32$5_0$64        level_manager
ASxxxx Linker V03.00 + NoICE + sdld,  page 71.
Hexadecimal  [32-Bits]

Area                                    Addr        Size        Decimal Bytes (Attributes)
--------------------------------        ----        ----        ------- ----- ------------
_CODE                               00000200    0000636D =       25453. bytes (REL,CON)

      Value  Global                              Global Defined In Module
      -----  --------------------------------   ------------------------
     00001D9D  A$level_manager$105                level_manager
     00001D9E  A$level_manager$106                level_manager
     00001DA0  A$level_manager$107                level_manager
     00001DA1  A$level_manager$108                level_manager
     00001DA3  A$level_manager$112                level_manager
     00001DA3  C$level_manager.c$33$5_0$64        level_manager
     00001DA6  A$level_manager$113                level_manager
     00001DA8  A$level_manager$114                level_manager
     00001DA9  A$level_manager$115                level_manager
     00001DAB  A$level_manager$119                level_manager
     00001DAB  C$level_manager.c$29$4_0$63        level_manager
     00001DAE  A$level_manager$120                level_manager
     00001DB1  A$level_manager$121                level_manager
     00001DB3  A$level_manager$122                level_manager
     00001DB5  A$level_manager$126                level_manager
     00001DB5  C$level_manager.c$27$2_0$61        level_manager
     00001DB8  A$level_manager$127                level_manager
     00001DBB  A$level_manager$128                level_manager
     00001DBD  A$level_manager$129                level_manager
     00001DBF  A$level_manager$133                level_manager
     00001DBF  C$level_manager.c$37$3_0$66        level_manager
     00001DC1  A$level_manager$138                level_manager
     00001DC1  C$level_manager.c$39$3_0$66        level_manager
     00001DC2  A$level_manager$139                level_manager
     00001DC3  A$level_manager$140                level_manager
     00001DC4  A$level_manager$141                level_manager
     00001DC7  A$level_manager$142                level_manager
     00001DC9  A$level_manager$143                level_manager
     00001DCA  A$level_manager$144                level_manager
     00001DCB  A$level_manager$145                level_manager
     00001DCC  A$level_manager$146                level_manager
     00001DCD  A$level_manager$147                level_manager
     00001DCE  A$level_manager$151                level_manager
     00001DCE  C$level_manager.c$40$3_0$66        level_manager
     00001DD1  A$level_manager$152                level_manager
     00001DD3  A$level_manager$153                level_manager
     00001DD4  A$level_manager$154                level_manager
     00001DD5  A$level_manager$155                level_manager
     00001DD6  A$level_manager$156                level_manager
     00001DD7  A$level_manager$157                level_manager
     00001DD8  A$level_manager$161                level_manager
     00001DD8  C$level_manager.c$41$3_0$66        level_manager
     00001DDB  A$level_manager$162                level_manager
     00001DDD  A$level_manager$163                level_manager
     00001DDE  A$level_manager$164                level_manager
     00001DE0  A$level_manager$168                level_manager
     00001DE0  C$level_manager.c$42$3_0$66        level_manager
     00001DE3  A$level_manager$169                level_manager
     00001DE5  A$level_manager$170                level_manager
     00001DE6  A$level_manager$171                level_manager
     00001DE8  A$level_manager$175                level_manager
ASxxxx Linker V03.00 + NoICE + sdld,  page 72.
Hexadecimal  [32-Bits]

Area                                    Addr        Size        Decimal Bytes (Attributes)
--------------------------------        ----        ----        ------- ----- ------------
_CODE                               00000200    0000636D =       25453. bytes (REL,CON)

      Value  Global                              Global Defined In Module
      -----  --------------------------------   ------------------------
     00001DE8  C$level_manager.c$43$3_0$66        level_manager
     00001DEB  A$level_manager$176                level_manager
     00001DED  A$level_manager$177                level_manager
     00001DEE  A$level_manager$178                level_manager
     00001DF0  A$level_manager$182                level_manager
     00001DF0  C$level_manager.c$44$3_0$66        level_manager
     00001DF3  A$level_manager$183                level_manager
     00001DF5  A$level_manager$184                level_manager
     00001DF6  A$level_manager$185                level_manager
     00001DF8  A$level_manager$189                level_manager
     00001DF8  C$level_manager.c$37$2_0$65        level_manager
     00001DF9  A$level_manager$190                level_manager
     00001DFA  A$level_manager$191                level_manager
     00001DFC  A$level_manager$192                level_manager
     00001DFE  A$level_manager$196                level_manager
     00001E00  A$level_manager$197                level_manager
     00001E02  A$level_manager$202                level_manager
     00001E02  C$level_manager.c$46$2_0$60        level_manager
     00001E02  XG$engine_level_manager_init_lev   level_manager
     00001E03  A$level_manager$212                level_manager
     00001E03  C$level_manager.c$48$2_0$68        level_manager
     00001E03  Flevel_manager$load_level$0$0      level_manager
     00001E05  A$level_manager$213                level_manager
     00001E09  A$level_manager$214                level_manager
     00001E0B  A$level_manager$215                level_manager
     00001E0E  A$level_manager$216                level_manager
     00001E0F  A$level_manager$217                level_manager
     00001E10  A$level_manager$224                level_manager
     00001E10  C$level_manager.c$50$1_0$68        level_manager
     00001E10  C$level_manager.c$52$1_0$68        level_manager
     00001E13  A$level_manager$225                level_manager
     00001E16  A$level_manager$226                level_manager
     00001E19  A$level_manager$227                level_manager
     00001E1C  A$level_manager$231                level_manager
     00001E1C  C$level_manager.c$62$1_0$68        level_manager
     00001E1E  A$level_manager$235                level_manager
     00001E1E  C$level_manager.c$64$1_0$68        level_manager
     00001E21  A$level_manager$236                level_manager
     00001E23  A$level_manager$237                level_manager
     00001E24  A$level_manager$238                level_manager
     00001E27  A$level_manager$239                level_manager
     00001E28  A$level_manager$240                level_manager
     00001E29  A$level_manager$241                level_manager
     00001E2C  A$level_manager$242                level_manager
     00001E2D  A$level_manager$243                level_manager
     00001E2E  A$level_manager$244                level_manager
     00001E2F  A$level_manager$245                level_manager
     00001E30  A$level_manager$246                level_manager
     00001E34  A$level_manager$250                level_manager
     00001E34  C$level_manager.c$65$1_0$68        level_manager
     00001E38  A$level_manager$251                level_manager
ASxxxx Linker V03.00 + NoICE + sdld,  page 73.
Hexadecimal  [32-Bits]

Area                                    Addr        Size        Decimal Bytes (Attributes)
--------------------------------        ----        ----        ------- ----- ------------
_CODE                               00000200    0000636D =       25453. bytes (REL,CON)

      Value  Global                              Global Defined In Module
      -----  --------------------------------   ------------------------
     00001E39  A$level_manager$252                level_manager
     00001E3A  A$level_manager$253                level_manager
     00001E3E  A$level_manager$257                level_manager
     00001E3E  C$level_manager.c$66$1_0$68        level_manager
     00001E41  A$level_manager$258                level_manager
     00001E43  A$level_manager$262                level_manager
     00001E43  C$level_manager.c$68$1_0$68        level_manager
     00001E44  A$level_manager$263                level_manager
     00001E47  A$level_manager$264                level_manager
     00001E48  A$level_manager$265                level_manager
     00001E49  A$level_manager$266                level_manager
     00001E4C  A$level_manager$270                level_manager
     00001E4C  C$level_manager.c$69$6_0$73        level_manager
     00001E50  A$level_manager$271                level_manager
     00001E51  A$level_manager$272                level_manager
     00001E52  A$level_manager$277                level_manager
     00001E52  C$level_manager.c$71$1_0$68        level_manager
     00001E55  A$level_manager$278                level_manager
     00001E58  A$level_manager$279                level_manager
     00001E5B  A$level_manager$280                level_manager
     00001E5E  A$level_manager$281                level_manager
     00001E61  A$level_manager$282                level_manager
     00001E65  A$level_manager$284                level_manager
     00001E69  A$level_manager$285                level_manager
     00001E6C  A$level_manager$286                level_manager
     00001E6E  A$level_manager$287                level_manager
     00001E6F  A$level_manager$288                level_manager
     00001E71  A$level_manager$289                level_manager
     00001E74  A$level_manager$293                level_manager
     00001E74  C$level_manager.c$73$5_0$72        level_manager
     00001E77  A$level_manager$294                level_manager
     00001E7A  A$level_manager$295                level_manager
     00001E7B  A$level_manager$299                level_manager
     00001E7B  C$level_manager.c$74$5_0$72        level_manager
     00001E7E  A$level_manager$300                level_manager
     00001E80  A$level_manager$301                level_manager
     00001E82  A$level_manager$302                level_manager
     00001E84  A$level_manager$303                level_manager
     00001E85  A$level_manager$305                level_manager
     00001E86  A$level_manager$306                level_manager
     00001E87  A$level_manager$307                level_manager
     00001E8A  A$level_manager$308                level_manager
     00001E8B  A$level_manager$309                level_manager
     00001E8E  A$level_manager$313                level_manager
     00001E8E  C$level_manager.c$76$6_0$73        level_manager
     00001E91  A$level_manager$314                level_manager
     00001E93  A$level_manager$315                level_manager
     00001E94  A$level_manager$316                level_manager
     00001E95  A$level_manager$317                level_manager
     00001E96  A$level_manager$318                level_manager
     00001E97  A$level_manager$319                level_manager
ASxxxx Linker V03.00 + NoICE + sdld,  page 74.
Hexadecimal  [32-Bits]

Area                                    Addr        Size        Decimal Bytes (Attributes)
--------------------------------        ----        ----        ------- ----- ------------
_CODE                               00000200    0000636D =       25453. bytes (REL,CON)

      Value  Global                              Global Defined In Module
      -----  --------------------------------   ------------------------
     00001E9A  A$level_manager$320                level_manager
     00001E9C  A$level_manager$321                level_manager
     00001E9D  A$level_manager$322                level_manager
     00001EA0  A$level_manager$323                level_manager
     00001EA3  A$level_manager$327                level_manager
     00001EA3  C$level_manager.c$78$6_0$73        level_manager
     00001EA6  A$level_manager$328                level_manager
     00001EA7  A$level_manager$329                level_manager
     00001EAA  A$level_manager$330                level_manager
     00001EAD  A$level_manager$331                level_manager
     00001EAE  A$level_manager$332                level_manager
     00001EAF  A$level_manager$333                level_manager
     00001EB2  A$level_manager$334                level_manager
     00001EB3  A$level_manager$335                level_manager
     00001EB4  A$level_manager$339                level_manager
     00001EB4  C$level_manager.c$79$6_0$73        level_manager
     00001EB6  A$level_manager$340                level_manager
     00001EB9  A$level_manager$341                level_manager
     00001EBC  A$level_manager$342                level_manager
     00001EBE  A$level_manager$343                level_manager
     00001EC1  A$level_manager$344                level_manager
     00001EC4  A$level_manager$345                level_manager
     00001EC7  A$level_manager$346                level_manager
     00001ECA  A$level_manager$347                level_manager
     00001ECD  A$level_manager$348                level_manager
     00001ECE  A$level_manager$352                level_manager
     00001ECE  C$level_manager.c$80$6_0$73        level_manager
     00001ED1  A$level_manager$353                level_manager
     00001ED3  A$level_manager$354                level_manager
     00001ED5  A$level_manager$358                level_manager
     00001ED5  C$level_manager.c$82$7_0$74        level_manager
     00001ED8  A$level_manager$359                level_manager
     00001EDB  A$level_manager$360                level_manager
     00001EDC  A$level_manager$364                level_manager
     00001EDC  C$level_manager.c$83$7_0$74        level_manager
     00001EDF  A$level_manager$365                level_manager
     00001EE2  A$level_manager$366                level_manager
     00001EE3  A$level_manager$371                level_manager
     00001EE3  C$level_manager.c$85$6_0$73        level_manager
     00001EE6  A$level_manager$372                level_manager
     00001EE8  A$level_manager$373                level_manager
     00001EEA  A$level_manager$377                level_manager
     00001EEA  C$level_manager.c$87$7_0$75        level_manager
     00001EED  A$level_manager$378                level_manager
     00001EEE  A$level_manager$379                level_manager
     00001EF1  A$level_manager$384                level_manager
     00001EF1  C$level_manager.c$89$6_0$73        level_manager
     00001EF4  A$level_manager$385                level_manager
     00001EF6  A$level_manager$386                level_manager
     00001EF8  A$level_manager$390                level_manager
     00001EF8  C$level_manager.c$91$7_0$76        level_manager
ASxxxx Linker V03.00 + NoICE + sdld,  page 75.
Hexadecimal  [32-Bits]

Area                                    Addr        Size        Decimal Bytes (Attributes)
--------------------------------        ----        ----        ------- ----- ------------
_CODE                               00000200    0000636D =       25453. bytes (REL,CON)

      Value  Global                              Global Defined In Module
      -----  --------------------------------   ------------------------
     00001EFB  A$level_manager$391                level_manager
     00001EFC  A$level_manager$392                level_manager
     00001EFE  A$level_manager$396                level_manager
     00001EFE  C$level_manager.c$93$8_0$77        level_manager
     00001F01  A$level_manager$397                level_manager
     00001F04  A$level_manager$398                level_manager
     00001F06  A$level_manager$403                level_manager
     00001F06  C$level_manager.c$97$6_0$73        level_manager
     00001F09  A$level_manager$404                level_manager
     00001F0A  A$level_manager$405                level_manager
     00001F0D  A$level_manager$406                level_manager
     00001F10  A$level_manager$407                level_manager
     00001F11  A$level_manager$408                level_manager
     00001F12  A$level_manager$409                level_manager
     00001F15  A$level_manager$410                level_manager
     00001F16  A$level_manager$411                level_manager
     00001F17  A$level_manager$415                level_manager
     00001F17  C$level_manager.c$99$6_0$73        level_manager
     00001F1A  A$level_manager$416                level_manager
     00001F1B  A$level_manager$417                level_manager
     00001F1E  A$level_manager$418                level_manager
     00001F1F  A$level_manager$419                level_manager
     00001F20  A$level_manager$420                level_manager
     00001F21  A$level_manager$421                level_manager
     00001F24  A$level_manager$422                level_manager
     00001F25  A$level_manager$423                level_manager
     00001F26  A$level_manager$427                level_manager
     00001F26  C$level_manager.c$100$6_0$73       level_manager
     00001F29  A$level_manager$428                level_manager
     00001F2B  A$level_manager$429                level_manager
     00001F2D  A$level_manager$433                level_manager
     00001F2D  C$level_manager.c$102$7_0$78       level_manager
     00001F30  A$level_manager$434                level_manager
     00001F32  A$level_manager$435                level_manager
     00001F34  A$level_manager$439                level_manager
     00001F34  C$level_manager.c$104$8_0$79       level_manager
     00001F37  A$level_manager$440                level_manager
     00001F38  A$level_manager$441                level_manager
     00001F39  A$level_manager$442                level_manager
     00001F3C  A$level_manager$443                level_manager
     00001F3D  A$level_manager$444                level_manager
     00001F3F  A$level_manager$449                level_manager
     00001F3F  C$level_manager.c$108$8_0$80       level_manager
     00001F42  A$level_manager$450                level_manager
     00001F45  A$level_manager$451                level_manager
     00001F48  A$level_manager$452                level_manager
     00001F49  A$level_manager$453                level_manager
     00001F4A  A$level_manager$454                level_manager
     00001F4D  A$level_manager$455                level_manager
     00001F4E  A$level_manager$456                level_manager
     00001F4F  A$level_manager$457                level_manager
ASxxxx Linker V03.00 + NoICE + sdld,  page 76.
Hexadecimal  [32-Bits]

Area                                    Addr        Size        Decimal Bytes (Attributes)
--------------------------------        ----        ----        ------- ----- ------------
_CODE                               00000200    0000636D =       25453. bytes (REL,CON)

      Value  Global                              Global Defined In Module
      -----  --------------------------------   ------------------------
     00001F52  A$level_manager$458                level_manager
     00001F53  A$level_manager$459                level_manager
     00001F54  A$level_manager$460                level_manager
     00001F55  A$level_manager$461                level_manager
     00001F56  A$level_manager$462                level_manager
     00001F59  A$level_manager$463                level_manager
     00001F5A  A$level_manager$464                level_manager
     00001F5B  A$level_manager$465                level_manager
     00001F5E  A$level_manager$466                level_manager
     00001F5F  A$level_manager$467                level_manager
     00001F60  A$level_manager$468                level_manager
     00001F61  A$level_manager$473                level_manager
     00001F61  C$level_manager.c$112$6_0$73       level_manager
     00001F63  A$level_manager$474                level_manager
     00001F66  A$level_manager$475                level_manager
     00001F67  A$level_manager$476                level_manager
     00001F69  A$level_manager$477                level_manager
     00001F6C  A$level_manager$478                level_manager
     00001F6D  A$level_manager$479                level_manager
     00001F70  A$level_manager$480                level_manager
     00001F71  A$level_manager$485                level_manager
     00001F71  C$level_manager.c$115$5_0$72       level_manager
     00001F74  A$level_manager$486                level_manager
     00001F76  A$level_manager$487                level_manager
     00001F79  A$level_manager$492                level_manager
     00001F79  C$level_manager.c$71$4_0$71        level_manager
     00001F7C  A$level_manager$493                level_manager
     00001F7F  A$level_manager$495                level_manager
     00001F82  A$level_manager$496                level_manager
     00001F85  A$level_manager$497                level_manager
     00001F88  A$level_manager$498                level_manager
     00001F8B  A$level_manager$499                level_manager
     00001F8E  A$level_manager$503                level_manager
     00001F8E  C$level_manager.c$69$2_0$69        level_manager
     00001F91  A$level_manager$504                level_manager
     00001F94  A$level_manager$505                level_manager
     00001F96  A$level_manager$506                level_manager
     00001F99  A$level_manager$510                level_manager
     00001F99  C$level_manager.c$122$1_0$68       level_manager
     00001F9C  A$level_manager$511                level_manager
     00001F9D  A$level_manager$512                level_manager
     00001F9E  A$level_manager$513                level_manager
     00001F9F  A$level_manager$514                level_manager
     00001FA0  A$level_manager$515                level_manager
     00001FA1  A$level_manager$516                level_manager
     00001FA2  A$level_manager$517                level_manager
     00001FA3  A$level_manager$518                level_manager
     00001FA4  A$level_manager$519                level_manager
     00001FA5  A$level_manager$523                level_manager
     00001FA5  C$level_manager.c$123$1_0$68       level_manager
     00001FA8  A$level_manager$524                level_manager
ASxxxx Linker V03.00 + NoICE + sdld,  page 77.
Hexadecimal  [32-Bits]

Area                                    Addr        Size        Decimal Bytes (Attributes)
--------------------------------        ----        ----        ------- ----- ------------
_CODE                               00000200    0000636D =       25453. bytes (REL,CON)

      Value  Global                              Global Defined In Module
      -----  --------------------------------   ------------------------
     00001FA9  A$level_manager$525                level_manager
     00001FAB  A$level_manager$529                level_manager
     00001FAB  C$level_manager.c$124$1_0$68       level_manager
     00001FAE  A$level_manager$530                level_manager
     00001FAF  A$level_manager$531                level_manager
     00001FB1  A$level_manager$535                level_manager
     00001FB1  C$level_manager.c$127$1_0$68       level_manager
     00001FB4  A$level_manager$536                level_manager
     00001FB5  A$level_manager$537                level_manager
     00001FB6  A$level_manager$538                level_manager
     00001FB7  A$level_manager$539                level_manager
     00001FB8  A$level_manager$540                level_manager
     00001FB9  A$level_manager$541                level_manager
     00001FBA  A$level_manager$542                level_manager
     00001FBB  A$level_manager$543                level_manager
     00001FBC  A$level_manager$544                level_manager
     00001FBF  A$level_manager$545                level_manager
     00001FC0  A$level_manager$546                level_manager
     00001FC1  A$level_manager$550                level_manager
     00001FC1  C$level_manager.c$128$1_0$68       level_manager
     00001FC4  A$level_manager$551                level_manager
     00001FC5  A$level_manager$552                level_manager
     00001FC7  A$level_manager$556                level_manager
     00001FC7  C$level_manager.c$129$1_0$68       level_manager
     00001FCA  A$level_manager$557                level_manager
     00001FCB  A$level_manager$558                level_manager
     00001FCD  A$level_manager$562                level_manager
     00001FCD  C$level_manager.c$133$1_0$68       level_manager
     00001FD0  A$level_manager$563                level_manager
     00001FD3  A$level_manager$564                level_manager
     00001FD4  A$level_manager$568                level_manager
     00001FD4  C$level_manager.c$134$5_0$85       level_manager
     00001FD6  A$level_manager$570                level_manager
     00001FD7  A$level_manager$571                level_manager
     00001FD8  A$level_manager$572                level_manager
     00001FDB  A$level_manager$576                level_manager
     00001FDB  C$level_manager.c$136$3_0$82       level_manager
     00001FDE  A$level_manager$577                level_manager
     00001FE0  A$level_manager$578                level_manager
     00001FE1  A$level_manager$579                level_manager
     00001FE2  A$level_manager$580                level_manager
     00001FE3  A$level_manager$581                level_manager
     00001FE6  A$level_manager$585                level_manager
     00001FE6  C$level_manager.c$142$3_0$82       level_manager
     00001FE7  A$level_manager$586                level_manager
     00001FE8  A$level_manager$587                level_manager
     00001FEB  A$level_manager$588                level_manager
     00001FED  A$level_manager$589                level_manager
     00001FF0  A$level_manager$590                level_manager
     00001FF1  A$level_manager$591                level_manager
     00001FF3  A$level_manager$592                level_manager
ASxxxx Linker V03.00 + NoICE + sdld,  page 78.
Hexadecimal  [32-Bits]

Area                                    Addr        Size        Decimal Bytes (Attributes)
--------------------------------        ----        ----        ------- ----- ------------
_CODE                               00000200    0000636D =       25453. bytes (REL,CON)

      Value  Global                              Global Defined In Module
      -----  --------------------------------   ------------------------
     00001FF5  A$level_manager$593                level_manager
     00001FF6  A$level_manager$594                level_manager
     00001FF7  A$level_manager$598                level_manager
     00001FF7  C$level_manager.c$143$3_0$82       level_manager
     00001FFA  A$level_manager$599                level_manager
     00001FFB  A$level_manager$600                level_manager
     00001FFE  A$level_manager$601                level_manager
     00002001  A$level_manager$605                level_manager
     00002001  C$level_manager.c$146$3_0$82       level_manager
     00002003  A$level_manager$606                level_manager
     00002006  A$level_manager$607                level_manager
     00002008  A$level_manager$611                level_manager
     00002008  C$level_manager.c$148$1_0$68       level_manager
     0000200B  A$level_manager$616                level_manager
     0000200B  C$level_manager.c$150$5_0$85       level_manager
     0000200C  A$level_manager$620                level_manager
     0000200C  C$level_manager.c$151$5_0$85       level_manager
     0000200D  A$level_manager$621                level_manager
     0000200F  A$level_manager$622                level_manager
     00002011  A$level_manager$626                level_manager
     00002011  C$level_manager.c$156$5_0$85       level_manager
     00002013  A$level_manager$627                level_manager
     00002016  A$level_manager$628                level_manager
     00002019  A$level_manager$629                level_manager
     0000201B  A$level_manager$630                level_manager
     0000201D  A$level_manager$631                level_manager
     00002020  A$level_manager$632                level_manager
     00002023  A$level_manager$633                level_manager
     00002026  A$level_manager$634                level_manager
     00002027  A$level_manager$638                level_manager
     00002027  C$level_manager.c$157$5_0$85       level_manager
     00002029  A$level_manager$639                level_manager
     0000202A  A$level_manager$640                level_manager
     0000202B  A$level_manager$641                level_manager
     0000202C  A$level_manager$642                level_manager
     0000202D  A$level_manager$643                level_manager
     0000202E  A$level_manager$644                level_manager
     00002031  A$level_manager$645                level_manager
     00002035  A$level_manager$646                level_manager
     00002038  A$level_manager$647                level_manager
     00002039  A$level_manager$648                level_manager
     0000203A  A$level_manager$649                level_manager
     0000203D  A$level_manager$650                level_manager
     0000203E  A$level_manager$654                level_manager
     0000203E  C$level_manager.c$158$5_0$85       level_manager
     0000203F  A$level_manager$655                level_manager
     00002042  A$level_manager$656                level_manager
     00002043  A$level_manager$657                level_manager
     00002044  A$level_manager$658                level_manager
     00002045  A$level_manager$659                level_manager
     00002048  A$level_manager$663                level_manager
ASxxxx Linker V03.00 + NoICE + sdld,  page 79.
Hexadecimal  [32-Bits]

Area                                    Addr        Size        Decimal Bytes (Attributes)
--------------------------------        ----        ----        ------- ----- ------------
_CODE                               00000200    0000636D =       25453. bytes (REL,CON)

      Value  Global                              Global Defined In Module
      -----  --------------------------------   ------------------------
     00002048  C$level_manager.c$159$5_0$85       level_manager
     00002049  A$level_manager$664                level_manager
     0000204B  A$level_manager$668                level_manager
     0000204B  C$level_manager.c$164$5_0$85       level_manager
     0000204E  A$level_manager$669                level_manager
     00002051  A$level_manager$670                level_manager
     00002052  A$level_manager$671                level_manager
     00002053  A$level_manager$675                level_manager
     00002053  C$level_manager.c$165$5_0$85       level_manager
     00002055  A$level_manager$676                level_manager
     00002056  A$level_manager$677                level_manager
     00002057  A$level_manager$678                level_manager
     00002058  A$level_manager$679                level_manager
     00002059  A$level_manager$680                level_manager
     0000205A  A$level_manager$681                level_manager
     0000205D  A$level_manager$682                level_manager
     0000205E  A$level_manager$683                level_manager
     0000205F  A$level_manager$684                level_manager
     00002062  A$level_manager$685                level_manager
     00002063  A$level_manager$689                level_manager
     00002063  C$level_manager.c$166$5_0$85       level_manager
     00002064  A$level_manager$690                level_manager
     00002067  A$level_manager$691                level_manager
     00002068  A$level_manager$692                level_manager
     00002069  A$level_manager$693                level_manager
     0000206A  A$level_manager$694                level_manager
     0000206D  A$level_manager$698                level_manager
     0000206D  C$level_manager.c$167$5_0$85       level_manager
     0000206E  A$level_manager$699                level_manager
     00002070  A$level_manager$703                level_manager
     00002070  C$level_manager.c$172$5_0$85       level_manager
     00002073  A$level_manager$704                level_manager
     00002075  A$level_manager$709                level_manager
     00002075  C$level_manager.c$177$3_0$82       level_manager
     00002078  A$level_manager$710                level_manager
     00002079  A$level_manager$711                level_manager
     0000207C  A$level_manager$712                level_manager
     0000207F  A$level_manager$713                level_manager
     00002083  A$level_manager$714                level_manager
     00002086  A$level_manager$715                level_manager
     00002087  A$level_manager$716                level_manager
     0000208A  A$level_manager$717                level_manager
     0000208B  A$level_manager$718                level_manager
     0000208E  A$level_manager$722                level_manager
     0000208E  C$level_manager.c$179$1_0$68       level_manager
     00002091  A$level_manager$727                level_manager
     00002091  C$level_manager.c$181$5_0$90       level_manager
     00002092  A$level_manager$731                level_manager
     00002092  C$level_manager.c$182$5_0$90       level_manager
     00002095  A$level_manager$732                level_manager
     00002096  A$level_manager$733                level_manager
ASxxxx Linker V03.00 + NoICE + sdld,  page 80.
Hexadecimal  [32-Bits]

Area                                    Addr        Size        Decimal Bytes (Attributes)
--------------------------------        ----        ----        ------- ----- ------------
_CODE                               00000200    0000636D =       25453. bytes (REL,CON)

      Value  Global                              Global Defined In Module
      -----  --------------------------------   ------------------------
     00002099  A$level_manager$734                level_manager
     0000209D  A$level_manager$735                level_manager
     0000209E  A$level_manager$736                level_manager
     000020A1  A$level_manager$737                level_manager
     000020A2  A$level_manager$738                level_manager
     000020A5  A$level_manager$739                level_manager
     000020A7  A$level_manager$743                level_manager
     000020A7  C$level_manager.c$187$5_0$90       level_manager
     000020A9  A$level_manager$744                level_manager
     000020AC  A$level_manager$745                level_manager
     000020AF  A$level_manager$746                level_manager
     000020B1  A$level_manager$747                level_manager
     000020B3  A$level_manager$748                level_manager
     000020B6  A$level_manager$749                level_manager
     000020B9  A$level_manager$750                level_manager
     000020BC  A$level_manager$751                level_manager
     000020BD  A$level_manager$755                level_manager
     000020BD  C$level_manager.c$188$5_0$90       level_manager
     000020BF  A$level_manager$756                level_manager
     000020C0  A$level_manager$757                level_manager
     000020C1  A$level_manager$758                level_manager
     000020C2  A$level_manager$759                level_manager
     000020C3  A$level_manager$760                level_manager
     000020C4  A$level_manager$761                level_manager
     000020C7  A$level_manager$762                level_manager
     000020CB  A$level_manager$763                level_manager
     000020CE  A$level_manager$764                level_manager
     000020CF  A$level_manager$765                level_manager
     000020D0  A$level_manager$766                level_manager
     000020D3  A$level_manager$767                level_manager
     000020D4  A$level_manager$771                level_manager
     000020D4  C$level_manager.c$189$5_0$90       level_manager
     000020D6  A$level_manager$772                level_manager
     000020D7  A$level_manager$773                level_manager
     000020D8  A$level_manager$774                level_manager
     000020DA  A$level_manager$775                level_manager
     000020DB  A$level_manager$776                level_manager
     000020DC  A$level_manager$777                level_manager
     000020DD  A$level_manager$778                level_manager
     000020E0  A$level_manager$782                level_manager
     000020E0  C$level_manager.c$190$5_0$90       level_manager
     000020E1  A$level_manager$783                level_manager
     000020E3  A$level_manager$787                level_manager
     000020E3  C$level_manager.c$195$5_0$90       level_manager
     000020E6  A$level_manager$788                level_manager
     000020E9  A$level_manager$789                level_manager
     000020EA  A$level_manager$790                level_manager
     000020EB  A$level_manager$794                level_manager
     000020EB  C$level_manager.c$196$5_0$90       level_manager
     000020ED  A$level_manager$795                level_manager
     000020EE  A$level_manager$796                level_manager
ASxxxx Linker V03.00 + NoICE + sdld,  page 81.
Hexadecimal  [32-Bits]

Area                                    Addr        Size        Decimal Bytes (Attributes)
--------------------------------        ----        ----        ------- ----- ------------
_CODE                               00000200    0000636D =       25453. bytes (REL,CON)

      Value  Global                              Global Defined In Module
      -----  --------------------------------   ------------------------
     000020EF  A$level_manager$797                level_manager
     000020F0  A$level_manager$798                level_manager
     000020F1  A$level_manager$799                level_manager
     000020F2  A$level_manager$800                level_manager
     000020F5  A$level_manager$801                level_manager
     000020F6  A$level_manager$802                level_manager
     000020F7  A$level_manager$803                level_manager
     000020FA  A$level_manager$804                level_manager
     000020FB  A$level_manager$808                level_manager
     000020FB  C$level_manager.c$197$5_0$90       level_manager
     000020FD  A$level_manager$809                level_manager
     000020FE  A$level_manager$810                level_manager
     000020FF  A$level_manager$811                level_manager
     00002101  A$level_manager$812                level_manager
     00002102  A$level_manager$813                level_manager
     00002103  A$level_manager$814                level_manager
     00002104  A$level_manager$815                level_manager
     00002107  A$level_manager$819                level_manager
     00002107  C$level_manager.c$198$5_0$90       level_manager
     00002108  A$level_manager$820                level_manager
     0000210A  A$level_manager$824                level_manager
     0000210A  C$level_manager.c$203$5_0$90       level_manager
     0000210B  A$level_manager$825                level_manager
     0000210D  A$level_manager$830                level_manager
     0000210D  C$level_manager.c$207$3_0$82       level_manager
     00002110  A$level_manager$831                level_manager
     00002112  A$level_manager$832                level_manager
     00002113  A$level_manager$833                level_manager
     00002116  A$level_manager$834                level_manager
     00002117  A$level_manager$838                level_manager
     00002117  C$level_manager.c$208$3_0$82       level_manager
     0000211A  A$level_manager$839                level_manager
     0000211C  A$level_manager$840                level_manager
     0000211D  A$level_manager$841                level_manager
     0000211E  A$level_manager$846                level_manager
     0000211E  C$level_manager.c$134$2_0$81       level_manager
     0000211F  A$level_manager$847                level_manager
     00002122  A$level_manager$852                level_manager
     00002122  C$level_manager.c$212$1_0$68       level_manager
     00002125  A$level_manager$853                level_manager
     00002126  A$level_manager$854                level_manager
     00002128  A$level_manager$858                level_manager
     00002128  C$level_manager.c$215$1_0$68       level_manager
     0000212A  A$level_manager$860                level_manager
     0000212E  A$level_manager$861                level_manager
     0000212F  A$level_manager$862                level_manager
     00002131  A$level_manager$863                level_manager
     00002132  A$level_manager$864                level_manager
     00002134  A$level_manager$865                level_manager
     00002136  A$level_manager$869                level_manager
     00002136  C$level_manager.c$217$4_0$96       level_manager
ASxxxx Linker V03.00 + NoICE + sdld,  page 82.
Hexadecimal  [32-Bits]

Area                                    Addr        Size        Decimal Bytes (Attributes)
--------------------------------        ----        ----        ------- ----- ------------
_CODE                               00000200    0000636D =       25453. bytes (REL,CON)

      Value  Global                              Global Defined In Module
      -----  --------------------------------   ------------------------
     00002137  A$level_manager$870                level_manager
     00002139  A$level_manager$871                level_manager
     0000213B  A$level_manager$872                level_manager
     0000213C  A$level_manager$873                level_manager
     0000213E  A$level_manager$874                level_manager
     0000213F  A$level_manager$879                level_manager
     0000213F  C$level_manager.c$219$4_0$96       level_manager
     00002142  A$level_manager$880                level_manager
     00002143  A$level_manager$881                level_manager
     00002144  A$level_manager$882                level_manager
     00002147  A$level_manager$886                level_manager
     00002147  C$level_manager.c$220$4_0$96       level_manager
     0000214A  A$level_manager$887                level_manager
     0000214B  A$level_manager$888                level_manager
     0000214C  A$level_manager$889                level_manager
     0000214D  A$level_manager$890                level_manager
     00002150  A$level_manager$894                level_manager
     00002150  C$level_manager.c$226$4_0$96       level_manager
     00002151  A$level_manager$895                level_manager
     00002153  A$level_manager$899                level_manager
     00002153  C$level_manager.c$228$5_0$98       level_manager
     00002155  A$level_manager$900                level_manager
     00002156  A$level_manager$905                level_manager
     00002156  C$level_manager.c$215$3_0$95       level_manager
     00002157  A$level_manager$906                level_manager
     00002159  A$level_manager$911                level_manager
     0000215B  A$level_manager$912                level_manager
     0000215D  A$level_manager$917                level_manager
     0000215D  C$level_manager.c$232$1_0$68       level_manager
     0000215D  XFlevel_manager$load_level$0$0     level_manager
     0000215E  A$level_manager$927                level_manager
     0000215E  C$level_manager.c$234$1_0$100      level_manager
     0000215E  G$engine_level_manager_load_leve   level_manager
     0000215E  _engine_level_manager_load_level   level_manager
     00002160  A$level_manager$928                level_manager
     00002164  A$level_manager$929                level_manager
     00002166  A$level_manager$933                level_manager
     00002166  C$level_manager.c$240$1_0$100      level_manager
     00002169  A$level_manager$934                level_manager
     0000216A  A$level_manager$935                level_manager
     0000216C  A$level_manager$939                level_manager
     0000216C  C$level_manager.c$242$2_0$101      level_manager
     0000216F  A$level_manager$940                level_manager
     00002172  A$level_manager$941                level_manager
     00002174  A$level_manager$942                level_manager
     00002175  A$level_manager$943                level_manager
     00002176  A$level_manager$944                level_manager
     00002177  A$level_manager$945                level_manager
     00002178  A$level_manager$946                level_manager
     00002179  A$level_manager$950                level_manager
     00002179  C$level_manager.c$243$2_0$101      level_manager
ASxxxx Linker V03.00 + NoICE + sdld,  page 83.
Hexadecimal  [32-Bits]

Area                                    Addr        Size        Decimal Bytes (Attributes)
--------------------------------        ----        ----        ------- ----- ------------
_CODE                               00000200    0000636D =       25453. bytes (REL,CON)

      Value  Global                              Global Defined In Module
      -----  --------------------------------   ------------------------
     0000217C  A$level_manager$951                level_manager
     0000217F  A$level_manager$952                level_manager
     00002181  A$level_manager$953                level_manager
     00002182  A$level_manager$954                level_manager
     00002183  A$level_manager$958                level_manager
     00002183  C$level_manager.c$244$2_0$101      level_manager
     00002185  A$level_manager$959                level_manager
     00002188  A$level_manager$960                level_manager
     00002189  A$level_manager$961                level_manager
     0000218B  A$level_manager$962                level_manager
     0000218D  A$level_manager$963                level_manager
     0000218E  A$level_manager$964                level_manager
     0000218F  A$level_manager$968                level_manager
     0000218F  C$level_manager.c$245$2_0$101      level_manager
     00002192  A$level_manager$969                level_manager
     00002193  A$level_manager$970                level_manager
     00002194  A$level_manager$971                level_manager
     00002197  A$level_manager$972                level_manager
     00002198  A$level_manager$973                level_manager
     00002199  A$level_manager$974                level_manager
     0000219A  A$level_manager$975                level_manager
     0000219B  A$level_manager$976                level_manager
     0000219C  A$level_manager$977                level_manager
     0000219D  A$level_manager$978                level_manager
     0000219E  A$level_manager$979                level_manager
     000021A1  A$level_manager$980                level_manager
     000021A4  A$level_manager$981                level_manager
     000021A5  A$level_manager$982                level_manager
     000021A6  A$level_manager$986                level_manager
     000021A6  C$level_manager.c$246$2_0$101      level_manager
     000021A9  A$level_manager$991                level_manager
     000021A9  C$level_manager.c$250$1_0$100      level_manager
     000021AC  A$level_manager$992                level_manager
     000021AD  A$level_manager$993                level_manager
     000021AE  A$level_manager$994                level_manager
     000021AF  A$level_manager$995                level_manager
     000021B0  A$level_manager$996                level_manager
     000021B1  A$level_manager$997                level_manager
     000021B4  A$level_manager$998                level_manager
     000021B5  A$level_manager$1002               level_manager
     000021B5  C$level_manager.c$253$1_0$100      level_manager
     000021B6  A$level_manager$1003               level_manager
     000021B8  A$level_manager$1004               level_manager
     000021BA  A$level_manager$1005               level_manager
     000021BB  A$level_manager$1006               level_manager
     000021BC  A$level_manager$1007               level_manager
     000021BE  A$level_manager$1008               level_manager
     000021C0  A$level_manager$1012               level_manager
     000021C0  C$level_manager.c$255$2_0$102      level_manager
     000021C1  A$level_manager$1013               level_manager
     000021C3  A$level_manager$1014               level_manager
ASxxxx Linker V03.00 + NoICE + sdld,  page 84.
Hexadecimal  [32-Bits]

Area                                    Addr        Size        Decimal Bytes (Attributes)
--------------------------------        ----        ----        ------- ----- ------------
_CODE                               00000200    0000636D =       25453. bytes (REL,CON)

      Value  Global                              Global Defined In Module
      -----  --------------------------------   ------------------------
     000021C4  A$level_manager$1022               level_manager
     000021C4  C$level_manager.c$259$2_0$103      level_manager
     000021C4  C$level_manager.c$264$1_0$100      level_manager
     000021C5  A$level_manager$1023               level_manager
     000021C7  A$level_manager$1024               level_manager
     000021C8  A$level_manager$1025               level_manager
     000021C9  A$level_manager$1026               level_manager
     000021CA  A$level_manager$1030               level_manager
     000021CA  C$level_manager.c$262$1_0$100      level_manager
     000021CB  A$level_manager$1031               level_manager
     000021CC  A$level_manager$1032               level_manager
     000021CE  A$level_manager$1036               level_manager
     000021CE  C$level_manager.c$264$2_0$104      level_manager
     000021D1  A$level_manager$1037               level_manager
     000021D2  A$level_manager$1038               level_manager
     000021D3  A$level_manager$1039               level_manager
     000021D4  A$level_manager$1040               level_manager
     000021D5  A$level_manager$1044               level_manager
     000021D5  C$level_manager.c$265$2_0$104      level_manager
     000021D8  A$level_manager$1045               level_manager
     000021DA  A$level_manager$1046               level_manager
     000021DB  A$level_manager$1047               level_manager
     000021DC  A$level_manager$1051               level_manager
     000021DC  C$level_manager.c$266$2_0$104      level_manager
     000021DE  A$level_manager$1052               level_manager
     000021DF  A$level_manager$1053               level_manager
     000021E0  A$level_manager$1054               level_manager
     000021E2  A$level_manager$1055               level_manager
     000021E4  A$level_manager$1056               level_manager
     000021E5  A$level_manager$1057               level_manager
     000021E6  A$level_manager$1061               level_manager
     000021E6  C$level_manager.c$267$2_0$104      level_manager
     000021E9  A$level_manager$1062               level_manager
     000021EA  A$level_manager$1063               level_manager
     000021EB  A$level_manager$1064               level_manager
     000021EE  A$level_manager$1065               level_manager
     000021EF  A$level_manager$1066               level_manager
     000021F0  A$level_manager$1067               level_manager
     000021F1  A$level_manager$1068               level_manager
     000021F2  A$level_manager$1069               level_manager
     000021F3  A$level_manager$1070               level_manager
     000021F4  A$level_manager$1071               level_manager
     000021F5  A$level_manager$1072               level_manager
     000021F8  A$level_manager$1073               level_manager
     000021FB  A$level_manager$1074               level_manager
     000021FC  A$level_manager$1075               level_manager
     000021FD  A$level_manager$1076               level_manager
     000021FF  A$level_manager$1081               level_manager
     000021FF  C$level_manager.c$271$2_0$105      level_manager
     00002202  A$level_manager$1082               level_manager
     00002203  A$level_manager$1083               level_manager
ASxxxx Linker V03.00 + NoICE + sdld,  page 85.
Hexadecimal  [32-Bits]

Area                                    Addr        Size        Decimal Bytes (Attributes)
--------------------------------        ----        ----        ------- ----- ------------
_CODE                               00000200    0000636D =       25453. bytes (REL,CON)

      Value  Global                              Global Defined In Module
      -----  --------------------------------   ------------------------
     00002204  A$level_manager$1084               level_manager
     00002205  A$level_manager$1085               level_manager
     00002206  A$level_manager$1089               level_manager
     00002206  C$level_manager.c$272$2_0$105      level_manager
     00002209  A$level_manager$1090               level_manager
     0000220B  A$level_manager$1091               level_manager
     0000220C  A$level_manager$1092               level_manager
     0000220D  A$level_manager$1096               level_manager
     0000220D  C$level_manager.c$273$2_0$105      level_manager
     0000220F  A$level_manager$1097               level_manager
     00002210  A$level_manager$1098               level_manager
     00002211  A$level_manager$1099               level_manager
     00002213  A$level_manager$1100               level_manager
     00002215  A$level_manager$1101               level_manager
     00002216  A$level_manager$1102               level_manager
     00002217  A$level_manager$1106               level_manager
     00002217  C$level_manager.c$274$2_0$105      level_manager
     0000221A  A$level_manager$1107               level_manager
     0000221B  A$level_manager$1108               level_manager
     0000221C  A$level_manager$1109               level_manager
     0000221F  A$level_manager$1110               level_manager
     00002220  A$level_manager$1111               level_manager
     00002221  A$level_manager$1112               level_manager
     00002222  A$level_manager$1113               level_manager
     00002223  A$level_manager$1114               level_manager
     00002224  A$level_manager$1115               level_manager
     00002225  A$level_manager$1116               level_manager
     00002226  A$level_manager$1117               level_manager
     00002229  A$level_manager$1118               level_manager
     0000222C  A$level_manager$1119               level_manager
     0000222D  A$level_manager$1120               level_manager
     0000222E  A$level_manager$1125               level_manager
     00002230  A$level_manager$1130               level_manager
     00002230  C$level_manager.c$276$1_0$100      level_manager
     00002230  XG$engine_level_manager_load_lev   level_manager
     00002231  A$level_manager$1146               level_manager
     00002231  C$level_manager.c$278$1_0$107      level_manager
     00002231  C$level_manager.c$280$1_0$106      level_manager
     00002231  G$engine_level_manager_draw_leve   level_manager
     00002231  _engine_level_manager_draw_level   level_manager
     00002233  A$level_manager$1151               level_manager
     00002233  C$level_manager.c$284$2_0$107      level_manager
     00002235  A$level_manager$1153               level_manager
     00002239  A$level_manager$1154               level_manager
     0000223A  A$level_manager$1155               level_manager
     0000223C  A$level_manager$1156               level_manager
     0000223D  A$level_manager$1157               level_manager
     0000223F  A$level_manager$1158               level_manager
     00002241  A$level_manager$1162               level_manager
     00002241  C$level_manager.c$286$5_0$110      level_manager
     00002242  A$level_manager$1163               level_manager
ASxxxx Linker V03.00 + NoICE + sdld,  page 86.
Hexadecimal  [32-Bits]

Area                                    Addr        Size        Decimal Bytes (Attributes)
--------------------------------        ----        ----        ------- ----- ------------
_CODE                               00000200    0000636D =       25453. bytes (REL,CON)

      Value  Global                              Global Defined In Module
      -----  --------------------------------   ------------------------
     00002243  A$level_manager$1164               level_manager
     00002244  A$level_manager$1165               level_manager
     00002245  A$level_manager$1166               level_manager
     00002246  A$level_manager$1167               level_manager
     00002247  A$level_manager$1168               level_manager
     0000224A  A$level_manager$1169               level_manager
     0000224B  A$level_manager$1170               level_manager
     0000224C  A$level_manager$1174               level_manager
     0000224C  C$level_manager.c$284$4_0$109      level_manager
     0000224D  A$level_manager$1175               level_manager
     0000224F  A$level_manager$1180               level_manager
     0000224F  C$level_manager.c$282$2_0$107      level_manager
     00002250  A$level_manager$1181               level_manager
     00002251  A$level_manager$1182               level_manager
     00002253  A$level_manager$1183               level_manager
     00002255  A$level_manager$1191               level_manager
     00002255  C$level_manager.c$289$2_0$107      level_manager
     00002255  XG$engine_level_manager_draw_lev   level_manager
     00002256  A$level_manager$1204               level_manager
     00002256  C$level_manager.c$291$2_0$112      level_manager
     00002256  G$engine_level_manager_draw_sect   level_manager
     00002256  _engine_level_manager_draw_secti   level_manager
     00002258  A$level_manager$1209               level_manager
     00002258  C$level_manager.c$298$2_0$112      level_manager
     0000225A  A$level_manager$1214               level_manager
     0000225A  C$level_manager.c$300$5_0$115      level_manager
     0000225B  A$level_manager$1215               level_manager
     0000225C  A$level_manager$1216               level_manager
     0000225D  A$level_manager$1217               level_manager
     0000225E  A$level_manager$1218               level_manager
     0000225F  A$level_manager$1219               level_manager
     00002260  A$level_manager$1220               level_manager
     00002263  A$level_manager$1221               level_manager
     00002264  A$level_manager$1222               level_manager
     00002265  A$level_manager$1226               level_manager
     00002265  C$level_manager.c$298$4_0$114      level_manager
     00002266  A$level_manager$1227               level_manager
     00002267  A$level_manager$1228               level_manager
     00002269  A$level_manager$1229               level_manager
     0000226B  A$level_manager$1233               level_manager
     0000226B  C$level_manager.c$295$2_0$112      level_manager
     0000226C  A$level_manager$1234               level_manager
     0000226D  A$level_manager$1235               level_manager
     0000226F  A$level_manager$1236               level_manager
     00002271  A$level_manager$1244               level_manager
     00002271  C$level_manager.c$303$2_0$112      level_manager
     00002271  XG$engine_level_manager_draw_sec   level_manager
     00002272  A$level_manager$1257               level_manager
     00002272  C$level_manager.c$305$2_0$117      level_manager
     00002272  C$level_manager.c$309$1_0$117      level_manager
     00002272  G$engine_level_manager_draw_leve   level_manager
ASxxxx Linker V03.00 + NoICE + sdld,  page 87.
Hexadecimal  [32-Bits]

Area                                    Addr        Size        Decimal Bytes (Attributes)
--------------------------------        ----        ----        ------- ----- ------------
_CODE                               00000200    0000636D =       25453. bytes (REL,CON)

      Value  Global                              Global Defined In Module
      -----  --------------------------------   ------------------------
     00002272  _engine_level_manager_draw_level   level_manager
     00002275  A$level_manager$1258               level_manager
     00002276  A$level_manager$1259               level_manager
     00002277  A$level_manager$1263               level_manager
     00002277  C$level_manager.c$310$2_0$117      level_manager
     00002279  A$level_manager$1268               level_manager
     00002279  C$level_manager.c$312$3_0$119      level_manager
     0000227A  A$level_manager$1269               level_manager
     0000227B  A$level_manager$1270               level_manager
     0000227E  A$level_manager$1271               level_manager
     0000227F  A$level_manager$1272               level_manager
     00002280  A$level_manager$1276               level_manager
     00002280  C$level_manager.c$310$2_0$118      level_manager
     00002281  A$level_manager$1277               level_manager
     00002282  A$level_manager$1278               level_manager
     00002284  A$level_manager$1279               level_manager
     00002286  A$level_manager$1287               level_manager
     00002286  C$level_manager.c$314$2_0$117      level_manager
     00002286  XG$engine_level_manager_draw_lev   level_manager
     00002287  A$level_manager$1297               level_manager
     00002287  C$level_manager.c$315$2_0$121      level_manager
     00002287  G$engine_level_manager_draw_leve   level_manager
     00002287  _engine_level_manager_draw_level   level_manager
     00002289  A$level_manager$1298               level_manager
     0000228D  A$level_manager$1299               level_manager
     0000228F  A$level_manager$1300               level_manager
     00002290  A$level_manager$1307               level_manager
     00002290  C$level_manager.c$317$1_0$121      level_manager
     00002290  C$level_manager.c$321$1_0$121      level_manager
     00002293  A$level_manager$1311               level_manager
     00002293  C$level_manager.c$322$4_0$124      level_manager
     00002294  A$level_manager$1312               level_manager
     00002295  A$level_manager$1313               level_manager
     00002298  A$level_manager$1314               level_manager
     0000229C  A$level_manager$1319               level_manager
     0000229C  C$level_manager.c$324$3_0$123      level_manager
     0000229F  A$level_manager$1320               level_manager
     000022A2  A$level_manager$1321               level_manager
     000022A4  A$level_manager$1322               level_manager
     000022A5  A$level_manager$1323               level_manager
     000022A6  A$level_manager$1324               level_manager
     000022A7  A$level_manager$1325               level_manager
     000022AA  A$level_manager$1326               level_manager
     000022AB  A$level_manager$1327               level_manager
     000022AC  A$level_manager$1328               level_manager
     000022AD  A$level_manager$1329               level_manager
     000022AF  A$level_manager$1330               level_manager
     000022B0  A$level_manager$1331               level_manager
     000022B1  A$level_manager$1335               level_manager
     000022B1  C$level_manager.c$326$3_0$123      level_manager
     000022B4  A$level_manager$1336               level_manager
ASxxxx Linker V03.00 + NoICE + sdld,  page 88.
Hexadecimal  [32-Bits]

Area                                    Addr        Size        Decimal Bytes (Attributes)
--------------------------------        ----        ----        ------- ----- ------------
_CODE                               00000200    0000636D =       25453. bytes (REL,CON)

      Value  Global                              Global Defined In Module
      -----  --------------------------------   ------------------------
     000022B5  A$level_manager$1337               level_manager
     000022B6  A$level_manager$1338               level_manager
     000022B7  A$level_manager$1342               level_manager
     000022B7  C$level_manager.c$329$3_0$123      level_manager
     000022B8  A$level_manager$1343               level_manager
     000022BA  A$level_manager$1347               level_manager
     000022BA  C$level_manager.c$331$4_0$124      level_manager
     000022BD  A$level_manager$1348               level_manager
     000022BE  A$level_manager$1349               level_manager
     000022C1  A$level_manager$1350               level_manager
     000022C2  A$level_manager$1351               level_manager
     000022C3  A$level_manager$1352               level_manager
     000022C4  A$level_manager$1353               level_manager
     000022C7  A$level_manager$1354               level_manager
     000022C8  A$level_manager$1355               level_manager
     000022C9  A$level_manager$1356               level_manager
     000022CA  A$level_manager$1357               level_manager
     000022CB  A$level_manager$1358               level_manager
     000022CE  A$level_manager$1359               level_manager
     000022CF  A$level_manager$1360               level_manager
     000022D0  A$level_manager$1361               level_manager
     000022D1  A$level_manager$1366               level_manager
     000022D1  C$level_manager.c$322$2_0$122      level_manager
     000022D4  A$level_manager$1367               level_manager
     000022D7  A$level_manager$1368               level_manager
     000022D9  A$level_manager$1369               level_manager
     000022DB  A$level_manager$1373               level_manager
     000022DD  A$level_manager$1374               level_manager
     000022DF  A$level_manager$1379               level_manager
     000022DF  C$level_manager.c$334$2_0$121      level_manager
     000022DF  XG$engine_level_manager_draw_lev   level_manager
     000022E0  A$level_manager$1392               level_manager
     000022E0  C$level_manager.c$336$2_0$126      level_manager
     000022E0  C$level_manager.c$338$1_0$126      level_manager
     000022E0  G$engine_level_manager_draw_blan   level_manager
     000022E0  _engine_level_manager_draw_blank   level_manager
     000022E4  A$level_manager$1393               level_manager
     000022E6  A$level_manager$1394               level_manager
     000022E9  A$level_manager$1395               level_manager
     000022EA  A$level_manager$1396               level_manager
     000022EB  A$level_manager$1397               level_manager
     000022EE  A$level_manager$1398               level_manager
     000022EF  A$level_manager$1399               level_manager
     000022F0  A$level_manager$1400               level_manager
     000022F1  A$level_manager$1401               level_manager
     000022F2  A$level_manager$1402               level_manager
     000022F3  A$level_manager$1403               level_manager
     000022F4  A$level_manager$1404               level_manager
     000022F5  A$level_manager$1405               level_manager
     000022F6  A$level_manager$1406               level_manager
     000022F9  A$level_manager$1407               level_manager
ASxxxx Linker V03.00 + NoICE + sdld,  page 89.
Hexadecimal  [32-Bits]

Area                                    Addr        Size        Decimal Bytes (Attributes)
--------------------------------        ----        ----        ------- ----- ------------
_CODE                               00000200    0000636D =       25453. bytes (REL,CON)

      Value  Global                              Global Defined In Module
      -----  --------------------------------   ------------------------
     000022FA  A$level_manager$1408               level_manager
     000022FB  A$level_manager$1416               level_manager
     000022FB  C$level_manager.c$339$1_0$126      level_manager
     000022FB  XG$engine_level_manager_draw_bla   level_manager
     000022FC  A$level_manager$1426               level_manager
     000022FC  C$level_manager.c$341$1_0$128      level_manager
     000022FC  G$engine_level_manager_get_colli   level_manager
     000022FC  _engine_level_manager_get_collis   level_manager
     000022FE  A$level_manager$1427               level_manager
     00002302  A$level_manager$1428               level_manager
     00002304  A$level_manager$1435               level_manager
     00002304  C$level_manager.c$343$1_0$128      level_manager
     00002304  C$level_manager.c$349$1_0$128      level_manager
     00002307  A$level_manager$1436               level_manager
     0000230A  A$level_manager$1440               level_manager
     0000230A  C$level_manager.c$347$1_0$128      level_manager
     0000230D  A$level_manager$1441               level_manager
     0000230F  A$level_manager$1442               level_manager
     00002311  A$level_manager$1446               level_manager
     00002311  C$level_manager.c$349$2_0$129      level_manager
     00002312  A$level_manager$1447               level_manager
     00002313  A$level_manager$1451               level_manager
     00002313  C$level_manager.c$350$2_0$129      level_manager
     00002315  A$level_manager$1456               level_manager
     00002315  C$level_manager.c$353$1_0$128      level_manager
     00002318  A$level_manager$1457               level_manager
     0000231B  A$level_manager$1458               level_manager
     0000231D  A$level_manager$1459               level_manager
     0000231E  A$level_manager$1460               level_manager
     0000231F  A$level_manager$1461               level_manager
     00002320  A$level_manager$1462               level_manager
     00002323  A$level_manager$1463               level_manager
     00002324  A$level_manager$1464               level_manager
     00002325  A$level_manager$1465               level_manager
     00002326  A$level_manager$1466               level_manager
     00002329  A$level_manager$1467               level_manager
     0000232B  A$level_manager$1468               level_manager
     0000232C  A$level_manager$1472               level_manager
     0000232C  C$level_manager.c$354$1_0$128      level_manager
     0000232F  A$level_manager$1473               level_manager
     00002330  A$level_manager$1474               level_manager
     00002331  A$level_manager$1475               level_manager
     00002332  A$level_manager$1480               level_manager
     00002334  A$level_manager$1485               level_manager
     00002334  C$level_manager.c$355$1_0$128      level_manager
     00002334  XG$engine_level_manager_get_coll   level_manager
     00002335  A$level_manager$1495               level_manager
     00002335  C$level_manager.c$357$1_0$131      level_manager
     00002335  Flevel_manager$draw_tiles$0$0      level_manager
     00002337  A$level_manager$1496               level_manager
     0000233B  A$level_manager$1497               level_manager
ASxxxx Linker V03.00 + NoICE + sdld,  page 90.
Hexadecimal  [32-Bits]

Area                                    Addr        Size        Decimal Bytes (Attributes)
--------------------------------        ----        ----        ------- ----- ------------
_CODE                               00000200    0000636D =       25453. bytes (REL,CON)

      Value  Global                              Global Defined In Module
      -----  --------------------------------   ------------------------
     0000233D  A$level_manager$1504               level_manager
     0000233D  C$level_manager.c$359$1_0$131      level_manager
     0000233D  C$level_manager.c$363$1_0$131      level_manager
     00002340  A$level_manager$1505               level_manager
     00002343  A$level_manager$1506               level_manager
     00002345  A$level_manager$1507               level_manager
     00002346  A$level_manager$1508               level_manager
     00002347  A$level_manager$1509               level_manager
     0000234A  A$level_manager$1510               level_manager
     0000234B  A$level_manager$1511               level_manager
     0000234C  A$level_manager$1512               level_manager
     0000234F  A$level_manager$1513               level_manager
     00002351  A$level_manager$1514               level_manager
     00002352  A$level_manager$1518               level_manager
     00002352  C$level_manager.c$364$1_0$131      level_manager
     00002355  A$level_manager$1519               level_manager
     00002356  A$level_manager$1520               level_manager
     00002357  A$level_manager$1524               level_manager
     00002357  C$level_manager.c$368$1_0$131      level_manager
     0000235A  A$level_manager$1525               level_manager
     0000235B  A$level_manager$1526               level_manager
     0000235C  A$level_manager$1527               level_manager
     0000235F  A$level_manager$1528               level_manager
     00002360  A$level_manager$1529               level_manager
     00002361  A$level_manager$1530               level_manager
     00002362  A$level_manager$1531               level_manager
     00002363  A$level_manager$1532               level_manager
     00002364  A$level_manager$1533               level_manager
     00002367  A$level_manager$1534               level_manager
     00002368  A$level_manager$1535               level_manager
     00002369  A$level_manager$1539               level_manager
     0000236B  A$level_manager$1544               level_manager
     0000236B  C$level_manager.c$370$1_0$131      level_manager
     0000236B  XFlevel_manager$draw_tiles$0$0     level_manager
     0000236C  A$level_manager$1560               level_manager
     0000236C  C$level_manager.c$371$1_0$133      level_manager
     0000236C  C$level_manager.c$373$1_0$133      level_manager
     0000236C  C$level_manager.c$374$1_0$133      level_manager
     0000236C  Flevel_manager$setup_player$0$0    level_manager
     00002370  A$level_manager$1561               level_manager
     00002372  A$level_manager$1562               level_manager
     00002375  A$level_manager$1563               level_manager
     00002377  A$level_manager$1564               level_manager
     0000237B  A$level_manager$1572               level_manager
     0000237B  C$level_manager.c$375$1_0$133      level_manager
     0000237B  XFlevel_manager$setup_player$0$0   level_manager
     0000237C  A$level_manager$1582               level_manager
     0000237C  C$level_manager.c$376$1_0$135      level_manager
     0000237C  Flevel_manager$setup_enemyX$0$0    level_manager
     0000237E  A$level_manager$1583               level_manager
     00002382  A$level_manager$1584               level_manager
ASxxxx Linker V03.00 + NoICE + sdld,  page 91.
Hexadecimal  [32-Bits]

Area                                    Addr        Size        Decimal Bytes (Attributes)
--------------------------------        ----        ----        ------- ----- ------------
_CODE                               00000200    0000636D =       25453. bytes (REL,CON)

      Value  Global                              Global Defined In Module
      -----  --------------------------------   ------------------------
     00002384  A$level_manager$1591               level_manager
     00002384  C$level_manager.c$378$1_0$135      level_manager
     00002384  C$level_manager.c$380$1_0$135      level_manager
     00002387  A$level_manager$1592               level_manager
     0000238A  A$level_manager$1593               level_manager
     0000238B  A$level_manager$1594               level_manager
     0000238D  A$level_manager$1595               level_manager
     0000238E  A$level_manager$1596               level_manager
     00002391  A$level_manager$1597               level_manager
     00002392  A$level_manager$1601               level_manager
     00002392  C$level_manager.c$381$1_0$135      level_manager
     00002395  A$level_manager$1602               level_manager
     00002396  A$level_manager$1603               level_manager
     00002397  A$level_manager$1604               level_manager
     00002398  A$level_manager$1605               level_manager
     0000239A  A$level_manager$1606               level_manager
     0000239B  A$level_manager$1607               level_manager
     0000239E  A$level_manager$1608               level_manager
     000023A0  A$level_manager$1609               level_manager
     000023A1  A$level_manager$1610               level_manager
     000023A2  A$level_manager$1611               level_manager
     000023A3  A$level_manager$1615               level_manager
     000023A3  C$level_manager.c$382$1_0$135      level_manager
     000023A6  A$level_manager$1616               level_manager
     000023A8  A$level_manager$1617               level_manager
     000023A9  A$level_manager$1618               level_manager
     000023AC  A$level_manager$1619               level_manager
     000023AE  A$level_manager$1620               level_manager
     000023AF  A$level_manager$1621               level_manager
     000023B0  A$level_manager$1622               level_manager
     000023B1  A$level_manager$1626               level_manager
     000023B1  C$level_manager.c$384$1_0$135      level_manager
     000023B4  A$level_manager$1627               level_manager
     000023B6  A$level_manager$1628               level_manager
     000023B7  A$level_manager$1629               level_manager
     000023B9  A$level_manager$1633               level_manager
     000023B9  C$level_manager.c$385$1_0$135      level_manager
     000023BC  A$level_manager$1634               level_manager
     000023BE  A$level_manager$1635               level_manager
     000023C0  A$level_manager$1636               level_manager
     000023C3  A$level_manager$1637               level_manager
     000023C5  A$level_manager$1638               level_manager
     000023C7  A$level_manager$1639               level_manager
     000023CA  A$level_manager$1640               level_manager
     000023CC  A$level_manager$1641               level_manager
     000023CE  A$level_manager$1642               level_manager
     000023D1  A$level_manager$1643               level_manager
     000023D3  A$level_manager$1644               level_manager
     000023D5  A$level_manager$1649               level_manager
     000023D5  C$level_manager.c$387$2_0$136      level_manager
     000023D7  A$level_manager$1654               level_manager
ASxxxx Linker V03.00 + NoICE + sdld,  page 92.
Hexadecimal  [32-Bits]

Area                                    Addr        Size        Decimal Bytes (Attributes)
--------------------------------        ----        ----        ------- ----- ------------
_CODE                               00000200    0000636D =       25453. bytes (REL,CON)

      Value  Global                              Global Defined In Module
      -----  --------------------------------   ------------------------
     000023D9  A$level_manager$1659               level_manager
     000023D9  C$level_manager.c$389$1_0$135      level_manager
     000023D9  XFlevel_manager$setup_enemyX$0$0   level_manager
     000023DA  A$anim_manager$60                  anim_manager
     000023DA  C$anim_manager.c$21$0_0$19         anim_manager
     000023DA  C$anim_manager.c$23$1_0$19         anim_manager
     000023DA  G$engine_anim_manager_player_loa   anim_manager
     000023DA  _engine_anim_manager_player_load   anim_manager
     000023DD  A$anim_manager$61                  anim_manager
     000023DE  A$anim_manager$62                  anim_manager
     000023DF  A$anim_manager$63                  anim_manager
     000023E0  A$anim_manager$64                  anim_manager
     000023E1  A$anim_manager$65                  anim_manager
     000023E4  A$anim_manager$66                  anim_manager
     000023E5  A$anim_manager$67                  anim_manager
     000023E6  A$anim_manager$75                  anim_manager
     000023E6  C$anim_manager.c$24$1_0$19         anim_manager
     000023E6  XG$engine_anim_manager_player_lo   anim_manager
     000023E7  A$anim_manager$85                  anim_manager
     000023E7  C$anim_manager.c$26$1_0$21         anim_manager
     000023E7  G$engine_anim_manager_player_loa   anim_manager
     000023E7  _engine_anim_manager_player_load   anim_manager
     000023E9  A$anim_manager$86                  anim_manager
     000023ED  A$anim_manager$87                  anim_manager
     000023EF  A$anim_manager$88                  anim_manager
     000023F0  A$anim_manager$92                  anim_manager
     000023F2  A$anim_manager$97                  anim_manager
     000023F2  C$anim_manager.c$33$3_0$22         anim_manager
     000023F5  A$anim_manager$98                  anim_manager
     000023F6  A$anim_manager$99                  anim_manager
     000023F7  A$anim_manager$100                 anim_manager
     000023FA  A$anim_manager$104                 anim_manager
     000023FA  C$anim_manager.c$34$3_0$22         anim_manager
     000023FB  A$anim_manager$105                 anim_manager
     000023FD  A$anim_manager$106                 anim_manager
     000023FE  A$anim_manager$107                 anim_manager
     000023FF  A$anim_manager$108                 anim_manager
     00002400  A$anim_manager$109                 anim_manager
     00002401  A$anim_manager$110                 anim_manager
     00002402  A$anim_manager$111                 anim_manager
     00002403  A$anim_manager$112                 anim_manager
     00002404  A$anim_manager$113                 anim_manager
     00002407  A$anim_manager$114                 anim_manager
     00002408  A$anim_manager$118                 anim_manager
     00002408  C$anim_manager.c$35$3_0$22         anim_manager
     00002409  A$anim_manager$119                 anim_manager
     0000240A  A$anim_manager$120                 anim_manager
     0000240B  A$anim_manager$121                 anim_manager
     0000240E  A$anim_manager$122                 anim_manager
     0000240F  A$anim_manager$123                 anim_manager
     00002410  A$anim_manager$124                 anim_manager
ASxxxx Linker V03.00 + NoICE + sdld,  page 93.
Hexadecimal  [32-Bits]

Area                                    Addr        Size        Decimal Bytes (Attributes)
--------------------------------        ----        ----        ------- ----- ------------
_CODE                               00000200    0000636D =       25453. bytes (REL,CON)

      Value  Global                              Global Defined In Module
      -----  --------------------------------   ------------------------
     00002413  A$anim_manager$125                 anim_manager
     00002414  A$anim_manager$126                 anim_manager
     00002415  A$anim_manager$127                 anim_manager
     00002416  A$anim_manager$128                 anim_manager
     00002417  A$anim_manager$132                 anim_manager
     00002417  C$anim_manager.c$37$3_0$22         anim_manager
     0000241A  A$anim_manager$133                 anim_manager
     0000241C  A$anim_manager$134                 anim_manager
     0000241D  A$anim_manager$138                 anim_manager
     0000241D  C$anim_manager.c$38$3_0$22         anim_manager
     00002420  A$anim_manager$139                 anim_manager
     00002421  A$anim_manager$143                 anim_manager
     00002421  C$anim_manager.c$39$3_0$22         anim_manager
     00002422  A$anim_manager$144                 anim_manager
     00002423  A$anim_manager$145                 anim_manager
     00002424  A$anim_manager$146                 anim_manager
     00002425  A$anim_manager$147                 anim_manager
     00002428  A$anim_manager$148                 anim_manager
     00002429  A$anim_manager$149                 anim_manager
     0000242A  A$anim_manager$150                 anim_manager
     0000242B  A$anim_manager$154                 anim_manager
     0000242B  C$anim_manager.c$31$2_0$21         anim_manager
     0000242C  A$anim_manager$155                 anim_manager
     0000242D  A$anim_manager$156                 anim_manager
     0000242F  A$anim_manager$157                 anim_manager
     00002431  A$anim_manager$161                 anim_manager
     00002433  A$anim_manager$162                 anim_manager
     00002435  A$anim_manager$167                 anim_manager
     00002435  C$anim_manager.c$41$2_0$21         anim_manager
     00002435  XG$engine_anim_manager_player_lo   anim_manager
     00002436  A$anim_manager$180                 anim_manager
     00002436  C$anim_manager.c$43$2_0$23         anim_manager
     00002436  C$anim_manager.c$47$1_0$23         anim_manager
     00002436  G$engine_anim_manager_tester_loa   anim_manager
     00002436  _engine_anim_manager_tester_load   anim_manager
     00002439  A$anim_manager$181                 anim_manager
     0000243A  A$anim_manager$182                 anim_manager
     0000243B  A$anim_manager$183                 anim_manager
     0000243C  A$anim_manager$184                 anim_manager
     0000243D  A$anim_manager$185                 anim_manager
     00002440  A$anim_manager$186                 anim_manager
     00002441  A$anim_manager$187                 anim_manager
     00002442  A$anim_manager$191                 anim_manager
     00002442  C$anim_manager.c$49$2_0$23         anim_manager
     00002444  A$anim_manager$196                 anim_manager
     00002444  C$anim_manager.c$51$3_0$25         anim_manager
     00002445  A$anim_manager$197                 anim_manager
     00002447  A$anim_manager$198                 anim_manager
     00002448  A$anim_manager$202                 anim_manager
     00002448  C$anim_manager.c$52$3_0$25         anim_manager
     00002449  A$anim_manager$203                 anim_manager
ASxxxx Linker V03.00 + NoICE + sdld,  page 94.
Hexadecimal  [32-Bits]

Area                                    Addr        Size        Decimal Bytes (Attributes)
--------------------------------        ----        ----        ------- ----- ------------
_CODE                               00000200    0000636D =       25453. bytes (REL,CON)

      Value  Global                              Global Defined In Module
      -----  --------------------------------   ------------------------
     0000244B  A$anim_manager$204                 anim_manager
     0000244C  A$anim_manager$205                 anim_manager
     0000244D  A$anim_manager$206                 anim_manager
     0000244E  A$anim_manager$207                 anim_manager
     0000244F  A$anim_manager$208                 anim_manager
     00002450  A$anim_manager$209                 anim_manager
     00002451  A$anim_manager$210                 anim_manager
     00002454  A$anim_manager$211                 anim_manager
     00002455  A$anim_manager$215                 anim_manager
     00002455  C$anim_manager.c$53$3_0$25         anim_manager
     00002456  A$anim_manager$216                 anim_manager
     00002457  A$anim_manager$217                 anim_manager
     00002458  A$anim_manager$218                 anim_manager
     00002459  A$anim_manager$219                 anim_manager
     0000245C  A$anim_manager$220                 anim_manager
     0000245D  A$anim_manager$221                 anim_manager
     0000245E  A$anim_manager$222                 anim_manager
     0000245F  A$anim_manager$226                 anim_manager
     0000245F  C$anim_manager.c$49$2_0$24         anim_manager
     00002460  A$anim_manager$227                 anim_manager
     00002461  A$anim_manager$228                 anim_manager
     00002463  A$anim_manager$229                 anim_manager
     00002465  A$anim_manager$237                 anim_manager
     00002465  C$anim_manager.c$55$2_0$23         anim_manager
     00002465  XG$engine_anim_manager_tester_lo   anim_manager
     00002466  A$anim_manager$250                 anim_manager
     00002466  C$anim_manager.c$57$2_0$26         anim_manager
     00002466  C$anim_manager.c$59$1_0$26         anim_manager
     00002466  G$engine_anim_manager_enemyX_loa   anim_manager
     00002466  _engine_anim_manager_enemyX_load   anim_manager
     00002469  A$anim_manager$251                 anim_manager
     0000246A  A$anim_manager$252                 anim_manager
     0000246B  A$anim_manager$253                 anim_manager
     0000246C  A$anim_manager$254                 anim_manager
     0000246D  A$anim_manager$255                 anim_manager
     00002470  A$anim_manager$259                 anim_manager
     00002470  C$anim_manager.c$60$1_0$26         anim_manager
     00002471  A$anim_manager$260                 anim_manager
     00002474  A$anim_manager$261                 anim_manager
     00002475  A$anim_manager$262                 anim_manager
     00002476  A$anim_manager$263                 anim_manager
     00002477  A$anim_manager$264                 anim_manager
     00002478  A$anim_manager$265                 anim_manager
     0000247B  A$anim_manager$269                 anim_manager
     0000247B  C$anim_manager.c$61$1_0$26         anim_manager
     0000247C  A$anim_manager$270                 anim_manager
     0000247F  A$anim_manager$271                 anim_manager
     00002480  A$anim_manager$272                 anim_manager
     00002481  A$anim_manager$273                 anim_manager
     00002482  A$anim_manager$274                 anim_manager
     00002483  A$anim_manager$275                 anim_manager
ASxxxx Linker V03.00 + NoICE + sdld,  page 95.
Hexadecimal  [32-Bits]

Area                                    Addr        Size        Decimal Bytes (Attributes)
--------------------------------        ----        ----        ------- ----- ------------
_CODE                               00000200    0000636D =       25453. bytes (REL,CON)

      Value  Global                              Global Defined In Module
      -----  --------------------------------   ------------------------
     00002486  A$anim_manager$279                 anim_manager
     00002486  C$anim_manager.c$62$1_0$26         anim_manager
     00002487  A$anim_manager$280                 anim_manager
     0000248A  A$anim_manager$281                 anim_manager
     0000248B  A$anim_manager$282                 anim_manager
     0000248C  A$anim_manager$283                 anim_manager
     0000248D  A$anim_manager$284                 anim_manager
     0000248E  A$anim_manager$285                 anim_manager
     00002491  A$anim_manager$286                 anim_manager
     00002492  A$anim_manager$287                 anim_manager
     00002493  A$anim_manager$295                 anim_manager
     00002493  C$anim_manager.c$63$1_0$26         anim_manager
     00002493  XG$engine_anim_manager_enemyX_lo   anim_manager
     00002494  A$anim_manager$305                 anim_manager
     00002494  C$anim_manager.c$67$1_0$28         anim_manager
     00002494  Fanim_manager$player_load$0$0      anim_manager
     00002496  A$anim_manager$306                 anim_manager
     0000249A  A$anim_manager$307                 anim_manager
     0000249C  A$anim_manager$311                 anim_manager
     0000249C  C$anim_manager.c$69$1_0$28         anim_manager
     0000249F  A$anim_manager$312                 anim_manager
     000024A2  A$anim_manager$313                 anim_manager
     000024A4  A$anim_manager$314                 anim_manager
     000024A5  A$anim_manager$315                 anim_manager
     000024A6  A$anim_manager$316                 anim_manager
     000024A7  A$anim_manager$317                 anim_manager
     000024A8  A$anim_manager$318                 anim_manager
     000024A9  A$anim_manager$322                 anim_manager
     000024A9  C$anim_manager.c$70$1_0$28         anim_manager
     000024AC  A$anim_manager$323                 anim_manager
     000024AF  A$anim_manager$324                 anim_manager
     000024B1  A$anim_manager$325                 anim_manager
     000024B2  A$anim_manager$326                 anim_manager
     000024B3  A$anim_manager$330                 anim_manager
     000024B3  C$anim_manager.c$72$1_0$28         anim_manager
     000024B4  A$anim_manager$331                 anim_manager
     000024B5  A$anim_manager$332                 anim_manager
     000024B6  A$anim_manager$333                 anim_manager
     000024B9  A$anim_manager$334                 anim_manager
     000024BA  A$anim_manager$335                 anim_manager
     000024BB  A$anim_manager$339                 anim_manager
     000024BB  C$anim_manager.c$73$1_0$28         anim_manager
     000024BE  A$anim_manager$340                 anim_manager
     000024C1  A$anim_manager$341                 anim_manager
     000024C2  A$anim_manager$342                 anim_manager
     000024C3  A$anim_manager$343                 anim_manager
     000024C6  A$anim_manager$344                 anim_manager
     000024C7  A$anim_manager$345                 anim_manager
     000024C8  A$anim_manager$349                 anim_manager
     000024CA  A$anim_manager$354                 anim_manager
     000024CA  C$anim_manager.c$74$1_0$28         anim_manager
ASxxxx Linker V03.00 + NoICE + sdld,  page 96.
Hexadecimal  [32-Bits]

Area                                    Addr        Size        Decimal Bytes (Attributes)
--------------------------------        ----        ----        ------- ----- ------------
_CODE                               00000200    0000636D =       25453. bytes (REL,CON)

      Value  Global                              Global Defined In Module
      -----  --------------------------------   ------------------------
     000024CA  XFanim_manager$player_load$0$0     anim_manager
     000024CB  A$anim_manager$364                 anim_manager
     000024CB  C$anim_manager.c$76$1_0$30         anim_manager
     000024CB  Fanim_manager$enemyA_load$0$0      anim_manager
     000024CD  A$anim_manager$365                 anim_manager
     000024D1  A$anim_manager$366                 anim_manager
     000024D3  A$anim_manager$370                 anim_manager
     000024D3  C$anim_manager.c$78$1_0$30         anim_manager
     000024D6  A$anim_manager$371                 anim_manager
     000024D9  A$anim_manager$372                 anim_manager
     000024DB  A$anim_manager$373                 anim_manager
     000024DC  A$anim_manager$374                 anim_manager
     000024DD  A$anim_manager$375                 anim_manager
     000024DE  A$anim_manager$376                 anim_manager
     000024DF  A$anim_manager$377                 anim_manager
     000024E0  A$anim_manager$381                 anim_manager
     000024E0  C$anim_manager.c$79$1_0$30         anim_manager
     000024E3  A$anim_manager$382                 anim_manager
     000024E6  A$anim_manager$383                 anim_manager
     000024E8  A$anim_manager$384                 anim_manager
     000024E9  A$anim_manager$385                 anim_manager
     000024EA  A$anim_manager$389                 anim_manager
     000024EA  C$anim_manager.c$81$1_0$30         anim_manager
     000024EB  A$anim_manager$390                 anim_manager
     000024EC  A$anim_manager$391                 anim_manager
     000024ED  A$anim_manager$392                 anim_manager
     000024F0  A$anim_manager$393                 anim_manager
     000024F1  A$anim_manager$394                 anim_manager
     000024F2  A$anim_manager$398                 anim_manager
     000024F2  C$anim_manager.c$82$1_0$30         anim_manager
     000024F5  A$anim_manager$399                 anim_manager
     000024F8  A$anim_manager$400                 anim_manager
     000024F9  A$anim_manager$401                 anim_manager
     000024FA  A$anim_manager$402                 anim_manager
     000024FD  A$anim_manager$403                 anim_manager
     000024FE  A$anim_manager$404                 anim_manager
     000024FF  A$anim_manager$408                 anim_manager
     00002501  A$anim_manager$413                 anim_manager
     00002501  C$anim_manager.c$83$1_0$30         anim_manager
     00002501  XFanim_manager$enemyA_load$0$0     anim_manager
     00002502  A$anim_manager$423                 anim_manager
     00002502  C$anim_manager.c$85$1_0$32         anim_manager
     00002502  Fanim_manager$enemyB_load$0$0      anim_manager
     00002504  A$anim_manager$424                 anim_manager
     00002508  A$anim_manager$425                 anim_manager
     0000250A  A$anim_manager$429                 anim_manager
     0000250A  C$anim_manager.c$87$1_0$32         anim_manager
     0000250D  A$anim_manager$430                 anim_manager
     00002510  A$anim_manager$431                 anim_manager
     00002512  A$anim_manager$432                 anim_manager
     00002513  A$anim_manager$433                 anim_manager
ASxxxx Linker V03.00 + NoICE + sdld,  page 97.
Hexadecimal  [32-Bits]

Area                                    Addr        Size        Decimal Bytes (Attributes)
--------------------------------        ----        ----        ------- ----- ------------
_CODE                               00000200    0000636D =       25453. bytes (REL,CON)

      Value  Global                              Global Defined In Module
      -----  --------------------------------   ------------------------
     00002514  A$anim_manager$434                 anim_manager
     00002515  A$anim_manager$435                 anim_manager
     00002516  A$anim_manager$436                 anim_manager
     00002517  A$anim_manager$440                 anim_manager
     00002517  C$anim_manager.c$88$1_0$32         anim_manager
     0000251A  A$anim_manager$441                 anim_manager
     0000251D  A$anim_manager$442                 anim_manager
     0000251F  A$anim_manager$443                 anim_manager
     00002520  A$anim_manager$444                 anim_manager
     00002521  A$anim_manager$448                 anim_manager
     00002521  C$anim_manager.c$90$1_0$32         anim_manager
     00002522  A$anim_manager$449                 anim_manager
     00002523  A$anim_manager$450                 anim_manager
     00002524  A$anim_manager$451                 anim_manager
     00002527  A$anim_manager$452                 anim_manager
     00002528  A$anim_manager$453                 anim_manager
     00002529  A$anim_manager$457                 anim_manager
     00002529  C$anim_manager.c$91$1_0$32         anim_manager
     0000252C  A$anim_manager$458                 anim_manager
     0000252F  A$anim_manager$459                 anim_manager
     00002530  A$anim_manager$460                 anim_manager
     00002531  A$anim_manager$461                 anim_manager
     00002534  A$anim_manager$462                 anim_manager
     00002535  A$anim_manager$463                 anim_manager
     00002536  A$anim_manager$467                 anim_manager
     00002538  A$anim_manager$472                 anim_manager
     00002538  C$anim_manager.c$92$1_0$32         anim_manager
     00002538  XFanim_manager$enemyB_load$0$0     anim_manager
     00002539  A$anim_manager$482                 anim_manager
     00002539  C$anim_manager.c$94$1_0$34         anim_manager
     00002539  Fanim_manager$enemyC_load$0$0      anim_manager
     0000253B  A$anim_manager$483                 anim_manager
     0000253F  A$anim_manager$484                 anim_manager
     00002541  A$anim_manager$488                 anim_manager
     00002541  C$anim_manager.c$96$1_0$34         anim_manager
     00002544  A$anim_manager$489                 anim_manager
     00002547  A$anim_manager$490                 anim_manager
     00002549  A$anim_manager$491                 anim_manager
     0000254A  A$anim_manager$492                 anim_manager
     0000254B  A$anim_manager$493                 anim_manager
     0000254C  A$anim_manager$494                 anim_manager
     0000254D  A$anim_manager$495                 anim_manager
     0000254E  A$anim_manager$499                 anim_manager
     0000254E  C$anim_manager.c$97$1_0$34         anim_manager
     00002551  A$anim_manager$500                 anim_manager
     00002554  A$anim_manager$501                 anim_manager
     00002556  A$anim_manager$502                 anim_manager
     00002557  A$anim_manager$503                 anim_manager
     00002558  A$anim_manager$507                 anim_manager
     00002558  C$anim_manager.c$99$1_0$34         anim_manager
     00002559  A$anim_manager$508                 anim_manager
ASxxxx Linker V03.00 + NoICE + sdld,  page 98.
Hexadecimal  [32-Bits]

Area                                    Addr        Size        Decimal Bytes (Attributes)
--------------------------------        ----        ----        ------- ----- ------------
_CODE                               00000200    0000636D =       25453. bytes (REL,CON)

      Value  Global                              Global Defined In Module
      -----  --------------------------------   ------------------------
     0000255A  A$anim_manager$509                 anim_manager
     0000255B  A$anim_manager$510                 anim_manager
     0000255E  A$anim_manager$511                 anim_manager
     0000255F  A$anim_manager$512                 anim_manager
     00002560  A$anim_manager$516                 anim_manager
     00002560  C$anim_manager.c$100$1_0$34        anim_manager
     00002563  A$anim_manager$517                 anim_manager
     00002566  A$anim_manager$518                 anim_manager
     00002567  A$anim_manager$519                 anim_manager
     00002568  A$anim_manager$520                 anim_manager
     0000256B  A$anim_manager$521                 anim_manager
     0000256C  A$anim_manager$522                 anim_manager
     0000256D  A$anim_manager$526                 anim_manager
     0000256F  A$anim_manager$531                 anim_manager
     0000256F  C$anim_manager.c$101$1_0$34        anim_manager
     0000256F  XFanim_manager$enemyC_load$0$0     anim_manager
     00002570  A$anim_manager$541                 anim_manager
     00002570  C$anim_manager.c$103$1_0$36        anim_manager
     00002570  Fanim_manager$enemyD_load$0$0      anim_manager
     00002572  A$anim_manager$542                 anim_manager
     00002576  A$anim_manager$543                 anim_manager
     00002578  A$anim_manager$547                 anim_manager
     00002578  C$anim_manager.c$105$1_0$36        anim_manager
     0000257B  A$anim_manager$548                 anim_manager
     0000257E  A$anim_manager$549                 anim_manager
     00002580  A$anim_manager$550                 anim_manager
     00002581  A$anim_manager$551                 anim_manager
     00002582  A$anim_manager$552                 anim_manager
     00002583  A$anim_manager$553                 anim_manager
     00002584  A$anim_manager$554                 anim_manager
     00002585  A$anim_manager$558                 anim_manager
     00002585  C$anim_manager.c$106$1_0$36        anim_manager
     00002588  A$anim_manager$559                 anim_manager
     0000258B  A$anim_manager$560                 anim_manager
     0000258D  A$anim_manager$561                 anim_manager
     0000258E  A$anim_manager$562                 anim_manager
     0000258F  A$anim_manager$566                 anim_manager
     0000258F  C$anim_manager.c$108$1_0$36        anim_manager
     00002590  A$anim_manager$567                 anim_manager
     00002591  A$anim_manager$568                 anim_manager
     00002592  A$anim_manager$569                 anim_manager
     00002595  A$anim_manager$570                 anim_manager
     00002596  A$anim_manager$571                 anim_manager
     00002597  A$anim_manager$575                 anim_manager
     00002597  C$anim_manager.c$109$1_0$36        anim_manager
     0000259A  A$anim_manager$576                 anim_manager
     0000259D  A$anim_manager$577                 anim_manager
     0000259E  A$anim_manager$578                 anim_manager
     0000259F  A$anim_manager$579                 anim_manager
     000025A2  A$anim_manager$580                 anim_manager
     000025A3  A$anim_manager$581                 anim_manager
ASxxxx Linker V03.00 + NoICE + sdld,  page 99.
Hexadecimal  [32-Bits]

Area                                    Addr        Size        Decimal Bytes (Attributes)
--------------------------------        ----        ----        ------- ----- ------------
_CODE                               00000200    0000636D =       25453. bytes (REL,CON)

      Value  Global                              Global Defined In Module
      -----  --------------------------------   ------------------------
     000025A4  A$anim_manager$585                 anim_manager
     000025A6  A$anim_manager$590                 anim_manager
     000025A6  C$anim_manager.c$110$1_0$36        anim_manager
     000025A6  XFanim_manager$enemyD_load$0$0     anim_manager
     000025A7  A$input_manager$80                 input_manager
     000025A7  C$input_manager.c$13$0_0$16        input_manager
     000025A7  C$input_manager.c$15$1_0$16        input_manager
     000025A7  G$engine_input_manager_update$0$   input_manager
     000025A7  _engine_input_manager_update       input_manager
     000025AA  A$input_manager$81                 input_manager
     000025AD  A$input_manager$85                 input_manager
     000025AD  C$input_manager.c$16$1_0$16        input_manager
     000025B0  A$input_manager$86                 input_manager
     000025B3  A$input_manager$94                 input_manager
     000025B3  C$input_manager.c$17$1_0$16        input_manager
     000025B3  XG$engine_input_manager_update$0   input_manager
     000025B4  A$input_manager$107                input_manager
     000025B4  C$input_manager.c$20$1_0$17        input_manager
     000025B4  C$input_manager.c$22$1_0$17        input_manager
     000025B4  G$engine_input_manager_hold_up$0   input_manager
     000025B4  _engine_input_manager_hold_up      input_manager
     000025B7  A$input_manager$108                input_manager
     000025B8  A$input_manager$109                input_manager
     000025BB  A$input_manager$110                input_manager
     000025BC  A$input_manager$118                input_manager
     000025BC  C$input_manager.c$23$1_0$17        input_manager
     000025BC  XG$engine_input_manager_hold_up$   input_manager
     000025BD  A$input_manager$131                input_manager
     000025BD  C$input_manager.c$24$1_0$18        input_manager
     000025BD  C$input_manager.c$26$1_0$18        input_manager
     000025BD  G$engine_input_manager_hold_down   input_manager
     000025BD  _engine_input_manager_hold_down    input_manager
     000025C0  A$input_manager$132                input_manager
     000025C1  A$input_manager$133                input_manager
     000025C4  A$input_manager$134                input_manager
     000025C5  A$input_manager$142                input_manager
     000025C5  C$input_manager.c$27$1_0$18        input_manager
     000025C5  XG$engine_input_manager_hold_dow   input_manager
     000025C6  A$input_manager$155                input_manager
     000025C6  C$input_manager.c$28$1_0$19        input_manager
     000025C6  C$input_manager.c$30$1_0$19        input_manager
     000025C6  G$engine_input_manager_hold_left   input_manager
     000025C6  _engine_input_manager_hold_left    input_manager
     000025C9  A$input_manager$156                input_manager
     000025CA  A$input_manager$157                input_manager
     000025CD  A$input_manager$158                input_manager
     000025CE  A$input_manager$166                input_manager
     000025CE  C$input_manager.c$31$1_0$19        input_manager
     000025CE  XG$engine_input_manager_hold_lef   input_manager
     000025CF  A$input_manager$179                input_manager
     000025CF  C$input_manager.c$32$1_0$20        input_manager
ASxxxx Linker V03.00 + NoICE + sdld,  page 100.
Hexadecimal  [32-Bits]

Area                                    Addr        Size        Decimal Bytes (Attributes)
--------------------------------        ----        ----        ------- ----- ------------
_CODE                               00000200    0000636D =       25453. bytes (REL,CON)

      Value  Global                              Global Defined In Module
      -----  --------------------------------   ------------------------
     000025CF  C$input_manager.c$34$1_0$20        input_manager
     000025CF  G$engine_input_manager_hold_righ   input_manager
     000025CF  _engine_input_manager_hold_right   input_manager
     000025D2  A$input_manager$180                input_manager
     000025D3  A$input_manager$181                input_manager
     000025D6  A$input_manager$182                input_manager
     000025D7  A$input_manager$190                input_manager
     000025D7  C$input_manager.c$35$1_0$20        input_manager
     000025D7  XG$engine_input_manager_hold_rig   input_manager
     000025D8  A$input_manager$203                input_manager
     000025D8  C$input_manager.c$36$1_0$21        input_manager
     000025D8  C$input_manager.c$38$1_0$21        input_manager
     000025D8  G$engine_input_manager_hold_fire   input_manager
     000025D8  _engine_input_manager_hold_fire1   input_manager
     000025DB  A$input_manager$204                input_manager
     000025DC  A$input_manager$205                input_manager
     000025DF  A$input_manager$206                input_manager
     000025E0  A$input_manager$214                input_manager
     000025E0  C$input_manager.c$39$1_0$21        input_manager
     000025E0  XG$engine_input_manager_hold_fir   input_manager
     000025E1  A$input_manager$227                input_manager
     000025E1  C$input_manager.c$40$1_0$22        input_manager
     000025E1  C$input_manager.c$42$1_0$22        input_manager
     000025E1  G$engine_input_manager_hold_fire   input_manager
     000025E1  _engine_input_manager_hold_fire2   input_manager
     000025E4  A$input_manager$228                input_manager
     000025E5  A$input_manager$229                input_manager
     000025E8  A$input_manager$230                input_manager
     000025E9  A$input_manager$238                input_manager
     000025E9  C$input_manager.c$43$1_0$22        input_manager
     000025E9  XG$engine_input_manager_hold_fir   input_manager
     000025EA  A$input_manager$251                input_manager
     000025EA  C$input_manager.c$46$1_0$23        input_manager
     000025EA  C$input_manager.c$48$1_0$23        input_manager
     000025EA  G$engine_input_manager_move_up$0   input_manager
     000025EA  _engine_input_manager_move_up      input_manager
     000025ED  A$input_manager$252                input_manager
     000025EE  A$input_manager$253                input_manager
     000025F1  A$input_manager$254                input_manager
     000025F2  A$input_manager$262                input_manager
     000025F2  C$input_manager.c$49$1_0$23        input_manager
     000025F2  XG$engine_input_manager_move_up$   input_manager
     000025F3  A$input_manager$275                input_manager
     000025F3  C$input_manager.c$50$1_0$24        input_manager
     000025F3  C$input_manager.c$52$1_0$24        input_manager
     000025F3  G$engine_input_manager_move_down   input_manager
     000025F3  _engine_input_manager_move_down    input_manager
     000025F6  A$input_manager$276                input_manager
     000025F7  A$input_manager$277                input_manager
     000025FA  A$input_manager$278                input_manager
     000025FB  A$input_manager$286                input_manager
ASxxxx Linker V03.00 + NoICE + sdld,  page 101.
Hexadecimal  [32-Bits]

Area                                    Addr        Size        Decimal Bytes (Attributes)
--------------------------------        ----        ----        ------- ----- ------------
_CODE                               00000200    0000636D =       25453. bytes (REL,CON)

      Value  Global                              Global Defined In Module
      -----  --------------------------------   ------------------------
     000025FB  C$input_manager.c$53$1_0$24        input_manager
     000025FB  XG$engine_input_manager_move_dow   input_manager
     000025FC  A$input_manager$299                input_manager
     000025FC  C$input_manager.c$54$1_0$25        input_manager
     000025FC  C$input_manager.c$56$1_0$25        input_manager
     000025FC  G$engine_input_manager_move_left   input_manager
     000025FC  _engine_input_manager_move_left    input_manager
     000025FF  A$input_manager$300                input_manager
     00002600  A$input_manager$301                input_manager
     00002603  A$input_manager$302                input_manager
     00002604  A$input_manager$310                input_manager
     00002604  C$input_manager.c$57$1_0$25        input_manager
     00002604  XG$engine_input_manager_move_lef   input_manager
     00002605  A$input_manager$323                input_manager
     00002605  C$input_manager.c$58$1_0$26        input_manager
     00002605  C$input_manager.c$60$1_0$26        input_manager
     00002605  G$engine_input_manager_move_righ   input_manager
     00002605  _engine_input_manager_move_right   input_manager
     00002608  A$input_manager$324                input_manager
     00002609  A$input_manager$325                input_manager
     0000260C  A$input_manager$326                input_manager
     0000260D  A$input_manager$334                input_manager
     0000260D  C$input_manager.c$61$1_0$26        input_manager
     0000260D  XG$engine_input_manager_move_rig   input_manager
     0000260E  A$input_manager$347                input_manager
     0000260E  C$input_manager.c$62$1_0$27        input_manager
     0000260E  C$input_manager.c$64$1_0$27        input_manager
     0000260E  G$engine_input_manager_move_fire   input_manager
     0000260E  _engine_input_manager_move_fire1   input_manager
     00002611  A$input_manager$348                input_manager
     00002612  A$input_manager$349                input_manager
     00002615  A$input_manager$350                input_manager
     00002616  A$input_manager$358                input_manager
     00002616  C$input_manager.c$65$1_0$27        input_manager
     00002616  XG$engine_input_manager_move_fir   input_manager
     00002617  A$input_manager$371                input_manager
     00002617  C$input_manager.c$66$1_0$28        input_manager
     00002617  C$input_manager.c$68$1_0$28        input_manager
     00002617  G$engine_input_manager_move_fire   input_manager
     00002617  _engine_input_manager_move_fire2   input_manager
     0000261A  A$input_manager$372                input_manager
     0000261B  A$input_manager$373                input_manager
     0000261E  A$input_manager$374                input_manager
     0000261F  A$input_manager$382                input_manager
     0000261F  C$input_manager.c$69$1_0$28        input_manager
     0000261F  XG$engine_input_manager_move_fir   input_manager
     00002620  A$input_manager$395                input_manager
     00002620  C$input_manager.c$72$1_0$30        input_manager
     00002620  C$input_manager.c$74$1_0$30        input_manager
     00002620  Finput_manager$engine_input_mana   input_manager
     00002623  A$input_manager$396                input_manager
ASxxxx Linker V03.00 + NoICE + sdld,  page 102.
Hexadecimal  [32-Bits]

Area                                    Addr        Size        Decimal Bytes (Attributes)
--------------------------------        ----        ----        ------- ----- ------------
_CODE                               00000200    0000636D =       25453. bytes (REL,CON)

      Value  Global                              Global Defined In Module
      -----  --------------------------------   ------------------------
     00002627  A$input_manager$397                input_manager
     00002629  A$input_manager$398                input_manager
     0000262C  A$input_manager$399                input_manager
     0000262D  A$input_manager$400                input_manager
     00002630  A$input_manager$401                input_manager
     00002634  A$input_manager$402                input_manager
     00002636  A$input_manager$403                input_manager
     00002639  A$input_manager$404                input_manager
     0000263A  A$input_manager$405                input_manager
     0000263C  A$input_manager$406                input_manager
     0000263F  A$input_manager$407                input_manager
     00002643  A$input_manager$408                input_manager
     00002645  A$input_manager$409                input_manager
     00002648  A$input_manager$410                input_manager
     00002649  A$input_manager$411                input_manager
     0000264C  A$input_manager$412                input_manager
     00002650  A$input_manager$413                input_manager
     00002652  A$input_manager$414                input_manager
     00002655  A$input_manager$415                input_manager
     00002656  A$input_manager$416                input_manager
     00002658  A$input_manager$418                input_manager
     0000265A  A$input_manager$419                input_manager
     0000265B  A$input_manager$421                input_manager
     0000265D  A$input_manager$429                input_manager
     0000265D  C$input_manager.c$75$1_0$30        input_manager
     0000265D  XFinput_manager$engine_input_man   input_manager
     0000265E  A$input_manager$442                input_manager
     0000265E  C$input_manager.c$76$1_0$32        input_manager
     0000265E  C$input_manager.c$78$1_0$32        input_manager
     0000265E  Finput_manager$engine_input_mana   input_manager
     00002661  A$input_manager$443                input_manager
     00002665  A$input_manager$444                input_manager
     00002667  A$input_manager$445                input_manager
     0000266A  A$input_manager$446                input_manager
     0000266B  A$input_manager$447                input_manager
     0000266C  A$input_manager$455                input_manager
     0000266C  C$input_manager.c$79$1_0$32        input_manager
     0000266C  XFinput_manager$engine_input_man   input_manager
     0000266D  A$player_manager$107               player_manager
     0000266D  C$player_manager.c$70$0_0$15       player_manager
     0000266D  C$player_manager.c$72$1_0$15       player_manager
     0000266D  G$engine_player_manager_init$0$0   player_manager
     0000266D  _engine_player_manager_init        player_manager
     00002670  A$player_manager$108               player_manager
     00002673  A$player_manager$112               player_manager
     00002673  C$player_manager.c$73$1_0$15       player_manager
     00002675  A$player_manager$113               player_manager
     00002678  A$player_manager$117               player_manager
     00002678  C$player_manager.c$74$1_0$15       player_manager
     0000267B  A$player_manager$118               player_manager
     0000267E  A$player_manager$122               player_manager
ASxxxx Linker V03.00 + NoICE + sdld,  page 103.
Hexadecimal  [32-Bits]

Area                                    Addr        Size        Decimal Bytes (Attributes)
--------------------------------        ----        ----        ------- ----- ------------
_CODE                               00000200    0000636D =       25453. bytes (REL,CON)

      Value  Global                              Global Defined In Module
      -----  --------------------------------   ------------------------
     0000267E  C$player_manager.c$75$1_0$15       player_manager
     00002680  A$player_manager$123               player_manager
     00002683  A$player_manager$131               player_manager
     00002683  C$player_manager.c$76$1_0$15       player_manager
     00002683  XG$engine_player_manager_init$0$   player_manager
     00002684  A$player_manager$147               player_manager
     00002684  C$player_manager.c$78$1_0$16       player_manager
     00002684  C$player_manager.c$80$1_0$16       player_manager
     00002684  C$player_manager.c$84$1_0$16       player_manager
     00002684  G$engine_player_manager_load$0$0   player_manager
     00002684  _engine_player_manager_load        player_manager
     00002687  A$player_manager$148               player_manager
     0000268A  A$player_manager$149               player_manager
     0000268B  A$player_manager$150               player_manager
     0000268E  A$player_manager$154               player_manager
     0000268E  C$player_manager.c$85$1_0$16       player_manager
     00002691  A$player_manager$155               player_manager
     00002692  A$player_manager$156               player_manager
     00002693  A$player_manager$157               player_manager
     00002694  A$player_manager$158               player_manager
     00002695  A$player_manager$159               player_manager
     00002696  A$player_manager$163               player_manager
     00002696  C$player_manager.c$86$1_0$16       player_manager
     00002699  A$player_manager$164               player_manager
     0000269A  A$player_manager$165               player_manager
     0000269B  A$player_manager$166               player_manager
     0000269C  A$player_manager$167               player_manager
     0000269D  A$player_manager$168               player_manager
     000026A0  A$player_manager$169               player_manager
     000026A1  A$player_manager$170               player_manager
     000026A2  A$player_manager$171               player_manager
     000026A3  A$player_manager$172               player_manager
     000026A4  A$player_manager$176               player_manager
     000026A4  C$player_manager.c$87$1_0$16       player_manager
     000026A7  A$player_manager$177               player_manager
     000026A8  A$player_manager$178               player_manager
     000026A9  A$player_manager$179               player_manager
     000026AD  A$player_manager$183               player_manager
     000026AD  C$player_manager.c$88$1_0$16       player_manager
     000026B1  A$player_manager$187               player_manager
     000026B1  C$player_manager.c$90$1_0$16       player_manager
     000026B4  A$player_manager$188               player_manager
     000026B6  A$player_manager$192               player_manager
     000026B6  C$player_manager.c$91$1_0$16       player_manager
     000026B9  A$player_manager$193               player_manager
     000026BC  A$player_manager$194               player_manager
     000026BD  A$player_manager$195               player_manager
     000026C0  A$player_manager$199               player_manager
     000026C0  C$player_manager.c$92$1_0$16       player_manager
     000026C1  A$player_manager$200               player_manager
     000026C4  A$player_manager$201               player_manager
ASxxxx Linker V03.00 + NoICE + sdld,  page 104.
Hexadecimal  [32-Bits]

Area                                    Addr        Size        Decimal Bytes (Attributes)
--------------------------------        ----        ----        ------- ----- ------------
_CODE                               00000200    0000636D =       25453. bytes (REL,CON)

      Value  Global                              Global Defined In Module
      -----  --------------------------------   ------------------------
     000026C5  A$player_manager$202               player_manager
     000026C8  A$player_manager$206               player_manager
     000026C8  C$player_manager.c$93$1_0$16       player_manager
     000026C9  A$player_manager$207               player_manager
     000026CC  A$player_manager$208               player_manager
     000026CD  A$player_manager$209               player_manager
     000026D0  A$player_manager$213               player_manager
     000026D0  C$player_manager.c$94$1_0$16       player_manager
     000026D1  A$player_manager$214               player_manager
     000026D4  A$player_manager$215               player_manager
     000026D5  A$player_manager$216               player_manager
     000026D8  A$player_manager$220               player_manager
     000026D8  C$player_manager.c$95$1_0$16       player_manager
     000026D9  A$player_manager$221               player_manager
     000026DC  A$player_manager$222               player_manager
     000026DD  A$player_manager$223               player_manager
     000026E0  A$player_manager$227               player_manager
     000026E0  C$player_manager.c$96$1_0$16       player_manager
     000026E3  A$player_manager$228               player_manager
     000026E5  A$player_manager$229               player_manager
     000026E8  A$player_manager$230               player_manager
     000026EA  A$player_manager$234               player_manager
     000026EA  C$player_manager.c$97$1_0$16       player_manager
     000026ED  A$player_manager$235               player_manager
     000026EF  A$player_manager$236               player_manager
     000026F2  A$player_manager$237               player_manager
     000026F4  A$player_manager$238               player_manager
     000026F7  A$player_manager$239               player_manager
     000026F9  A$player_manager$243               player_manager
     000026F9  C$player_manager.c$98$1_0$16       player_manager
     000026FC  A$player_manager$244               player_manager
     000026FF  A$player_manager$245               player_manager
     00002700  A$player_manager$246               player_manager
     00002703  A$player_manager$250               player_manager
     00002703  C$player_manager.c$99$1_0$16       player_manager
     00002706  A$player_manager$251               player_manager
     00002708  A$player_manager$255               player_manager
     00002708  C$player_manager.c$100$1_0$16      player_manager
     0000270B  A$player_manager$256               player_manager
     0000270D  A$player_manager$260               player_manager
     0000270D  C$player_manager.c$101$1_0$16      player_manager
     00002710  A$player_manager$261               player_manager
     00002712  A$player_manager$265               player_manager
     00002712  C$player_manager.c$102$1_0$16      player_manager
     00002715  A$player_manager$266               player_manager
     00002717  A$player_manager$270               player_manager
     00002717  C$player_manager.c$103$1_0$16      player_manager
     0000271A  A$player_manager$271               player_manager
     0000271C  A$player_manager$272               player_manager
     0000271F  A$player_manager$273               player_manager
     00002721  A$player_manager$277               player_manager
ASxxxx Linker V03.00 + NoICE + sdld,  page 105.
Hexadecimal  [32-Bits]

Area                                    Addr        Size        Decimal Bytes (Attributes)
--------------------------------        ----        ----        ------- ----- ------------
_CODE                               00000200    0000636D =       25453. bytes (REL,CON)

      Value  Global                              Global Defined In Module
      -----  --------------------------------   ------------------------
     00002721  C$player_manager.c$104$1_0$16      player_manager
     00002724  A$player_manager$278               player_manager
     00002726  A$player_manager$279               player_manager
     00002729  A$player_manager$280               player_manager
     0000272B  A$player_manager$281               player_manager
     0000272E  A$player_manager$282               player_manager
     00002730  A$player_manager$283               player_manager
     00002733  A$player_manager$284               player_manager
     00002735  A$player_manager$288               player_manager
     00002735  C$player_manager.c$105$1_0$16      player_manager
     00002738  A$player_manager$289               player_manager
     0000273B  A$player_manager$293               player_manager
     0000273B  C$player_manager.c$106$1_0$16      player_manager
     0000273E  A$player_manager$294               player_manager
     00002740  A$player_manager$298               player_manager
     00002740  C$player_manager.c$107$1_0$16      player_manager
     00002743  A$player_manager$299               player_manager
     00002745  A$player_manager$300               player_manager
     00002748  A$player_manager$301               player_manager
     0000274A  A$player_manager$305               player_manager
     0000274A  C$player_manager.c$108$1_0$16      player_manager
     0000274D  A$player_manager$306               player_manager
     0000274F  A$player_manager$310               player_manager
     0000274F  C$player_manager.c$109$1_0$16      player_manager
     00002752  A$player_manager$311               player_manager
     00002754  A$player_manager$319               player_manager
     00002754  C$player_manager.c$110$1_0$16      player_manager
     00002754  XG$engine_player_manager_load$0$   player_manager
     00002755  A$player_manager$335               player_manager
     00002755  C$player_manager.c$112$1_0$17      player_manager
     00002755  C$player_manager.c$114$1_0$17      player_manager
     00002755  C$player_manager.c$117$1_0$17      player_manager
     00002755  G$engine_player_manager_get_inpu   player_manager
     00002755  _engine_player_manager_get_input   player_manager
     00002758  A$player_manager$336               player_manager
     00002759  A$player_manager$337               player_manager
     0000275A  A$player_manager$341               player_manager
     0000275A  C$player_manager.c$118$1_0$17      player_manager
     0000275B  A$player_manager$342               player_manager
     0000275D  A$player_manager$346               player_manager
     0000275D  C$player_manager.c$120$2_0$18      player_manager
     00002760  A$player_manager$347               player_manager
     00002761  A$player_manager$348               player_manager
     00002763  A$player_manager$352               player_manager
     00002763  C$player_manager.c$122$3_0$19      player_manager
     00002766  A$player_manager$353               player_manager
     00002768  A$player_manager$357               player_manager
     00002768  C$player_manager.c$123$3_0$19      player_manager
     0000276B  A$player_manager$358               player_manager
     0000276D  A$player_manager$362               player_manager
     0000276D  C$player_manager.c$124$3_0$19      player_manager
ASxxxx Linker V03.00 + NoICE + sdld,  page 106.
Hexadecimal  [32-Bits]

Area                                    Addr        Size        Decimal Bytes (Attributes)
--------------------------------        ----        ----        ------- ----- ------------
_CODE                               00000200    0000636D =       25453. bytes (REL,CON)

      Value  Global                              Global Defined In Module
      -----  --------------------------------   ------------------------
     0000276E  A$player_manager$363               player_manager
     00002771  A$player_manager$364               player_manager
     00002772  A$player_manager$369               player_manager
     00002772  C$player_manager.c$128$1_0$17      player_manager
     00002773  A$player_manager$370               player_manager
     00002776  A$player_manager$371               player_manager
     00002777  A$player_manager$372               player_manager
     00002778  A$player_manager$373               player_manager
     00002779  A$player_manager$377               player_manager
     00002779  C$player_manager.c$129$1_0$17      player_manager
     0000277A  A$player_manager$378               player_manager
     0000277C  A$player_manager$382               player_manager
     0000277C  C$player_manager.c$131$2_0$20      player_manager
     0000277F  A$player_manager$383               player_manager
     00002781  A$player_manager$384               player_manager
     00002783  A$player_manager$388               player_manager
     00002783  C$player_manager.c$133$3_0$21      player_manager
     00002786  A$player_manager$389               player_manager
     00002788  A$player_manager$393               player_manager
     00002788  C$player_manager.c$134$3_0$21      player_manager
     0000278B  A$player_manager$394               player_manager
     0000278D  A$player_manager$398               player_manager
     0000278D  C$player_manager.c$135$3_0$21      player_manager
     0000278E  A$player_manager$399               player_manager
     00002791  A$player_manager$400               player_manager
     00002792  A$player_manager$405               player_manager
     00002792  C$player_manager.c$139$1_0$17      player_manager
     00002793  A$player_manager$406               player_manager
     00002796  A$player_manager$407               player_manager
     00002797  A$player_manager$408               player_manager
     00002798  A$player_manager$409               player_manager
     00002799  A$player_manager$410               player_manager
     0000279A  A$player_manager$411               player_manager
     0000279D  A$player_manager$415               player_manager
     0000279D  C$player_manager.c$144$1_0$17      player_manager
     000027A0  A$player_manager$422               player_manager
     000027A0  C$player_manager.c$141$1_0$17      player_manager
     000027A0  C$player_manager.c$163$1_0$17      player_manager
     000027A1  A$player_manager$423               player_manager
     000027A2  A$player_manager$424               player_manager
     000027A4  A$player_manager$425               player_manager
     000027A5  A$player_manager$426               player_manager
     000027A8  A$player_manager$431               player_manager
     000027A8  C$player_manager.c$143$2_0$22      player_manager
     000027AB  A$player_manager$432               player_manager
     000027AC  A$player_manager$433               player_manager
     000027AF  A$player_manager$437               player_manager
     000027AF  C$player_manager.c$144$2_0$22      player_manager
     000027B0  A$player_manager$438               player_manager
     000027B1  A$player_manager$439               player_manager
     000027B2  A$player_manager$440               player_manager
ASxxxx Linker V03.00 + NoICE + sdld,  page 107.
Hexadecimal  [32-Bits]

Area                                    Addr        Size        Decimal Bytes (Attributes)
--------------------------------        ----        ----        ------- ----- ------------
_CODE                               00000200    0000636D =       25453. bytes (REL,CON)

      Value  Global                              Global Defined In Module
      -----  --------------------------------   ------------------------
     000027B3  A$player_manager$441               player_manager
     000027B4  A$player_manager$445               player_manager
     000027B4  C$player_manager.c$146$2_0$22      player_manager
     000027B7  A$player_manager$446               player_manager
     000027B8  A$player_manager$447               player_manager
     000027B9  A$player_manager$448               player_manager
     000027BA  A$player_manager$449               player_manager
     000027BD  A$player_manager$450               player_manager
     000027BF  A$player_manager$452               player_manager
     000027C2  A$player_manager$456               player_manager
     000027C2  C$player_manager.c$148$3_0$23      player_manager
     000027C3  A$player_manager$457               player_manager
     000027C4  A$player_manager$461               player_manager
     000027C4  C$player_manager.c$149$3_0$23      player_manager
     000027C7  A$player_manager$462               player_manager
     000027C8  A$player_manager$463               player_manager
     000027C9  A$player_manager$464               player_manager
     000027CC  A$player_manager$465               player_manager
     000027CD  A$player_manager$469               player_manager
     000027CD  C$player_manager.c$151$3_0$23      player_manager
     000027D0  A$player_manager$470               player_manager
     000027D1  A$player_manager$471               player_manager
     000027D2  A$player_manager$472               player_manager
     000027D3  A$player_manager$473               player_manager
     000027D5  A$player_manager$477               player_manager
     000027D5  C$player_manager.c$153$4_0$24      player_manager
     000027D8  A$player_manager$478               player_manager
     000027DB  A$player_manager$483               player_manager
     000027DB  C$player_manager.c$157$2_0$22      player_manager
     000027DE  A$player_manager$484               player_manager
     000027DF  A$player_manager$485               player_manager
     000027E1  A$player_manager$486               player_manager
     000027E2  A$player_manager$487               player_manager
     000027E5  A$player_manager$488               player_manager
     000027E7  A$player_manager$490               player_manager
     000027EA  A$player_manager$494               player_manager
     000027EA  C$player_manager.c$159$3_0$25      player_manager
     000027ED  A$player_manager$495               player_manager
     000027EF  A$player_manager$500               player_manager
     000027EF  C$player_manager.c$162$2_0$22      player_manager
     000027F2  A$player_manager$501               player_manager
     000027F3  A$player_manager$505               player_manager
     000027F3  C$player_manager.c$143$1_0$17      player_manager
     000027F6  A$player_manager$509               player_manager
     000027F6  C$player_manager.c$162$1_0$17      player_manager
     000027F7  A$player_manager$510               player_manager
     000027F8  A$player_manager$511               player_manager
     000027F9  A$player_manager$512               player_manager
     000027FA  A$player_manager$513               player_manager
     000027FC  A$player_manager$514               player_manager
     000027FE  A$player_manager$515               player_manager
ASxxxx Linker V03.00 + NoICE + sdld,  page 108.
Hexadecimal  [32-Bits]

Area                                    Addr        Size        Decimal Bytes (Attributes)
--------------------------------        ----        ----        ------- ----- ------------
_CODE                               00000200    0000636D =       25453. bytes (REL,CON)

      Value  Global                              Global Defined In Module
      -----  --------------------------------   ------------------------
     00002801  A$player_manager$516               player_manager
     00002802  A$player_manager$517               player_manager
     00002803  A$player_manager$518               player_manager
     00002805  A$player_manager$520               player_manager
     00002808  A$player_manager$521               player_manager
     00002809  A$player_manager$522               player_manager
     0000280A  A$player_manager$524               player_manager
     0000280D  A$player_manager$528               player_manager
     0000280D  C$player_manager.c$163$2_0$22      player_manager
     00002810  A$player_manager$529               player_manager
     00002812  A$player_manager$530               player_manager
     00002813  A$player_manager$531               player_manager
     00002814  A$player_manager$532               player_manager
     00002817  A$player_manager$533               player_manager
     00002818  A$player_manager$534               player_manager
     00002819  A$player_manager$535               player_manager
     0000281A  A$player_manager$536               player_manager
     0000281B  A$player_manager$537               player_manager
     0000281C  A$player_manager$538               player_manager
     0000281D  A$player_manager$539               player_manager
     00002820  A$player_manager$540               player_manager
     00002821  A$player_manager$541               player_manager
     00002822  A$player_manager$542               player_manager
     00002823  A$player_manager$543               player_manager
     00002827  A$player_manager$544               player_manager
     00002828  A$player_manager$549               player_manager
     00002828  C$player_manager.c$167$2_0$26      player_manager
     0000282B  A$player_manager$550               player_manager
     0000282D  A$player_manager$554               player_manager
     0000282D  C$player_manager.c$168$2_0$26      player_manager
     00002830  A$player_manager$555               player_manager
     00002833  A$player_manager$559               player_manager
     00002833  C$player_manager.c$169$2_0$26      player_manager
     00002836  A$player_manager$560               player_manager
     00002838  A$player_manager$564               player_manager
     00002838  C$player_manager.c$170$2_0$26      player_manager
     00002839  A$player_manager$565               player_manager
     0000283A  A$player_manager$573               player_manager
     0000283A  C$player_manager.c$172$1_0$17      player_manager
     0000283A  XG$engine_player_manager_get_inp   player_manager
     0000283B  A$player_manager$589               player_manager
     0000283B  C$player_manager.c$174$1_0$27      player_manager
     0000283B  C$player_manager.c$176$1_0$27      player_manager
     0000283B  C$player_manager.c$177$1_0$27      player_manager
     0000283B  G$engine_player_manager_apply_ph   player_manager
     0000283B  _engine_player_manager_apply_phy   player_manager
     0000283F  A$player_manager$590               player_manager
     00002843  A$player_manager$594               player_manager
     00002843  C$player_manager.c$178$1_0$27      player_manager
     00002847  A$player_manager$595               player_manager
     0000284B  A$player_manager$599               player_manager
ASxxxx Linker V03.00 + NoICE + sdld,  page 109.
Hexadecimal  [32-Bits]

Area                                    Addr        Size        Decimal Bytes (Attributes)
--------------------------------        ----        ----        ------- ----- ------------
_CODE                               00000200    0000636D =       25453. bytes (REL,CON)

      Value  Global                              Global Defined In Module
      -----  --------------------------------   ------------------------
     0000284E  A$player_manager$600               player_manager
     0000284F  A$player_manager$604               player_manager
     0000284F  C$player_manager.c$182$1_0$27      player_manager
     00002852  A$player_manager$608               player_manager
     00002852  C$player_manager.c$180$1_0$27      player_manager
     00002854  A$player_manager$609               player_manager
     00002856  A$player_manager$613               player_manager
     00002856  C$player_manager.c$182$2_0$28      player_manager
     00002857  A$player_manager$614               player_manager
     00002858  A$player_manager$615               player_manager
     00002859  A$player_manager$616               player_manager
     0000285A  A$player_manager$617               player_manager
     0000285B  A$player_manager$621               player_manager
     0000285B  C$player_manager.c$183$2_0$28      player_manager
     0000285D  A$player_manager$622               player_manager
     0000285E  A$player_manager$623               player_manager
     00002861  A$player_manager$624               player_manager
     00002863  A$player_manager$626               player_manager
     00002866  A$player_manager$630               player_manager
     00002866  C$player_manager.c$185$3_0$29      player_manager
     00002868  A$player_manager$631               player_manager
     00002869  A$player_manager$632               player_manager
     0000286B  A$player_manager$637               player_manager
     0000286B  C$player_manager.c$190$2_0$30      player_manager
     0000286C  A$player_manager$638               player_manager
     0000286D  A$player_manager$643               player_manager
     0000286D  C$player_manager.c$193$1_0$27      player_manager
     0000286E  A$player_manager$644               player_manager
     0000286F  A$player_manager$645               player_manager
     00002870  A$player_manager$646               player_manager
     00002871  A$player_manager$647               player_manager
     00002872  A$player_manager$648               player_manager
     00002875  A$player_manager$649               player_manager
     00002876  A$player_manager$650               player_manager
     00002877  A$player_manager$651               player_manager
     0000287A  A$player_manager$655               player_manager
     0000287A  C$player_manager.c$194$1_0$27      player_manager
     0000287B  A$player_manager$656               player_manager
     0000287C  A$player_manager$657               player_manager
     0000287D  A$player_manager$658               player_manager
     0000287E  A$player_manager$659               player_manager
     0000287F  A$player_manager$660               player_manager
     00002883  A$player_manager$664               player_manager
     00002883  C$player_manager.c$196$1_0$27      player_manager
     00002884  A$player_manager$665               player_manager
     00002887  A$player_manager$666               player_manager
     00002888  A$player_manager$667               player_manager
     00002889  A$player_manager$668               player_manager
     0000288D  A$player_manager$672               player_manager
     0000288D  C$player_manager.c$198$1_0$27      player_manager
     00002891  A$player_manager$673               player_manager
ASxxxx Linker V03.00 + NoICE + sdld,  page 110.
Hexadecimal  [32-Bits]

Area                                    Addr        Size        Decimal Bytes (Attributes)
--------------------------------        ----        ----        ------- ----- ------------
_CODE                               00000200    0000636D =       25453. bytes (REL,CON)

      Value  Global                              Global Defined In Module
      -----  --------------------------------   ------------------------
     00002894  A$player_manager$674               player_manager
     00002895  A$player_manager$675               player_manager
     00002896  A$player_manager$676               player_manager
     0000289A  A$player_manager$680               player_manager
     0000289A  C$player_manager.c$199$1_0$27      player_manager
     0000289C  A$player_manager$681               player_manager
     0000289D  A$player_manager$682               player_manager
     0000289F  A$player_manager$683               player_manager
     000028A0  A$player_manager$684               player_manager
     000028A3  A$player_manager$685               player_manager
     000028A5  A$player_manager$687               player_manager
     000028A8  A$player_manager$691               player_manager
     000028A8  C$player_manager.c$201$2_0$31      player_manager
     000028AB  A$player_manager$692               player_manager
     000028AE  A$player_manager$697               player_manager
     000028AE  C$player_manager.c$203$1_0$27      player_manager
     000028B1  A$player_manager$698               player_manager
     000028B4  A$player_manager$699               player_manager
     000028B5  A$player_manager$700               player_manager
     000028B6  A$player_manager$701               player_manager
     000028B8  A$player_manager$702               player_manager
     000028BA  A$player_manager$703               player_manager
     000028BC  A$player_manager$704               player_manager
     000028BE  A$player_manager$708               player_manager
     000028BE  C$player_manager.c$205$2_0$32      player_manager
     000028C1  A$player_manager$709               player_manager
     000028C4  A$player_manager$714               player_manager
     000028C4  C$player_manager.c$209$1_0$27      player_manager
     000028C8  A$player_manager$715               player_manager
     000028CB  A$player_manager$716               player_manager
     000028CC  A$player_manager$717               player_manager
     000028CD  A$player_manager$718               player_manager
     000028D1  A$player_manager$726               player_manager
     000028D1  C$player_manager.c$210$1_0$27      player_manager
     000028D1  XG$engine_player_manager_apply_p   player_manager
     000028D2  A$player_manager$736               player_manager
     000028D2  C$player_manager.c$212$1_0$33      player_manager
     000028D2  G$engine_player_manager_handle_c   player_manager
     000028D2  _engine_player_manager_handle_co   player_manager
     000028D4  A$player_manager$737               player_manager
     000028D8  A$player_manager$738               player_manager
     000028DA  A$player_manager$739               player_manager
     000028DD  A$player_manager$740               player_manager
     000028DE  A$player_manager$741               player_manager
     000028DF  A$player_manager$748               player_manager
     000028DF  C$player_manager.c$214$1_0$33      player_manager
     000028DF  C$player_manager.c$231$1_0$33      player_manager
     000028E2  A$player_manager$749               player_manager
     000028E3  A$player_manager$750               player_manager
     000028E5  A$player_manager$751               player_manager
     000028E8  A$player_manager$752               player_manager
ASxxxx Linker V03.00 + NoICE + sdld,  page 111.
Hexadecimal  [32-Bits]

Area                                    Addr        Size        Decimal Bytes (Attributes)
--------------------------------        ----        ----        ------- ----- ------------
_CODE                               00000200    0000636D =       25453. bytes (REL,CON)

      Value  Global                              Global Defined In Module
      -----  --------------------------------   ------------------------
     000028E9  A$player_manager$753               player_manager
     000028EB  A$player_manager$754               player_manager
     000028EE  A$player_manager$758               player_manager
     000028EE  C$player_manager.c$232$1_0$33      player_manager
     000028F1  A$player_manager$759               player_manager
     000028F2  A$player_manager$760               player_manager
     000028F4  A$player_manager$761               player_manager
     000028F7  A$player_manager$762               player_manager
     000028F8  A$player_manager$763               player_manager
     000028FA  A$player_manager$764               player_manager
     000028FD  A$player_manager$768               player_manager
     000028FD  C$player_manager.c$237$1_0$33      player_manager
     00002901  A$player_manager$769               player_manager
     00002905  A$player_manager$773               player_manager
     00002905  C$player_manager.c$239$1_0$33      player_manager
     00002908  A$player_manager$777               player_manager
     00002908  C$player_manager.c$242$1_0$33      player_manager
     0000290C  A$player_manager$781               player_manager
     0000290C  C$player_manager.c$243$1_0$33      player_manager
     0000290D  A$player_manager$782               player_manager
     0000290E  A$player_manager$783               player_manager
     00002910  A$player_manager$784               player_manager
     00002912  A$player_manager$785               player_manager
     00002915  A$player_manager$786               player_manager
     00002916  A$player_manager$788               player_manager
     00002917  A$player_manager$789               player_manager
     00002918  A$player_manager$790               player_manager
     0000291A  A$player_manager$791               player_manager
     0000291C  A$player_manager$792               player_manager
     0000291E  A$player_manager$793               player_manager
     00002920  A$player_manager$794               player_manager
     00002922  A$player_manager$795               player_manager
     00002924  A$player_manager$796               player_manager
     00002926  A$player_manager$797               player_manager
     00002928  A$player_manager$801               player_manager
     00002928  C$player_manager.c$244$1_0$33      player_manager
     00002929  A$player_manager$802               player_manager
     0000292C  A$player_manager$803               player_manager
     0000292D  A$player_manager$804               player_manager
     0000292E  A$player_manager$805               player_manager
     00002931  A$player_manager$806               player_manager
     00002932  A$player_manager$807               player_manager
     00002933  A$player_manager$808               player_manager
     00002934  A$player_manager$809               player_manager
     00002935  A$player_manager$813               player_manager
     00002935  C$player_manager.c$246$1_0$33      player_manager
     00002938  A$player_manager$814               player_manager
     00002939  A$player_manager$815               player_manager
     0000293A  A$player_manager$816               player_manager
     0000293B  A$player_manager$817               player_manager
     0000293C  A$player_manager$818               player_manager
ASxxxx Linker V03.00 + NoICE + sdld,  page 112.
Hexadecimal  [32-Bits]

Area                                    Addr        Size        Decimal Bytes (Attributes)
--------------------------------        ----        ----        ------- ----- ------------
_CODE                               00000200    0000636D =       25453. bytes (REL,CON)

      Value  Global                              Global Defined In Module
      -----  --------------------------------   ------------------------
     0000293D  A$player_manager$819               player_manager
     0000293E  A$player_manager$823               player_manager
     0000293E  C$player_manager.c$247$1_0$33      player_manager
     00002941  A$player_manager$824               player_manager
     00002942  A$player_manager$825               player_manager
     00002943  A$player_manager$829               player_manager
     00002943  C$player_manager.c$248$1_0$33      player_manager
     00002944  A$player_manager$830               player_manager
     00002945  A$player_manager$831               player_manager
     00002948  A$player_manager$835               player_manager
     00002948  C$player_manager.c$249$1_0$33      player_manager
     00002949  A$player_manager$836               player_manager
     0000294C  A$player_manager$840               player_manager
     0000294C  C$player_manager.c$254$1_0$33      player_manager
     0000294F  A$player_manager$841               player_manager
     00002950  A$player_manager$842               player_manager
     00002953  A$player_manager$843               player_manager
     00002954  A$player_manager$844               player_manager
     00002955  A$player_manager$845               player_manager
     00002958  A$player_manager$846               player_manager
     0000295C  A$player_manager$847               player_manager
     0000295E  A$player_manager$851               player_manager
     0000295E  C$player_manager.c$256$2_0$34      player_manager
     00002961  A$player_manager$852               player_manager
     00002964  A$player_manager$853               player_manager
     00002967  A$player_manager$854               player_manager
     0000296A  A$player_manager$858               player_manager
     0000296A  C$player_manager.c$257$2_0$34      player_manager
     0000296D  A$player_manager$859               player_manager
     00002970  A$player_manager$860               player_manager
     00002973  A$player_manager$861               player_manager
     00002976  A$player_manager$862               player_manager
     0000297A  A$player_manager$863               player_manager
     0000297C  A$player_manager$864               player_manager
     0000297F  A$player_manager$865               player_manager
     00002981  A$player_manager$866               player_manager
     00002984  A$player_manager$867               player_manager
     00002987  A$player_manager$868               player_manager
     00002989  A$player_manager$869               player_manager
     0000298C  A$player_manager$871               player_manager
     0000298F  A$player_manager$872               player_manager
     00002992  A$player_manager$873               player_manager
     00002994  A$player_manager$874               player_manager
     00002996  A$player_manager$875               player_manager
     00002998  A$player_manager$876               player_manager
     0000299A  A$player_manager$877               player_manager
     0000299C  A$player_manager$878               player_manager
     0000299E  A$player_manager$879               player_manager
     000029A0  A$player_manager$880               player_manager
     000029A2  A$player_manager$881               player_manager
     000029A5  A$player_manager$885               player_manager
ASxxxx Linker V03.00 + NoICE + sdld,  page 113.
Hexadecimal  [32-Bits]

Area                                    Addr        Size        Decimal Bytes (Attributes)
--------------------------------        ----        ----        ------- ----- ------------
_CODE                               00000200    0000636D =       25453. bytes (REL,CON)

      Value  Global                              Global Defined In Module
      -----  --------------------------------   ------------------------
     000029A5  C$player_manager.c$258$1_0$33      player_manager
     000029A8  A$player_manager$886               player_manager
     000029A9  A$player_manager$887               player_manager
     000029AC  A$player_manager$888               player_manager
     000029AF  A$player_manager$889               player_manager
     000029B0  A$player_manager$890               player_manager
     000029B3  A$player_manager$891               player_manager
     000029B4  A$player_manager$892               player_manager
     000029B5  A$player_manager$893               player_manager
     000029B8  A$player_manager$901               player_manager
     000029B8  C$player_manager.c$263$1_0$33      player_manager
     000029B8  C$player_manager.c$266$1_0$33      player_manager
     000029BB  A$player_manager$902               player_manager
     000029BE  A$player_manager$903               player_manager
     000029BF  A$player_manager$904               player_manager
     000029C0  A$player_manager$905               player_manager
     000029C1  A$player_manager$906               player_manager
     000029C2  A$player_manager$907               player_manager
     000029C3  A$player_manager$908               player_manager
     000029C4  A$player_manager$912               player_manager
     000029C4  C$player_manager.c$267$1_0$33      player_manager
     000029C7  A$player_manager$913               player_manager
     000029C8  A$player_manager$914               player_manager
     000029C9  A$player_manager$918               player_manager
     000029C9  C$player_manager.c$268$1_0$33      player_manager
     000029CA  A$player_manager$919               player_manager
     000029CD  A$player_manager$920               player_manager
     000029CE  A$player_manager$924               player_manager
     000029CE  C$player_manager.c$269$1_0$33      player_manager
     000029CF  A$player_manager$925               player_manager
     000029D2  A$player_manager$926               player_manager
     000029D5  A$player_manager$930               player_manager
     000029D5  C$player_manager.c$272$1_0$33      player_manager
     000029D8  A$player_manager$931               player_manager
     000029DA  A$player_manager$935               player_manager
     000029DA  C$player_manager.c$275$1_0$33      player_manager
     000029DD  A$player_manager$936               player_manager
     000029DF  A$player_manager$937               player_manager
     000029E0  A$player_manager$941               player_manager
     000029E0  C$player_manager.c$276$1_0$33      player_manager
     000029E3  A$player_manager$942               player_manager
     000029E5  A$player_manager$946               player_manager
     000029E5  C$player_manager.c$277$1_0$33      player_manager
     000029E8  A$player_manager$947               player_manager
     000029EB  A$player_manager$948               player_manager
     000029ED  A$player_manager$952               player_manager
     000029ED  C$player_manager.c$279$2_0$35      player_manager
     000029F0  A$player_manager$953               player_manager
     000029F1  A$player_manager$957               player_manager
     000029F1  C$player_manager.c$280$2_0$35      player_manager
     000029F2  A$player_manager$962               player_manager
ASxxxx Linker V03.00 + NoICE + sdld,  page 114.
Hexadecimal  [32-Bits]

Area                                    Addr        Size        Decimal Bytes (Attributes)
--------------------------------        ----        ----        ------- ----- ------------
_CODE                               00000200    0000636D =       25453. bytes (REL,CON)

      Value  Global                              Global Defined In Module
      -----  --------------------------------   ------------------------
     000029F2  C$player_manager.c$282$1_0$33      player_manager
     000029F5  A$player_manager$963               player_manager
     000029F8  A$player_manager$964               player_manager
     000029F9  A$player_manager$968               player_manager
     000029F9  C$player_manager.c$283$1_0$33      player_manager
     000029FC  A$player_manager$969               player_manager
     000029FF  A$player_manager$970               player_manager
     00002A00  A$player_manager$974               player_manager
     00002A00  C$player_manager.c$284$1_0$33      player_manager
     00002A03  A$player_manager$975               player_manager
     00002A04  A$player_manager$979               player_manager
     00002A04  C$player_manager.c$285$1_0$33      player_manager
     00002A07  A$player_manager$980               player_manager
     00002A0A  A$player_manager$981               player_manager
     00002A0B  A$player_manager$985               player_manager
     00002A0B  C$player_manager.c$288$9_0$45      player_manager
     00002A0E  A$player_manager$987               player_manager
     00002A11  A$player_manager$988               player_manager
     00002A14  A$player_manager$989               player_manager
     00002A17  A$player_manager$993               player_manager
     00002A17  C$player_manager.c$290$1_0$33      player_manager
     00002A1A  A$player_manager$994               player_manager
     00002A1D  A$player_manager$996               player_manager
     00002A20  A$player_manager$997               player_manager
     00002A23  A$player_manager$998               player_manager
     00002A26  A$player_manager$1002              player_manager
     00002A26  C$player_manager.c$293$5_0$39      player_manager
     00002A29  A$player_manager$1003              player_manager
     00002A2A  A$player_manager$1004              player_manager
     00002A2D  A$player_manager$1005              player_manager
     00002A30  A$player_manager$1006              player_manager
     00002A33  A$player_manager$1007              player_manager
     00002A36  A$player_manager$1008              player_manager
     00002A37  A$player_manager$1009              player_manager
     00002A3A  A$player_manager$1010              player_manager
     00002A3D  A$player_manager$1011              player_manager
     00002A3E  A$player_manager$1012              player_manager
     00002A41  A$player_manager$1013              player_manager
     00002A42  A$player_manager$1014              player_manager
     00002A43  A$player_manager$1018              player_manager
     00002A43  C$player_manager.c$294$5_0$39      player_manager
     00002A46  A$player_manager$1022              player_manager
     00002A46  C$player_manager.c$296$5_0$39      player_manager
     00002A49  A$player_manager$1023              player_manager
     00002A4A  A$player_manager$1024              player_manager
     00002A4D  A$player_manager$1028              player_manager
     00002A4D  C$player_manager.c$299$6_0$40      player_manager
     00002A50  A$player_manager$1029              player_manager
     00002A52  A$player_manager$1030              player_manager
     00002A53  A$player_manager$1031              player_manager
     00002A54  A$player_manager$1032              player_manager
ASxxxx Linker V03.00 + NoICE + sdld,  page 115.
Hexadecimal  [32-Bits]

Area                                    Addr        Size        Decimal Bytes (Attributes)
--------------------------------        ----        ----        ------- ----- ------------
_CODE                               00000200    0000636D =       25453. bytes (REL,CON)

      Value  Global                              Global Defined In Module
      -----  --------------------------------   ------------------------
     00002A55  A$player_manager$1033              player_manager
     00002A56  A$player_manager$1034              player_manager
     00002A57  A$player_manager$1035              player_manager
     00002A58  A$player_manager$1039              player_manager
     00002A58  C$player_manager.c$300$6_0$40      player_manager
     00002A5B  A$player_manager$1040              player_manager
     00002A5D  A$player_manager$1041              player_manager
     00002A5E  A$player_manager$1042              player_manager
     00002A5F  A$player_manager$1043              player_manager
     00002A60  A$player_manager$1044              player_manager
     00002A61  A$player_manager$1048              player_manager
     00002A61  C$player_manager.c$302$6_0$40      player_manager
     00002A64  A$player_manager$1049              player_manager
     00002A67  A$player_manager$1050              player_manager
     00002A68  A$player_manager$1051              player_manager
     00002A69  A$player_manager$1052              player_manager
     00002A6C  A$player_manager$1053              player_manager
     00002A6F  A$player_manager$1054              player_manager
     00002A70  A$player_manager$1055              player_manager
     00002A73  A$player_manager$1056              player_manager
     00002A76  A$player_manager$1057              player_manager
     00002A77  A$player_manager$1058              player_manager
     00002A7A  A$player_manager$1059              player_manager
     00002A7D  A$player_manager$1060              player_manager
     00002A7E  A$player_manager$1061              player_manager
     00002A7F  A$player_manager$1065              player_manager
     00002A7F  C$player_manager.c$303$1_0$33      player_manager
     00002A82  A$player_manager$1066              player_manager
     00002A83  A$player_manager$1067              player_manager
     00002A86  A$player_manager$1068              player_manager
     00002A87  A$player_manager$1069              player_manager
     00002A88  A$player_manager$1070              player_manager
     00002A8B  A$player_manager$1071              player_manager
     00002A8E  A$player_manager$1072              player_manager
     00002A90  A$player_manager$1073              player_manager
     00002A93  A$player_manager$1074              player_manager
     00002A94  A$player_manager$1075              player_manager
     00002A95  A$player_manager$1076              player_manager
     00002A98  A$player_manager$1081              player_manager
     00002A98  C$player_manager.c$305$7_0$41      player_manager
     00002A9B  A$player_manager$1082              player_manager
     00002A9E  A$player_manager$1083              player_manager
     00002AA1  A$player_manager$1084              player_manager
     00002AA4  A$player_manager$1088              player_manager
     00002AA4  C$player_manager.c$306$7_0$41      player_manager
     00002AA7  A$player_manager$1089              player_manager
     00002AA8  A$player_manager$1090              player_manager
     00002AAB  A$player_manager$1091              player_manager
     00002AAC  A$player_manager$1092              player_manager
     00002AAD  A$player_manager$1096              player_manager
     00002AB0  A$player_manager$1097              player_manager
ASxxxx Linker V03.00 + NoICE + sdld,  page 116.
Hexadecimal  [32-Bits]

Area                                    Addr        Size        Decimal Bytes (Attributes)
--------------------------------        ----        ----        ------- ----- ------------
_CODE                               00000200    0000636D =       25453. bytes (REL,CON)

      Value  Global                              Global Defined In Module
      -----  --------------------------------   ------------------------
     00002AB1  A$player_manager$1098              player_manager
     00002AB3  A$player_manager$1099              player_manager
     00002AB4  A$player_manager$1100              player_manager
     00002AB8  A$player_manager$1101              player_manager
     00002ABA  A$player_manager$1102              player_manager
     00002ABC  A$player_manager$1103              player_manager
     00002ABE  A$player_manager$1107              player_manager
     00002ABE  C$player_manager.c$311$8_0$42      player_manager
     00002ABF  A$player_manager$1108              player_manager
     00002AC2  A$player_manager$1109              player_manager
     00002AC5  A$player_manager$1110              player_manager
     00002AC7  A$player_manager$1111              player_manager
     00002ACA  A$player_manager$1112              player_manager
     00002ACD  A$player_manager$1117              player_manager
     00002ACD  C$player_manager.c$313$7_0$41      player_manager
     00002ACE  A$player_manager$1118              player_manager
     00002ACF  A$player_manager$1119              player_manager
     00002AD1  A$player_manager$1120              player_manager
     00002AD5  A$player_manager$1121              player_manager
     00002AD7  A$player_manager$1125              player_manager
     00002AD7  C$player_manager.c$315$8_0$43      player_manager
     00002AD8  A$player_manager$1126              player_manager
     00002ADB  A$player_manager$1127              player_manager
     00002ADE  A$player_manager$1128              player_manager
     00002AE0  A$player_manager$1129              player_manager
     00002AE3  A$player_manager$1130              player_manager
     00002AE6  A$player_manager$1135              player_manager
     00002AE6  C$player_manager.c$309$1_0$33      player_manager
     00002AE9  A$player_manager$1136              player_manager
     00002AEA  A$player_manager$1137              player_manager
     00002AEC  A$player_manager$1141              player_manager
     00002AEC  C$player_manager.c$320$7_0$41      player_manager
     00002AEF  A$player_manager$1142              player_manager
     00002AF0  A$player_manager$1143              player_manager
     00002AF3  A$player_manager$1144              player_manager
     00002AF7  A$player_manager$1145              player_manager
     00002AFA  A$player_manager$1149              player_manager
     00002AFD  A$player_manager$1150              player_manager
     00002AFE  A$player_manager$1151              player_manager
     00002B00  A$player_manager$1152              player_manager
     00002B02  A$player_manager$1153              player_manager
     00002B03  A$player_manager$1155              player_manager
     00002B06  A$player_manager$1159              player_manager
     00002B06  C$player_manager.c$322$8_0$44      player_manager
     00002B09  A$player_manager$1160              player_manager
     00002B0C  A$player_manager$1161              player_manager
     00002B0F  A$player_manager$1162              player_manager
     00002B12  A$player_manager$1163              player_manager
     00002B15  A$player_manager$1164              player_manager
     00002B17  A$player_manager$1166              player_manager
     00002B1A  A$player_manager$1167              player_manager
ASxxxx Linker V03.00 + NoICE + sdld,  page 117.
Hexadecimal  [32-Bits]

Area                                    Addr        Size        Decimal Bytes (Attributes)
--------------------------------        ----        ----        ------- ----- ------------
_CODE                               00000200    0000636D =       25453. bytes (REL,CON)

      Value  Global                              Global Defined In Module
      -----  --------------------------------   ------------------------
     00002B1D  A$player_manager$1168              player_manager
     00002B1F  A$player_manager$1169              player_manager
     00002B22  A$player_manager$1174              player_manager
     00002B22  C$player_manager.c$325$9_0$45      player_manager
     00002B25  A$player_manager$1175              player_manager
     00002B28  A$player_manager$1176              player_manager
     00002B29  A$player_manager$1177              player_manager
     00002B2C  A$player_manager$1178              player_manager
     00002B2D  A$player_manager$1179              player_manager
     00002B30  A$player_manager$1180              player_manager
     00002B32  A$player_manager$1182              player_manager
     00002B35  A$player_manager$1186              player_manager
     00002B35  C$player_manager.c$327$10_0$46     player_manager
     00002B38  A$player_manager$1187              player_manager
     00002B3A  A$player_manager$1192              player_manager
     00002B3A  C$player_manager.c$331$9_0$45      player_manager
     00002B3D  A$player_manager$1193              player_manager
     00002B3E  A$player_manager$1194              player_manager
     00002B40  A$player_manager$1195              player_manager
     00002B43  A$player_manager$1196              player_manager
     00002B45  A$player_manager$1197              player_manager
     00002B48  A$player_manager$1202              player_manager
     00002B48  C$player_manager.c$334$10_0$47     player_manager
     00002B4B  A$player_manager$1203              player_manager
     00002B4C  A$player_manager$1204              player_manager
     00002B4F  A$player_manager$1205              player_manager
     00002B50  A$player_manager$1206              player_manager
     00002B51  A$player_manager$1207              player_manager
     00002B54  A$player_manager$1208              player_manager
     00002B57  A$player_manager$1209              player_manager
     00002B58  A$player_manager$1210              player_manager
     00002B5B  A$player_manager$1211              player_manager
     00002B5C  A$player_manager$1212              player_manager
     00002B5D  A$player_manager$1213              player_manager
     00002B60  A$player_manager$1214              player_manager
     00002B63  A$player_manager$1215              player_manager
     00002B66  A$player_manager$1216              player_manager
     00002B69  A$player_manager$1217              player_manager
     00002B6C  A$player_manager$1218              player_manager
     00002B6F  A$player_manager$1219              player_manager
     00002B72  A$player_manager$1220              player_manager
     00002B75  A$player_manager$1221              player_manager
     00002B78  A$player_manager$1222              player_manager
     00002B79  A$player_manager$1223              player_manager
     00002B7A  A$player_manager$1224              player_manager
     00002B7D  A$player_manager$1225              player_manager
     00002B7E  A$player_manager$1229              player_manager
     00002B7E  C$player_manager.c$337$10_0$47     player_manager
     00002B81  A$player_manager$1230              player_manager
     00002B82  A$player_manager$1231              player_manager
     00002B85  A$player_manager$1232              player_manager
ASxxxx Linker V03.00 + NoICE + sdld,  page 118.
Hexadecimal  [32-Bits]

Area                                    Addr        Size        Decimal Bytes (Attributes)
--------------------------------        ----        ----        ------- ----- ------------
_CODE                               00000200    0000636D =       25453. bytes (REL,CON)

      Value  Global                              Global Defined In Module
      -----  --------------------------------   ------------------------
     00002B86  A$player_manager$1233              player_manager
     00002B87  A$player_manager$1234              player_manager
     00002B8A  A$player_manager$1235              player_manager
     00002B8D  A$player_manager$1236              player_manager
     00002B8F  A$player_manager$1237              player_manager
     00002B92  A$player_manager$1238              player_manager
     00002B95  A$player_manager$1239              player_manager
     00002B97  A$player_manager$1240              player_manager
     00002B9A  A$player_manager$1244              player_manager
     00002B9A  C$player_manager.c$338$10_0$47     player_manager
     00002B9D  A$player_manager$1245              player_manager
     00002B9F  A$player_manager$1246              player_manager
     00002BA2  A$player_manager$1247              player_manager
     00002BA5  A$player_manager$1248              player_manager
     00002BA7  A$player_manager$1249              player_manager
     00002BAA  A$player_manager$1250              player_manager
     00002BAD  A$player_manager$1255              player_manager
     00002BAD  C$player_manager.c$341$8_0$44      player_manager
     00002BB0  A$player_manager$1256              player_manager
     00002BB1  A$player_manager$1257              player_manager
     00002BB4  A$player_manager$1261              player_manager
     00002BB4  C$player_manager.c$344$9_0$48      player_manager
     00002BB7  A$player_manager$1262              player_manager
     00002BB8  A$player_manager$1263              player_manager
     00002BBB  A$player_manager$1264              player_manager
     00002BBC  A$player_manager$1265              player_manager
     00002BBD  A$player_manager$1266              player_manager
     00002BC0  A$player_manager$1267              player_manager
     00002BC3  A$player_manager$1268              player_manager
     00002BC6  A$player_manager$1269              player_manager
     00002BC9  A$player_manager$1270              player_manager
     00002BCC  A$player_manager$1271              player_manager
     00002BCF  A$player_manager$1272              player_manager
     00002BD2  A$player_manager$1273              player_manager
     00002BD5  A$player_manager$1274              player_manager
     00002BD8  A$player_manager$1275              player_manager
     00002BD9  A$player_manager$1276              player_manager
     00002BDA  A$player_manager$1277              player_manager
     00002BDD  A$player_manager$1278              player_manager
     00002BDE  A$player_manager$1282              player_manager
     00002BDE  C$player_manager.c$347$9_0$48      player_manager
     00002BE1  A$player_manager$1283              player_manager
     00002BE3  A$player_manager$1284              player_manager
     00002BE6  A$player_manager$1285              player_manager
     00002BE9  A$player_manager$1286              player_manager
     00002BEB  A$player_manager$1287              player_manager
     00002BEE  A$player_manager$1291              player_manager
     00002BEE  C$player_manager.c$348$9_0$48      player_manager
     00002BF1  A$player_manager$1292              player_manager
     00002BF2  A$player_manager$1293              player_manager
     00002BF5  A$player_manager$1294              player_manager
ASxxxx Linker V03.00 + NoICE + sdld,  page 119.
Hexadecimal  [32-Bits]

Area                                    Addr        Size        Decimal Bytes (Attributes)
--------------------------------        ----        ----        ------- ----- ------------
_CODE                               00000200    0000636D =       25453. bytes (REL,CON)

      Value  Global                              Global Defined In Module
      -----  --------------------------------   ------------------------
     00002BF6  A$player_manager$1295              player_manager
     00002BF7  A$player_manager$1296              player_manager
     00002BFA  A$player_manager$1297              player_manager
     00002BFD  A$player_manager$1298              player_manager
     00002BFF  A$player_manager$1299              player_manager
     00002C02  A$player_manager$1300              player_manager
     00002C05  A$player_manager$1301              player_manager
     00002C07  A$player_manager$1302              player_manager
     00002C0A  A$player_manager$1303              player_manager
     00002C0D  A$player_manager$1308              player_manager
     00002C0D  C$player_manager.c$351$7_0$41      player_manager
     00002C11  A$player_manager$1309              player_manager
     00002C14  A$player_manager$1310              player_manager
     00002C18  A$player_manager$1311              player_manager
     00002C1B  A$player_manager$1315              player_manager
     00002C1B  C$player_manager.c$331$1_0$33      player_manager
     00002C1E  A$player_manager$1316              player_manager
     00002C1F  A$player_manager$1317              player_manager
     00002C21  A$player_manager$1318              player_manager
     00002C23  A$player_manager$1319              player_manager
     00002C24  A$player_manager$1321              player_manager
     00002C27  A$player_manager$1325              player_manager
     00002C27  C$player_manager.c$353$8_0$49      player_manager
     00002C2A  A$player_manager$1326              player_manager
     00002C2D  A$player_manager$1327              player_manager
     00002C30  A$player_manager$1328              player_manager
     00002C33  A$player_manager$1329              player_manager
     00002C36  A$player_manager$1330              player_manager
     00002C38  A$player_manager$1332              player_manager
     00002C3B  A$player_manager$1333              player_manager
     00002C3E  A$player_manager$1334              player_manager
     00002C40  A$player_manager$1335              player_manager
     00002C43  A$player_manager$1340              player_manager
     00002C43  C$player_manager.c$356$9_0$50      player_manager
     00002C46  A$player_manager$1341              player_manager
     00002C49  A$player_manager$1342              player_manager
     00002C4A  A$player_manager$1343              player_manager
     00002C4D  A$player_manager$1344              player_manager
     00002C4E  A$player_manager$1345              player_manager
     00002C51  A$player_manager$1346              player_manager
     00002C53  A$player_manager$1348              player_manager
     00002C56  A$player_manager$1352              player_manager
     00002C56  C$player_manager.c$358$10_0$51     player_manager
     00002C59  A$player_manager$1353              player_manager
     00002C5B  A$player_manager$1358              player_manager
     00002C5B  C$player_manager.c$362$9_0$50      player_manager
     00002C5E  A$player_manager$1359              player_manager
     00002C5F  A$player_manager$1360              player_manager
     00002C61  A$player_manager$1361              player_manager
     00002C64  A$player_manager$1362              player_manager
     00002C66  A$player_manager$1363              player_manager
ASxxxx Linker V03.00 + NoICE + sdld,  page 120.
Hexadecimal  [32-Bits]

Area                                    Addr        Size        Decimal Bytes (Attributes)
--------------------------------        ----        ----        ------- ----- ------------
_CODE                               00000200    0000636D =       25453. bytes (REL,CON)

      Value  Global                              Global Defined In Module
      -----  --------------------------------   ------------------------
     00002C69  A$player_manager$1368              player_manager
     00002C69  C$player_manager.c$365$10_0$52     player_manager
     00002C6C  A$player_manager$1369              player_manager
     00002C6D  A$player_manager$1370              player_manager
     00002C70  A$player_manager$1371              player_manager
     00002C71  A$player_manager$1372              player_manager
     00002C72  A$player_manager$1373              player_manager
     00002C75  A$player_manager$1374              player_manager
     00002C78  A$player_manager$1375              player_manager
     00002C79  A$player_manager$1376              player_manager
     00002C7C  A$player_manager$1377              player_manager
     00002C7D  A$player_manager$1378              player_manager
     00002C7E  A$player_manager$1379              player_manager
     00002C81  A$player_manager$1380              player_manager
     00002C84  A$player_manager$1381              player_manager
     00002C87  A$player_manager$1382              player_manager
     00002C8A  A$player_manager$1383              player_manager
     00002C8D  A$player_manager$1384              player_manager
     00002C90  A$player_manager$1385              player_manager
     00002C93  A$player_manager$1386              player_manager
     00002C96  A$player_manager$1387              player_manager
     00002C99  A$player_manager$1388              player_manager
     00002C9A  A$player_manager$1389              player_manager
     00002C9B  A$player_manager$1390              player_manager
     00002C9E  A$player_manager$1391              player_manager
     00002C9F  A$player_manager$1395              player_manager
     00002C9F  C$player_manager.c$368$10_0$52     player_manager
     00002CA2  A$player_manager$1396              player_manager
     00002CA3  A$player_manager$1397              player_manager
     00002CA6  A$player_manager$1398              player_manager
     00002CA7  A$player_manager$1399              player_manager
     00002CA8  A$player_manager$1400              player_manager
     00002CAB  A$player_manager$1401              player_manager
     00002CAE  A$player_manager$1402              player_manager
     00002CB0  A$player_manager$1403              player_manager
     00002CB3  A$player_manager$1404              player_manager
     00002CB6  A$player_manager$1405              player_manager
     00002CB8  A$player_manager$1406              player_manager
     00002CBB  A$player_manager$1410              player_manager
     00002CBB  C$player_manager.c$369$10_0$52     player_manager
     00002CBE  A$player_manager$1411              player_manager
     00002CC0  A$player_manager$1412              player_manager
     00002CC3  A$player_manager$1413              player_manager
     00002CC6  A$player_manager$1414              player_manager
     00002CC8  A$player_manager$1415              player_manager
     00002CCB  A$player_manager$1416              player_manager
     00002CCD  A$player_manager$1421              player_manager
     00002CCD  C$player_manager.c$372$8_0$49      player_manager
     00002CD0  A$player_manager$1422              player_manager
     00002CD1  A$player_manager$1423              player_manager
     00002CD3  A$player_manager$1427              player_manager
ASxxxx Linker V03.00 + NoICE + sdld,  page 121.
Hexadecimal  [32-Bits]

Area                                    Addr        Size        Decimal Bytes (Attributes)
--------------------------------        ----        ----        ------- ----- ------------
_CODE                               00000200    0000636D =       25453. bytes (REL,CON)

      Value  Global                              Global Defined In Module
      -----  --------------------------------   ------------------------
     00002CD3  C$player_manager.c$375$9_0$53      player_manager
     00002CD6  A$player_manager$1428              player_manager
     00002CD7  A$player_manager$1429              player_manager
     00002CDA  A$player_manager$1430              player_manager
     00002CDB  A$player_manager$1431              player_manager
     00002CDC  A$player_manager$1432              player_manager
     00002CDF  A$player_manager$1433              player_manager
     00002CE2  A$player_manager$1434              player_manager
     00002CE5  A$player_manager$1435              player_manager
     00002CE8  A$player_manager$1436              player_manager
     00002CEB  A$player_manager$1437              player_manager
     00002CEE  A$player_manager$1438              player_manager
     00002CF1  A$player_manager$1439              player_manager
     00002CF4  A$player_manager$1440              player_manager
     00002CF7  A$player_manager$1441              player_manager
     00002CF8  A$player_manager$1442              player_manager
     00002CF9  A$player_manager$1443              player_manager
     00002CFC  A$player_manager$1444              player_manager
     00002CFD  A$player_manager$1448              player_manager
     00002CFD  C$player_manager.c$378$9_0$53      player_manager
     00002D00  A$player_manager$1449              player_manager
     00002D02  A$player_manager$1450              player_manager
     00002D05  A$player_manager$1451              player_manager
     00002D08  A$player_manager$1452              player_manager
     00002D0A  A$player_manager$1453              player_manager
     00002D0D  A$player_manager$1457              player_manager
     00002D0D  C$player_manager.c$379$9_0$53      player_manager
     00002D10  A$player_manager$1458              player_manager
     00002D11  A$player_manager$1459              player_manager
     00002D14  A$player_manager$1460              player_manager
     00002D15  A$player_manager$1461              player_manager
     00002D16  A$player_manager$1462              player_manager
     00002D19  A$player_manager$1463              player_manager
     00002D1C  A$player_manager$1464              player_manager
     00002D1E  A$player_manager$1465              player_manager
     00002D21  A$player_manager$1466              player_manager
     00002D24  A$player_manager$1467              player_manager
     00002D26  A$player_manager$1468              player_manager
     00002D29  A$player_manager$1473              player_manager
     00002D29  C$player_manager.c$290$4_0$38      player_manager
     00002D2C  A$player_manager$1474              player_manager
     00002D2F  A$player_manager$1479              player_manager
     00002D2F  C$player_manager.c$288$2_0$36      player_manager
     00002D32  A$player_manager$1480              player_manager
     00002D35  A$player_manager$1485              player_manager
     00002D35  C$player_manager.c$391$1_0$33      player_manager
     00002D38  A$player_manager$1486              player_manager
     00002D3B  A$player_manager$1487              player_manager
     00002D3C  A$player_manager$1488              player_manager
     00002D3D  A$player_manager$1489              player_manager
     00002D3E  A$player_manager$1490              player_manager
ASxxxx Linker V03.00 + NoICE + sdld,  page 122.
Hexadecimal  [32-Bits]

Area                                    Addr        Size        Decimal Bytes (Attributes)
--------------------------------        ----        ----        ------- ----- ------------
_CODE                               00000200    0000636D =       25453. bytes (REL,CON)

      Value  Global                              Global Defined In Module
      -----  --------------------------------   ------------------------
     00002D3F  A$player_manager$1494              player_manager
     00002D3F  C$player_manager.c$392$1_0$33      player_manager
     00002D42  A$player_manager$1495              player_manager
     00002D43  A$player_manager$1496              player_manager
     00002D44  A$player_manager$1500              player_manager
     00002D44  C$player_manager.c$393$1_0$33      player_manager
     00002D48  A$player_manager$1504              player_manager
     00002D4A  A$player_manager$1505              player_manager
     00002D4C  A$player_manager$1510              player_manager
     00002D4C  C$player_manager.c$394$1_0$33      player_manager
     00002D4C  XG$engine_player_manager_handle_   player_manager
     00002D4D  A$player_manager$1526              player_manager
     00002D4D  C$player_manager.c$396$1_0$54      player_manager
     00002D4D  C$player_manager.c$398$1_0$54      player_manager
     00002D4D  C$player_manager.c$399$1_0$54      player_manager
     00002D4D  G$engine_player_manager_cleanup$   player_manager
     00002D4D  _engine_player_manager_cleanup     player_manager
     00002D51  A$player_manager$1527              player_manager
     00002D54  A$player_manager$1528              player_manager
     00002D55  A$player_manager$1529              player_manager
     00002D57  A$player_manager$1530              player_manager
     00002D59  A$player_manager$1534              player_manager
     00002D59  C$player_manager.c$401$2_0$55      player_manager
     00002D5C  A$player_manager$1535              player_manager
     00002D5F  A$player_manager$1540              player_manager
     00002D5F  C$player_manager.c$404$1_0$54      player_manager
     00002D63  A$player_manager$1541              player_manager
     00002D66  A$player_manager$1542              player_manager
     00002D67  A$player_manager$1543              player_manager
     00002D69  A$player_manager$1544              player_manager
     00002D6A  A$player_manager$1548              player_manager
     00002D6A  C$player_manager.c$406$2_0$56      player_manager
     00002D6D  A$player_manager$1549              player_manager
     00002D70  A$player_manager$1553              player_manager
     00002D70  C$player_manager.c$407$2_0$56      player_manager
     00002D73  A$player_manager$1554              player_manager
     00002D75  A$player_manager$1558              player_manager
     00002D75  C$player_manager.c$408$2_0$56      player_manager
     00002D78  A$player_manager$1559              player_manager
     00002D7A  A$player_manager$1567              player_manager
     00002D7A  C$player_manager.c$410$1_0$54      player_manager
     00002D7A  XG$engine_player_manager_cleanup   player_manager
     00002D7B  A$player_manager$1583              player_manager
     00002D7B  C$player_manager.c$412$1_0$57      player_manager
     00002D7B  C$player_manager.c$414$1_0$57      player_manager
     00002D7B  C$player_manager.c$418$1_0$57      player_manager
     00002D7B  G$engine_player_manager_draw$0$0   player_manager
     00002D7B  _engine_player_manager_draw        player_manager
     00002D7E  A$player_manager$1584              player_manager
     00002D80  A$player_manager$1585              player_manager
     00002D81  A$player_manager$1589              player_manager
ASxxxx Linker V03.00 + NoICE + sdld,  page 123.
Hexadecimal  [32-Bits]

Area                                    Addr        Size        Decimal Bytes (Attributes)
--------------------------------        ----        ----        ------- ----- ------------
_CODE                               00000200    0000636D =       25453. bytes (REL,CON)

      Value  Global                              Global Defined In Module
      -----  --------------------------------   ------------------------
     00002D81  C$player_manager.c$420$2_0$58      player_manager
     00002D84  A$player_manager$1593              player_manager
     00002D84  C$player_manager.c$421$2_0$58      player_manager
     00002D87  A$player_manager$1594              player_manager
     00002D88  A$player_manager$1595              player_manager
     00002D8A  A$player_manager$1596              player_manager
     00002D8B  A$player_manager$1597              player_manager
     00002D8C  A$player_manager$1598              player_manager
     00002D8D  A$player_manager$1599              player_manager
     00002D8E  A$player_manager$1600              player_manager
     00002D8F  A$player_manager$1601              player_manager
     00002D90  A$player_manager$1602              player_manager
     00002D91  A$player_manager$1603              player_manager
     00002D92  A$player_manager$1604              player_manager
     00002D93  A$player_manager$1605              player_manager
     00002D94  A$player_manager$1609              player_manager
     00002D94  C$player_manager.c$422$2_0$58      player_manager
     00002D97  A$player_manager$1610              player_manager
     00002D98  A$player_manager$1611              player_manager
     00002D9B  A$player_manager$1612              player_manager
     00002D9C  A$player_manager$1613              player_manager
     00002D9D  A$player_manager$1614              player_manager
     00002D9E  A$player_manager$1615              player_manager
     00002D9F  A$player_manager$1616              player_manager
     00002DA0  A$player_manager$1617              player_manager
     00002DA3  A$player_manager$1618              player_manager
     00002DA4  A$player_manager$1619              player_manager
     00002DA5  A$player_manager$1627              player_manager
     00002DA5  C$player_manager.c$424$1_0$57      player_manager
     00002DA5  XG$engine_player_manager_draw$0$   player_manager
     00002DA6  A$player_manager$1643              player_manager
     00002DA6  C$player_manager.c$427$1_0$59      player_manager
     00002DA6  C$player_manager.c$429$1_0$59      player_manager
     00002DA6  C$player_manager.c$432$1_0$59      player_manager
     00002DA6  G$engine_player_manager_hide$0$0   player_manager
     00002DA6  _engine_player_manager_hide        player_manager
     00002DA9  A$player_manager$1647              player_manager
     00002DA9  C$player_manager.c$435$1_0$59      player_manager
     00002DAC  A$player_manager$1648              player_manager
     00002DAD  A$player_manager$1649              player_manager
     00002DB0  A$player_manager$1650              player_manager
     00002DB3  A$player_manager$1651              player_manager
     00002DB4  A$player_manager$1652              player_manager
     00002DB5  A$player_manager$1653              player_manager
     00002DB6  A$player_manager$1654              player_manager
     00002DB7  A$player_manager$1655              player_manager
     00002DB8  A$player_manager$1656              player_manager
     00002DBB  A$player_manager$1657              player_manager
     00002DBC  A$player_manager$1658              player_manager
     00002DBD  A$player_manager$1666              player_manager
     00002DBD  C$player_manager.c$436$1_0$59      player_manager
ASxxxx Linker V03.00 + NoICE + sdld,  page 124.
Hexadecimal  [32-Bits]

Area                                    Addr        Size        Decimal Bytes (Attributes)
--------------------------------        ----        ----        ------- ----- ------------
_CODE                               00000200    0000636D =       25453. bytes (REL,CON)

      Value  Global                              Global Defined In Module
      -----  --------------------------------   ------------------------
     00002DBD  XG$engine_player_manager_hide$0$   player_manager
     00002DBE  A$player_manager$1682              player_manager
     00002DBE  C$player_manager.c$440$1_0$60      player_manager
     00002DBE  C$player_manager.c$442$1_0$60      player_manager
     00002DBE  C$player_manager.c$443$1_0$60      player_manager
     00002DBE  Fplayer_manager$setup_animation$   player_manager
     00002DC1  A$player_manager$1683              player_manager
     00002DC3  A$player_manager$1687              player_manager
     00002DC3  C$player_manager.c$444$1_0$60      player_manager
     00002DC6  A$player_manager$1688              player_manager
     00002DC8  A$player_manager$1692              player_manager
     00002DC8  C$player_manager.c$446$1_0$60      player_manager
     00002DCB  A$player_manager$1693              player_manager
     00002DCC  A$player_manager$1694              player_manager
     00002DCF  A$player_manager$1695              player_manager
     00002DD0  A$player_manager$1699              player_manager
     00002DD0  C$player_manager.c$447$1_0$60      player_manager
     00002DD3  A$player_manager$1700              player_manager
     00002DD4  A$player_manager$1701              player_manager
     00002DD6  A$player_manager$1702              player_manager
     00002DD7  A$player_manager$1710              player_manager
     00002DD7  C$player_manager.c$448$1_0$60      player_manager
     00002DD7  XFplayer_manager$setup_animation   player_manager
     00002DD8  A$player_manager$1720              player_manager
     00002DD8  C$player_manager.c$450$1_0$62      player_manager
     00002DD8  Fplayer_manager$do_jump$0$0        player_manager
     00002DDA  A$player_manager$1721              player_manager
     00002DDE  A$player_manager$1722              player_manager
     00002DE0  A$player_manager$1723              player_manager
     00002DE1  A$player_manager$1730              player_manager
     00002DE1  C$player_manager.c$452$1_0$62      player_manager
     00002DE4  A$player_manager$1731              player_manager
     00002DE5  A$player_manager$1732              player_manager
     00002DE8  A$player_manager$1733              player_manager
     00002DEA  A$player_manager$1734              player_manager
     00002DEC  A$player_manager$1735              player_manager
     00002DED  A$player_manager$1736              player_manager
     00002DEE  A$player_manager$1737              player_manager
     00002DF0  A$player_manager$1739              player_manager
     00002DF2  A$player_manager$1740              player_manager
     00002DF4  A$player_manager$1741              player_manager
     00002DF5  A$player_manager$1742              player_manager
     00002DF7  A$player_manager$1743              player_manager
     00002DF9  A$player_manager$1748              player_manager
     00002DF9  C$player_manager.c$455$2_0$63      player_manager
     00002DFC  A$player_manager$1749              player_manager
     00002DFE  A$player_manager$1753              player_manager
     00002DFE  C$player_manager.c$456$2_0$63      player_manager
     00002DFF  A$player_manager$1754              player_manager
     00002E02  A$player_manager$1755              player_manager
     00002E05  A$player_manager$1760              player_manager
ASxxxx Linker V03.00 + NoICE + sdld,  page 125.
Hexadecimal  [32-Bits]

Area                                    Addr        Size        Decimal Bytes (Attributes)
--------------------------------        ----        ----        ------- ----- ------------
_CODE                               00000200    0000636D =       25453. bytes (REL,CON)

      Value  Global                              Global Defined In Module
      -----  --------------------------------   ------------------------
     00002E08  A$player_manager$1761              player_manager
     00002E09  A$player_manager$1768              player_manager
     00002E09  C$player_manager.c$463$1_0$62      player_manager
     00002E09  C$player_manager.c$472$1_0$62      player_manager
     00002E0C  A$player_manager$1772              player_manager
     00002E0C  C$player_manager.c$460$1_0$62      player_manager
     00002E0E  A$player_manager$1773              player_manager
     00002E10  A$player_manager$1777              player_manager
     00002E13  A$player_manager$1778              player_manager
     00002E14  A$player_manager$1782              player_manager
     00002E14  C$player_manager.c$453$1_0$62      player_manager
     00002E15  A$player_manager$1783              player_manager
     00002E18  A$player_manager$1787              player_manager
     00002E18  C$player_manager.c$463$2_0$64      player_manager
     00002E1A  A$player_manager$1788              player_manager
     00002E1C  A$player_manager$1789              player_manager
     00002E1F  A$player_manager$1790              player_manager
     00002E21  A$player_manager$1791              player_manager
     00002E23  A$player_manager$1793              player_manager
     00002E26  A$player_manager$1794              player_manager
     00002E27  A$player_manager$1795              player_manager
     00002E29  A$player_manager$1800              player_manager
     00002E29  C$player_manager.c$465$3_0$65      player_manager
     00002E2C  A$player_manager$1801              player_manager
     00002E2D  A$player_manager$1802              player_manager
     00002E2E  A$player_manager$1807              player_manager
     00002E2E  C$player_manager.c$469$2_0$64      player_manager
     00002E2F  A$player_manager$1808              player_manager
     00002E30  A$player_manager$1809              player_manager
     00002E31  A$player_manager$1810              player_manager
     00002E32  A$player_manager$1811              player_manager
     00002E34  A$player_manager$1812              player_manager
     00002E36  A$player_manager$1813              player_manager
     00002E37  A$player_manager$1814              player_manager
     00002E39  A$player_manager$1818              player_manager
     00002E39  C$player_manager.c$472$3_0$66      player_manager
     00002E3A  A$player_manager$1819              player_manager
     00002E3B  A$player_manager$1820              player_manager
     00002E3C  A$player_manager$1821              player_manager
     00002E3D  A$player_manager$1822              player_manager
     00002E3E  A$player_manager$1823              player_manager
     00002E41  A$player_manager$1824              player_manager
     00002E42  A$player_manager$1825              player_manager
     00002E43  A$player_manager$1826              player_manager
     00002E46  A$player_manager$1830              player_manager
     00002E46  C$player_manager.c$473$3_0$66      player_manager
     00002E49  A$player_manager$1831              player_manager
     00002E4A  A$player_manager$1832              player_manager
     00002E4B  A$player_manager$1833              player_manager
     00002E4E  A$player_manager$1837              player_manager
     00002E4E  C$player_manager.c$475$3_0$66      player_manager
ASxxxx Linker V03.00 + NoICE + sdld,  page 126.
Hexadecimal  [32-Bits]

Area                                    Addr        Size        Decimal Bytes (Attributes)
--------------------------------        ----        ----        ------- ----- ------------
_CODE                               00000200    0000636D =       25453. bytes (REL,CON)

      Value  Global                              Global Defined In Module
      -----  --------------------------------   ------------------------
     00002E4F  A$player_manager$1838              player_manager
     00002E50  A$player_manager$1839              player_manager
     00002E51  A$player_manager$1840              player_manager
     00002E52  A$player_manager$1841              player_manager
     00002E53  A$player_manager$1845              player_manager
     00002E53  C$player_manager.c$476$3_0$66      player_manager
     00002E55  A$player_manager$1846              player_manager
     00002E56  A$player_manager$1847              player_manager
     00002E59  A$player_manager$1848              player_manager
     00002E5B  A$player_manager$1850              player_manager
     00002E5E  A$player_manager$1854              player_manager
     00002E5E  C$player_manager.c$478$4_0$67      player_manager
     00002E60  A$player_manager$1855              player_manager
     00002E61  A$player_manager$1856              player_manager
     00002E63  A$player_manager$1861              player_manager
     00002E63  C$player_manager.c$484$3_0$68      player_manager
     00002E64  A$player_manager$1862              player_manager
     00002E65  A$player_manager$1866              player_manager
     00002E65  C$player_manager.c$485$3_0$68      player_manager
     00002E66  A$player_manager$1867              player_manager
     00002E67  A$player_manager$1868              player_manager
     00002E69  A$player_manager$1873              player_manager
     00002E69  C$player_manager.c$491$2_0$69      player_manager
     00002E6A  A$player_manager$1874              player_manager
     00002E6B  A$player_manager$1878              player_manager
     00002E6B  C$player_manager.c$492$2_0$69      player_manager
     00002E6C  A$player_manager$1879              player_manager
     00002E6D  A$player_manager$1884              player_manager
     00002E6D  C$player_manager.c$495$1_0$62      player_manager
     00002E70  A$player_manager$1885              player_manager
     00002E73  A$player_manager$1889              player_manager
     00002E73  C$player_manager.c$496$1_0$62      player_manager
     00002E76  A$player_manager$1890              player_manager
     00002E79  A$player_manager$1894              player_manager
     00002E7A  A$player_manager$1895              player_manager
     00002E7C  A$player_manager$1900              player_manager
     00002E7C  C$player_manager.c$498$1_0$62      player_manager
     00002E7C  XFplayer_manager$do_jump$0$0       player_manager
     00002E7D  A$player_manager$1916              player_manager
     00002E7D  C$player_manager.c$500$1_0$70      player_manager
     00002E7D  C$player_manager.c$502$1_0$70      player_manager
     00002E7D  C$player_manager.c$503$1_0$70      player_manager
     00002E7D  Fplayer_manager$get_coll_positio   player_manager
     00002E81  A$player_manager$1917              player_manager
     00002E84  A$player_manager$1918              player_manager
     00002E85  A$player_manager$1919              player_manager
     00002E86  A$player_manager$1920              player_manager
     00002E87  A$player_manager$1921              player_manager
     00002E88  A$player_manager$1922              player_manager
     00002E89  A$player_manager$1923              player_manager
     00002E8C  A$player_manager$1924              player_manager
ASxxxx Linker V03.00 + NoICE + sdld,  page 127.
Hexadecimal  [32-Bits]

Area                                    Addr        Size        Decimal Bytes (Attributes)
--------------------------------        ----        ----        ------- ----- ------------
_CODE                               00000200    0000636D =       25453. bytes (REL,CON)

      Value  Global                              Global Defined In Module
      -----  --------------------------------   ------------------------
     00002E8D  A$player_manager$1925              player_manager
     00002E8E  A$player_manager$1926              player_manager
     00002E8F  A$player_manager$1930              player_manager
     00002E8F  C$player_manager.c$504$1_0$70      player_manager
     00002E93  A$player_manager$1931              player_manager
     00002E97  A$player_manager$1935              player_manager
     00002E97  C$player_manager.c$505$1_0$70      player_manager
     00002E9B  A$player_manager$1936              player_manager
     00002E9F  A$player_manager$1944              player_manager
     00002E9F  C$player_manager.c$506$1_0$70      player_manager
     00002E9F  XFplayer_manager$get_coll_positi   player_manager
     00002EA0  A$player_manager$1960              player_manager
     00002EA0  C$player_manager.c$507$1_0$71      player_manager
     00002EA0  C$player_manager.c$509$1_0$71      player_manager
     00002EA0  C$player_manager.c$510$1_0$71      player_manager
     00002EA0  Fplayer_manager$get_draw_positio   player_manager
     00002EA4  A$player_manager$1961              player_manager
     00002EA7  A$player_manager$1962              player_manager
     00002EA9  A$player_manager$1963              player_manager
     00002EAA  A$player_manager$1964              player_manager
     00002EAB  A$player_manager$1965              player_manager
     00002EAC  A$player_manager$1966              player_manager
     00002EAD  A$player_manager$1967              player_manager
     00002EB0  A$player_manager$1968              player_manager
     00002EB1  A$player_manager$1969              player_manager
     00002EB2  A$player_manager$1970              player_manager
     00002EB3  A$player_manager$1974              player_manager
     00002EB3  C$player_manager.c$511$1_0$71      player_manager
     00002EB7  A$player_manager$1975              player_manager
     00002EBB  A$player_manager$1979              player_manager
     00002EBB  C$player_manager.c$512$1_0$71      player_manager
     00002EBF  A$player_manager$1980              player_manager
     00002EC3  A$player_manager$1988              player_manager
     00002EC3  C$player_manager.c$513$1_0$71      player_manager
     00002EC3  XFplayer_manager$get_draw_positi   player_manager
     00002EC4  A$player_manager$1998              player_manager
     00002EC4  C$player_manager.c$514$1_0$73      player_manager
     00002EC4  Fplayer_manager$get_common_posit   player_manager
     00002EC6  A$player_manager$1999              player_manager
     00002ECA  A$player_manager$2000              player_manager
     00002ECC  A$player_manager$2007              player_manager
     00002ECC  C$player_manager.c$516$1_0$73      player_manager
     00002ECC  C$player_manager.c$521$1_0$73      player_manager
     00002ECF  A$player_manager$2008              player_manager
     00002ED1  A$player_manager$2009              player_manager
     00002ED2  A$player_manager$2010              player_manager
     00002ED5  A$player_manager$2011              player_manager
     00002ED7  A$player_manager$2012              player_manager
     00002ED8  A$player_manager$2013              player_manager
     00002EDB  A$player_manager$2014              player_manager
     00002EDC  A$player_manager$2015              player_manager
ASxxxx Linker V03.00 + NoICE + sdld,  page 128.
Hexadecimal  [32-Bits]

Area                                    Addr        Size        Decimal Bytes (Attributes)
--------------------------------        ----        ----        ------- ----- ------------
_CODE                               00000200    0000636D =       25453. bytes (REL,CON)

      Value  Global                              Global Defined In Module
      -----  --------------------------------   ------------------------
     00002EDD  A$player_manager$2016              player_manager
     00002EDE  A$player_manager$2017              player_manager
     00002EDF  A$player_manager$2018              player_manager
     00002EE0  A$player_manager$2019              player_manager
     00002EE1  A$player_manager$2020              player_manager
     00002EE5  A$player_manager$2024              player_manager
     00002EE5  C$player_manager.c$522$1_0$73      player_manager
     00002EE8  A$player_manager$2025              player_manager
     00002EEA  A$player_manager$2026              player_manager
     00002EEB  A$player_manager$2027              player_manager
     00002EEE  A$player_manager$2028              player_manager
     00002EF0  A$player_manager$2029              player_manager
     00002EF1  A$player_manager$2030              player_manager
     00002EF5  A$player_manager$2034              player_manager
     00002EF7  A$player_manager$2039              player_manager
     00002EF7  C$player_manager.c$523$1_0$73      player_manager
     00002EF7  XFplayer_manager$get_common_posi   player_manager
     00002EF8  A$player_manager$2049              player_manager
     00002EF8  C$player_manager.c$524$1_0$75      player_manager
     00002EF8  Fplayer_manager$process_collisio   player_manager
     00002EFA  A$player_manager$2050              player_manager
     00002EFE  A$player_manager$2051              player_manager
     00002F00  A$player_manager$2052              player_manager
     00002F01  A$player_manager$2053              player_manager
     00002F02  A$player_manager$2060              player_manager
     00002F02  C$player_manager.c$526$1_0$75      player_manager
     00002F02  C$player_manager.c$535$1_0$75      player_manager
     00002F05  A$player_manager$2061              player_manager
     00002F08  A$player_manager$2062              player_manager
     00002F0B  A$player_manager$2063              player_manager
     00002F0C  A$player_manager$2067              player_manager
     00002F0C  C$player_manager.c$536$1_0$75      player_manager
     00002F0F  A$player_manager$2068              player_manager
     00002F11  A$player_manager$2069              player_manager
     00002F12  A$player_manager$2070              player_manager
     00002F15  A$player_manager$2071              player_manager
     00002F17  A$player_manager$2072              player_manager
     00002F18  A$player_manager$2076              player_manager
     00002F18  C$player_manager.c$537$1_0$75      player_manager
     00002F1B  A$player_manager$2077              player_manager
     00002F1D  A$player_manager$2078              player_manager
     00002F1E  A$player_manager$2079              player_manager
     00002F21  A$player_manager$2080              player_manager
     00002F23  A$player_manager$2081              player_manager
     00002F24  A$player_manager$2085              player_manager
     00002F24  C$player_manager.c$538$1_0$75      player_manager
     00002F27  A$player_manager$2086              player_manager
     00002F29  A$player_manager$2087              player_manager
     00002F2C  A$player_manager$2088              player_manager
     00002F2F  A$player_manager$2089              player_manager
     00002F31  A$player_manager$2090              player_manager
ASxxxx Linker V03.00 + NoICE + sdld,  page 129.
Hexadecimal  [32-Bits]

Area                                    Addr        Size        Decimal Bytes (Attributes)
--------------------------------        ----        ----        ------- ----- ------------
_CODE                               00000200    0000636D =       25453. bytes (REL,CON)

      Value  Global                              Global Defined In Module
      -----  --------------------------------   ------------------------
     00002F34  A$player_manager$2094              player_manager
     00002F34  C$player_manager.c$541$1_0$75      player_manager
     00002F35  A$player_manager$2095              player_manager
     00002F37  A$player_manager$2096              player_manager
     00002F38  A$player_manager$2100              player_manager
     00002F38  C$player_manager.c$542$1_0$75      player_manager
     00002F39  A$player_manager$2101              player_manager
     00002F3C  A$player_manager$2102              player_manager
     00002F3D  A$player_manager$2103              player_manager
     00002F3E  A$player_manager$2104              player_manager
     00002F41  A$player_manager$2105              player_manager
     00002F42  A$player_manager$2109              player_manager
     00002F42  C$player_manager.c$544$1_0$75      player_manager
     00002F45  A$player_manager$2110              player_manager
     00002F48  A$player_manager$2114              player_manager
     00002F48  C$player_manager.c$545$1_0$75      player_manager
     00002F49  A$player_manager$2115              player_manager
     00002F4C  A$player_manager$2119              player_manager
     00002F4C  C$player_manager.c$548$1_0$75      player_manager
     00002F4D  A$player_manager$2120              player_manager
     00002F4E  A$player_manager$2121              player_manager
     00002F4F  A$player_manager$2122              player_manager
     00002F52  A$player_manager$2123              player_manager
     00002F54  A$player_manager$2125              player_manager
     00002F55  A$player_manager$2126              player_manager
     00002F57  A$player_manager$2127              player_manager
     00002F5A  A$player_manager$2128              player_manager
     00002F5B  A$player_manager$2129              player_manager
     00002F5D  A$player_manager$2133              player_manager
     00002F5D  C$player_manager.c$550$2_0$76      player_manager
     00002F60  A$player_manager$2134              player_manager
     00002F61  A$player_manager$2135              player_manager
     00002F62  A$player_manager$2136              player_manager
     00002F63  A$player_manager$2137              player_manager
     00002F64  A$player_manager$2138              player_manager
     00002F65  A$player_manager$2139              player_manager
     00002F68  A$player_manager$2140              player_manager
     00002F6A  A$player_manager$2142              player_manager
     00002F6D  A$player_manager$2146              player_manager
     00002F6D  C$player_manager.c$552$3_0$77      player_manager
     00002F70  A$player_manager$2151              player_manager
     00002F70  C$player_manager.c$555$1_0$75      player_manager
     00002F72  A$player_manager$2152              player_manager
     00002F74  A$player_manager$2156              player_manager
     00002F74  C$player_manager.c$557$2_0$78      player_manager
     00002F77  A$player_manager$2157              player_manager
     00002F78  A$player_manager$2158              player_manager
     00002F79  A$player_manager$2159              player_manager
     00002F7A  A$player_manager$2160              player_manager
     00002F7B  A$player_manager$2161              player_manager
     00002F7C  A$player_manager$2162              player_manager
ASxxxx Linker V03.00 + NoICE + sdld,  page 130.
Hexadecimal  [32-Bits]

Area                                    Addr        Size        Decimal Bytes (Attributes)
--------------------------------        ----        ----        ------- ----- ------------
_CODE                               00000200    0000636D =       25453. bytes (REL,CON)

      Value  Global                              Global Defined In Module
      -----  --------------------------------   ------------------------
     00002F7F  A$player_manager$2163              player_manager
     00002F81  A$player_manager$2165              player_manager
     00002F84  A$player_manager$2169              player_manager
     00002F84  C$player_manager.c$559$3_0$79      player_manager
     00002F87  A$player_manager$2174              player_manager
     00002F87  C$player_manager.c$562$1_0$75      player_manager
     00002F88  A$player_manager$2175              player_manager
     00002F89  A$player_manager$2176              player_manager
     00002F8A  A$player_manager$2177              player_manager
     00002F8D  A$player_manager$2178              player_manager
     00002F8F  A$player_manager$2180              player_manager
     00002F90  A$player_manager$2181              player_manager
     00002F92  A$player_manager$2182              player_manager
     00002F95  A$player_manager$2183              player_manager
     00002F96  A$player_manager$2184              player_manager
     00002F98  A$player_manager$2188              player_manager
     00002F98  C$player_manager.c$564$2_0$80      player_manager
     00002F9B  A$player_manager$2189              player_manager
     00002F9C  A$player_manager$2190              player_manager
     00002F9D  A$player_manager$2191              player_manager
     00002F9E  A$player_manager$2192              player_manager
     00002F9F  A$player_manager$2193              player_manager
     00002FA0  A$player_manager$2194              player_manager
     00002FA3  A$player_manager$2195              player_manager
     00002FA5  A$player_manager$2197              player_manager
     00002FA8  A$player_manager$2201              player_manager
     00002FA8  C$player_manager.c$566$3_0$81      player_manager
     00002FAA  A$player_manager$2206              player_manager
     00002FAA  C$player_manager.c$569$1_0$75      player_manager
     00002FAC  A$player_manager$2207              player_manager
     00002FAE  A$player_manager$2211              player_manager
     00002FAE  C$player_manager.c$571$2_0$82      player_manager
     00002FB1  A$player_manager$2212              player_manager
     00002FB2  A$player_manager$2213              player_manager
     00002FB3  A$player_manager$2214              player_manager
     00002FB4  A$player_manager$2215              player_manager
     00002FB5  A$player_manager$2216              player_manager
     00002FB6  A$player_manager$2217              player_manager
     00002FB9  A$player_manager$2218              player_manager
     00002FBB  A$player_manager$2220              player_manager
     00002FBE  A$player_manager$2224              player_manager
     00002FBE  C$player_manager.c$573$3_0$83      player_manager
     00002FC0  A$player_manager$2229              player_manager
     00002FC0  C$player_manager.c$578$1_0$75      player_manager
     00002FC3  A$player_manager$2230              player_manager
     00002FC4  A$player_manager$2231              player_manager
     00002FC6  A$player_manager$2232              player_manager
     00002FC9  A$player_manager$2233              player_manager
     00002FCA  A$player_manager$2234              player_manager
     00002FCC  A$player_manager$2235              player_manager
     00002FCD  A$player_manager$2236              player_manager
ASxxxx Linker V03.00 + NoICE + sdld,  page 131.
Hexadecimal  [32-Bits]

Area                                    Addr        Size        Decimal Bytes (Attributes)
--------------------------------        ----        ----        ------- ----- ------------
_CODE                               00000200    0000636D =       25453. bytes (REL,CON)

      Value  Global                              Global Defined In Module
      -----  --------------------------------   ------------------------
     00002FCF  A$player_manager$2238              player_manager
     00002FD2  A$player_manager$2239              player_manager
     00002FD3  A$player_manager$2240              player_manager
     00002FD4  A$player_manager$2241              player_manager
     00002FD7  A$player_manager$2242              player_manager
     00002FD9  A$player_manager$2243              player_manager
     00002FDA  A$player_manager$2244              player_manager
     00002FDB  A$player_manager$2245              player_manager
     00002FDE  A$player_manager$2246              player_manager
     00002FE1  A$player_manager$2247              player_manager
     00002FE2  A$player_manager$2248              player_manager
     00002FE3  A$player_manager$2249              player_manager
     00002FE6  A$player_manager$2250              player_manager
     00002FE7  A$player_manager$2251              player_manager
     00002FE8  A$player_manager$2253              player_manager
     00002FEC  A$player_manager$2257              player_manager
     00002FEC  C$player_manager.c$579$1_0$75      player_manager
     00002FEF  A$player_manager$2258              player_manager
     00002FF0  A$player_manager$2259              player_manager
     00002FF2  A$player_manager$2260              player_manager
     00002FF5  A$player_manager$2261              player_manager
     00002FF6  A$player_manager$2262              player_manager
     00002FF8  A$player_manager$2263              player_manager
     00002FF9  A$player_manager$2264              player_manager
     00002FFB  A$player_manager$2266              player_manager
     00002FFE  A$player_manager$2267              player_manager
     00002FFF  A$player_manager$2268              player_manager
     00003000  A$player_manager$2269              player_manager
     00003001  A$player_manager$2270              player_manager
     00003003  A$player_manager$2271              player_manager
     00003004  A$player_manager$2272              player_manager
     00003005  A$player_manager$2273              player_manager
     00003006  A$player_manager$2274              player_manager
     00003007  A$player_manager$2275              player_manager
     00003008  A$player_manager$2276              player_manager
     00003009  A$player_manager$2277              player_manager
     0000300A  A$player_manager$2278              player_manager
     0000300B  A$player_manager$2279              player_manager
     0000300C  A$player_manager$2281              player_manager
     00003010  A$player_manager$2286              player_manager
     00003012  A$player_manager$2287              player_manager
     00003014  A$player_manager$2292              player_manager
     00003014  C$player_manager.c$580$1_0$75      player_manager
     00003014  XFplayer_manager$process_collisi   player_manager
     00003015  A$enemy_manager$73                 enemy_manager
     00003015  C$enemy_manager.c$28$0_0$43        enemy_manager
     00003015  C$enemy_manager.c$32$3_0$44        enemy_manager
     00003015  G$engine_enemyX_manager_init$0$0   enemy_manager
     00003015  _engine_enemyX_manager_init        enemy_manager
     00003017  A$enemy_manager$78                 enemy_manager
     00003017  C$enemy_manager.c$34$3_0$44        enemy_manager
ASxxxx Linker V03.00 + NoICE + sdld,  page 132.
Hexadecimal  [32-Bits]

Area                                    Addr        Size        Decimal Bytes (Attributes)
--------------------------------        ----        ----        ------- ----- ------------
_CODE                               00000200    0000636D =       25453. bytes (REL,CON)

      Value  Global                              Global Defined In Module
      -----  --------------------------------   ------------------------
     00003019  A$enemy_manager$79                 enemy_manager
     0000301A  A$enemy_manager$80                 enemy_manager
     0000301B  A$enemy_manager$81                 enemy_manager
     0000301C  A$enemy_manager$82                 enemy_manager
     0000301D  A$enemy_manager$83                 enemy_manager
     0000301E  A$enemy_manager$84                 enemy_manager
     0000301F  A$enemy_manager$85                 enemy_manager
     00003020  A$enemy_manager$86                 enemy_manager
     00003021  A$enemy_manager$87                 enemy_manager
     00003022  A$enemy_manager$88                 enemy_manager
     00003025  A$enemy_manager$89                 enemy_manager
     00003026  A$enemy_manager$90                 enemy_manager
     00003027  A$enemy_manager$94                 enemy_manager
     00003027  C$enemy_manager.c$35$3_0$44        enemy_manager
     00003029  A$enemy_manager$95                 enemy_manager
     0000302A  A$enemy_manager$99                 enemy_manager
     0000302A  C$enemy_manager.c$36$3_0$44        enemy_manager
     0000302B  A$enemy_manager$100                enemy_manager
     0000302C  A$enemy_manager$101                enemy_manager
     0000302D  A$enemy_manager$102                enemy_manager
     0000302F  A$enemy_manager$106                enemy_manager
     0000302F  C$enemy_manager.c$37$3_0$44        enemy_manager
     00003030  A$enemy_manager$107                enemy_manager
     00003031  A$enemy_manager$108                enemy_manager
     00003032  A$enemy_manager$109                enemy_manager
     00003033  A$enemy_manager$110                enemy_manager
     00003035  A$enemy_manager$114                enemy_manager
     00003035  C$enemy_manager.c$38$3_0$44        enemy_manager
     00003036  A$enemy_manager$115                enemy_manager
     00003037  A$enemy_manager$116                enemy_manager
     00003038  A$enemy_manager$117                enemy_manager
     00003039  A$enemy_manager$118                enemy_manager
     0000303A  A$enemy_manager$119                enemy_manager
     0000303C  A$enemy_manager$123                enemy_manager
     0000303C  C$enemy_manager.c$39$3_0$44        enemy_manager
     0000303F  A$enemy_manager$124                enemy_manager
     00003040  A$enemy_manager$125                enemy_manager
     00003042  A$enemy_manager$126                enemy_manager
     00003045  A$enemy_manager$127                enemy_manager
     00003046  A$enemy_manager$128                enemy_manager
     00003048  A$enemy_manager$132                enemy_manager
     00003048  C$enemy_manager.c$40$3_0$44        enemy_manager
     0000304B  A$enemy_manager$133                enemy_manager
     0000304C  A$enemy_manager$134                enemy_manager
     0000304E  A$enemy_manager$135                enemy_manager
     00003051  A$enemy_manager$136                enemy_manager
     00003052  A$enemy_manager$137                enemy_manager
     00003054  A$enemy_manager$141                enemy_manager
     00003054  C$enemy_manager.c$41$3_0$44        enemy_manager
     00003057  A$enemy_manager$142                enemy_manager
     00003058  A$enemy_manager$143                enemy_manager
ASxxxx Linker V03.00 + NoICE + sdld,  page 133.
Hexadecimal  [32-Bits]

Area                                    Addr        Size        Decimal Bytes (Attributes)
--------------------------------        ----        ----        ------- ----- ------------
_CODE                               00000200    0000636D =       25453. bytes (REL,CON)

      Value  Global                              Global Defined In Module
      -----  --------------------------------   ------------------------
     0000305A  A$enemy_manager$144                enemy_manager
     0000305D  A$enemy_manager$145                enemy_manager
     0000305E  A$enemy_manager$146                enemy_manager
     00003060  A$enemy_manager$150                enemy_manager
     00003060  C$enemy_manager.c$42$3_0$44        enemy_manager
     00003063  A$enemy_manager$151                enemy_manager
     00003064  A$enemy_manager$152                enemy_manager
     00003066  A$enemy_manager$153                enemy_manager
     00003069  A$enemy_manager$154                enemy_manager
     0000306A  A$enemy_manager$155                enemy_manager
     0000306C  A$enemy_manager$156                enemy_manager
     0000306F  A$enemy_manager$157                enemy_manager
     00003070  A$enemy_manager$158                enemy_manager
     00003072  A$enemy_manager$162                enemy_manager
     00003072  C$enemy_manager.c$43$3_0$44        enemy_manager
     00003075  A$enemy_manager$163                enemy_manager
     00003076  A$enemy_manager$164                enemy_manager
     00003078  A$enemy_manager$168                enemy_manager
     00003078  C$enemy_manager.c$44$3_0$44        enemy_manager
     0000307B  A$enemy_manager$169                enemy_manager
     0000307C  A$enemy_manager$170                enemy_manager
     0000307E  A$enemy_manager$174                enemy_manager
     0000307E  C$enemy_manager.c$45$3_0$44        enemy_manager
     00003081  A$enemy_manager$175                enemy_manager
     00003082  A$enemy_manager$176                enemy_manager
     00003084  A$enemy_manager$180                enemy_manager
     00003084  C$enemy_manager.c$32$2_0$43        enemy_manager
     00003085  A$enemy_manager$181                enemy_manager
     00003086  A$enemy_manager$182                enemy_manager
     00003088  A$enemy_manager$183                enemy_manager
     0000308A  A$enemy_manager$191                enemy_manager
     0000308A  C$enemy_manager.c$47$2_0$43        enemy_manager
     0000308A  XG$engine_enemyX_manager_init$0$   enemy_manager
     0000308B  A$enemy_manager$201                enemy_manager
     0000308B  C$enemy_manager.c$49$2_0$45        enemy_manager
     0000308B  G$engine_enemyX_manager_load$0$0   enemy_manager
     0000308B  _engine_enemyX_manager_load        enemy_manager
     0000308D  A$enemy_manager$202                enemy_manager
     00003091  A$enemy_manager$203                enemy_manager
     00003093  A$enemy_manager$204                enemy_manager
     00003094  A$enemy_manager$205                enemy_manager
     00003095  A$enemy_manager$212                enemy_manager
     00003095  C$enemy_manager.c$51$1_0$45        enemy_manager
     00003095  C$enemy_manager.c$61$3_0$47        enemy_manager
     00003099  A$enemy_manager$214                enemy_manager
     0000309C  A$enemy_manager$215                enemy_manager
     0000309F  A$enemy_manager$216                enemy_manager
     000030A0  A$enemy_manager$217                enemy_manager
     000030A3  A$enemy_manager$221                enemy_manager
     000030A3  C$enemy_manager.c$63$3_0$47        enemy_manager
     000030A6  A$enemy_manager$222                enemy_manager
ASxxxx Linker V03.00 + NoICE + sdld,  page 134.
Hexadecimal  [32-Bits]

Area                                    Addr        Size        Decimal Bytes (Attributes)
--------------------------------        ----        ----        ------- ----- ------------
_CODE                               00000200    0000636D =       25453. bytes (REL,CON)

      Value  Global                              Global Defined In Module
      -----  --------------------------------   ------------------------
     000030A8  A$enemy_manager$223                enemy_manager
     000030A9  A$enemy_manager$224                enemy_manager
     000030AA  A$enemy_manager$225                enemy_manager
     000030AB  A$enemy_manager$226                enemy_manager
     000030AC  A$enemy_manager$227                enemy_manager
     000030AD  A$enemy_manager$228                enemy_manager
     000030AE  A$enemy_manager$229                enemy_manager
     000030AF  A$enemy_manager$230                enemy_manager
     000030B0  A$enemy_manager$231                enemy_manager
     000030B3  A$enemy_manager$232                enemy_manager
     000030B4  A$enemy_manager$233                enemy_manager
     000030B5  A$enemy_manager$234                enemy_manager
     000030B6  A$enemy_manager$238                enemy_manager
     000030B6  C$enemy_manager.c$66$3_0$47        enemy_manager
     000030B7  A$enemy_manager$239                enemy_manager
     000030B8  A$enemy_manager$240                enemy_manager
     000030BB  A$enemy_manager$241                enemy_manager
     000030BC  A$enemy_manager$242                enemy_manager
     000030BD  A$enemy_manager$243                enemy_manager
     000030BF  A$enemy_manager$244                enemy_manager
     000030C0  A$enemy_manager$245                enemy_manager
     000030C1  A$enemy_manager$246                enemy_manager
     000030C2  A$enemy_manager$247                enemy_manager
     000030C3  A$enemy_manager$248                enemy_manager
     000030C4  A$enemy_manager$252                enemy_manager
     000030C4  C$enemy_manager.c$67$3_0$47        enemy_manager
     000030C5  A$enemy_manager$253                enemy_manager
     000030C6  A$enemy_manager$254                enemy_manager
     000030C9  A$enemy_manager$255                enemy_manager
     000030CA  A$enemy_manager$256                enemy_manager
     000030CB  A$enemy_manager$257                enemy_manager
     000030CC  A$enemy_manager$258                enemy_manager
     000030CD  A$enemy_manager$259                enemy_manager
     000030CE  A$enemy_manager$260                enemy_manager
     000030CF  A$enemy_manager$261                enemy_manager
     000030D1  A$enemy_manager$262                enemy_manager
     000030D4  A$enemy_manager$266                enemy_manager
     000030D4  C$enemy_manager.c$68$3_0$47        enemy_manager
     000030D7  A$enemy_manager$267                enemy_manager
     000030D8  A$enemy_manager$268                enemy_manager
     000030D9  A$enemy_manager$269                enemy_manager
     000030DC  A$enemy_manager$270                enemy_manager
     000030DE  A$enemy_manager$271                enemy_manager
     000030DF  A$enemy_manager$275                enemy_manager
     000030DF  C$enemy_manager.c$69$3_0$47        enemy_manager
     000030E2  A$enemy_manager$276                enemy_manager
     000030E3  A$enemy_manager$277                enemy_manager
     000030E6  A$enemy_manager$278                enemy_manager
     000030E7  A$enemy_manager$282                enemy_manager
     000030E7  C$enemy_manager.c$70$3_0$47        enemy_manager
     000030EA  A$enemy_manager$283                enemy_manager
ASxxxx Linker V03.00 + NoICE + sdld,  page 135.
Hexadecimal  [32-Bits]

Area                                    Addr        Size        Decimal Bytes (Attributes)
--------------------------------        ----        ----        ------- ----- ------------
_CODE                               00000200    0000636D =       25453. bytes (REL,CON)

      Value  Global                              Global Defined In Module
      -----  --------------------------------   ------------------------
     000030EB  A$enemy_manager$284                enemy_manager
     000030EC  A$enemy_manager$285                enemy_manager
     000030ED  A$enemy_manager$289                enemy_manager
     000030ED  C$enemy_manager.c$73$3_0$47        enemy_manager
     000030EE  A$enemy_manager$290                enemy_manager
     000030EF  A$enemy_manager$291                enemy_manager
     000030F2  A$enemy_manager$292                enemy_manager
     000030F3  A$enemy_manager$293                enemy_manager
     000030F4  A$enemy_manager$294                enemy_manager
     000030F6  A$enemy_manager$295                enemy_manager
     000030F7  A$enemy_manager$296                enemy_manager
     000030F8  A$enemy_manager$297                enemy_manager
     000030F9  A$enemy_manager$298                enemy_manager
     000030FA  A$enemy_manager$299                enemy_manager
     000030FB  A$enemy_manager$300                enemy_manager
     000030FC  A$enemy_manager$304                enemy_manager
     000030FC  C$enemy_manager.c$74$3_0$47        enemy_manager
     000030FF  A$enemy_manager$305                enemy_manager
     00003100  A$enemy_manager$306                enemy_manager
     00003101  A$enemy_manager$307                enemy_manager
     00003103  A$enemy_manager$308                enemy_manager
     00003104  A$enemy_manager$312                enemy_manager
     00003104  C$enemy_manager.c$76$3_0$47        enemy_manager
     00003105  A$enemy_manager$313                enemy_manager
     00003106  A$enemy_manager$314                enemy_manager
     00003109  A$enemy_manager$315                enemy_manager
     0000310A  A$enemy_manager$316                enemy_manager
     0000310B  A$enemy_manager$317                enemy_manager
     0000310D  A$enemy_manager$318                enemy_manager
     0000310E  A$enemy_manager$319                enemy_manager
     0000310F  A$enemy_manager$320                enemy_manager
     00003110  A$enemy_manager$321                enemy_manager
     00003111  A$enemy_manager$322                enemy_manager
     00003112  A$enemy_manager$323                enemy_manager
     00003113  A$enemy_manager$327                enemy_manager
     00003113  C$enemy_manager.c$77$3_0$47        enemy_manager
     00003116  A$enemy_manager$328                enemy_manager
     00003117  A$enemy_manager$329                enemy_manager
     00003118  A$enemy_manager$330                enemy_manager
     0000311A  A$enemy_manager$331                enemy_manager
     0000311B  A$enemy_manager$335                enemy_manager
     0000311B  C$enemy_manager.c$80$3_0$47        enemy_manager
     0000311C  A$enemy_manager$336                enemy_manager
     0000311F  A$enemy_manager$337                enemy_manager
     00003122  A$enemy_manager$338                enemy_manager
     00003123  A$enemy_manager$339                enemy_manager
     00003124  A$enemy_manager$340                enemy_manager
     00003127  A$enemy_manager$341                enemy_manager
     00003128  A$enemy_manager$342                enemy_manager
     00003129  A$enemy_manager$343                enemy_manager
     0000312A  A$enemy_manager$344                enemy_manager
ASxxxx Linker V03.00 + NoICE + sdld,  page 136.
Hexadecimal  [32-Bits]

Area                                    Addr        Size        Decimal Bytes (Attributes)
--------------------------------        ----        ----        ------- ----- ------------
_CODE                               00000200    0000636D =       25453. bytes (REL,CON)

      Value  Global                              Global Defined In Module
      -----  --------------------------------   ------------------------
     0000312B  A$enemy_manager$348                enemy_manager
     0000312B  C$enemy_manager.c$81$3_0$47        enemy_manager
     0000312C  A$enemy_manager$349                enemy_manager
     0000312D  A$enemy_manager$350                enemy_manager
     0000312E  A$enemy_manager$351                enemy_manager
     0000312F  A$enemy_manager$352                enemy_manager
     00003130  A$enemy_manager$353                enemy_manager
     00003131  A$enemy_manager$357                enemy_manager
     00003131  C$enemy_manager.c$83$3_0$47        enemy_manager
     00003132  A$enemy_manager$358                enemy_manager
     00003133  A$enemy_manager$359                enemy_manager
     00003134  A$enemy_manager$360                enemy_manager
     00003136  A$enemy_manager$364                enemy_manager
     00003136  C$enemy_manager.c$85$4_0$48        enemy_manager
     00003139  A$enemy_manager$365                enemy_manager
     0000313A  A$enemy_manager$366                enemy_manager
     0000313B  A$enemy_manager$367                enemy_manager
     0000313E  A$enemy_manager$368                enemy_manager
     0000313F  A$enemy_manager$369                enemy_manager
     00003141  A$enemy_manager$374                enemy_manager
     00003141  C$enemy_manager.c$87$3_0$47        enemy_manager
     00003142  A$enemy_manager$375                enemy_manager
     00003144  A$enemy_manager$379                enemy_manager
     00003144  C$enemy_manager.c$89$4_0$49        enemy_manager
     00003147  A$enemy_manager$380                enemy_manager
     00003148  A$enemy_manager$381                enemy_manager
     00003149  A$enemy_manager$382                enemy_manager
     0000314C  A$enemy_manager$383                enemy_manager
     0000314D  A$enemy_manager$388                enemy_manager
     0000314D  C$enemy_manager.c$61$2_0$46        enemy_manager
     00003150  A$enemy_manager$389                enemy_manager
     00003153  A$enemy_manager$394                enemy_manager
     00003155  A$enemy_manager$395                enemy_manager
     00003157  A$enemy_manager$400                enemy_manager
     00003157  C$enemy_manager.c$92$2_0$45        enemy_manager
     00003157  XG$engine_enemyX_manager_load$0$   enemy_manager
     00003158  A$enemy_manager$410                enemy_manager
     00003158  C$enemy_manager.c$94$2_0$50        enemy_manager
     00003158  G$engine_enemyX_manager_update$0   enemy_manager
     00003158  _engine_enemyX_manager_update      enemy_manager
     0000315A  A$enemy_manager$411                enemy_manager
     0000315E  A$enemy_manager$412                enemy_manager
     00003160  A$enemy_manager$413                enemy_manager
     00003163  A$enemy_manager$414                enemy_manager
     00003164  A$enemy_manager$415                enemy_manager
     00003165  A$enemy_manager$419                enemy_manager
     00003165  C$enemy_manager.c$96$1_0$50        enemy_manager
     00003168  A$enemy_manager$423                enemy_manager
     00003168  C$enemy_manager.c$101$1_0$50       enemy_manager
     00003169  A$enemy_manager$424                enemy_manager
     0000316A  A$enemy_manager$431                enemy_manager
ASxxxx Linker V03.00 + NoICE + sdld,  page 137.
Hexadecimal  [32-Bits]

Area                                    Addr        Size        Decimal Bytes (Attributes)
--------------------------------        ----        ----        ------- ----- ------------
_CODE                               00000200    0000636D =       25453. bytes (REL,CON)

      Value  Global                              Global Defined In Module
      -----  --------------------------------   ------------------------
     0000316A  C$enemy_manager.c$103$2_0$51       enemy_manager
     0000316A  C$enemy_manager.c$106$2_0$50       enemy_manager
     0000316D  A$enemy_manager$432                enemy_manager
     00003171  A$enemy_manager$434                enemy_manager
     00003172  A$enemy_manager$435                enemy_manager
     00003173  A$enemy_manager$436                enemy_manager
     00003176  A$enemy_manager$437                enemy_manager
     00003177  A$enemy_manager$438                enemy_manager
     0000317A  A$enemy_manager$442                enemy_manager
     0000317A  C$enemy_manager.c$108$3_0$53       enemy_manager
     0000317D  A$enemy_manager$443                enemy_manager
     0000317F  A$enemy_manager$444                enemy_manager
     00003180  A$enemy_manager$445                enemy_manager
     00003181  A$enemy_manager$446                enemy_manager
     00003182  A$enemy_manager$447                enemy_manager
     00003183  A$enemy_manager$448                enemy_manager
     00003184  A$enemy_manager$449                enemy_manager
     00003185  A$enemy_manager$450                enemy_manager
     00003186  A$enemy_manager$451                enemy_manager
     00003187  A$enemy_manager$452                enemy_manager
     0000318A  A$enemy_manager$453                enemy_manager
     0000318B  A$enemy_manager$457                enemy_manager
     0000318B  C$enemy_manager.c$111$3_0$53       enemy_manager
     0000318C  A$enemy_manager$458                enemy_manager
     0000318D  A$enemy_manager$459                enemy_manager
     0000318E  A$enemy_manager$460                enemy_manager
     0000318F  A$enemy_manager$461                enemy_manager
     00003190  A$enemy_manager$462                enemy_manager
     00003193  A$enemy_manager$466                enemy_manager
     00003193  C$enemy_manager.c$116$3_0$53       enemy_manager
     00003196  A$enemy_manager$467                enemy_manager
     00003197  A$enemy_manager$468                enemy_manager
     0000319A  A$enemy_manager$469                enemy_manager
     0000319D  A$enemy_manager$470                enemy_manager
     0000319E  A$enemy_manager$471                enemy_manager
     0000319F  A$enemy_manager$472                enemy_manager
     000031A1  A$enemy_manager$476                enemy_manager
     000031A1  C$enemy_manager.c$118$4_0$55       enemy_manager
     000031A4  A$enemy_manager$477                enemy_manager
     000031A5  A$enemy_manager$478                enemy_manager
     000031A8  A$enemy_manager$479                enemy_manager
     000031AB  A$enemy_manager$480                enemy_manager
     000031AC  A$enemy_manager$481                enemy_manager
     000031AD  A$enemy_manager$482                enemy_manager
     000031B0  A$enemy_manager$483                enemy_manager
     000031B3  A$enemy_manager$484                enemy_manager
     000031B6  A$enemy_manager$485                enemy_manager
     000031B9  A$enemy_manager$486                enemy_manager
     000031BA  A$enemy_manager$490                enemy_manager
     000031BA  C$enemy_manager.c$119$4_0$55       enemy_manager
     000031BB  A$enemy_manager$491                enemy_manager
ASxxxx Linker V03.00 + NoICE + sdld,  page 138.
Hexadecimal  [32-Bits]

Area                                    Addr        Size        Decimal Bytes (Attributes)
--------------------------------        ----        ----        ------- ----- ------------
_CODE                               00000200    0000636D =       25453. bytes (REL,CON)

      Value  Global                              Global Defined In Module
      -----  --------------------------------   ------------------------
     000031BC  A$enemy_manager$492                enemy_manager
     000031BD  A$enemy_manager$493                enemy_manager
     000031C0  A$enemy_manager$494                enemy_manager
     000031C1  A$enemy_manager$495                enemy_manager
     000031C2  A$enemy_manager$496                enemy_manager
     000031C3  A$enemy_manager$497                enemy_manager
     000031C6  A$enemy_manager$498                enemy_manager
     000031C7  A$enemy_manager$499                enemy_manager
     000031CA  A$enemy_manager$503                enemy_manager
     000031CA  C$enemy_manager.c$121$5_0$56       enemy_manager
     000031CD  A$enemy_manager$504                enemy_manager
     000031D0  A$enemy_manager$505                enemy_manager
     000031D2  A$enemy_manager$509                enemy_manager
     000031D2  C$enemy_manager.c$122$5_0$56       enemy_manager
     000031D5  A$enemy_manager$510                enemy_manager
     000031D6  A$enemy_manager$511                enemy_manager
     000031D7  A$enemy_manager$512                enemy_manager
     000031D8  A$enemy_manager$513                enemy_manager
     000031D9  A$enemy_manager$514                enemy_manager
     000031DA  A$enemy_manager$515                enemy_manager
     000031DB  A$enemy_manager$516                enemy_manager
     000031DC  A$enemy_manager$517                enemy_manager
     000031DF  A$enemy_manager$522                enemy_manager
     000031E2  A$enemy_manager$523                enemy_manager
     000031E3  A$enemy_manager$524                enemy_manager
     000031E6  A$enemy_manager$525                enemy_manager
     000031E9  A$enemy_manager$526                enemy_manager
     000031EA  A$enemy_manager$530                enemy_manager
     000031EA  C$enemy_manager.c$133$2_0$50       enemy_manager
     000031EB  A$enemy_manager$531                enemy_manager
     000031ED  A$enemy_manager$532                enemy_manager
     000031F0  A$enemy_manager$533                enemy_manager
     000031F1  A$enemy_manager$534                enemy_manager
     000031F3  A$enemy_manager$535                enemy_manager
     000031F6  A$enemy_manager$539                enemy_manager
     000031F6  C$enemy_manager.c$127$4_0$57       enemy_manager
     000031F7  A$enemy_manager$540                enemy_manager
     000031F8  A$enemy_manager$541                enemy_manager
     000031FA  A$enemy_manager$545                enemy_manager
     000031FA  C$enemy_manager.c$129$5_0$58       enemy_manager
     000031FD  A$enemy_manager$546                enemy_manager
     000031FE  A$enemy_manager$547                enemy_manager
     000031FF  A$enemy_manager$548                enemy_manager
     00003200  A$enemy_manager$549                enemy_manager
     00003201  A$enemy_manager$550                enemy_manager
     00003202  A$enemy_manager$551                enemy_manager
     00003203  A$enemy_manager$552                enemy_manager
     00003204  A$enemy_manager$553                enemy_manager
     00003205  A$enemy_manager$554                enemy_manager
     00003206  A$enemy_manager$558                enemy_manager
     00003206  C$enemy_manager.c$130$5_0$58       enemy_manager
ASxxxx Linker V03.00 + NoICE + sdld,  page 139.
Hexadecimal  [32-Bits]

Area                                    Addr        Size        Decimal Bytes (Attributes)
--------------------------------        ----        ----        ------- ----- ------------
_CODE                               00000200    0000636D =       25453. bytes (REL,CON)

      Value  Global                              Global Defined In Module
      -----  --------------------------------   ------------------------
     00003209  A$enemy_manager$559                enemy_manager
     0000320C  A$enemy_manager$560                enemy_manager
     0000320D  A$enemy_manager$561                enemy_manager
     0000320E  A$enemy_manager$562                enemy_manager
     00003210  A$enemy_manager$566                enemy_manager
     00003210  C$enemy_manager.c$132$6_0$59       enemy_manager
     00003211  A$enemy_manager$567                enemy_manager
     00003212  A$enemy_manager$568                enemy_manager
     00003214  A$enemy_manager$572                enemy_manager
     00003214  C$enemy_manager.c$133$6_0$59       enemy_manager
     00003217  A$enemy_manager$573                enemy_manager
     0000321A  A$enemy_manager$574                enemy_manager
     0000321B  A$enemy_manager$575                enemy_manager
     0000321D  A$enemy_manager$576                enemy_manager
     0000321E  A$enemy_manager$577                enemy_manager
     00003221  A$enemy_manager$578                enemy_manager
     00003224  A$enemy_manager$579                enemy_manager
     00003225  A$enemy_manager$584                enemy_manager
     00003225  C$enemy_manager.c$137$4_0$57       enemy_manager
     00003228  A$enemy_manager$585                enemy_manager
     0000322B  A$enemy_manager$586                enemy_manager
     0000322C  A$enemy_manager$587                enemy_manager
     0000322D  A$enemy_manager$588                enemy_manager
     00003230  A$enemy_manager$592                enemy_manager
     00003230  C$enemy_manager.c$140$5_0$60       enemy_manager
     00003233  A$enemy_manager$593                enemy_manager
     00003236  A$enemy_manager$594                enemy_manager
     00003237  A$enemy_manager$595                enemy_manager
     00003238  A$enemy_manager$596                enemy_manager
     0000323A  A$enemy_manager$600                enemy_manager
     0000323A  C$enemy_manager.c$142$6_0$61       enemy_manager
     0000323B  A$enemy_manager$601                enemy_manager
     0000323C  A$enemy_manager$602                enemy_manager
     0000323D  A$enemy_manager$603                enemy_manager
     00003240  A$enemy_manager$604                enemy_manager
     00003241  A$enemy_manager$605                enemy_manager
     00003242  A$enemy_manager$606                enemy_manager
     00003243  A$enemy_manager$607                enemy_manager
     00003246  A$enemy_manager$608                enemy_manager
     00003247  A$enemy_manager$609                enemy_manager
     00003248  A$enemy_manager$610                enemy_manager
     00003249  A$enemy_manager$611                enemy_manager
     0000324C  A$enemy_manager$612                enemy_manager
     0000324D  A$enemy_manager$613                enemy_manager
     0000324E  A$enemy_manager$614                enemy_manager
     0000324F  A$enemy_manager$615                enemy_manager
     00003252  A$enemy_manager$616                enemy_manager
     00003254  A$enemy_manager$620                enemy_manager
     00003254  C$enemy_manager.c$144$7_0$62       enemy_manager
     00003257  A$enemy_manager$621                enemy_manager
     0000325A  A$enemy_manager$622                enemy_manager
ASxxxx Linker V03.00 + NoICE + sdld,  page 140.
Hexadecimal  [32-Bits]

Area                                    Addr        Size        Decimal Bytes (Attributes)
--------------------------------        ----        ----        ------- ----- ------------
_CODE                               00000200    0000636D =       25453. bytes (REL,CON)

      Value  Global                              Global Defined In Module
      -----  --------------------------------   ------------------------
     0000325C  A$enemy_manager$626                enemy_manager
     0000325C  C$enemy_manager.c$145$7_0$62       enemy_manager
     0000325D  A$enemy_manager$627                enemy_manager
     0000325E  A$enemy_manager$628                enemy_manager
     0000325F  A$enemy_manager$629                enemy_manager
     00003260  A$enemy_manager$630                enemy_manager
     00003261  A$enemy_manager$631                enemy_manager
     00003263  A$enemy_manager$632                enemy_manager
     00003265  A$enemy_manager$637                enemy_manager
     00003265  C$enemy_manager.c$148$5_0$60       enemy_manager
     00003267  A$enemy_manager$638                enemy_manager
     00003269  A$enemy_manager$642                enemy_manager
     00003269  C$enemy_manager.c$150$6_0$63       enemy_manager
     0000326A  A$enemy_manager$643                enemy_manager
     0000326B  A$enemy_manager$644                enemy_manager
     0000326C  A$enemy_manager$645                enemy_manager
     0000326F  A$enemy_manager$646                enemy_manager
     00003270  A$enemy_manager$647                enemy_manager
     00003271  A$enemy_manager$648                enemy_manager
     00003272  A$enemy_manager$649                enemy_manager
     00003275  A$enemy_manager$650                enemy_manager
     00003276  A$enemy_manager$651                enemy_manager
     00003277  A$enemy_manager$652                enemy_manager
     00003278  A$enemy_manager$653                enemy_manager
     0000327B  A$enemy_manager$654                enemy_manager
     0000327C  A$enemy_manager$655                enemy_manager
     0000327D  A$enemy_manager$656                enemy_manager
     00003280  A$enemy_manager$657                enemy_manager
     00003281  A$enemy_manager$658                enemy_manager
     00003283  A$enemy_manager$662                enemy_manager
     00003283  C$enemy_manager.c$152$7_0$64       enemy_manager
     00003286  A$enemy_manager$663                enemy_manager
     00003289  A$enemy_manager$664                enemy_manager
     0000328B  A$enemy_manager$668                enemy_manager
     0000328B  C$enemy_manager.c$153$7_0$64       enemy_manager
     0000328C  A$enemy_manager$669                enemy_manager
     0000328D  A$enemy_manager$670                enemy_manager
     0000328E  A$enemy_manager$671                enemy_manager
     0000328F  A$enemy_manager$672                enemy_manager
     00003290  A$enemy_manager$673                enemy_manager
     00003292  A$enemy_manager$678                enemy_manager
     00003292  C$enemy_manager.c$116$2_0$50       enemy_manager
     00003295  A$enemy_manager$679                enemy_manager
     00003298  A$enemy_manager$680                enemy_manager
     00003299  A$enemy_manager$684                enemy_manager
     00003299  C$enemy_manager.c$158$5_0$60       enemy_manager
     0000329B  A$enemy_manager$685                enemy_manager
     0000329D  A$enemy_manager$689                enemy_manager
     0000329D  C$enemy_manager.c$160$6_0$65       enemy_manager
     0000329F  A$enemy_manager$690                enemy_manager
     000032A2  A$enemy_manager$691                enemy_manager
ASxxxx Linker V03.00 + NoICE + sdld,  page 141.
Hexadecimal  [32-Bits]

Area                                    Addr        Size        Decimal Bytes (Attributes)
--------------------------------        ----        ----        ------- ----- ------------
_CODE                               00000200    0000636D =       25453. bytes (REL,CON)

      Value  Global                              Global Defined In Module
      -----  --------------------------------   ------------------------
     000032A3  A$enemy_manager$692                enemy_manager
     000032A4  A$enemy_manager$693                enemy_manager
     000032A5  A$enemy_manager$694                enemy_manager
     000032A8  A$enemy_manager$695                enemy_manager
     000032A9  A$enemy_manager$696                enemy_manager
     000032AA  A$enemy_manager$697                enemy_manager
     000032AB  A$enemy_manager$698                enemy_manager
     000032AC  A$enemy_manager$699                enemy_manager
     000032AD  A$enemy_manager$700                enemy_manager
     000032B0  A$enemy_manager$701                enemy_manager
     000032B2  A$enemy_manager$702                enemy_manager
     000032B3  A$enemy_manager$703                enemy_manager
     000032B5  A$enemy_manager$705                enemy_manager
     000032B6  A$enemy_manager$706                enemy_manager
     000032B8  A$enemy_manager$707                enemy_manager
     000032B9  A$enemy_manager$709                enemy_manager
     000032BB  A$enemy_manager$710                enemy_manager
     000032BC  A$enemy_manager$711                enemy_manager
     000032BD  A$enemy_manager$715                enemy_manager
     000032BD  C$enemy_manager.c$161$6_0$65       enemy_manager
     000032BE  A$enemy_manager$716                enemy_manager
     000032C0  A$enemy_manager$717                enemy_manager
     000032C1  A$enemy_manager$718                enemy_manager
     000032C3  A$enemy_manager$719                enemy_manager
     000032C4  A$enemy_manager$721                enemy_manager
     000032C5  A$enemy_manager$722                enemy_manager
     000032C6  A$enemy_manager$723                enemy_manager
     000032C7  A$enemy_manager$724                enemy_manager
     000032C9  A$enemy_manager$729                enemy_manager
     000032C9  C$enemy_manager.c$165$6_0$66       enemy_manager
     000032CC  A$enemy_manager$730                enemy_manager
     000032CD  A$enemy_manager$731                enemy_manager
     000032CF  A$enemy_manager$735                enemy_manager
     000032CF  C$enemy_manager.c$168$6_0$66       enemy_manager
     000032D2  A$enemy_manager$736                enemy_manager
     000032D5  A$enemy_manager$737                enemy_manager
     000032D6  A$enemy_manager$738                enemy_manager
     000032D7  A$enemy_manager$739                enemy_manager
     000032D9  A$enemy_manager$743                enemy_manager
     000032D9  C$enemy_manager.c$170$7_0$67       enemy_manager
     000032DC  A$enemy_manager$744                enemy_manager
     000032DF  A$enemy_manager$745                enemy_manager
     000032E1  A$enemy_manager$750                enemy_manager
     000032E1  C$enemy_manager.c$106$2_0$52       enemy_manager
     000032E4  A$enemy_manager$751                enemy_manager
     000032E7  A$enemy_manager$756                enemy_manager
     000032E9  A$enemy_manager$757                enemy_manager
     000032EB  A$enemy_manager$762                enemy_manager
     000032EB  C$enemy_manager.c$177$2_0$50       enemy_manager
     000032EB  XG$engine_enemyX_manager_update$   enemy_manager
     000032EC  A$enemy_manager$772                enemy_manager
ASxxxx Linker V03.00 + NoICE + sdld,  page 142.
Hexadecimal  [32-Bits]

Area                                    Addr        Size        Decimal Bytes (Attributes)
--------------------------------        ----        ----        ------- ----- ------------
_CODE                               00000200    0000636D =       25453. bytes (REL,CON)

      Value  Global                              Global Defined In Module
      -----  --------------------------------   ------------------------
     000032EC  C$enemy_manager.c$179$2_0$69       enemy_manager
     000032EC  G$engine_enemyX_manager_draw_ene   enemy_manager
     000032EC  _engine_enemyX_manager_draw_enem   enemy_manager
     000032EE  A$enemy_manager$773                enemy_manager
     000032F2  A$enemy_manager$774                enemy_manager
     000032F4  A$enemy_manager$775                enemy_manager
     000032F5  A$enemy_manager$782                enemy_manager
     000032F5  C$enemy_manager.c$181$1_0$68       enemy_manager
     000032F5  C$enemy_manager.c$186$3_0$70       enemy_manager
     000032F7  A$enemy_manager$784                enemy_manager
     000032FA  A$enemy_manager$785                enemy_manager
     000032FB  A$enemy_manager$786                enemy_manager
     000032FC  A$enemy_manager$787                enemy_manager
     000032FD  A$enemy_manager$788                enemy_manager
     000032FF  A$enemy_manager$792                enemy_manager
     000032FF  C$enemy_manager.c$188$3_0$70       enemy_manager
     00003301  A$enemy_manager$793                enemy_manager
     00003302  A$enemy_manager$794                enemy_manager
     00003303  A$enemy_manager$795                enemy_manager
     00003304  A$enemy_manager$796                enemy_manager
     00003305  A$enemy_manager$797                enemy_manager
     00003306  A$enemy_manager$798                enemy_manager
     00003307  A$enemy_manager$799                enemy_manager
     00003308  A$enemy_manager$800                enemy_manager
     00003309  A$enemy_manager$801                enemy_manager
     0000330C  A$enemy_manager$802                enemy_manager
     0000330D  A$enemy_manager$803                enemy_manager
     0000330E  A$enemy_manager$807                enemy_manager
     0000330E  C$enemy_manager.c$189$3_0$70       enemy_manager
     0000330F  A$enemy_manager$808                enemy_manager
     00003310  A$enemy_manager$809                enemy_manager
     00003311  A$enemy_manager$810                enemy_manager
     00003312  A$enemy_manager$811                enemy_manager
     00003313  A$enemy_manager$812                enemy_manager
     00003314  A$enemy_manager$813                enemy_manager
     00003316  A$enemy_manager$817                enemy_manager
     00003316  C$enemy_manager.c$194$3_0$70       enemy_manager
     00003317  A$enemy_manager$818                enemy_manager
     00003318  A$enemy_manager$819                enemy_manager
     00003319  A$enemy_manager$820                enemy_manager
     0000331A  A$enemy_manager$821                enemy_manager
     0000331D  A$enemy_manager$822                enemy_manager
     0000331E  A$enemy_manager$823                enemy_manager
     0000331F  A$enemy_manager$827                enemy_manager
     0000331F  C$enemy_manager.c$195$3_0$70       enemy_manager
     00003320  A$enemy_manager$828                enemy_manager
     00003321  A$enemy_manager$829                enemy_manager
     00003322  A$enemy_manager$830                enemy_manager
     00003324  A$enemy_manager$831                enemy_manager
     00003325  A$enemy_manager$832                enemy_manager
     00003328  A$enemy_manager$833                enemy_manager
ASxxxx Linker V03.00 + NoICE + sdld,  page 143.
Hexadecimal  [32-Bits]

Area                                    Addr        Size        Decimal Bytes (Attributes)
--------------------------------        ----        ----        ------- ----- ------------
_CODE                               00000200    0000636D =       25453. bytes (REL,CON)

      Value  Global                              Global Defined In Module
      -----  --------------------------------   ------------------------
     00003329  A$enemy_manager$834                enemy_manager
     0000332A  A$enemy_manager$835                enemy_manager
     0000332B  A$enemy_manager$836                enemy_manager
     0000332C  A$enemy_manager$840                enemy_manager
     0000332C  C$enemy_manager.c$196$3_0$70       enemy_manager
     0000332D  A$enemy_manager$841                enemy_manager
     0000332E  A$enemy_manager$842                enemy_manager
     0000332F  A$enemy_manager$843                enemy_manager
     00003332  A$enemy_manager$844                enemy_manager
     00003333  A$enemy_manager$845                enemy_manager
     00003334  A$enemy_manager$846                enemy_manager
     00003335  A$enemy_manager$847                enemy_manager
     00003336  A$enemy_manager$848                enemy_manager
     00003337  A$enemy_manager$849                enemy_manager
     00003338  A$enemy_manager$850                enemy_manager
     0000333B  A$enemy_manager$851                enemy_manager
     0000333C  A$enemy_manager$852                enemy_manager
     0000333D  A$enemy_manager$853                enemy_manager
     0000333E  A$enemy_manager$854                enemy_manager
     0000333F  A$enemy_manager$855                enemy_manager
     00003340  A$enemy_manager$856                enemy_manager
     00003341  A$enemy_manager$857                enemy_manager
     00003342  A$enemy_manager$858                enemy_manager
     00003343  A$enemy_manager$859                enemy_manager
     00003344  A$enemy_manager$860                enemy_manager
     00003347  A$enemy_manager$861                enemy_manager
     00003348  A$enemy_manager$862                enemy_manager
     00003349  A$enemy_manager$863                enemy_manager
     0000334A  A$enemy_manager$868                enemy_manager
     0000334A  C$enemy_manager.c$186$2_0$69       enemy_manager
     0000334B  A$enemy_manager$869                enemy_manager
     0000334D  A$enemy_manager$874                enemy_manager
     0000334F  A$enemy_manager$875                enemy_manager
     00003351  A$enemy_manager$880                enemy_manager
     00003351  C$enemy_manager.c$198$2_0$69       enemy_manager
     00003351  XG$engine_enemyX_manager_draw_en   enemy_manager
     00003352  A$enemy_manager$890                enemy_manager
     00003352  C$enemy_manager.c$200$2_0$73       enemy_manager
     00003352  G$engine_enemyX_manager_draw_gua   enemy_manager
     00003352  _engine_enemyX_manager_draw_guar   enemy_manager
     00003354  A$enemy_manager$891                enemy_manager
     00003358  A$enemy_manager$892                enemy_manager
     0000335A  A$enemy_manager$893                enemy_manager
     0000335B  A$enemy_manager$900                enemy_manager
     0000335B  C$enemy_manager.c$202$1_0$72       enemy_manager
     0000335B  C$enemy_manager.c$206$3_0$74       enemy_manager
     0000335D  A$enemy_manager$902                enemy_manager
     00003360  A$enemy_manager$903                enemy_manager
     00003361  A$enemy_manager$904                enemy_manager
     00003362  A$enemy_manager$905                enemy_manager
     00003363  A$enemy_manager$906                enemy_manager
ASxxxx Linker V03.00 + NoICE + sdld,  page 144.
Hexadecimal  [32-Bits]

Area                                    Addr        Size        Decimal Bytes (Attributes)
--------------------------------        ----        ----        ------- ----- ------------
_CODE                               00000200    0000636D =       25453. bytes (REL,CON)

      Value  Global                              Global Defined In Module
      -----  --------------------------------   ------------------------
     00003365  A$enemy_manager$910                enemy_manager
     00003365  C$enemy_manager.c$208$3_0$74       enemy_manager
     00003367  A$enemy_manager$911                enemy_manager
     00003368  A$enemy_manager$912                enemy_manager
     00003369  A$enemy_manager$913                enemy_manager
     0000336A  A$enemy_manager$914                enemy_manager
     0000336B  A$enemy_manager$915                enemy_manager
     0000336C  A$enemy_manager$916                enemy_manager
     0000336D  A$enemy_manager$917                enemy_manager
     0000336E  A$enemy_manager$918                enemy_manager
     0000336F  A$enemy_manager$919                enemy_manager
     00003372  A$enemy_manager$920                enemy_manager
     00003373  A$enemy_manager$921                enemy_manager
     00003374  A$enemy_manager$925                enemy_manager
     00003374  C$enemy_manager.c$209$3_0$74       enemy_manager
     00003375  A$enemy_manager$926                enemy_manager
     00003376  A$enemy_manager$927                enemy_manager
     00003377  A$enemy_manager$928                enemy_manager
     00003378  A$enemy_manager$929                enemy_manager
     00003379  A$enemy_manager$930                enemy_manager
     0000337B  A$enemy_manager$934                enemy_manager
     0000337B  C$enemy_manager.c$214$3_0$74       enemy_manager
     0000337C  A$enemy_manager$935                enemy_manager
     0000337D  A$enemy_manager$936                enemy_manager
     0000337E  A$enemy_manager$937                enemy_manager
     0000337F  A$enemy_manager$938                enemy_manager
     00003380  A$enemy_manager$939                enemy_manager
     00003383  A$enemy_manager$940                enemy_manager
     00003384  A$enemy_manager$941                enemy_manager
     00003385  A$enemy_manager$942                enemy_manager
     00003386  A$enemy_manager$943                enemy_manager
     00003387  A$enemy_manager$944                enemy_manager
     00003388  A$enemy_manager$945                enemy_manager
     0000338B  A$enemy_manager$946                enemy_manager
     0000338C  A$enemy_manager$947                enemy_manager
     0000338D  A$enemy_manager$948                enemy_manager
     0000338E  A$enemy_manager$949                enemy_manager
     0000338F  A$enemy_manager$950                enemy_manager
     00003390  A$enemy_manager$951                enemy_manager
     00003391  A$enemy_manager$952                enemy_manager
     00003392  A$enemy_manager$953                enemy_manager
     00003393  A$enemy_manager$954                enemy_manager
     00003394  A$enemy_manager$955                enemy_manager
     00003395  A$enemy_manager$956                enemy_manager
     00003396  A$enemy_manager$957                enemy_manager
     00003399  A$enemy_manager$958                enemy_manager
     0000339A  A$enemy_manager$959                enemy_manager
     0000339B  A$enemy_manager$960                enemy_manager
     0000339C  A$enemy_manager$965                enemy_manager
     0000339C  C$enemy_manager.c$206$2_0$73       enemy_manager
     0000339D  A$enemy_manager$966                enemy_manager
ASxxxx Linker V03.00 + NoICE + sdld,  page 145.
Hexadecimal  [32-Bits]

Area                                    Addr        Size        Decimal Bytes (Attributes)
--------------------------------        ----        ----        ------- ----- ------------
_CODE                               00000200    0000636D =       25453. bytes (REL,CON)

      Value  Global                              Global Defined In Module
      -----  --------------------------------   ------------------------
     0000339F  A$enemy_manager$971                enemy_manager
     000033A1  A$enemy_manager$972                enemy_manager
     000033A3  A$enemy_manager$977                enemy_manager
     000033A3  C$enemy_manager.c$216$2_0$73       enemy_manager
     000033A3  XG$engine_enemyX_manager_draw_gu   enemy_manager
     000033A4  A$enemy_manager$987                enemy_manager
     000033A4  C$enemy_manager.c$218$2_0$77       enemy_manager
     000033A4  Fenemy_manager$get_enemy_draw_po   enemy_manager
     000033A6  A$enemy_manager$988                enemy_manager
     000033AA  A$enemy_manager$989                enemy_manager
     000033AC  A$enemy_manager$993                enemy_manager
     000033AC  C$enemy_manager.c$220$1_0$77       enemy_manager
     000033AF  A$enemy_manager$994                enemy_manager
     000033B2  A$enemy_manager$995                enemy_manager
     000033B4  A$enemy_manager$996                enemy_manager
     000033B5  A$enemy_manager$997                enemy_manager
     000033B6  A$enemy_manager$998                enemy_manager
     000033B7  A$enemy_manager$999                enemy_manager
     000033B8  A$enemy_manager$1000               enemy_manager
     000033B9  A$enemy_manager$1001               enemy_manager
     000033BA  A$enemy_manager$1002               enemy_manager
     000033BB  A$enemy_manager$1003               enemy_manager
     000033BC  A$enemy_manager$1004               enemy_manager
     000033BD  A$enemy_manager$1005               enemy_manager
     000033BE  A$enemy_manager$1006               enemy_manager
     000033BF  A$enemy_manager$1010               enemy_manager
     000033BF  C$enemy_manager.c$225$1_0$77       enemy_manager
     000033C2  A$enemy_manager$1011               enemy_manager
     000033C3  A$enemy_manager$1012               enemy_manager
     000033C4  A$enemy_manager$1013               enemy_manager
     000033C5  A$enemy_manager$1014               enemy_manager
     000033C6  A$enemy_manager$1015               enemy_manager
     000033C7  A$enemy_manager$1016               enemy_manager
     000033CA  A$enemy_manager$1017               enemy_manager
     000033CB  A$enemy_manager$1018               enemy_manager
     000033CC  A$enemy_manager$1019               enemy_manager
     000033CD  A$enemy_manager$1020               enemy_manager
     000033CF  A$enemy_manager$1021               enemy_manager
     000033D0  A$enemy_manager$1025               enemy_manager
     000033D0  C$enemy_manager.c$226$1_0$77       enemy_manager
     000033D3  A$enemy_manager$1026               enemy_manager
     000033D4  A$enemy_manager$1027               enemy_manager
     000033D5  A$enemy_manager$1028               enemy_manager
     000033D8  A$enemy_manager$1029               enemy_manager
     000033D9  A$enemy_manager$1030               enemy_manager
     000033DA  A$enemy_manager$1031               enemy_manager
     000033DC  A$enemy_manager$1032               enemy_manager
     000033DD  A$enemy_manager$1036               enemy_manager
     000033DF  A$enemy_manager$1041               enemy_manager
     000033DF  C$enemy_manager.c$227$1_0$77       enemy_manager
     000033DF  XFenemy_manager$get_enemy_draw_p   enemy_manager
ASxxxx Linker V03.00 + NoICE + sdld,  page 146.
Hexadecimal  [32-Bits]

Area                                    Addr        Size        Decimal Bytes (Attributes)
--------------------------------        ----        ----        ------- ----- ------------
_CODE                               00000200    0000636D =       25453. bytes (REL,CON)

      Value  Global                              Global Defined In Module
      -----  --------------------------------   ------------------------
     000033E0  A$enemy_manager$1051               enemy_manager
     000033E0  C$enemy_manager.c$229$1_0$79       enemy_manager
     000033E0  Fenemy_manager$get_guard_draw_po   enemy_manager
     000033E2  A$enemy_manager$1052               enemy_manager
     000033E6  A$enemy_manager$1053               enemy_manager
     000033E8  A$enemy_manager$1057               enemy_manager
     000033E8  C$enemy_manager.c$231$1_0$79       enemy_manager
     000033EB  A$enemy_manager$1058               enemy_manager
     000033EE  A$enemy_manager$1059               enemy_manager
     000033F0  A$enemy_manager$1060               enemy_manager
     000033F1  A$enemy_manager$1061               enemy_manager
     000033F2  A$enemy_manager$1062               enemy_manager
     000033F3  A$enemy_manager$1063               enemy_manager
     000033F4  A$enemy_manager$1064               enemy_manager
     000033F5  A$enemy_manager$1065               enemy_manager
     000033F6  A$enemy_manager$1066               enemy_manager
     000033F7  A$enemy_manager$1067               enemy_manager
     000033F8  A$enemy_manager$1068               enemy_manager
     000033F9  A$enemy_manager$1069               enemy_manager
     000033FA  A$enemy_manager$1070               enemy_manager
     000033FB  A$enemy_manager$1074               enemy_manager
     000033FB  C$enemy_manager.c$234$1_0$79       enemy_manager
     000033FE  A$enemy_manager$1075               enemy_manager
     000033FF  A$enemy_manager$1076               enemy_manager
     00003400  A$enemy_manager$1077               enemy_manager
     00003401  A$enemy_manager$1078               enemy_manager
     00003402  A$enemy_manager$1079               enemy_manager
     00003403  A$enemy_manager$1080               enemy_manager
     00003404  A$enemy_manager$1081               enemy_manager
     00003405  A$enemy_manager$1082               enemy_manager
     00003406  A$enemy_manager$1083               enemy_manager
     00003407  A$enemy_manager$1084               enemy_manager
     00003408  A$enemy_manager$1085               enemy_manager
     00003409  A$enemy_manager$1089               enemy_manager
     00003409  C$enemy_manager.c$235$1_0$79       enemy_manager
     0000340C  A$enemy_manager$1090               enemy_manager
     0000340D  A$enemy_manager$1091               enemy_manager
     0000340E  A$enemy_manager$1092               enemy_manager
     00003411  A$enemy_manager$1093               enemy_manager
     00003412  A$enemy_manager$1094               enemy_manager
     00003413  A$enemy_manager$1095               enemy_manager
     00003414  A$enemy_manager$1096               enemy_manager
     00003415  A$enemy_manager$1097               enemy_manager
     00003416  A$enemy_manager$1101               enemy_manager
     00003418  A$enemy_manager$1106               enemy_manager
     00003418  C$enemy_manager.c$236$1_0$79       enemy_manager
     00003418  XFenemy_manager$get_guard_draw_p   enemy_manager
     00003419  A$score_manager$73                 score_manager
     00003419  C$score_manager.c$10$0_0$16        score_manager
     00003419  C$score_manager.c$12$1_0$16        score_manager
     00003419  C$score_manager.c$13$1_0$16        score_manager
ASxxxx Linker V03.00 + NoICE + sdld,  page 147.
Hexadecimal  [32-Bits]

Area                                    Addr        Size        Decimal Bytes (Attributes)
--------------------------------        ----        ----        ------- ----- ------------
_CODE                               00000200    0000636D =       25453. bytes (REL,CON)

      Value  Global                              Global Defined In Module
      -----  --------------------------------   ------------------------
     00003419  G$engine_score_manager_init$0$0    score_manager
     00003419  _engine_score_manager_init         score_manager
     0000341C  A$score_manager$74                 score_manager
     0000341D  A$score_manager$75                 score_manager
     0000341E  A$score_manager$76                 score_manager
     00003420  A$score_manager$77                 score_manager
     00003421  A$score_manager$78                 score_manager
     00003424  A$score_manager$82                 score_manager
     00003424  C$score_manager.c$14$1_0$16        score_manager
     00003427  A$score_manager$83                 score_manager
     00003429  A$score_manager$87                 score_manager
     00003429  C$score_manager.c$15$1_0$16        score_manager
     0000342C  A$score_manager$88                 score_manager
     0000342F  A$score_manager$92                 score_manager
     0000342F  C$score_manager.c$17$1_0$16        score_manager
     00003432  A$score_manager$103                score_manager
     00003432  C$score_manager.c$18$1_0$16        score_manager
     00003432  C$score_manager.c$19$1_0$16        score_manager
     00003432  XG$engine_score_manager_init$0$0   score_manager
     00003435  A$score_manager$119                score_manager
     00003435  C$score_manager.c$21$1_0$17        score_manager
     00003435  C$score_manager.c$23$1_0$17        score_manager
     00003435  C$score_manager.c$24$1_0$17        score_manager
     00003435  G$engine_score_manager_reset_gem   score_manager
     00003435  _engine_score_manager_reset_gems   score_manager
     00003438  A$score_manager$120                score_manager
     0000343A  A$score_manager$128                score_manager
     0000343A  C$score_manager.c$25$1_0$17        score_manager
     0000343A  XG$engine_score_manager_reset_ge   score_manager
     0000343B  A$score_manager$144                score_manager
     0000343B  C$score_manager.c$27$1_0$18        score_manager
     0000343B  C$score_manager.c$29$1_0$18        score_manager
     0000343B  C$score_manager.c$30$1_0$18        score_manager
     0000343B  G$engine_score_manager_reset_liv   score_manager
     0000343B  _engine_score_manager_reset_live   score_manager
     0000343E  A$score_manager$145                score_manager
     00003441  A$score_manager$146                score_manager
     00003442  A$score_manager$154                score_manager
     00003442  C$score_manager.c$31$1_0$18        score_manager
     00003442  XG$engine_score_manager_reset_li   score_manager
     00003443  A$score_manager$170                score_manager
     00003443  C$score_manager.c$33$1_0$19        score_manager
     00003443  C$score_manager.c$35$1_0$19        score_manager
     00003443  C$score_manager.c$36$1_0$19        score_manager
     00003443  G$engine_score_manager_update_ge   score_manager
     00003443  _engine_score_manager_update_gem   score_manager
     00003446  A$score_manager$171                score_manager
     00003447  A$score_manager$172                score_manager
     00003448  A$score_manager$173                score_manager
     00003449  A$score_manager$177                score_manager
     00003449  C$score_manager.c$37$1_0$19        score_manager
ASxxxx Linker V03.00 + NoICE + sdld,  page 148.
Hexadecimal  [32-Bits]

Area                                    Addr        Size        Decimal Bytes (Attributes)
--------------------------------        ----        ----        ------- ----- ------------
_CODE                               00000200    0000636D =       25453. bytes (REL,CON)

      Value  Global                              Global Defined In Module
      -----  --------------------------------   ------------------------
     0000344C  A$score_manager$178                score_manager
     0000344D  A$score_manager$179                score_manager
     0000344E  A$score_manager$180                score_manager
     0000344F  A$score_manager$184                score_manager
     0000344F  C$score_manager.c$38$1_0$19        score_manager
     00003453  A$score_manager$185                score_manager
     00003454  A$score_manager$186                score_manager
     00003458  A$score_manager$190                score_manager
     00003458  C$score_manager.c$40$1_0$19        score_manager
     0000345A  A$score_manager$191                score_manager
     0000345B  A$score_manager$192                score_manager
     0000345D  A$score_manager$193                score_manager
     0000345E  A$score_manager$194                score_manager
     0000345F  A$score_manager$198                score_manager
     0000345F  C$score_manager.c$42$2_0$20        score_manager
     00003462  A$score_manager$199                score_manager
     00003465  A$score_manager$207                score_manager
     00003465  C$score_manager.c$44$1_0$19        score_manager
     00003465  XG$engine_score_manager_update_g   score_manager
     00003466  A$score_manager$223                score_manager
     00003466  C$score_manager.c$46$1_0$21        score_manager
     00003466  C$score_manager.c$48$1_0$21        score_manager
     00003466  C$score_manager.c$49$1_0$21        score_manager
     00003466  G$engine_score_manager_bonus_gem   score_manager
     00003466  _engine_score_manager_bonus_gems   score_manager
     00003469  A$score_manager$224                score_manager
     0000346A  A$score_manager$225                score_manager
     0000346C  A$score_manager$226                score_manager
     0000346D  A$score_manager$230                score_manager
     0000346D  C$score_manager.c$50$1_0$21        score_manager
     00003471  A$score_manager$231                score_manager
     00003472  A$score_manager$232                score_manager
     00003473  A$score_manager$233                score_manager
     00003474  A$score_manager$234                score_manager
     00003475  A$score_manager$235                score_manager
     00003476  A$score_manager$236                score_manager
     0000347A  A$score_manager$240                score_manager
     0000347A  C$score_manager.c$52$1_0$21        score_manager
     0000347C  A$score_manager$241                score_manager
     0000347D  A$score_manager$242                score_manager
     0000347F  A$score_manager$243                score_manager
     00003480  A$score_manager$244                score_manager
     00003481  A$score_manager$248                score_manager
     00003481  C$score_manager.c$54$2_0$22        score_manager
     00003484  A$score_manager$249                score_manager
     00003487  A$score_manager$257                score_manager
     00003487  C$score_manager.c$56$1_0$21        score_manager
     00003487  XG$engine_score_manager_bonus_ge   score_manager
     00003488  A$score_manager$273                score_manager
     00003488  C$score_manager.c$58$1_0$24        score_manager
     00003488  C$score_manager.c$60$1_0$24        score_manager
ASxxxx Linker V03.00 + NoICE + sdld,  page 149.
Hexadecimal  [32-Bits]

Area                                    Addr        Size        Decimal Bytes (Attributes)
--------------------------------        ----        ----        ------- ----- ------------
_CODE                               00000200    0000636D =       25453. bytes (REL,CON)

      Value  Global                              Global Defined In Module
      -----  --------------------------------   ------------------------
     00003488  C$score_manager.c$61$1_0$24        score_manager
     00003488  G$engine_score_manager_update_li   score_manager
     00003488  _engine_score_manager_update_liv   score_manager
     0000348B  A$score_manager$274                score_manager
     0000348C  A$score_manager$275                score_manager
     0000348D  A$score_manager$276                score_manager
     0000348E  A$score_manager$277                score_manager
     0000348F  A$score_manager$278                score_manager
     00003491  A$score_manager$279                score_manager
     00003492  A$score_manager$280                score_manager
     00003493  A$score_manager$284                score_manager
     00003493  C$score_manager.c$63$2_0$25        score_manager
     00003494  A$score_manager$285                score_manager
     00003497  A$score_manager$286                score_manager
     00003498  A$score_manager$287                score_manager
     00003499  A$score_manager$288                score_manager
     0000349A  A$score_manager$299                score_manager
     0000349A  C$score_manager.c$64$2_0$25        score_manager
     0000349A  C$score_manager.c$66$1_0$24        score_manager
     0000349A  XG$engine_score_manager_update_l   score_manager
     0000349D  A$score_manager$315                score_manager
     0000349D  C$score_manager.c$68$1_0$26        score_manager
     0000349D  C$score_manager.c$70$1_0$26        score_manager
     0000349D  C$score_manager.c$71$1_0$26        score_manager
     0000349D  G$engine_score_manager_draw_live   score_manager
     0000349D  _engine_score_manager_draw_lives   score_manager
     000034A0  A$score_manager$316                score_manager
     000034A1  A$score_manager$320                score_manager
     000034A1  C$score_manager.c$73$1_0$26        score_manager
     000034A2  A$score_manager$321                score_manager
     000034A5  A$score_manager$322                score_manager
     000034A6  A$score_manager$323                score_manager
     000034A8  A$score_manager$324                score_manager
     000034A9  A$score_manager$325                score_manager
     000034AA  A$score_manager$326                score_manager
     000034AD  A$score_manager$327                score_manager
     000034AE  A$score_manager$328                score_manager
     000034AF  A$score_manager$329                score_manager
     000034B0  A$score_manager$333                score_manager
     000034B0  C$score_manager.c$74$1_0$26        score_manager
     000034B3  A$score_manager$334                score_manager
     000034B5  A$score_manager$335                score_manager
     000034B6  A$score_manager$336                score_manager
     000034B7  A$score_manager$337                score_manager
     000034B8  A$score_manager$338                score_manager
     000034B9  A$score_manager$339                score_manager
     000034BA  A$score_manager$340                score_manager
     000034BB  A$score_manager$341                score_manager
     000034BE  A$score_manager$342                score_manager
     000034BF  A$score_manager$343                score_manager
     000034C0  A$score_manager$344                score_manager
ASxxxx Linker V03.00 + NoICE + sdld,  page 150.
Hexadecimal  [32-Bits]

Area                                    Addr        Size        Decimal Bytes (Attributes)
--------------------------------        ----        ----        ------- ----- ------------
_CODE                               00000200    0000636D =       25453. bytes (REL,CON)

      Value  Global                              Global Defined In Module
      -----  --------------------------------   ------------------------
     000034C3  A$score_manager$345                score_manager
     000034C4  A$score_manager$346                score_manager
     000034C5  A$score_manager$354                score_manager
     000034C5  C$score_manager.c$75$1_0$26        score_manager
     000034C5  XG$engine_score_manager_draw_liv   score_manager
     000034C6  A$score_manager$367                score_manager
     000034C6  C$score_manager.c$77$1_0$27        score_manager
     000034C6  C$score_manager.c$79$1_0$27        score_manager
     000034C6  G$engine_score_manager_draw_scor   score_manager
     000034C6  _engine_score_manager_draw_score   score_manager
     000034C9  A$score_manager$368                score_manager
     000034CA  A$score_manager$369                score_manager
     000034CD  A$score_manager$370                score_manager
     000034CE  A$score_manager$378                score_manager
     000034CE  C$score_manager.c$80$1_0$27        score_manager
     000034CE  XG$engine_score_manager_draw_sco   score_manager
     000034CF  A$score_manager$394                score_manager
     000034CF  C$score_manager.c$81$1_0$29        score_manager
     000034CF  C$score_manager.c$83$1_0$29        score_manager
     000034CF  C$score_manager.c$84$1_0$29        score_manager
     000034CF  G$engine_score_manager_draw_scor   score_manager
     000034CF  _engine_score_manager_draw_score   score_manager
     000034D2  A$score_manager$395                score_manager
     000034D6  A$score_manager$396                score_manager
     000034D8  A$score_manager$397                score_manager
     000034DB  A$score_manager$398                score_manager
     000034DE  A$score_manager$399                score_manager
     000034DF  A$score_manager$400                score_manager
     000034E0  A$score_manager$401                score_manager
     000034E3  A$score_manager$402                score_manager
     000034E4  A$score_manager$403                score_manager
     000034E5  A$score_manager$411                score_manager
     000034E5  C$score_manager.c$85$1_0$29        score_manager
     000034E5  XG$engine_score_manager_draw_sco   score_manager
     000034E6  A$state_manager$69                 state_manager
     000034E6  C$state_manager.c$11$0_0$34        state_manager
     000034E6  C$state_manager.c$13$1_0$34        state_manager
     000034E6  C$state_manager.c$14$1_0$34        state_manager
     000034E6  C$state_manager.c$17$1_0$34        state_manager
     000034E6  G$engine_state_manager_init$0$0    state_manager
     000034E6  _engine_state_manager_init         state_manager
     000034E9  A$state_manager$73                 state_manager
     000034E9  C$state_manager.c$18$1_0$34        state_manager
     000034EC  A$state_manager$77                 state_manager
     000034EC  C$state_manager.c$21$1_0$34        state_manager
     000034EF  A$state_manager$81                 state_manager
     000034EF  C$state_manager.c$22$1_0$34        state_manager
     000034F2  A$state_manager$85                 state_manager
     000034F2  C$state_manager.c$23$1_0$34        state_manager
     000034F5  A$state_manager$89                 state_manager
     000034F5  C$state_manager.c$24$1_0$34        state_manager
ASxxxx Linker V03.00 + NoICE + sdld,  page 151.
Hexadecimal  [32-Bits]

Area                                    Addr        Size        Decimal Bytes (Attributes)
--------------------------------        ----        ----        ------- ----- ------------
_CODE                               00000200    0000636D =       25453. bytes (REL,CON)

      Value  Global                              Global Defined In Module
      -----  --------------------------------   ------------------------
     000034F8  A$state_manager$93                 state_manager
     000034F8  C$state_manager.c$28$1_0$34        state_manager
     000034FB  A$state_manager$94                 state_manager
     000034FE  A$state_manager$95                 state_manager
     000034FF  A$state_manager$99                 state_manager
     000034FF  C$state_manager.c$29$1_0$34        state_manager
     00003502  A$state_manager$100                state_manager
     00003505  A$state_manager$101                state_manager
     00003506  A$state_manager$105                state_manager
     00003506  C$state_manager.c$30$1_0$34        state_manager
     00003509  A$state_manager$106                state_manager
     0000350C  A$state_manager$107                state_manager
     0000350D  A$state_manager$111                state_manager
     0000350D  C$state_manager.c$31$1_0$34        state_manager
     00003510  A$state_manager$112                state_manager
     00003513  A$state_manager$113                state_manager
     00003514  A$state_manager$117                state_manager
     00003514  C$state_manager.c$32$1_0$34        state_manager
     00003517  A$state_manager$118                state_manager
     0000351A  A$state_manager$119                state_manager
     0000351B  A$state_manager$127                state_manager
     0000351B  C$state_manager.c$33$1_0$34        state_manager
     0000351B  XG$engine_state_manager_init$0$0   state_manager
     0000351C  A$state_manager$137                state_manager
     0000351C  C$state_manager.c$35$1_0$35        state_manager
     0000351C  G$engine_state_manager_load$0$0    state_manager
     0000351C  _engine_state_manager_load         state_manager
     0000351E  A$state_manager$138                state_manager
     00003522  A$state_manager$139                state_manager
     00003524  A$state_manager$140                state_manager
     00003527  A$state_manager$141                state_manager
     00003528  A$state_manager$142                state_manager
     00003529  A$state_manager$164                state_manager
     00003529  C$state_manager.c$37$1_0$35        state_manager
     00003529  C$state_manager.c$38$1_0$35        state_manager
     00003529  C$state_manager.c$39$1_0$35        state_manager
     00003529  C$state_manager.c$40$1_0$35        state_manager
     00003529  C$state_manager.c$41$1_0$35        state_manager
     00003529  C$state_manager.c$43$1_0$35        state_manager
     00003529  C$state_manager.c$50$1_0$35        state_manager
     0000352C  A$state_manager$165                state_manager
     0000352D  A$state_manager$166                state_manager
     00003530  A$state_manager$167                state_manager
     00003531  A$state_manager$168                state_manager
     00003532  A$state_manager$169                state_manager
     00003535  A$state_manager$170                state_manager
     00003538  A$state_manager$174                state_manager
     00003538  C$state_manager.c$52$2_0$36        state_manager
     0000353B  A$state_manager$178                state_manager
     0000353B  C$state_manager.c$56$1_0$35        state_manager
     0000353E  A$state_manager$179                state_manager
ASxxxx Linker V03.00 + NoICE + sdld,  page 152.
Hexadecimal  [32-Bits]

Area                                    Addr        Size        Decimal Bytes (Attributes)
--------------------------------        ----        ----        ------- ----- ------------
_CODE                               00000200    0000636D =       25453. bytes (REL,CON)

      Value  Global                              Global Defined In Module
      -----  --------------------------------   ------------------------
     00003541  A$state_manager$180                state_manager
     00003544  A$state_manager$181                state_manager
     00003545  A$state_manager$182                state_manager
     00003546  A$state_manager$183                state_manager
     00003549  A$state_manager$184                state_manager
     0000354A  A$state_manager$185                state_manager
     0000354B  A$state_manager$186                state_manager
     0000354C  A$state_manager$187                state_manager
     00003550  A$state_manager$191                state_manager
     00003550  C$state_manager.c$57$1_0$35        state_manager
     00003554  A$state_manager$192                state_manager
     00003557  A$state_manager$193                state_manager
     00003558  A$state_manager$194                state_manager
     00003559  A$state_manager$195                state_manager
     0000355C  A$state_manager$196                state_manager
     0000355D  A$state_manager$197                state_manager
     0000355E  A$state_manager$198                state_manager
     0000355F  A$state_manager$199                state_manager
     00003563  A$state_manager$203                state_manager
     00003563  C$state_manager.c$58$1_0$35        state_manager
     00003566  A$state_manager$204                state_manager
     00003568  A$state_manager$208                state_manager
     00003568  C$state_manager.c$61$1_0$35        state_manager
     0000356B  A$state_manager$209                state_manager
     0000356E  A$state_manager$213                state_manager
     0000356E  C$state_manager.c$62$4_0$40        state_manager
     00003572  A$state_manager$215                state_manager
     00003575  A$state_manager$216                state_manager
     00003578  A$state_manager$217                state_manager
     00003579  A$state_manager$218                state_manager
     0000357C  A$state_manager$222                state_manager
     0000357C  C$state_manager.c$64$3_0$38        state_manager
     0000357F  A$state_manager$223                state_manager
     00003581  A$state_manager$224                state_manager
     00003582  A$state_manager$225                state_manager
     00003583  A$state_manager$226                state_manager
     00003584  A$state_manager$227                state_manager
     00003585  A$state_manager$228                state_manager
     00003586  A$state_manager$229                state_manager
     00003587  A$state_manager$230                state_manager
     00003588  A$state_manager$231                state_manager
     00003589  A$state_manager$232                state_manager
     0000358C  A$state_manager$233                state_manager
     0000358D  A$state_manager$234                state_manager
     0000358E  A$state_manager$238                state_manager
     0000358E  C$state_manager.c$66$3_0$38        state_manager
     00003590  A$state_manager$239                state_manager
     00003593  A$state_manager$240                state_manager
     00003594  A$state_manager$241                state_manager
     00003596  A$state_manager$242                state_manager
     00003598  A$state_manager$243                state_manager
ASxxxx Linker V03.00 + NoICE + sdld,  page 153.
Hexadecimal  [32-Bits]

Area                                    Addr        Size        Decimal Bytes (Attributes)
--------------------------------        ----        ----        ------- ----- ------------
_CODE                               00000200    0000636D =       25453. bytes (REL,CON)

      Value  Global                              Global Defined In Module
      -----  --------------------------------   ------------------------
     00003599  A$state_manager$244                state_manager
     0000359A  A$state_manager$245                state_manager
     0000359B  A$state_manager$246                state_manager
     0000359C  A$state_manager$247                state_manager
     0000359D  A$state_manager$251                state_manager
     0000359D  C$state_manager.c$67$3_0$38        state_manager
     0000359E  A$state_manager$252                state_manager
     0000359F  A$state_manager$253                state_manager
     000035A0  A$state_manager$254                state_manager
     000035A2  A$state_manager$255                state_manager
     000035A5  A$state_manager$256                state_manager
     000035A6  A$state_manager$257                state_manager
     000035A8  A$state_manager$258                state_manager
     000035AA  A$state_manager$259                state_manager
     000035AB  A$state_manager$260                state_manager
     000035AC  A$state_manager$261                state_manager
     000035AD  A$state_manager$262                state_manager
     000035AE  A$state_manager$266                state_manager
     000035AE  C$state_manager.c$68$3_0$38        state_manager
     000035AF  A$state_manager$267                state_manager
     000035B0  A$state_manager$268                state_manager
     000035B3  A$state_manager$269                state_manager
     000035B4  A$state_manager$270                state_manager
     000035B7  A$state_manager$271                state_manager
     000035B8  A$state_manager$272                state_manager
     000035B9  A$state_manager$273                state_manager
     000035BB  A$state_manager$274                state_manager
     000035BC  A$state_manager$275                state_manager
     000035BE  A$state_manager$276                state_manager
     000035C0  A$state_manager$277                state_manager
     000035C1  A$state_manager$278                state_manager
     000035C2  A$state_manager$279                state_manager
     000035C3  A$state_manager$283                state_manager
     000035C3  C$state_manager.c$69$3_0$38        state_manager
     000035C4  A$state_manager$284                state_manager
     000035C5  A$state_manager$285                state_manager
     000035C8  A$state_manager$286                state_manager
     000035C9  A$state_manager$287                state_manager
     000035CB  A$state_manager$288                state_manager
     000035CC  A$state_manager$289                state_manager
     000035CD  A$state_manager$290                state_manager
     000035CF  A$state_manager$291                state_manager
     000035D1  A$state_manager$292                state_manager
     000035D2  A$state_manager$293                state_manager
     000035D3  A$state_manager$294                state_manager
     000035D4  A$state_manager$298                state_manager
     000035D4  C$state_manager.c$72$3_0$38        state_manager
     000035D5  A$state_manager$299                state_manager
     000035D8  A$state_manager$303                state_manager
     000035D8  C$state_manager.c$77$3_0$38        state_manager
     000035D9  A$state_manager$304                state_manager
ASxxxx Linker V03.00 + NoICE + sdld,  page 154.
Hexadecimal  [32-Bits]

Area                                    Addr        Size        Decimal Bytes (Attributes)
--------------------------------        ----        ----        ------- ----- ------------
_CODE                               00000200    0000636D =       25453. bytes (REL,CON)

      Value  Global                              Global Defined In Module
      -----  --------------------------------   ------------------------
     000035DA  A$state_manager$305                state_manager
     000035DD  A$state_manager$306                state_manager
     000035DE  A$state_manager$307                state_manager
     000035E0  A$state_manager$308                state_manager
     000035E3  A$state_manager$309                state_manager
     000035E4  A$state_manager$310                state_manager
     000035E6  A$state_manager$311                state_manager
     000035E8  A$state_manager$312                state_manager
     000035E9  A$state_manager$313                state_manager
     000035EA  A$state_manager$314                state_manager
     000035EB  A$state_manager$318                state_manager
     000035EB  C$state_manager.c$78$3_0$38        state_manager
     000035EC  A$state_manager$319                state_manager
     000035ED  A$state_manager$320                state_manager
     000035F0  A$state_manager$321                state_manager
     000035F1  A$state_manager$322                state_manager
     000035F3  A$state_manager$323                state_manager
     000035F6  A$state_manager$324                state_manager
     000035F7  A$state_manager$325                state_manager
     000035F9  A$state_manager$326                state_manager
     000035FB  A$state_manager$327                state_manager
     000035FC  A$state_manager$328                state_manager
     000035FD  A$state_manager$329                state_manager
     000035FE  A$state_manager$333                state_manager
     00003601  A$state_manager$334                state_manager
     00003602  A$state_manager$338                state_manager
     00003605  A$state_manager$339                state_manager
     00003607  A$state_manager$340                state_manager
     0000360A  A$state_manager$341                state_manager
     0000360D  A$state_manager$342                state_manager
     0000360F  A$state_manager$343                state_manager
     00003612  A$state_manager$347                state_manager
     00003612  C$state_manager.c$81$3_0$38        state_manager
     00003613  A$state_manager$348                state_manager
     00003614  A$state_manager$349                state_manager
     00003616  A$state_manager$353                state_manager
     00003616  C$state_manager.c$83$4_0$40        state_manager
     00003617  A$state_manager$354                state_manager
     00003618  A$state_manager$355                state_manager
     00003619  A$state_manager$356                state_manager
     0000361C  A$state_manager$357                state_manager
     0000361D  A$state_manager$358                state_manager
     0000361E  A$state_manager$359                state_manager
     0000361F  A$state_manager$360                state_manager
     00003621  A$state_manager$361                state_manager
     00003622  A$state_manager$362                state_manager
     00003624  A$state_manager$363                state_manager
     00003626  A$state_manager$364                state_manager
     00003627  A$state_manager$365                state_manager
     0000362A  A$state_manager$366                state_manager
     0000362B  A$state_manager$367                state_manager
ASxxxx Linker V03.00 + NoICE + sdld,  page 155.
Hexadecimal  [32-Bits]

Area                                    Addr        Size        Decimal Bytes (Attributes)
--------------------------------        ----        ----        ------- ----- ------------
_CODE                               00000200    0000636D =       25453. bytes (REL,CON)

      Value  Global                              Global Defined In Module
      -----  --------------------------------   ------------------------
     0000362D  A$state_manager$368                state_manager
     0000362E  A$state_manager$369                state_manager
     0000362F  A$state_manager$370                state_manager
     00003630  A$state_manager$371                state_manager
     00003631  A$state_manager$372                state_manager
     00003632  A$state_manager$373                state_manager
     00003633  A$state_manager$374                state_manager
     00003634  A$state_manager$379                state_manager
     00003634  C$state_manager.c$86$3_0$38        state_manager
     00003637  A$state_manager$380                state_manager
     0000363A  A$state_manager$381                state_manager
     0000363B  A$state_manager$382                state_manager
     0000363D  A$state_manager$383                state_manager
     0000363E  A$state_manager$384                state_manager
     00003640  A$state_manager$388                state_manager
     00003640  C$state_manager.c$88$4_0$41        state_manager
     00003641  A$state_manager$389                state_manager
     00003642  A$state_manager$390                state_manager
     00003643  A$state_manager$391                state_manager
     00003644  A$state_manager$392                state_manager
     00003646  A$state_manager$397                state_manager
     00003646  C$state_manager.c$91$3_0$38        state_manager
     00003649  A$state_manager$398                state_manager
     0000364B  A$state_manager$399                state_manager
     0000364C  A$state_manager$400                state_manager
     0000364F  A$state_manager$401                state_manager
     00003651  A$state_manager$402                state_manager
     00003652  A$state_manager$403                state_manager
     00003653  A$state_manager$404                state_manager
     00003654  A$state_manager$405                state_manager
     00003655  A$state_manager$406                state_manager
     00003656  A$state_manager$407                state_manager
     00003657  A$state_manager$408                state_manager
     00003658  A$state_manager$409                state_manager
     0000365A  A$state_manager$410                state_manager
     0000365B  A$state_manager$411                state_manager
     0000365D  A$state_manager$412                state_manager
     0000365F  A$state_manager$413                state_manager
     00003660  A$state_manager$414                state_manager
     00003663  A$state_manager$415                state_manager
     00003664  A$state_manager$416                state_manager
     00003666  A$state_manager$417                state_manager
     00003667  A$state_manager$418                state_manager
     00003668  A$state_manager$419                state_manager
     00003669  A$state_manager$423                state_manager
     00003669  C$state_manager.c$92$3_0$38        state_manager
     0000366B  A$state_manager$424                state_manager
     0000366D  A$state_manager$428                state_manager
     0000366D  C$state_manager.c$94$4_0$42        state_manager
     0000366F  A$state_manager$429                state_manager
     00003670  A$state_manager$434                state_manager
ASxxxx Linker V03.00 + NoICE + sdld,  page 156.
Hexadecimal  [32-Bits]

Area                                    Addr        Size        Decimal Bytes (Attributes)
--------------------------------        ----        ----        ------- ----- ------------
_CODE                               00000200    0000636D =       25453. bytes (REL,CON)

      Value  Global                              Global Defined In Module
      -----  --------------------------------   ------------------------
     00003670  C$state_manager.c$96$3_0$38        state_manager
     00003671  A$state_manager$435                state_manager
     00003672  A$state_manager$439                state_manager
     00003672  C$state_manager.c$98$4_0$43        state_manager
     00003674  A$state_manager$440                state_manager
     00003675  A$state_manager$441                state_manager
     00003677  A$state_manager$442                state_manager
     00003678  A$state_manager$447                state_manager
     00003678  C$state_manager.c$101$3_0$38       state_manager
     0000367B  A$state_manager$448                state_manager
     0000367C  A$state_manager$449                state_manager
     0000367E  A$state_manager$453                state_manager
     0000367E  C$state_manager.c$103$4_0$44       state_manager
     0000367F  A$state_manager$454                state_manager
     00003681  A$state_manager$455                state_manager
     00003682  A$state_manager$460                state_manager
     00003682  C$state_manager.c$108$3_0$38       state_manager
     00003685  A$state_manager$461                state_manager
     00003687  A$state_manager$462                state_manager
     00003688  A$state_manager$463                state_manager
     0000368B  A$state_manager$464                state_manager
     0000368D  A$state_manager$465                state_manager
     0000368E  A$state_manager$466                state_manager
     0000368F  A$state_manager$467                state_manager
     00003690  A$state_manager$468                state_manager
     00003691  A$state_manager$469                state_manager
     00003692  A$state_manager$470                state_manager
     00003693  A$state_manager$471                state_manager
     00003694  A$state_manager$472                state_manager
     00003696  A$state_manager$473                state_manager
     00003697  A$state_manager$474                state_manager
     00003699  A$state_manager$475                state_manager
     0000369B  A$state_manager$476                state_manager
     0000369C  A$state_manager$477                state_manager
     0000369F  A$state_manager$478                state_manager
     000036A0  A$state_manager$479                state_manager
     000036A2  A$state_manager$480                state_manager
     000036A3  A$state_manager$481                state_manager
     000036A4  A$state_manager$482                state_manager
     000036A5  A$state_manager$483                state_manager
     000036A6  A$state_manager$490                state_manager
     000036A6  C$state_manager.c$109$3_0$38       state_manager
     000036A6  C$state_manager.c$111$4_0$45       state_manager
     000036A8  A$state_manager$491                state_manager
     000036A9  A$state_manager$492                state_manager
     000036AB  A$state_manager$493                state_manager
     000036AC  A$state_manager$498                state_manager
     000036AC  C$state_manager.c$113$3_0$38       state_manager
     000036AD  A$state_manager$499                state_manager
     000036AE  A$state_manager$500                state_manager
     000036B0  A$state_manager$504                state_manager
ASxxxx Linker V03.00 + NoICE + sdld,  page 157.
Hexadecimal  [32-Bits]

Area                                    Addr        Size        Decimal Bytes (Attributes)
--------------------------------        ----        ----        ------- ----- ------------
_CODE                               00000200    0000636D =       25453. bytes (REL,CON)

      Value  Global                              Global Defined In Module
      -----  --------------------------------   ------------------------
     000036B0  C$state_manager.c$115$4_0$46       state_manager
     000036B3  A$state_manager$505                state_manager
     000036B5  A$state_manager$506                state_manager
     000036B8  A$state_manager$507                state_manager
     000036BB  A$state_manager$508                state_manager
     000036BD  A$state_manager$509                state_manager
     000036C0  A$state_manager$510                state_manager
     000036C3  A$state_manager$511                state_manager
     000036C6  A$state_manager$512                state_manager
     000036C8  A$state_manager$517                state_manager
     000036C8  C$state_manager.c$119$3_0$38       state_manager
     000036CB  A$state_manager$518                state_manager
     000036CC  A$state_manager$519                state_manager
     000036CE  A$state_manager$523                state_manager
     000036CE  C$state_manager.c$83$2_0$35        state_manager
     000036CF  A$state_manager$524                state_manager
     000036D0  A$state_manager$525                state_manager
     000036D1  A$state_manager$529                state_manager
     000036D1  C$state_manager.c$121$4_0$47       state_manager
     000036D3  A$state_manager$530                state_manager
     000036D5  A$state_manager$531                state_manager
     000036D7  A$state_manager$532                state_manager
     000036D9  A$state_manager$537                state_manager
     000036D9  C$state_manager.c$123$5_0$48       state_manager
     000036DC  A$state_manager$538                state_manager
     000036DD  A$state_manager$539                state_manager
     000036DF  A$state_manager$543                state_manager
     000036DF  C$state_manager.c$125$6_0$49       state_manager
     000036E2  A$state_manager$544                state_manager
     000036E5  A$state_manager$545                state_manager
     000036E6  A$state_manager$546                state_manager
     000036E7  A$state_manager$547                state_manager
     000036EA  A$state_manager$548                state_manager
     000036EB  A$state_manager$549                state_manager
     000036EC  A$state_manager$550                state_manager
     000036ED  A$state_manager$554                state_manager
     000036ED  C$state_manager.c$126$6_0$49       state_manager
     000036EE  A$state_manager$555                state_manager
     000036F0  A$state_manager$559                state_manager
     000036F0  C$state_manager.c$128$7_0$50       state_manager
     000036F3  A$state_manager$560                state_manager
     000036F6  A$state_manager$561                state_manager
     000036F7  A$state_manager$562                state_manager
     000036FA  A$state_manager$563                state_manager
     000036FB  A$state_manager$564                state_manager
     000036FC  A$state_manager$565                state_manager
     000036FD  A$state_manager$566                state_manager
     000036FE  A$state_manager$567                state_manager
     000036FF  A$state_manager$568                state_manager
     00003700  A$state_manager$573                state_manager
     00003700  C$state_manager.c$62$2_0$37        state_manager
ASxxxx Linker V03.00 + NoICE + sdld,  page 158.
Hexadecimal  [32-Bits]

Area                                    Addr        Size        Decimal Bytes (Attributes)
--------------------------------        ----        ----        ------- ----- ------------
_CODE                               00000200    0000636D =       25453. bytes (REL,CON)

      Value  Global                              Global Defined In Module
      -----  --------------------------------   ------------------------
     00003703  A$state_manager$574                state_manager
     00003706  A$state_manager$579                state_manager
     00003708  A$state_manager$580                state_manager
     0000370A  A$state_manager$585                state_manager
     0000370A  C$state_manager.c$136$2_0$35       state_manager
     0000370A  XG$engine_state_manager_load$0$0   state_manager
     0000370B  A$stats_manager$62                 stats_manager
     0000370B  C$stats_manager.c$10$1_0$1         stats_manager
     0000370B  C$stats_manager.c$14$1_0$1         stats_manager
     0000370B  C$stats_manager.c$8$0_0$1          stats_manager
     0000370B  G$engine_stats_manager_init$0$0    stats_manager
     0000370B  _engine_stats_manager_init         stats_manager
     0000370E  A$stats_manager$63                 stats_manager
     00003710  A$stats_manager$67                 stats_manager
     00003710  C$stats_manager.c$15$1_0$1         stats_manager
     00003713  A$stats_manager$68                 stats_manager
     00003715  A$stats_manager$72                 stats_manager
     00003715  C$stats_manager.c$18$1_0$1         stats_manager
     00003718  A$stats_manager$73                 stats_manager
     0000371A  A$stats_manager$77                 stats_manager
     0000371A  C$stats_manager.c$19$1_0$1         stats_manager
     0000371D  A$stats_manager$78                 stats_manager
     0000371F  A$stats_manager$82                 stats_manager
     0000371F  C$stats_manager.c$20$1_0$1         stats_manager
     00003722  A$stats_manager$83                 stats_manager
     00003724  A$stats_manager$87                 stats_manager
     00003724  C$stats_manager.c$21$1_0$1         stats_manager
     00003727  A$stats_manager$88                 stats_manager
     00003729  A$stats_manager$92                 stats_manager
     00003729  C$stats_manager.c$22$1_0$1         stats_manager
     0000372C  A$stats_manager$93                 stats_manager
     0000372E  A$stats_manager$97                 stats_manager
     0000372E  C$stats_manager.c$23$1_0$1         stats_manager
     00003731  A$stats_manager$98                 stats_manager
     00003733  A$stats_manager$102                stats_manager
     00003733  C$stats_manager.c$24$1_0$1         stats_manager
     00003736  A$stats_manager$103                stats_manager
     00003738  A$stats_manager$107                stats_manager
     00003738  C$stats_manager.c$25$1_0$1         stats_manager
     0000373B  A$stats_manager$108                stats_manager
     0000373D  A$stats_manager$112                stats_manager
     0000373D  C$stats_manager.c$27$1_0$1         stats_manager
     00003740  A$stats_manager$113                stats_manager
     00003742  A$stats_manager$117                stats_manager
     00003742  C$stats_manager.c$28$1_0$1         stats_manager
     00003745  A$stats_manager$118                stats_manager
     00003747  A$stats_manager$122                stats_manager
     00003747  C$stats_manager.c$29$1_0$1         stats_manager
     0000374A  A$stats_manager$123                stats_manager
     0000374C  A$stats_manager$127                stats_manager
     0000374C  C$stats_manager.c$30$1_0$1         stats_manager
ASxxxx Linker V03.00 + NoICE + sdld,  page 159.
Hexadecimal  [32-Bits]

Area                                    Addr        Size        Decimal Bytes (Attributes)
--------------------------------        ----        ----        ------- ----- ------------
_CODE                               00000200    0000636D =       25453. bytes (REL,CON)

      Value  Global                              Global Defined In Module
      -----  --------------------------------   ------------------------
     0000374F  A$stats_manager$128                stats_manager
     00003751  A$stats_manager$132                stats_manager
     00003751  C$stats_manager.c$31$1_0$1         stats_manager
     00003754  A$stats_manager$133                stats_manager
     00003756  A$stats_manager$137                stats_manager
     00003756  C$stats_manager.c$32$1_0$1         stats_manager
     00003759  A$stats_manager$138                stats_manager
     0000375B  A$stats_manager$142                stats_manager
     0000375B  C$stats_manager.c$33$1_0$1         stats_manager
     0000375E  A$stats_manager$143                stats_manager
     00003760  A$stats_manager$147                stats_manager
     00003760  C$stats_manager.c$34$1_0$1         stats_manager
     00003763  A$stats_manager$148                stats_manager
     00003765  A$stats_manager$152                stats_manager
     00003765  C$stats_manager.c$38$1_0$1         stats_manager
     00003768  A$stats_manager$153                stats_manager
     0000376A  A$stats_manager$157                stats_manager
     0000376A  C$stats_manager.c$39$1_0$1         stats_manager
     0000376D  A$stats_manager$158                stats_manager
     0000376F  A$stats_manager$162                stats_manager
     0000376F  C$stats_manager.c$40$1_0$1         stats_manager
     00003772  A$stats_manager$163                stats_manager
     00003774  A$stats_manager$167                stats_manager
     00003774  C$stats_manager.c$41$1_0$1         stats_manager
     00003777  A$stats_manager$168                stats_manager
     00003779  A$stats_manager$172                stats_manager
     00003779  C$stats_manager.c$42$1_0$1         stats_manager
     0000377C  A$stats_manager$173                stats_manager
     0000377E  A$stats_manager$177                stats_manager
     0000377E  C$stats_manager.c$43$1_0$1         stats_manager
     00003781  A$stats_manager$178                stats_manager
     00003783  A$stats_manager$182                stats_manager
     00003783  C$stats_manager.c$44$1_0$1         stats_manager
     00003786  A$stats_manager$183                stats_manager
     00003788  A$stats_manager$187                stats_manager
     00003788  C$stats_manager.c$45$1_0$1         stats_manager
     0000378B  A$stats_manager$188                stats_manager
     0000378D  A$stats_manager$192                stats_manager
     0000378D  C$stats_manager.c$47$1_0$1         stats_manager
     00003790  A$stats_manager$193                stats_manager
     00003792  A$stats_manager$197                stats_manager
     00003792  C$stats_manager.c$48$1_0$1         stats_manager
     00003795  A$stats_manager$198                stats_manager
     00003797  A$stats_manager$202                stats_manager
     00003797  C$stats_manager.c$49$1_0$1         stats_manager
     0000379A  A$stats_manager$203                stats_manager
     0000379C  A$stats_manager$207                stats_manager
     0000379C  C$stats_manager.c$50$1_0$1         stats_manager
     0000379F  A$stats_manager$208                stats_manager
     000037A1  A$stats_manager$212                stats_manager
     000037A1  C$stats_manager.c$51$1_0$1         stats_manager
ASxxxx Linker V03.00 + NoICE + sdld,  page 160.
Hexadecimal  [32-Bits]

Area                                    Addr        Size        Decimal Bytes (Attributes)
--------------------------------        ----        ----        ------- ----- ------------
_CODE                               00000200    0000636D =       25453. bytes (REL,CON)

      Value  Global                              Global Defined In Module
      -----  --------------------------------   ------------------------
     000037A4  A$stats_manager$213                stats_manager
     000037A6  A$stats_manager$217                stats_manager
     000037A6  C$stats_manager.c$52$1_0$1         stats_manager
     000037A9  A$stats_manager$218                stats_manager
     000037AB  A$stats_manager$222                stats_manager
     000037AB  C$stats_manager.c$53$1_0$1         stats_manager
     000037AE  A$stats_manager$223                stats_manager
     000037B0  A$stats_manager$227                stats_manager
     000037B0  C$stats_manager.c$54$1_0$1         stats_manager
     000037B3  A$stats_manager$228                stats_manager
     000037B5  A$stats_manager$232                stats_manager
     000037B5  C$stats_manager.c$56$1_0$1         stats_manager
     000037B8  A$stats_manager$233                stats_manager
     000037BA  A$stats_manager$237                stats_manager
     000037BA  C$stats_manager.c$57$1_0$1         stats_manager
     000037BD  A$stats_manager$238                stats_manager
     000037BF  A$stats_manager$242                stats_manager
     000037BF  C$stats_manager.c$58$1_0$1         stats_manager
     000037C2  A$stats_manager$243                stats_manager
     000037C4  A$stats_manager$247                stats_manager
     000037C4  C$stats_manager.c$59$1_0$1         stats_manager
     000037C7  A$stats_manager$248                stats_manager
     000037C9  A$stats_manager$252                stats_manager
     000037C9  C$stats_manager.c$60$1_0$1         stats_manager
     000037CC  A$stats_manager$253                stats_manager
     000037CE  A$stats_manager$257                stats_manager
     000037CE  C$stats_manager.c$61$1_0$1         stats_manager
     000037D1  A$stats_manager$258                stats_manager
     000037D3  A$stats_manager$262                stats_manager
     000037D3  C$stats_manager.c$62$1_0$1         stats_manager
     000037D6  A$stats_manager$263                stats_manager
     000037D8  A$stats_manager$267                stats_manager
     000037D8  C$stats_manager.c$63$1_0$1         stats_manager
     000037DB  A$stats_manager$268                stats_manager
     000037DD  A$stats_manager$272                stats_manager
     000037DD  C$stats_manager.c$65$1_0$1         stats_manager
     000037E0  A$stats_manager$273                stats_manager
     000037E2  A$stats_manager$277                stats_manager
     000037E2  C$stats_manager.c$66$1_0$1         stats_manager
     000037E5  A$stats_manager$278                stats_manager
     000037E7  A$stats_manager$282                stats_manager
     000037E7  C$stats_manager.c$67$1_0$1         stats_manager
     000037EA  A$stats_manager$283                stats_manager
     000037EC  A$stats_manager$287                stats_manager
     000037EC  C$stats_manager.c$68$1_0$1         stats_manager
     000037EF  A$stats_manager$288                stats_manager
     000037F1  A$stats_manager$292                stats_manager
     000037F1  C$stats_manager.c$69$1_0$1         stats_manager
     000037F4  A$stats_manager$293                stats_manager
     000037F6  A$stats_manager$297                stats_manager
     000037F6  C$stats_manager.c$70$1_0$1         stats_manager
ASxxxx Linker V03.00 + NoICE + sdld,  page 161.
Hexadecimal  [32-Bits]

Area                                    Addr        Size        Decimal Bytes (Attributes)
--------------------------------        ----        ----        ------- ----- ------------
_CODE                               00000200    0000636D =       25453. bytes (REL,CON)

      Value  Global                              Global Defined In Module
      -----  --------------------------------   ------------------------
     000037F9  A$stats_manager$298                stats_manager
     000037FB  A$stats_manager$302                stats_manager
     000037FB  C$stats_manager.c$71$1_0$1         stats_manager
     000037FE  A$stats_manager$303                stats_manager
     00003800  A$stats_manager$307                stats_manager
     00003800  C$stats_manager.c$72$1_0$1         stats_manager
     00003803  A$stats_manager$308                stats_manager
     00003805  A$stats_manager$312                stats_manager
     00003805  C$stats_manager.c$76$1_0$1         stats_manager
     00003808  A$stats_manager$313                stats_manager
     0000380A  A$stats_manager$317                stats_manager
     0000380A  C$stats_manager.c$77$1_0$1         stats_manager
     0000380D  A$stats_manager$318                stats_manager
     0000380F  A$stats_manager$322                stats_manager
     0000380F  C$stats_manager.c$78$1_0$1         stats_manager
     00003812  A$stats_manager$323                stats_manager
     00003814  A$stats_manager$327                stats_manager
     00003814  C$stats_manager.c$79$1_0$1         stats_manager
     00003817  A$stats_manager$328                stats_manager
     00003819  A$stats_manager$332                stats_manager
     00003819  C$stats_manager.c$80$1_0$1         stats_manager
     0000381C  A$stats_manager$333                stats_manager
     0000381E  A$stats_manager$337                stats_manager
     0000381E  C$stats_manager.c$81$1_0$1         stats_manager
     00003821  A$stats_manager$338                stats_manager
     00003823  A$stats_manager$342                stats_manager
     00003823  C$stats_manager.c$82$1_0$1         stats_manager
     00003826  A$stats_manager$343                stats_manager
     00003828  A$stats_manager$347                stats_manager
     00003828  C$stats_manager.c$83$1_0$1         stats_manager
     0000382B  A$stats_manager$348                stats_manager
     0000382D  A$stats_manager$352                stats_manager
     0000382D  C$stats_manager.c$85$1_0$1         stats_manager
     00003830  A$stats_manager$353                stats_manager
     00003832  A$stats_manager$357                stats_manager
     00003832  C$stats_manager.c$86$1_0$1         stats_manager
     00003835  A$stats_manager$358                stats_manager
     00003837  A$stats_manager$362                stats_manager
     00003837  C$stats_manager.c$87$1_0$1         stats_manager
     0000383A  A$stats_manager$363                stats_manager
     0000383C  A$stats_manager$367                stats_manager
     0000383C  C$stats_manager.c$88$1_0$1         stats_manager
     0000383F  A$stats_manager$368                stats_manager
     00003841  A$stats_manager$372                stats_manager
     00003841  C$stats_manager.c$89$1_0$1         stats_manager
     00003844  A$stats_manager$373                stats_manager
     00003846  A$stats_manager$377                stats_manager
     00003846  C$stats_manager.c$90$1_0$1         stats_manager
     00003849  A$stats_manager$378                stats_manager
     0000384B  A$stats_manager$382                stats_manager
     0000384B  C$stats_manager.c$91$1_0$1         stats_manager
ASxxxx Linker V03.00 + NoICE + sdld,  page 162.
Hexadecimal  [32-Bits]

Area                                    Addr        Size        Decimal Bytes (Attributes)
--------------------------------        ----        ----        ------- ----- ------------
_CODE                               00000200    0000636D =       25453. bytes (REL,CON)

      Value  Global                              Global Defined In Module
      -----  --------------------------------   ------------------------
     0000384E  A$stats_manager$383                stats_manager
     00003850  A$stats_manager$387                stats_manager
     00003850  C$stats_manager.c$92$1_0$1         stats_manager
     00003853  A$stats_manager$388                stats_manager
     00003855  A$stats_manager$392                stats_manager
     00003855  C$stats_manager.c$96$3_0$3         stats_manager
     00003858  A$stats_manager$397                stats_manager
     00003858  C$stats_manager.c$98$3_0$3         stats_manager
     0000385B  A$stats_manager$398                stats_manager
     0000385C  A$stats_manager$399                stats_manager
     0000385E  A$stats_manager$403                stats_manager
     0000385E  C$stats_manager.c$99$3_0$3         stats_manager
     00003861  A$stats_manager$404                stats_manager
     00003862  A$stats_manager$405                stats_manager
     00003864  A$stats_manager$409                stats_manager
     00003864  C$stats_manager.c$101$3_0$3        stats_manager
     00003867  A$stats_manager$410                stats_manager
     00003868  A$stats_manager$411                stats_manager
     0000386A  A$stats_manager$415                stats_manager
     0000386A  C$stats_manager.c$102$3_0$3        stats_manager
     0000386D  A$stats_manager$416                stats_manager
     0000386E  A$stats_manager$417                stats_manager
     00003870  A$stats_manager$421                stats_manager
     00003870  C$stats_manager.c$96$2_0$2         stats_manager
     00003871  A$stats_manager$422                stats_manager
     00003872  A$stats_manager$423                stats_manager
     00003874  A$stats_manager$424                stats_manager
     00003875  A$stats_manager$425                stats_manager
     00003877  A$stats_manager$426                stats_manager
     00003879  A$stats_manager$434                stats_manager
     00003879  C$stats_manager.c$105$2_0$1        stats_manager
     00003879  XG$engine_stats_manager_init$0$0   stats_manager
     0000387A  A$audio_manager$70                 audio_manager
     0000387A  C$audio_manager.c$26$0_0$35        audio_manager
     0000387A  G$engine_audio_manager_music_gam   audio_manager
     0000387A  _engine_audio_manager_music_game   audio_manager
     0000387C  A$audio_manager$71                 audio_manager
     00003880  A$audio_manager$72                 audio_manager
     00003882  A$audio_manager$76                 audio_manager
     00003882  C$audio_manager.c$28$1_0$35        audio_manager
     00003885  A$audio_manager$77                 audio_manager
     00003888  A$audio_manager$78                 audio_manager
     0000388A  A$audio_manager$79                 audio_manager
     0000388B  A$audio_manager$80                 audio_manager
     0000388C  A$audio_manager$81                 audio_manager
     0000388F  A$audio_manager$82                 audio_manager
     00003892  A$audio_manager$83                 audio_manager
     00003894  A$audio_manager$84                 audio_manager
     00003895  A$audio_manager$85                 audio_manager
     00003896  A$audio_manager$86                 audio_manager
     00003897  A$audio_manager$87                 audio_manager
ASxxxx Linker V03.00 + NoICE + sdld,  page 163.
Hexadecimal  [32-Bits]

Area                                    Addr        Size        Decimal Bytes (Attributes)
--------------------------------        ----        ----        ------- ----- ------------
_CODE                               00000200    0000636D =       25453. bytes (REL,CON)

      Value  Global                              Global Defined In Module
      -----  --------------------------------   ------------------------
     00003898  A$audio_manager$88                 audio_manager
     00003899  A$audio_manager$89                 audio_manager
     0000389A  A$audio_manager$90                 audio_manager
     0000389B  A$audio_manager$91                 audio_manager
     0000389C  A$audio_manager$92                 audio_manager
     0000389F  A$audio_manager$93                 audio_manager
     000038A0  A$audio_manager$94                 audio_manager
     000038A1  A$audio_manager$98                 audio_manager
     000038A3  A$audio_manager$103                audio_manager
     000038A3  C$audio_manager.c$29$1_0$35        audio_manager
     000038A3  XG$engine_audio_manager_music_ga   audio_manager
     000038A4  A$audio_manager$116                audio_manager
     000038A4  C$audio_manager.c$30$1_0$36        audio_manager
     000038A4  C$audio_manager.c$32$1_0$36        audio_manager
     000038A4  G$engine_audio_manager_music_tit   audio_manager
     000038A4  _engine_audio_manager_music_titl   audio_manager
     000038A7  A$audio_manager$117                audio_manager
     000038A8  A$audio_manager$118                audio_manager
     000038AB  A$audio_manager$119                audio_manager
     000038AC  A$audio_manager$120                audio_manager
     000038AD  A$audio_manager$121                audio_manager
     000038AE  A$audio_manager$122                audio_manager
     000038B1  A$audio_manager$123                audio_manager
     000038B2  A$audio_manager$124                audio_manager
     000038B3  A$audio_manager$132                audio_manager
     000038B3  C$audio_manager.c$33$1_0$36        audio_manager
     000038B3  XG$engine_audio_manager_music_ti   audio_manager
     000038B4  A$audio_manager$145                audio_manager
     000038B4  C$audio_manager.c$34$1_0$37        audio_manager
     000038B4  C$audio_manager.c$36$1_0$37        audio_manager
     000038B4  G$engine_audio_manager_music_ove   audio_manager
     000038B4  _engine_audio_manager_music_over   audio_manager
     000038B7  A$audio_manager$146                audio_manager
     000038B8  A$audio_manager$147                audio_manager
     000038BB  A$audio_manager$148                audio_manager
     000038BC  A$audio_manager$149                audio_manager
     000038BD  A$audio_manager$150                audio_manager
     000038BE  A$audio_manager$151                audio_manager
     000038C1  A$audio_manager$152                audio_manager
     000038C2  A$audio_manager$153                audio_manager
     000038C3  A$audio_manager$161                audio_manager
     000038C3  C$audio_manager.c$37$1_0$37        audio_manager
     000038C3  XG$engine_audio_manager_music_ov   audio_manager
     000038C4  A$audio_manager$174                audio_manager
     000038C4  C$audio_manager.c$38$1_0$38        audio_manager
     000038C4  C$audio_manager.c$40$1_0$38        audio_manager
     000038C4  G$engine_audio_manager_music_bea   audio_manager
     000038C4  _engine_audio_manager_music_beat   audio_manager
     000038C7  A$audio_manager$175                audio_manager
     000038C8  A$audio_manager$176                audio_manager
     000038CB  A$audio_manager$177                audio_manager
ASxxxx Linker V03.00 + NoICE + sdld,  page 164.
Hexadecimal  [32-Bits]

Area                                    Addr        Size        Decimal Bytes (Attributes)
--------------------------------        ----        ----        ------- ----- ------------
_CODE                               00000200    0000636D =       25453. bytes (REL,CON)

      Value  Global                              Global Defined In Module
      -----  --------------------------------   ------------------------
     000038CC  A$audio_manager$178                audio_manager
     000038CD  A$audio_manager$179                audio_manager
     000038CE  A$audio_manager$180                audio_manager
     000038D1  A$audio_manager$181                audio_manager
     000038D2  A$audio_manager$182                audio_manager
     000038D3  A$audio_manager$190                audio_manager
     000038D3  C$audio_manager.c$41$1_0$38        audio_manager
     000038D3  XG$engine_audio_manager_music_be   audio_manager
     000038D4  A$audio_manager$210                audio_manager
     000038D4  C$audio_manager.c$43$1_0$39        audio_manager
     000038D4  C$audio_manager.c$45$1_0$39        audio_manager
     000038D4  C$audio_manager.c$46$1_0$39        audio_manager
     000038D4  G$engine_audio_manager_music_res   audio_manager
     000038D4  XG$engine_audio_manager_music_re   audio_manager
     000038D4  _engine_audio_manager_music_resu   audio_manager
     000038D7  A$audio_manager$230                audio_manager
     000038D7  C$audio_manager.c$47$1_0$40        audio_manager
     000038D7  C$audio_manager.c$49$1_0$40        audio_manager
     000038D7  C$audio_manager.c$50$1_0$40        audio_manager
     000038D7  G$engine_audio_manager_music_sto   audio_manager
     000038D7  XG$engine_audio_manager_music_st   audio_manager
     000038D7  _engine_audio_manager_music_stop   audio_manager
     000038DA  A$audio_manager$243                audio_manager
     000038DA  C$audio_manager.c$52$1_0$41        audio_manager
     000038DA  C$audio_manager.c$54$1_0$41        audio_manager
     000038DA  G$engine_audio_manager_sound_acc   audio_manager
     000038DA  _engine_audio_manager_sound_acce   audio_manager
     000038DD  A$audio_manager$244                audio_manager
     000038DE  A$audio_manager$245                audio_manager
     000038E1  A$audio_manager$246                audio_manager
     000038E2  A$audio_manager$254                audio_manager
     000038E2  C$audio_manager.c$55$1_0$41        audio_manager
     000038E2  XG$engine_audio_manager_sound_ac   audio_manager
     000038E3  A$audio_manager$267                audio_manager
     000038E3  C$audio_manager.c$56$1_0$42        audio_manager
     000038E3  C$audio_manager.c$58$1_0$42        audio_manager
     000038E3  G$engine_audio_manager_sound_dea   audio_manager
     000038E3  _engine_audio_manager_sound_deat   audio_manager
     000038E6  A$audio_manager$268                audio_manager
     000038E7  A$audio_manager$269                audio_manager
     000038EA  A$audio_manager$270                audio_manager
     000038EB  A$audio_manager$278                audio_manager
     000038EB  C$audio_manager.c$59$1_0$42        audio_manager
     000038EB  XG$engine_audio_manager_sound_de   audio_manager
     000038EC  A$audio_manager$291                audio_manager
     000038EC  C$audio_manager.c$60$1_0$43        audio_manager
     000038EC  C$audio_manager.c$62$1_0$43        audio_manager
     000038EC  G$engine_audio_manager_sound_gem   audio_manager
     000038EC  _engine_audio_manager_sound_gem    audio_manager
     000038EF  A$audio_manager$292                audio_manager
     000038F0  A$audio_manager$293                audio_manager
ASxxxx Linker V03.00 + NoICE + sdld,  page 165.
Hexadecimal  [32-Bits]

Area                                    Addr        Size        Decimal Bytes (Attributes)
--------------------------------        ----        ----        ------- ----- ------------
_CODE                               00000200    0000636D =       25453. bytes (REL,CON)

      Value  Global                              Global Defined In Module
      -----  --------------------------------   ------------------------
     000038F3  A$audio_manager$294                audio_manager
     000038F4  A$audio_manager$302                audio_manager
     000038F4  C$audio_manager.c$63$1_0$43        audio_manager
     000038F4  XG$engine_audio_manager_sound_ge   audio_manager
     000038F5  A$audio_manager$315                audio_manager
     000038F5  C$audio_manager.c$64$1_0$44        audio_manager
     000038F5  C$audio_manager.c$66$1_0$44        audio_manager
     000038F5  G$engine_audio_manager_sound_lev   audio_manager
     000038F5  _engine_audio_manager_sound_leve   audio_manager
     000038F8  A$audio_manager$316                audio_manager
     000038F9  A$audio_manager$317                audio_manager
     000038FC  A$audio_manager$318                audio_manager
     000038FD  A$audio_manager$326                audio_manager
     000038FD  C$audio_manager.c$67$1_0$44        audio_manager
     000038FD  XG$engine_audio_manager_sound_le   audio_manager
     000038FE  A$audio_manager$339                audio_manager
     000038FE  C$audio_manager.c$68$1_0$45        audio_manager
     000038FE  C$audio_manager.c$70$1_0$45        audio_manager
     000038FE  G$engine_audio_manager_sound_pow   audio_manager
     000038FE  _engine_audio_manager_sound_powe   audio_manager
     00003901  A$audio_manager$340                audio_manager
     00003902  A$audio_manager$341                audio_manager
     00003905  A$audio_manager$342                audio_manager
     00003906  A$audio_manager$350                audio_manager
     00003906  C$audio_manager.c$71$1_0$45        audio_manager
     00003906  XG$engine_audio_manager_sound_po   audio_manager
     00003907  A$audio_manager$363                audio_manager
     00003907  C$audio_manager.c$72$1_0$46        audio_manager
     00003907  C$audio_manager.c$74$1_0$46        audio_manager
     00003907  G$engine_audio_manager_sound_res   audio_manager
     00003907  _engine_audio_manager_sound_rese   audio_manager
     0000390A  A$audio_manager$364                audio_manager
     0000390B  A$audio_manager$365                audio_manager
     0000390E  A$audio_manager$366                audio_manager
     0000390F  A$audio_manager$374                audio_manager
     0000390F  C$audio_manager.c$75$1_0$46        audio_manager
     0000390F  XG$engine_audio_manager_sound_re   audio_manager
     00003910  A$audio_manager$390                audio_manager
     00003910  C$audio_manager.c$77$1_0$48        audio_manager
     00003910  C$audio_manager.c$79$1_0$48        audio_manager
     00003910  C$audio_manager.c$80$1_0$48        audio_manager
     00003910  Faudio_manager$play_music$0$0      audio_manager
     00003913  A$audio_manager$391                audio_manager
     00003914  A$audio_manager$395                audio_manager
     00003914  C$audio_manager.c$82$2_0$49        audio_manager
     00003915  A$audio_manager$399                audio_manager
     00003915  C$audio_manager.c$85$1_0$48        audio_manager
     00003918  A$audio_manager$400                audio_manager
     00003919  A$audio_manager$401                audio_manager
     0000391A  A$audio_manager$402                audio_manager
     0000391B  A$audio_manager$403                audio_manager
ASxxxx Linker V03.00 + NoICE + sdld,  page 166.
Hexadecimal  [32-Bits]

Area                                    Addr        Size        Decimal Bytes (Attributes)
--------------------------------        ----        ----        ------- ----- ------------
_CODE                               00000200    0000636D =       25453. bytes (REL,CON)

      Value  Global                              Global Defined In Module
      -----  --------------------------------   ------------------------
     0000391C  A$audio_manager$404                audio_manager
     0000391F  A$audio_manager$405                audio_manager
     00003920  A$audio_manager$409                audio_manager
     00003920  C$audio_manager.c$86$1_0$48        audio_manager
     00003921  A$audio_manager$410                audio_manager
     00003922  A$audio_manager$411                audio_manager
     00003923  A$audio_manager$412                audio_manager
     00003924  A$audio_manager$413                audio_manager
     00003925  A$audio_manager$414                audio_manager
     00003928  A$audio_manager$415                audio_manager
     00003929  A$audio_manager$423                audio_manager
     00003929  C$audio_manager.c$87$1_0$48        audio_manager
     00003929  XFaudio_manager$play_music$0$0     audio_manager
     0000392A  A$audio_manager$439                audio_manager
     0000392A  C$audio_manager.c$88$1_0$51        audio_manager
     0000392A  C$audio_manager.c$90$1_0$51        audio_manager
     0000392A  C$audio_manager.c$91$1_0$51        audio_manager
     0000392A  Faudio_manager$play_music_norepe   audio_manager
     0000392D  A$audio_manager$440                audio_manager
     0000392E  A$audio_manager$444                audio_manager
     0000392E  C$audio_manager.c$93$2_0$52        audio_manager
     0000392F  A$audio_manager$448                audio_manager
     0000392F  C$audio_manager.c$96$1_0$51        audio_manager
     00003932  A$audio_manager$449                audio_manager
     00003933  A$audio_manager$450                audio_manager
     00003934  A$audio_manager$451                audio_manager
     00003935  A$audio_manager$452                audio_manager
     00003936  A$audio_manager$453                audio_manager
     00003939  A$audio_manager$454                audio_manager
     0000393A  A$audio_manager$458                audio_manager
     0000393A  C$audio_manager.c$97$1_0$51        audio_manager
     0000393B  A$audio_manager$459                audio_manager
     0000393C  A$audio_manager$460                audio_manager
     0000393D  A$audio_manager$461                audio_manager
     0000393E  A$audio_manager$462                audio_manager
     0000393F  A$audio_manager$463                audio_manager
     00003942  A$audio_manager$464                audio_manager
     00003943  A$audio_manager$472                audio_manager
     00003943  C$audio_manager.c$98$1_0$51        audio_manager
     00003943  XFaudio_manager$play_music_norep   audio_manager
     00003944  A$audio_manager$488                audio_manager
     00003944  C$audio_manager.c$101$1_0$54       audio_manager
     00003944  C$audio_manager.c$102$1_0$54       audio_manager
     00003944  C$audio_manager.c$99$1_0$54        audio_manager
     00003944  Faudio_manager$play_sound$0$0      audio_manager
     00003947  A$audio_manager$489                audio_manager
     00003948  A$audio_manager$493                audio_manager
     00003948  C$audio_manager.c$104$2_0$55       audio_manager
     00003949  A$audio_manager$497                audio_manager
     00003949  C$audio_manager.c$107$1_0$54       audio_manager
     0000394C  A$audio_manager$498                audio_manager
ASxxxx Linker V03.00 + NoICE + sdld,  page 167.
Hexadecimal  [32-Bits]

Area                                    Addr        Size        Decimal Bytes (Attributes)
--------------------------------        ----        ----        ------- ----- ------------
_CODE                               00000200    0000636D =       25453. bytes (REL,CON)

      Value  Global                              Global Defined In Module
      -----  --------------------------------   ------------------------
     0000394D  A$audio_manager$499                audio_manager
     0000394E  A$audio_manager$500                audio_manager
     0000394F  A$audio_manager$501                audio_manager
     00003950  A$audio_manager$502                audio_manager
     00003951  A$audio_manager$503                audio_manager
     00003952  A$audio_manager$504                audio_manager
     00003953  A$audio_manager$505                audio_manager
     00003954  A$audio_manager$506                audio_manager
     00003957  A$audio_manager$507                audio_manager
     00003958  A$audio_manager$508                audio_manager
     00003959  A$audio_manager$516                audio_manager
     00003959  C$audio_manager.c$108$1_0$54       audio_manager
     00003959  XFaudio_manager$play_sound$0$0     audio_manager
     0000395A  A$game_manager$67                  game_manager
     0000395A  C$game_manager.c$12$0_0$5          game_manager
     0000395A  C$game_manager.c$14$1_0$5          game_manager
     0000395A  C$game_manager.c$15$1_0$5          game_manager
     0000395A  G$engine_game_manager_init$0$0     game_manager
     0000395A  _engine_game_manager_init          game_manager
     0000395D  A$game_manager$68                  game_manager
     0000395F  A$game_manager$72                  game_manager
     0000395F  C$game_manager.c$16$1_0$5          game_manager
     00003962  A$game_manager$73                  game_manager
     00003964  A$game_manager$77                  game_manager
     00003964  C$game_manager.c$17$1_0$5          game_manager
     00003967  A$game_manager$78                  game_manager
     00003969  A$game_manager$82                  game_manager
     00003969  C$game_manager.c$18$1_0$5          game_manager
     0000396C  A$game_manager$83                  game_manager
     0000396E  A$game_manager$91                  game_manager
     0000396E  C$game_manager.c$19$1_0$5          game_manager
     0000396E  XG$engine_game_manager_init$0$0    game_manager
     0000396F  A$game_manager$107                 game_manager
     0000396F  C$game_manager.c$21$1_0$6          game_manager
     0000396F  C$game_manager.c$23$1_0$6          game_manager
     0000396F  C$game_manager.c$24$1_0$6          game_manager
     0000396F  G$engine_game_manager_draw$0$0     game_manager
     0000396F  _engine_game_manager_draw          game_manager
     00003972  A$game_manager$108                 game_manager
     00003975  A$game_manager$109                 game_manager
     00003976  A$game_manager$110                 game_manager
     00003978  A$game_manager$111                 game_manager
     00003979  A$game_manager$112                 game_manager
     0000397A  A$game_manager$113                 game_manager
     0000397B  A$game_manager$114                 game_manager
     0000397C  A$game_manager$115                 game_manager
     0000397D  A$game_manager$116                 game_manager
     00003980  A$game_manager$117                 game_manager
     00003981  A$game_manager$118                 game_manager
     00003982  A$game_manager$119                 game_manager
     00003985  A$game_manager$120                 game_manager
ASxxxx Linker V03.00 + NoICE + sdld,  page 168.
Hexadecimal  [32-Bits]

Area                                    Addr        Size        Decimal Bytes (Attributes)
--------------------------------        ----        ----        ------- ----- ------------
_CODE                               00000200    0000636D =       25453. bytes (REL,CON)

      Value  Global                              Global Defined In Module
      -----  --------------------------------   ------------------------
     00003986  A$game_manager$121                 game_manager
     00003987  A$game_manager$125                 game_manager
     00003987  C$game_manager.c$26$1_0$6          game_manager
     0000398A  A$game_manager$126                 game_manager
     0000398B  A$game_manager$127                 game_manager
     0000398D  A$game_manager$131                 game_manager
     0000398D  C$game_manager.c$28$2_0$7          game_manager
     00003990  A$game_manager$132                 game_manager
     00003991  A$game_manager$133                 game_manager
     00003994  A$game_manager$134                 game_manager
     00003995  A$game_manager$135                 game_manager
     00003998  A$game_manager$136                 game_manager
     00003999  A$game_manager$137                 game_manager
     0000399A  A$game_manager$138                 game_manager
     0000399C  A$game_manager$143                 game_manager
     0000399C  C$game_manager.c$32$2_0$8          game_manager
     0000399F  A$game_manager$144                 game_manager
     000039A0  A$game_manager$145                 game_manager
     000039A2  A$game_manager$146                 game_manager
     000039A3  A$game_manager$147                 game_manager
     000039A6  A$game_manager$148                 game_manager
     000039A7  A$game_manager$149                 game_manager
     000039A8  A$game_manager$150                 game_manager
     000039A9  A$game_manager$151                 game_manager
     000039AA  A$game_manager$152                 game_manager
     000039AD  A$game_manager$153                 game_manager
     000039AE  A$game_manager$154                 game_manager
     000039AF  A$game_manager$155                 game_manager
     000039B2  A$game_manager$156                 game_manager
     000039B3  A$game_manager$157                 game_manager
     000039B4  A$game_manager$162                 game_manager
     000039B4  C$game_manager.c$35$1_0$6          game_manager
     000039B7  A$game_manager$163                 game_manager
     000039B8  A$game_manager$164                 game_manager
     000039BA  A$game_manager$165                 game_manager
     000039BB  A$game_manager$166                 game_manager
     000039BE  A$game_manager$167                 game_manager
     000039BF  A$game_manager$168                 game_manager
     000039C0  A$game_manager$169                 game_manager
     000039C1  A$game_manager$170                 game_manager
     000039C2  A$game_manager$171                 game_manager
     000039C5  A$game_manager$172                 game_manager
     000039C6  A$game_manager$173                 game_manager
     000039C7  A$game_manager$174                 game_manager
     000039CA  A$game_manager$175                 game_manager
     000039CB  A$game_manager$176                 game_manager
     000039CC  A$game_manager$184                 game_manager
     000039CC  C$game_manager.c$36$1_0$6          game_manager
     000039CC  XG$engine_game_manager_draw$0$0    game_manager
     000039CD  Fgame_manager$__str_0$0_0$0        game_manager
     000039D0  Fgame_manager$__str_1$0_0$0        game_manager
ASxxxx Linker V03.00 + NoICE + sdld,  page 169.
Hexadecimal  [32-Bits]

Area                                    Addr        Size        Decimal Bytes (Attributes)
--------------------------------        ----        ----        ------- ----- ------------
_CODE                               00000200    0000636D =       25453. bytes (REL,CON)

      Value  Global                              Global Defined In Module
      -----  --------------------------------   ------------------------
     000039D5  Fgame_manager$__str_2$0_0$0        game_manager
     000039DA  A$none_screen$60                   none_screen
     000039DA  C$none_screen.c$4$0_0$3            none_screen
     000039DA  C$none_screen.c$6$0_0$3            none_screen
     000039DA  G$screen_none_screen_load$0$0      none_screen
     000039DA  XG$screen_none_screen_load$0$0     none_screen
     000039DA  _screen_none_screen_load           none_screen
     000039DB  A$none_screen$73                   none_screen
     000039DB  C$none_screen.c$10$1_0$5           none_screen
     000039DB  C$none_screen.c$8$0_0$5            none_screen
     000039DB  G$screen_none_screen_update$0$0    none_screen
     000039DB  _screen_none_screen_update         none_screen
     000039DC  A$none_screen$74                   none_screen
     000039DD  A$none_screen$75                   none_screen
     000039DE  A$none_screen$76                   none_screen
     000039DF  A$none_screen$77                   none_screen
     000039E0  A$none_screen$78                   none_screen
     000039E1  A$none_screen$86                   none_screen
     000039E1  C$none_screen.c$11$1_0$5           none_screen
     000039E1  XG$screen_none_screen_update$0$0   none_screen
     000039E2  A$splash_screen$62                 splash_screen
     000039E2  C$splash_screen.c$10$0_0$16        splash_screen
     000039E2  C$splash_screen.c$12$1_0$16        splash_screen
     000039E2  G$screen_splash_screen_load$0$0    splash_screen
     000039E2  _screen_splash_screen_load         splash_screen
     000039E5  A$splash_screen$63                 splash_screen
     000039E6  A$splash_screen$64                 splash_screen
     000039E9  A$splash_screen$65                 splash_screen
     000039EA  A$splash_screen$69                 splash_screen
     000039EA  C$splash_screen.c$14$1_0$16        splash_screen
     000039ED  A$splash_screen$73                 splash_screen
     000039ED  C$splash_screen.c$15$1_0$16        splash_screen
     000039F0  A$splash_screen$84                 splash_screen
     000039F0  C$splash_screen.c$16$1_0$16        splash_screen
     000039F0  C$splash_screen.c$17$1_0$16        splash_screen
     000039F0  XG$screen_splash_screen_load$0$0   splash_screen
     000039F3  A$splash_screen$94                 splash_screen
     000039F3  C$splash_screen.c$19$1_0$18        splash_screen
     000039F3  G$screen_splash_screen_update$0$   splash_screen
     000039F3  _screen_splash_screen_update       splash_screen
     000039F4  A$splash_screen$98                 splash_screen
     000039F4  C$splash_screen.c$24$1_0$18        splash_screen
     000039F7  A$splash_screen$99                 splash_screen
     000039F8  A$splash_screen$100                splash_screen
     000039FC  A$splash_screen$101                splash_screen
     000039FE  A$splash_screen$102                splash_screen
     00003A01  A$splash_screen$106                splash_screen
     00003A01  C$splash_screen.c$25$1_0$18        splash_screen
     00003A04  A$splash_screen$107                splash_screen
     00003A05  A$splash_screen$111                splash_screen
     00003A05  C$splash_screen.c$29$1_0$18        splash_screen
ASxxxx Linker V03.00 + NoICE + sdld,  page 170.
Hexadecimal  [32-Bits]

Area                                    Addr        Size        Decimal Bytes (Attributes)
--------------------------------        ----        ----        ------- ----- ------------
_CODE                               00000200    0000636D =       25453. bytes (REL,CON)

      Value  Global                              Global Defined In Module
      -----  --------------------------------   ------------------------
     00003A09  A$splash_screen$112                splash_screen
     00003A0B  A$splash_screen$113                splash_screen
     00003A0E  A$splash_screen$114                splash_screen
     00003A11  A$splash_screen$118                splash_screen
     00003A11  C$splash_screen.c$27$1_0$18        splash_screen
     00003A14  A$splash_screen$119                splash_screen
     00003A15  A$splash_screen$120                splash_screen
     00003A17  A$splash_screen$121                splash_screen
     00003A18  A$splash_screen$122                splash_screen
     00003A1A  A$splash_screen$127                splash_screen
     00003A1A  C$splash_screen.c$29$2_0$19        splash_screen
     00003A1C  A$splash_screen$131                splash_screen
     00003A1C  C$splash_screen.c$30$2_0$19        splash_screen
     00003A1E  A$splash_screen$136                splash_screen
     00003A1E  C$splash_screen.c$33$1_0$18        splash_screen
     00003A20  A$splash_screen$141                splash_screen
     00003A21  A$splash_screen$146                splash_screen
     00003A21  C$splash_screen.c$34$1_0$18        splash_screen
     00003A21  XG$screen_splash_screen_update$0   splash_screen
     00003A22  A$intro_screen$85                  intro_screen
     00003A22  C$intro_screen.c$34$0_0$58         intro_screen
     00003A22  C$intro_screen.c$38$1_0$58         intro_screen
     00003A22  G$screen_intro_screen_load$0$0     intro_screen
     00003A22  _screen_intro_screen_load          intro_screen
     00003A25  A$intro_screen$86                  intro_screen
     00003A26  A$intro_screen$87                  intro_screen
     00003A29  A$intro_screen$88                  intro_screen
     00003A2A  A$intro_screen$92                  intro_screen
     00003A2A  C$intro_screen.c$41$1_0$58         intro_screen
     00003A2D  A$intro_screen$96                  intro_screen
     00003A2D  C$intro_screen.c$42$1_0$58         intro_screen
     00003A30  A$intro_screen$100                 intro_screen
     00003A30  C$intro_screen.c$43$1_0$58         intro_screen
     00003A33  A$intro_screen$104                 intro_screen
     00003A33  C$intro_screen.c$45$1_0$58         intro_screen
     00003A36  A$intro_screen$108                 intro_screen
     00003A36  C$intro_screen.c$46$1_0$58         intro_screen
     00003A39  A$intro_screen$112                 intro_screen
     00003A39  C$intro_screen.c$47$1_0$58         intro_screen
     00003A3C  A$intro_screen$116                 intro_screen
     00003A3C  C$intro_screen.c$48$1_0$58         intro_screen
     00003A3F  A$intro_screen$120                 intro_screen
     00003A41  A$intro_screen$125                 intro_screen
     00003A41  C$intro_screen.c$52$3_0$60         intro_screen
     00003A42  A$intro_screen$126                 intro_screen
     00003A45  A$intro_screen$127                 intro_screen
     00003A48  A$intro_screen$128                 intro_screen
     00003A49  A$intro_screen$129                 intro_screen
     00003A4A  A$intro_screen$130                 intro_screen
     00003A4D  A$intro_screen$131                 intro_screen
     00003A4E  A$intro_screen$132                 intro_screen
ASxxxx Linker V03.00 + NoICE + sdld,  page 171.
Hexadecimal  [32-Bits]

Area                                    Addr        Size        Decimal Bytes (Attributes)
--------------------------------        ----        ----        ------- ----- ------------
_CODE                               00000200    0000636D =       25453. bytes (REL,CON)

      Value  Global                              Global Defined In Module
      -----  --------------------------------   ------------------------
     00003A4F  A$intro_screen$133                 intro_screen
     00003A50  A$intro_screen$134                 intro_screen
     00003A51  A$intro_screen$135                 intro_screen
     00003A52  A$intro_screen$139                 intro_screen
     00003A52  C$intro_screen.c$53$3_0$60         intro_screen
     00003A53  A$intro_screen$140                 intro_screen
     00003A55  A$intro_screen$141                 intro_screen
     00003A56  A$intro_screen$142                 intro_screen
     00003A57  A$intro_screen$143                 intro_screen
     00003A58  A$intro_screen$144                 intro_screen
     00003A59  A$intro_screen$145                 intro_screen
     00003A5C  A$intro_screen$146                 intro_screen
     00003A5D  A$intro_screen$147                 intro_screen
     00003A5E  A$intro_screen$148                 intro_screen
     00003A61  A$intro_screen$149                 intro_screen
     00003A64  A$intro_screen$150                 intro_screen
     00003A65  A$intro_screen$151                 intro_screen
     00003A66  A$intro_screen$152                 intro_screen
     00003A69  A$intro_screen$153                 intro_screen
     00003A6A  A$intro_screen$154                 intro_screen
     00003A6B  A$intro_screen$155                 intro_screen
     00003A6C  A$intro_screen$156                 intro_screen
     00003A6D  A$intro_screen$157                 intro_screen
     00003A6E  A$intro_screen$161                 intro_screen
     00003A6E  C$intro_screen.c$55$3_0$60         intro_screen
     00003A6F  A$intro_screen$162                 intro_screen
     00003A71  A$intro_screen$163                 intro_screen
     00003A72  A$intro_screen$164                 intro_screen
     00003A73  A$intro_screen$165                 intro_screen
     00003A74  A$intro_screen$166                 intro_screen
     00003A75  A$intro_screen$167                 intro_screen
     00003A78  A$intro_screen$168                 intro_screen
     00003A79  A$intro_screen$169                 intro_screen
     00003A7A  A$intro_screen$170                 intro_screen
     00003A7B  A$intro_screen$174                 intro_screen
     00003A7B  C$intro_screen.c$50$2_0$59         intro_screen
     00003A7C  A$intro_screen$175                 intro_screen
     00003A7D  A$intro_screen$176                 intro_screen
     00003A7E  A$intro_screen$177                 intro_screen
     00003A80  A$intro_screen$178                 intro_screen
     00003A82  A$intro_screen$182                 intro_screen
     00003A82  C$intro_screen.c$58$1_0$58         intro_screen
     00003A85  A$intro_screen$183                 intro_screen
     00003A86  A$intro_screen$184                 intro_screen
     00003A89  A$intro_screen$185                 intro_screen
     00003A8A  A$intro_screen$186                 intro_screen
     00003A8D  A$intro_screen$187                 intro_screen
     00003A8E  A$intro_screen$188                 intro_screen
     00003A8F  A$intro_screen$192                 intro_screen
     00003A8F  C$intro_screen.c$59$1_0$58         intro_screen
     00003A92  A$intro_screen$193                 intro_screen
ASxxxx Linker V03.00 + NoICE + sdld,  page 172.
Hexadecimal  [32-Bits]

Area                                    Addr        Size        Decimal Bytes (Attributes)
--------------------------------        ----        ----        ------- ----- ------------
_CODE                               00000200    0000636D =       25453. bytes (REL,CON)

      Value  Global                              Global Defined In Module
      -----  --------------------------------   ------------------------
     00003A93  A$intro_screen$194                 intro_screen
     00003A95  A$intro_screen$195                 intro_screen
     00003A96  A$intro_screen$196                 intro_screen
     00003A97  A$intro_screen$197                 intro_screen
     00003A9A  A$intro_screen$198                 intro_screen
     00003A9B  A$intro_screen$199                 intro_screen
     00003A9C  A$intro_screen$203                 intro_screen
     00003A9C  C$intro_screen.c$61$1_0$58         intro_screen
     00003A9F  A$intro_screen$210                 intro_screen
     00003A9F  C$intro_screen.c$63$1_0$58         intro_screen
     00003A9F  C$intro_screen.c$64$1_0$58         intro_screen
     00003AA1  A$intro_screen$211                 intro_screen
     00003AA4  A$intro_screen$212                 intro_screen
     00003AA7  A$intro_screen$219                 intro_screen
     00003AA7  C$intro_screen.c$65$1_0$58         intro_screen
     00003AA7  C$intro_screen.c$66$1_0$58         intro_screen
     00003AA9  A$intro_screen$220                 intro_screen
     00003AAC  A$intro_screen$221                 intro_screen
     00003AAF  A$intro_screen$229                 intro_screen
     00003AAF  C$intro_screen.c$67$1_0$58         intro_screen
     00003AAF  XG$screen_intro_screen_load$0$0    intro_screen
     00003AB0  Fintro_screen$__str_0$0_0$0        intro_screen
     00003AB5  A$intro_screen$243                 intro_screen
     00003AB5  C$intro_screen.c$69$1_0$62         intro_screen
     00003AB5  G$screen_intro_screen_update$0$0   intro_screen
     00003AB5  _screen_intro_screen_update        intro_screen
     00003AB6  A$intro_screen$247                 intro_screen
     00003AB6  C$intro_screen.c$78$1_0$62         intro_screen
     00003AB9  A$intro_screen$248                 intro_screen
     00003ABA  A$intro_screen$249                 intro_screen
     00003ABD  A$intro_screen$250                 intro_screen
     00003ABE  A$intro_screen$251                 intro_screen
     00003AC1  A$intro_screen$252                 intro_screen
     00003AC2  A$intro_screen$253                 intro_screen
     00003AC3  A$intro_screen$257                 intro_screen
     00003AC3  C$intro_screen.c$80$1_0$62         intro_screen
     00003AC7  A$intro_screen$258                 intro_screen
     00003ACA  A$intro_screen$262                 intro_screen
     00003ACA  C$intro_screen.c$81$1_0$62         intro_screen
     00003ACC  A$intro_screen$263                 intro_screen
     00003ACF  A$intro_screen$264                 intro_screen
     00003AD1  A$intro_screen$268                 intro_screen
     00003AD1  C$intro_screen.c$83$2_0$63         intro_screen
     00003AD5  A$intro_screen$272                 intro_screen
     00003AD5  C$intro_screen.c$84$2_0$63         intro_screen
     00003AD8  A$intro_screen$277                 intro_screen
     00003AD8  C$intro_screen.c$87$1_0$62         intro_screen
     00003ADB  A$intro_screen$278                 intro_screen
     00003ADC  A$intro_screen$279                 intro_screen
     00003AE0  A$intro_screen$280                 intro_screen
     00003AE2  A$intro_screen$281                 intro_screen
ASxxxx Linker V03.00 + NoICE + sdld,  page 173.
Hexadecimal  [32-Bits]

Area                                    Addr        Size        Decimal Bytes (Attributes)
--------------------------------        ----        ----        ------- ----- ------------
_CODE                               00000200    0000636D =       25453. bytes (REL,CON)

      Value  Global                              Global Defined In Module
      -----  --------------------------------   ------------------------
     00003AE5  A$intro_screen$285                 intro_screen
     00003AE5  C$intro_screen.c$88$1_0$62         intro_screen
     00003AE8  A$intro_screen$286                 intro_screen
     00003AE9  A$intro_screen$290                 intro_screen
     00003AE9  C$intro_screen.c$93$1_0$62         intro_screen
     00003AED  A$intro_screen$291                 intro_screen
     00003AEF  A$intro_screen$292                 intro_screen
     00003AF2  A$intro_screen$293                 intro_screen
     00003AF5  A$intro_screen$297                 intro_screen
     00003AF5  C$intro_screen.c$90$1_0$62         intro_screen
     00003AF8  A$intro_screen$298                 intro_screen
     00003AF9  A$intro_screen$299                 intro_screen
     00003AFB  A$intro_screen$300                 intro_screen
     00003AFC  A$intro_screen$301                 intro_screen
     00003AFE  A$intro_screen$306                 intro_screen
     00003AFE  C$intro_screen.c$92$2_0$64         intro_screen
     00003AFF  A$intro_screen$307                 intro_screen
     00003B02  A$intro_screen$308                 intro_screen
     00003B03  A$intro_screen$312                 intro_screen
     00003B03  C$intro_screen.c$93$2_0$64         intro_screen
     00003B05  A$intro_screen$316                 intro_screen
     00003B05  C$intro_screen.c$94$2_0$64         intro_screen
     00003B07  A$intro_screen$321                 intro_screen
     00003B07  C$intro_screen.c$97$1_0$62         intro_screen
     00003B09  A$intro_screen$326                 intro_screen
     00003B0A  A$intro_screen$331                 intro_screen
     00003B0A  C$intro_screen.c$98$1_0$62         intro_screen
     00003B0A  XG$screen_intro_screen_update$0$   intro_screen
     00003B0B  A$intro_screen$344                 intro_screen
     00003B0B  C$intro_screen.c$100$1_0$66        intro_screen
     00003B0B  C$intro_screen.c$102$1_0$66        intro_screen
     00003B0B  Fintro_screen$draw_sprite$0$0      intro_screen
     00003B0F  A$intro_screen$345                 intro_screen
     00003B11  A$intro_screen$346                 intro_screen
     00003B14  A$intro_screen$347                 intro_screen
     00003B17  A$intro_screen$348                 intro_screen
     00003B18  A$intro_screen$349                 intro_screen
     00003B19  A$intro_screen$350                 intro_screen
     00003B1A  A$intro_screen$351                 intro_screen
     00003B1B  A$intro_screen$352                 intro_screen
     00003B1C  A$intro_screen$353                 intro_screen
     00003B1D  A$intro_screen$354                 intro_screen
     00003B20  A$intro_screen$355                 intro_screen
     00003B21  A$intro_screen$359                 intro_screen
     00003B21  C$intro_screen.c$103$1_0$66        intro_screen
     00003B22  A$intro_screen$360                 intro_screen
     00003B25  A$intro_screen$361                 intro_screen
     00003B27  A$intro_screen$362                 intro_screen
     00003B28  A$intro_screen$363                 intro_screen
     00003B29  A$intro_screen$364                 intro_screen
     00003B2C  A$intro_screen$365                 intro_screen
ASxxxx Linker V03.00 + NoICE + sdld,  page 174.
Hexadecimal  [32-Bits]

Area                                    Addr        Size        Decimal Bytes (Attributes)
--------------------------------        ----        ----        ------- ----- ------------
_CODE                               00000200    0000636D =       25453. bytes (REL,CON)

      Value  Global                              Global Defined In Module
      -----  --------------------------------   ------------------------
     00003B2D  A$intro_screen$366                 intro_screen
     00003B2E  A$intro_screen$367                 intro_screen
     00003B31  A$intro_screen$368                 intro_screen
     00003B32  A$intro_screen$369                 intro_screen
     00003B33  A$intro_screen$377                 intro_screen
     00003B33  C$intro_screen.c$104$1_0$66        intro_screen
     00003B33  XFintro_screen$draw_sprite$0$0     intro_screen
     00003B34  A$intro_screen$390                 intro_screen
     00003B34  C$intro_screen.c$106$1_0$67        intro_screen
     00003B34  C$intro_screen.c$108$1_0$67        intro_screen
     00003B34  Fintro_screen$update_text$0$0      intro_screen
     00003B38  A$intro_screen$391                 intro_screen
     00003B3B  A$intro_screen$392                 intro_screen
     00003B3C  A$intro_screen$393                 intro_screen
     00003B3E  A$intro_screen$397                 intro_screen
     00003B3E  C$intro_screen.c$110$2_0$68        intro_screen
     00003B42  A$intro_screen$401                 intro_screen
     00003B42  C$intro_screen.c$111$2_0$68        intro_screen
     00003B45  A$intro_screen$405                 intro_screen
     00003B45  C$intro_screen.c$112$2_0$68        intro_screen
     00003B48  A$intro_screen$406                 intro_screen
     00003B49  A$intro_screen$407                 intro_screen
     00003B4C  A$intro_screen$408                 intro_screen
     00003B4D  A$intro_screen$409                 intro_screen
     00003B50  A$intro_screen$410                 intro_screen
     00003B51  A$intro_screen$411                 intro_screen
     00003B52  A$intro_screen$412                 intro_screen
     00003B53  A$intro_screen$417                 intro_screen
     00003B53  C$intro_screen.c$114$1_0$67        intro_screen
     00003B57  A$intro_screen$418                 intro_screen
     00003B5A  A$intro_screen$419                 intro_screen
     00003B5B  A$intro_screen$420                 intro_screen
     00003B5D  A$intro_screen$424                 intro_screen
     00003B5D  C$intro_screen.c$116$2_0$69        intro_screen
     00003B61  A$intro_screen$428                 intro_screen
     00003B61  C$intro_screen.c$117$2_0$69        intro_screen
     00003B64  A$intro_screen$429                 intro_screen
     00003B65  A$intro_screen$430                 intro_screen
     00003B68  A$intro_screen$431                 intro_screen
     00003B69  A$intro_screen$432                 intro_screen
     00003B6C  A$intro_screen$433                 intro_screen
     00003B6D  A$intro_screen$434                 intro_screen
     00003B6E  A$intro_screen$438                 intro_screen
     00003B6E  C$intro_screen.c$118$2_0$69        intro_screen
     00003B71  A$intro_screen$439                 intro_screen
     00003B72  A$intro_screen$440                 intro_screen
     00003B75  A$intro_screen$441                 intro_screen
     00003B76  A$intro_screen$442                 intro_screen
     00003B79  A$intro_screen$443                 intro_screen
     00003B7A  A$intro_screen$444                 intro_screen
     00003B7B  A$intro_screen$445                 intro_screen
ASxxxx Linker V03.00 + NoICE + sdld,  page 175.
Hexadecimal  [32-Bits]

Area                                    Addr        Size        Decimal Bytes (Attributes)
--------------------------------        ----        ----        ------- ----- ------------
_CODE                               00000200    0000636D =       25453. bytes (REL,CON)

      Value  Global                              Global Defined In Module
      -----  --------------------------------   ------------------------
     00003B7C  A$intro_screen$450                 intro_screen
     00003B7C  C$intro_screen.c$120$1_0$67        intro_screen
     00003B7F  A$intro_screen$451                 intro_screen
     00003B81  A$intro_screen$452                 intro_screen
     00003B82  A$intro_screen$456                 intro_screen
     00003B82  C$intro_screen.c$122$2_0$70        intro_screen
     00003B85  A$intro_screen$457                 intro_screen
     00003B86  A$intro_screen$458                 intro_screen
     00003B88  A$intro_screen$462                 intro_screen
     00003B88  C$intro_screen.c$124$3_0$71        intro_screen
     00003B8B  A$intro_screen$463                 intro_screen
     00003B8E  A$intro_screen$464                 intro_screen
     00003B8F  A$intro_screen$465                 intro_screen
     00003B91  A$intro_screen$466                 intro_screen
     00003B92  A$intro_screen$467                 intro_screen
     00003B93  A$intro_screen$468                 intro_screen
     00003B94  A$intro_screen$469                 intro_screen
     00003B95  A$intro_screen$470                 intro_screen
     00003B96  A$intro_screen$471                 intro_screen
     00003B99  A$intro_screen$472                 intro_screen
     00003B9A  A$intro_screen$473                 intro_screen
     00003B9B  A$intro_screen$474                 intro_screen
     00003B9E  A$intro_screen$475                 intro_screen
     00003B9F  A$intro_screen$476                 intro_screen
     00003BA0  A$intro_screen$480                 intro_screen
     00003BA0  C$intro_screen.c$125$3_0$71        intro_screen
     00003BA3  A$intro_screen$481                 intro_screen
     00003BA4  A$intro_screen$482                 intro_screen
     00003BA6  A$intro_screen$483                 intro_screen
     00003BA7  A$intro_screen$484                 intro_screen
     00003BAA  A$intro_screen$485                 intro_screen
     00003BAB  A$intro_screen$486                 intro_screen
     00003BAC  A$intro_screen$487                 intro_screen
     00003BAD  A$intro_screen$488                 intro_screen
     00003BAE  A$intro_screen$489                 intro_screen
     00003BB1  A$intro_screen$490                 intro_screen
     00003BB2  A$intro_screen$491                 intro_screen
     00003BB3  A$intro_screen$492                 intro_screen
     00003BB6  A$intro_screen$493                 intro_screen
     00003BB7  A$intro_screen$494                 intro_screen
     00003BB8  A$intro_screen$498                 intro_screen
     00003BB8  C$intro_screen.c$127$3_0$71        intro_screen
     00003BBC  A$intro_screen$499                 intro_screen
     00003BBF  A$intro_screen$503                 intro_screen
     00003BBF  C$intro_screen.c$128$3_0$71        intro_screen
     00003BC2  A$intro_screen$504                 intro_screen
     00003BC4  A$intro_screen$505                 intro_screen
     00003BC6  A$intro_screen$509                 intro_screen
     00003BC6  C$intro_screen.c$130$4_0$72        intro_screen
     00003BCA  A$intro_screen$514                 intro_screen
     00003BCA  C$intro_screen.c$134$2_0$70        intro_screen
ASxxxx Linker V03.00 + NoICE + sdld,  page 176.
Hexadecimal  [32-Bits]

Area                                    Addr        Size        Decimal Bytes (Attributes)
--------------------------------        ----        ----        ------- ----- ------------
_CODE                               00000200    0000636D =       25453. bytes (REL,CON)

      Value  Global                              Global Defined In Module
      -----  --------------------------------   ------------------------
     00003BCE  A$intro_screen$515                 intro_screen
     00003BD1  A$intro_screen$519                 intro_screen
     00003BD1  C$intro_screen.c$135$2_0$70        intro_screen
     00003BD4  A$intro_screen$520                 intro_screen
     00003BD6  A$intro_screen$521                 intro_screen
     00003BD7  A$intro_screen$525                 intro_screen
     00003BD7  C$intro_screen.c$137$3_0$73        intro_screen
     00003BDB  A$intro_screen$533                 intro_screen
     00003BDB  C$intro_screen.c$140$1_0$67        intro_screen
     00003BDB  XFintro_screen$update_text$0$0     intro_screen
     00003BDC  Fintro_screen$__str_1$0_0$0        intro_screen
     00003BEA  Fintro_screen$__str_2$0_0$0        intro_screen
     00003BFD  A$begin_screen$66                  begin_screen
     00003BFD  C$begin_screen.c$13$0_0$53         begin_screen
     00003BFD  C$begin_screen.c$18$1_0$53         begin_screen
     00003BFD  G$screen_begin_screen_load$0$0     begin_screen
     00003BFD  _screen_begin_screen_load          begin_screen
     00003C00  A$begin_screen$70                  begin_screen
     00003C00  C$begin_screen.c$19$1_0$53         begin_screen
     00003C03  A$begin_screen$74                  begin_screen
     00003C03  C$begin_screen.c$20$1_0$53         begin_screen
     00003C06  A$begin_screen$78                  begin_screen
     00003C06  C$begin_screen.c$22$1_0$53         begin_screen
     00003C09  A$begin_screen$82                  begin_screen
     00003C09  C$begin_screen.c$23$1_0$53         begin_screen
     00003C0C  A$begin_screen$86                  begin_screen
     00003C0C  C$begin_screen.c$24$1_0$53         begin_screen
     00003C0F  A$begin_screen$90                  begin_screen
     00003C11  A$begin_screen$95                  begin_screen
     00003C11  C$begin_screen.c$28$3_0$55         begin_screen
     00003C12  A$begin_screen$96                  begin_screen
     00003C15  A$begin_screen$97                  begin_screen
     00003C18  A$begin_screen$98                  begin_screen
     00003C19  A$begin_screen$99                  begin_screen
     00003C1A  A$begin_screen$100                 begin_screen
     00003C1D  A$begin_screen$101                 begin_screen
     00003C1E  A$begin_screen$102                 begin_screen
     00003C1F  A$begin_screen$103                 begin_screen
     00003C20  A$begin_screen$104                 begin_screen
     00003C21  A$begin_screen$105                 begin_screen
     00003C22  A$begin_screen$109                 begin_screen
     00003C22  C$begin_screen.c$29$3_0$55         begin_screen
     00003C23  A$begin_screen$110                 begin_screen
     00003C25  A$begin_screen$111                 begin_screen
     00003C26  A$begin_screen$112                 begin_screen
     00003C27  A$begin_screen$113                 begin_screen
     00003C28  A$begin_screen$114                 begin_screen
     00003C29  A$begin_screen$115                 begin_screen
     00003C2C  A$begin_screen$116                 begin_screen
     00003C2D  A$begin_screen$117                 begin_screen
     00003C2E  A$begin_screen$118                 begin_screen
ASxxxx Linker V03.00 + NoICE + sdld,  page 177.
Hexadecimal  [32-Bits]

Area                                    Addr        Size        Decimal Bytes (Attributes)
--------------------------------        ----        ----        ------- ----- ------------
_CODE                               00000200    0000636D =       25453. bytes (REL,CON)

      Value  Global                              Global Defined In Module
      -----  --------------------------------   ------------------------
     00003C31  A$begin_screen$119                 begin_screen
     00003C34  A$begin_screen$120                 begin_screen
     00003C35  A$begin_screen$121                 begin_screen
     00003C36  A$begin_screen$122                 begin_screen
     00003C39  A$begin_screen$123                 begin_screen
     00003C3A  A$begin_screen$124                 begin_screen
     00003C3B  A$begin_screen$125                 begin_screen
     00003C3C  A$begin_screen$126                 begin_screen
     00003C3D  A$begin_screen$127                 begin_screen
     00003C3E  A$begin_screen$131                 begin_screen
     00003C3E  C$begin_screen.c$31$3_0$55         begin_screen
     00003C3F  A$begin_screen$132                 begin_screen
     00003C41  A$begin_screen$133                 begin_screen
     00003C42  A$begin_screen$134                 begin_screen
     00003C43  A$begin_screen$135                 begin_screen
     00003C44  A$begin_screen$136                 begin_screen
     00003C45  A$begin_screen$137                 begin_screen
     00003C48  A$begin_screen$138                 begin_screen
     00003C49  A$begin_screen$139                 begin_screen
     00003C4A  A$begin_screen$140                 begin_screen
     00003C4B  A$begin_screen$144                 begin_screen
     00003C4B  C$begin_screen.c$26$2_0$54         begin_screen
     00003C4C  A$begin_screen$145                 begin_screen
     00003C4D  A$begin_screen$146                 begin_screen
     00003C4E  A$begin_screen$147                 begin_screen
     00003C50  A$begin_screen$148                 begin_screen
     00003C52  A$begin_screen$152                 begin_screen
     00003C52  C$begin_screen.c$34$1_0$53         begin_screen
     00003C55  A$begin_screen$153                 begin_screen
     00003C56  A$begin_screen$154                 begin_screen
     00003C59  A$begin_screen$155                 begin_screen
     00003C5A  A$begin_screen$156                 begin_screen
     00003C5D  A$begin_screen$157                 begin_screen
     00003C5E  A$begin_screen$158                 begin_screen
     00003C5F  A$begin_screen$169                 begin_screen
     00003C5F  C$begin_screen.c$35$1_0$53         begin_screen
     00003C5F  C$begin_screen.c$36$1_0$53         begin_screen
     00003C5F  XG$screen_begin_screen_load$0$0    begin_screen
     00003C62  Fbegin_screen$__str_0$0_0$0        begin_screen
     00003C67  A$begin_screen$186                 begin_screen
     00003C67  C$begin_screen.c$38$1_0$57         begin_screen
     00003C67  C$begin_screen.c$40$1_0$57         begin_screen
     00003C67  G$screen_begin_screen_update$0$0   begin_screen
     00003C67  _screen_begin_screen_update        begin_screen
     00003C68  A$begin_screen$187                 begin_screen
     00003C69  A$begin_screen$188                 begin_screen
     00003C6A  A$begin_screen$189                 begin_screen
     00003C6B  A$begin_screen$190                 begin_screen
     00003C6D  A$begin_screen$198                 begin_screen
     00003C6D  C$begin_screen.c$41$1_0$57         begin_screen
     00003C6D  XG$screen_begin_screen_update$0$   begin_screen
ASxxxx Linker V03.00 + NoICE + sdld,  page 178.
Hexadecimal  [32-Bits]

Area                                    Addr        Size        Decimal Bytes (Attributes)
--------------------------------        ----        ----        ------- ----- ------------
_CODE                               00000200    0000636D =       25453. bytes (REL,CON)

      Value  Global                              Global Defined In Module
      -----  --------------------------------   ------------------------
     00003C6E  A$title_screen$79                  title_screen
     00003C6E  C$title_screen.c$23$0_0$55         title_screen
     00003C6E  C$title_screen.c$25$1_0$55         title_screen
     00003C6E  C$title_screen.c$26$1_0$55         title_screen
     00003C6E  C$title_screen.c$27$1_0$55         title_screen
     00003C6E  G$screen_title_screen_load$0$0     title_screen
     00003C6E  _screen_title_screen_load          title_screen
     00003C71  A$title_screen$80                  title_screen
     00003C72  A$title_screen$81                  title_screen
     00003C75  A$title_screen$82                  title_screen
     00003C76  A$title_screen$86                  title_screen
     00003C76  C$title_screen.c$29$1_0$55         title_screen
     00003C79  A$title_screen$90                  title_screen
     00003C79  C$title_screen.c$30$1_0$55         title_screen
     00003C7C  A$title_screen$94                  title_screen
     00003C7C  C$title_screen.c$31$1_0$55         title_screen
     00003C7F  A$title_screen$95                  title_screen
     00003C80  A$title_screen$96                  title_screen
     00003C83  A$title_screen$97                  title_screen
     00003C84  A$title_screen$98                  title_screen
     00003C87  A$title_screen$99                  title_screen
     00003C88  A$title_screen$100                 title_screen
     00003C89  A$title_screen$104                 title_screen
     00003C89  C$title_screen.c$33$1_0$55         title_screen
     00003C8D  A$title_screen$105                 title_screen
     00003C91  A$title_screen$109                 title_screen
     00003C91  C$title_screen.c$34$1_0$55         title_screen
     00003C94  A$title_screen$110                 title_screen
     00003C96  A$title_screen$114                 title_screen
     00003C96  C$title_screen.c$35$1_0$55         title_screen
     00003C99  A$title_screen$115                 title_screen
     00003C9A  A$title_screen$119                 title_screen
     00003C9A  C$title_screen.c$37$2_0$56         title_screen
     00003C9D  A$title_screen$127                 title_screen
     00003C9D  C$title_screen.c$39$1_0$55         title_screen
     00003C9D  XG$screen_title_screen_load$0$0    title_screen
     00003C9E  Ftitle_screen$__str_0$0_0$0        title_screen
     00003CAA  A$title_screen$141                 title_screen
     00003CAA  C$title_screen.c$41$1_0$58         title_screen
     00003CAA  G$screen_title_screen_update$0$0   title_screen
     00003CAA  _screen_title_screen_update        title_screen
     00003CAC  A$title_screen$142                 title_screen
     00003CB0  A$title_screen$143                 title_screen
     00003CB2  A$title_screen$144                 title_screen
     00003CB3  A$title_screen$154                 title_screen
     00003CB3  C$title_screen.c$43$1_0$58         title_screen
     00003CB3  C$title_screen.c$44$1_0$58         title_screen
     00003CB3  C$title_screen.c$48$1_0$58         title_screen
     00003CB6  A$title_screen$155                 title_screen
     00003CB7  A$title_screen$156                 title_screen
     00003CB9  A$title_screen$160                 title_screen
ASxxxx Linker V03.00 + NoICE + sdld,  page 179.
Hexadecimal  [32-Bits]

Area                                    Addr        Size        Decimal Bytes (Attributes)
--------------------------------        ----        ----        ------- ----- ------------
_CODE                               00000200    0000636D =       25453. bytes (REL,CON)

      Value  Global                              Global Defined In Module
      -----  --------------------------------   ------------------------
     00003CB9  C$title_screen.c$50$2_0$59         title_screen
     00003CBC  A$title_screen$161                 title_screen
     00003CBD  A$title_screen$165                 title_screen
     00003CBD  C$title_screen.c$51$2_0$59         title_screen
     00003CBE  A$title_screen$166                 title_screen
     00003CC0  A$title_screen$170                 title_screen
     00003CC0  C$title_screen.c$53$3_0$60         title_screen
     00003CC4  A$title_screen$171                 title_screen
     00003CC7  A$title_screen$172                 title_screen
     00003CCA  A$title_screen$173                 title_screen
     00003CCC  A$title_screen$174                 title_screen
     00003CCD  A$title_screen$175                 title_screen
     00003CCE  A$title_screen$179                 title_screen
     00003CCE  C$title_screen.c$54$3_0$60         title_screen
     00003CD1  A$title_screen$180                 title_screen
     00003CD2  A$title_screen$181                 title_screen
     00003CD4  A$title_screen$185                 title_screen
     00003CD4  C$title_screen.c$56$4_0$61         title_screen
     00003CD6  A$title_screen$186                 title_screen
     00003CD7  A$title_screen$187                 title_screen
     00003CD8  A$title_screen$188                 title_screen
     00003CD9  A$title_screen$189                 title_screen
     00003CDA  A$title_screen$190                 title_screen
     00003CDB  A$title_screen$191                 title_screen
     00003CDE  A$title_screen$192                 title_screen
     00003CDF  A$title_screen$193                 title_screen
     00003CE2  A$title_screen$194                 title_screen
     00003CE3  A$title_screen$195                 title_screen
     00003CE4  A$title_screen$196                 title_screen
     00003CE6  A$title_screen$201                 title_screen
     00003CE6  C$title_screen.c$60$4_0$62         title_screen
     00003CE9  A$title_screen$202                 title_screen
     00003CEA  A$title_screen$203                 title_screen
     00003CED  A$title_screen$204                 title_screen
     00003CEE  A$title_screen$205                 title_screen
     00003CF1  A$title_screen$206                 title_screen
     00003CF2  A$title_screen$207                 title_screen
     00003CF3  A$title_screen$212                 title_screen
     00003CF3  C$title_screen.c$65$1_0$58         title_screen
     00003CF6  A$title_screen$216                 title_screen
     00003CF6  C$title_screen.c$69$1_0$58         title_screen
     00003CF9  A$title_screen$217                 title_screen
     00003CFC  A$title_screen$218                 title_screen
     00003CFF  A$title_screen$219                 title_screen
     00003D02  A$title_screen$223                 title_screen
     00003D02  C$title_screen.c$66$1_0$58         title_screen
     00003D03  A$title_screen$224                 title_screen
     00003D04  A$title_screen$225                 title_screen
     00003D06  A$title_screen$229                 title_screen
     00003D06  C$title_screen.c$68$2_0$63         title_screen
     00003D09  A$title_screen$233                 title_screen
ASxxxx Linker V03.00 + NoICE + sdld,  page 180.
Hexadecimal  [32-Bits]

Area                                    Addr        Size        Decimal Bytes (Attributes)
--------------------------------        ----        ----        ------- ----- ------------
_CODE                               00000200    0000636D =       25453. bytes (REL,CON)

      Value  Global                              Global Defined In Module
      -----  --------------------------------   ------------------------
     00003D09  C$title_screen.c$69$2_0$63         title_screen
     00003D0A  A$title_screen$234                 title_screen
     00003D0B  A$title_screen$235                 title_screen
     00003D0D  A$title_screen$239                 title_screen
     00003D0D  C$title_screen.c$70$2_0$63         title_screen
     00003D0F  A$title_screen$244                 title_screen
     00003D0F  C$title_screen.c$73$1_0$58         title_screen
     00003D12  A$title_screen$245                 title_screen
     00003D13  A$title_screen$249                 title_screen
     00003D13  C$title_screen.c$74$1_0$58         title_screen
     00003D14  A$title_screen$250                 title_screen
     00003D16  A$title_screen$254                 title_screen
     00003D16  C$title_screen.c$76$2_0$64         title_screen
     00003D19  A$title_screen$255                 title_screen
     00003D1A  A$title_screen$256                 title_screen
     00003D1C  A$title_screen$257                 title_screen
     00003D1F  A$title_screen$258                 title_screen
     00003D20  A$title_screen$259                 title_screen
     00003D22  A$title_screen$263                 title_screen
     00003D22  C$title_screen.c$78$3_0$65         title_screen
     00003D26  A$title_screen$264                 title_screen
     00003D29  A$title_screen$268                 title_screen
     00003D29  C$title_screen.c$79$3_0$65         title_screen
     00003D2C  A$title_screen$269                 title_screen
     00003D2E  A$title_screen$270                 title_screen
     00003D30  A$title_screen$274                 title_screen
     00003D30  C$title_screen.c$81$4_0$66         title_screen
     00003D33  A$title_screen$278                 title_screen
     00003D33  C$title_screen.c$82$4_0$66         title_screen
     00003D36  A$title_screen$282                 title_screen
     00003D36  C$title_screen.c$83$4_0$66         title_screen
     00003D39  A$title_screen$283                 title_screen
     00003D3B  A$title_screen$288                 title_screen
     00003D3B  C$title_screen.c$88$1_0$58         title_screen
     00003D3E  A$title_screen$292                 title_screen
     00003D3E  C$title_screen.c$89$1_0$58         title_screen
     00003D3F  A$title_screen$293                 title_screen
     00003D40  A$title_screen$294                 title_screen
     00003D42  A$title_screen$299                 title_screen
     00003D44  A$title_screen$300                 title_screen
     00003D46  A$title_screen$305                 title_screen
     00003D46  C$title_screen.c$90$1_0$58         title_screen
     00003D46  XG$screen_title_screen_update$0$   title_screen
     00003D47  Ftitle_screen$__str_1$0_0$0        title_screen
     00003D68  Ftitle_screen$__str_2$0_0$0        title_screen
     00003D74  A$entry_screen$69                  entry_screen
     00003D74  C$entry_screen.c$24$0_0$16         entry_screen
     00003D74  C$entry_screen.c$26$1_0$16         entry_screen
     00003D74  G$screen_entry_screen_load$0$0     entry_screen
     00003D74  _screen_entry_screen_load          entry_screen
     00003D77  A$entry_screen$73                  entry_screen
ASxxxx Linker V03.00 + NoICE + sdld,  page 181.
Hexadecimal  [32-Bits]

Area                                    Addr        Size        Decimal Bytes (Attributes)
--------------------------------        ----        ----        ------- ----- ------------
_CODE                               00000200    0000636D =       25453. bytes (REL,CON)

      Value  Global                              Global Defined In Module
      -----  --------------------------------   ------------------------
     00003D77  C$entry_screen.c$27$1_0$16         entry_screen
     00003D7A  A$entry_screen$74                  entry_screen
     00003D7B  A$entry_screen$75                  entry_screen
     00003D7E  A$entry_screen$76                  entry_screen
     00003D7F  A$entry_screen$77                  entry_screen
     00003D82  A$entry_screen$78                  entry_screen
     00003D83  A$entry_screen$79                  entry_screen
     00003D84  A$entry_screen$83                  entry_screen
     00003D84  C$entry_screen.c$28$1_0$16         entry_screen
     00003D87  A$entry_screen$84                  entry_screen
     00003D88  A$entry_screen$85                  entry_screen
     00003D8B  A$entry_screen$86                  entry_screen
     00003D8C  A$entry_screen$87                  entry_screen
     00003D8F  A$entry_screen$88                  entry_screen
     00003D90  A$entry_screen$89                  entry_screen
     00003D91  A$entry_screen$93                  entry_screen
     00003D91  C$entry_screen.c$29$1_0$16         entry_screen
     00003D94  A$entry_screen$94                  entry_screen
     00003D95  A$entry_screen$95                  entry_screen
     00003D98  A$entry_screen$96                  entry_screen
     00003D99  A$entry_screen$97                  entry_screen
     00003D9C  A$entry_screen$98                  entry_screen
     00003D9D  A$entry_screen$99                  entry_screen
     00003D9E  A$entry_screen$103                 entry_screen
     00003D9E  C$entry_screen.c$31$1_0$16         entry_screen
     00003DA1  A$entry_screen$107                 entry_screen
     00003DA1  C$entry_screen.c$32$1_0$16         entry_screen
     00003DA3  A$entry_screen$108                 entry_screen
     00003DA6  A$entry_screen$116                 entry_screen
     00003DA6  C$entry_screen.c$33$1_0$16         entry_screen
     00003DA6  XG$screen_entry_screen_load$0$0    entry_screen
     00003DA7  Fentry_screen$__str_0$0_0$0        entry_screen
     00003DB8  Fentry_screen$__str_1$0_0$0        entry_screen
     00003DC1  Fentry_screen$__str_2$0_0$0        entry_screen
     00003DCA  A$entry_screen$138                 entry_screen
     00003DCA  C$entry_screen.c$35$1_0$18         entry_screen
     00003DCA  G$screen_entry_screen_update$0$0   entry_screen
     00003DCA  _screen_entry_screen_update        entry_screen
     00003DCC  A$entry_screen$139                 entry_screen
     00003DD0  A$entry_screen$140                 entry_screen
     00003DD2  A$entry_screen$141                 entry_screen
     00003DD5  A$entry_screen$142                 entry_screen
     00003DD6  A$entry_screen$143                 entry_screen
     00003DD7  A$entry_screen$150                 entry_screen
     00003DD7  C$entry_screen.c$37$1_0$18         entry_screen
     00003DD7  C$entry_screen.c$38$1_0$18         entry_screen
     00003DDA  A$entry_screen$151                 entry_screen
     00003DDB  A$entry_screen$152                 entry_screen
     00003DDC  A$entry_screen$153                 entry_screen
     00003DDD  A$entry_screen$154                 entry_screen
     00003DDE  A$entry_screen$155                 entry_screen
ASxxxx Linker V03.00 + NoICE + sdld,  page 182.
Hexadecimal  [32-Bits]

Area                                    Addr        Size        Decimal Bytes (Attributes)
--------------------------------        ----        ----        ------- ----- ------------
_CODE                               00000200    0000636D =       25453. bytes (REL,CON)

      Value  Global                              Global Defined In Module
      -----  --------------------------------   ------------------------
     00003DDF  A$entry_screen$156                 entry_screen
     00003DE0  A$entry_screen$157                 entry_screen
     00003DE1  A$entry_screen$158                 entry_screen
     00003DE2  A$entry_screen$159                 entry_screen
     00003DE3  A$entry_screen$160                 entry_screen
     00003DE4  A$entry_screen$161                 entry_screen
     00003DE6  A$entry_screen$162                 entry_screen
     00003DE9  A$entry_screen$163                 entry_screen
     00003DEA  A$entry_screen$164                 entry_screen
     00003DED  A$entry_screen$165                 entry_screen
     00003DF0  A$entry_screen$166                 entry_screen
     00003DF2  A$entry_screen$167                 entry_screen
     00003DF3  A$entry_screen$168                 entry_screen
     00003DF4  A$entry_screen$169                 entry_screen
     00003DF5  A$entry_screen$170                 entry_screen
     00003DF6  A$entry_screen$171                 entry_screen
     00003DF7  A$entry_screen$172                 entry_screen
     00003DF8  A$entry_screen$173                 entry_screen
     00003DF9  A$entry_screen$177                 entry_screen
     00003DF9  C$entry_screen.c$40$1_0$18         entry_screen
     00003DFA  A$entry_screen$178                 entry_screen
     00003DFB  A$entry_screen$179                 entry_screen
     00003DFE  A$entry_screen$180                 entry_screen
     00003DFF  A$entry_screen$181                 entry_screen
     00003E00  A$entry_screen$182                 entry_screen
     00003E01  A$entry_screen$183                 entry_screen
     00003E02  A$entry_screen$187                 entry_screen
     00003E02  C$entry_screen.c$41$1_0$18         entry_screen
     00003E03  A$entry_screen$188                 entry_screen
     00003E04  A$entry_screen$189                 entry_screen
     00003E07  A$entry_screen$190                 entry_screen
     00003E08  A$entry_screen$191                 entry_screen
     00003E09  A$entry_screen$192                 entry_screen
     00003E0A  A$entry_screen$193                 entry_screen
     00003E0B  A$entry_screen$194                 entry_screen
     00003E0C  A$entry_screen$195                 entry_screen
     00003E0D  A$entry_screen$199                 entry_screen
     00003E0D  C$entry_screen.c$42$1_0$18         entry_screen
     00003E0E  A$entry_screen$200                 entry_screen
     00003E0F  A$entry_screen$201                 entry_screen
     00003E11  A$entry_screen$202                 entry_screen
     00003E12  A$entry_screen$203                 entry_screen
     00003E13  A$entry_screen$204                 entry_screen
     00003E14  A$entry_screen$205                 entry_screen
     00003E15  A$entry_screen$206                 entry_screen
     00003E17  A$entry_screen$211                 entry_screen
     00003E17  C$entry_screen.c$44$2_0$19         entry_screen
     00003E1A  A$entry_screen$212                 entry_screen
     00003E1B  A$entry_screen$213                 entry_screen
     00003E1D  A$entry_screen$214                 entry_screen
     00003E1E  A$entry_screen$215                 entry_screen
ASxxxx Linker V03.00 + NoICE + sdld,  page 183.
Hexadecimal  [32-Bits]

Area                                    Addr        Size        Decimal Bytes (Attributes)
--------------------------------        ----        ----        ------- ----- ------------
_CODE                               00000200    0000636D =       25453. bytes (REL,CON)

      Value  Global                              Global Defined In Module
      -----  --------------------------------   ------------------------
     00003E1F  A$entry_screen$219                 entry_screen
     00003E1F  C$entry_screen.c$45$2_0$19         entry_screen
     00003E20  A$entry_screen$220                 entry_screen
     00003E23  A$entry_screen$221                 entry_screen
     00003E24  A$entry_screen$226                 entry_screen
     00003E24  C$entry_screen.c$48$1_0$18         entry_screen
     00003E25  A$entry_screen$227                 entry_screen
     00003E28  A$entry_screen$228                 entry_screen
     00003E2B  A$entry_screen$229                 entry_screen
     00003E2C  A$entry_screen$230                 entry_screen
     00003E2F  A$entry_screen$231                 entry_screen
     00003E32  A$entry_screen$232                 entry_screen
     00003E35  A$entry_screen$233                 entry_screen
     00003E36  A$entry_screen$237                 entry_screen
     00003E36  C$entry_screen.c$52$1_0$18         entry_screen
     00003E39  A$entry_screen$238                 entry_screen
     00003E3C  A$entry_screen$242                 entry_screen
     00003E3C  C$entry_screen.c$49$1_0$18         entry_screen
     00003E3F  A$entry_screen$243                 entry_screen
     00003E40  A$entry_screen$244                 entry_screen
     00003E42  A$entry_screen$248                 entry_screen
     00003E42  C$entry_screen.c$51$2_0$20         entry_screen
     00003E43  A$entry_screen$249                 entry_screen
     00003E46  A$entry_screen$250                 entry_screen
     00003E47  A$entry_screen$254                 entry_screen
     00003E47  C$entry_screen.c$52$2_0$20         entry_screen
     00003E49  A$entry_screen$255                 entry_screen
     00003E4A  A$entry_screen$259                 entry_screen
     00003E4A  C$entry_screen.c$53$2_0$20         entry_screen
     00003E4C  A$entry_screen$264                 entry_screen
     00003E4C  C$entry_screen.c$56$1_0$18         entry_screen
     00003E4D  A$entry_screen$265                 entry_screen
     00003E4E  A$entry_screen$266                 entry_screen
     00003E51  A$entry_screen$267                 entry_screen
     00003E52  A$entry_screen$268                 entry_screen
     00003E53  A$entry_screen$269                 entry_screen
     00003E54  A$entry_screen$270                 entry_screen
     00003E55  A$entry_screen$274                 entry_screen
     00003E55  C$entry_screen.c$57$1_0$18         entry_screen
     00003E56  A$entry_screen$275                 entry_screen
     00003E58  A$entry_screen$279                 entry_screen
     00003E58  C$entry_screen.c$59$2_0$21         entry_screen
     00003E5A  A$entry_screen$280                 entry_screen
     00003E5B  A$entry_screen$284                 entry_screen
     00003E5B  C$entry_screen.c$60$2_0$21         entry_screen
     00003E5D  A$entry_screen$289                 entry_screen
     00003E5D  C$entry_screen.c$63$1_0$18         entry_screen
     00003E5F  A$entry_screen$290                 entry_screen
     00003E60  A$entry_screen$295                 entry_screen
     00003E62  A$entry_screen$296                 entry_screen
     00003E64  A$entry_screen$301                 entry_screen
ASxxxx Linker V03.00 + NoICE + sdld,  page 184.
Hexadecimal  [32-Bits]

Area                                    Addr        Size        Decimal Bytes (Attributes)
--------------------------------        ----        ----        ------- ----- ------------
_CODE                               00000200    0000636D =       25453. bytes (REL,CON)

      Value  Global                              Global Defined In Module
      -----  --------------------------------   ------------------------
     00003E64  C$entry_screen.c$64$1_0$18         entry_screen
     00003E64  XG$screen_entry_screen_update$0$   entry_screen
     00003E65  A$entry_screen$317                 entry_screen
     00003E65  C$entry_screen.c$66$1_0$22         entry_screen
     00003E65  C$entry_screen.c$68$1_0$22         entry_screen
     00003E65  C$entry_screen.c$69$1_0$22         entry_screen
     00003E65  Fentry_screen$display_cursor$0$0   entry_screen
     00003E68  A$entry_screen$318                 entry_screen
     00003E69  A$entry_screen$319                 entry_screen
     00003E6C  A$entry_screen$320                 entry_screen
     00003E6D  A$entry_screen$321                 entry_screen
     00003E70  A$entry_screen$322                 entry_screen
     00003E71  A$entry_screen$323                 entry_screen
     00003E72  A$entry_screen$327                 entry_screen
     00003E72  C$entry_screen.c$70$1_0$22         entry_screen
     00003E75  A$entry_screen$328                 entry_screen
     00003E76  A$entry_screen$329                 entry_screen
     00003E79  A$entry_screen$330                 entry_screen
     00003E7A  A$entry_screen$331                 entry_screen
     00003E7D  A$entry_screen$332                 entry_screen
     00003E7E  A$entry_screen$333                 entry_screen
     00003E7F  A$entry_screen$337                 entry_screen
     00003E7F  C$entry_screen.c$71$1_0$22         entry_screen
     00003E82  A$entry_screen$338                 entry_screen
     00003E85  A$entry_screen$339                 entry_screen
     00003E86  A$entry_screen$340                 entry_screen
     00003E88  A$entry_screen$341                 entry_screen
     00003E89  A$entry_screen$342                 entry_screen
     00003E8A  A$entry_screen$343                 entry_screen
     00003E8B  A$entry_screen$344                 entry_screen
     00003E8C  A$entry_screen$345                 entry_screen
     00003E8D  A$entry_screen$346                 entry_screen
     00003E8E  A$entry_screen$347                 entry_screen
     00003E8F  A$entry_screen$348                 entry_screen
     00003E91  A$entry_screen$349                 entry_screen
     00003E92  A$entry_screen$350                 entry_screen
     00003E95  A$entry_screen$351                 entry_screen
     00003E96  A$entry_screen$352                 entry_screen
     00003E99  A$entry_screen$353                 entry_screen
     00003E9A  A$entry_screen$354                 entry_screen
     00003E9B  A$entry_screen$362                 entry_screen
     00003E9B  C$entry_screen.c$72$1_0$22         entry_screen
     00003E9B  XFentry_screen$display_cursor$0$   entry_screen
     00003E9C  Fentry_screen$__str_3$0_0$0        entry_screen
     00003E9F  Fentry_screen$__str_4$0_0$0        entry_screen
     00003EA2  A$diff_screen$70                   diff_screen
     00003EA2  C$diff_screen.c$20$0_0$8           diff_screen
     00003EA2  C$diff_screen.c$22$1_0$8           diff_screen
     00003EA2  G$screen_diff_screen_load$0$0      diff_screen
     00003EA2  _screen_diff_screen_load           diff_screen
     00003EA5  A$diff_screen$74                   diff_screen
ASxxxx Linker V03.00 + NoICE + sdld,  page 185.
Hexadecimal  [32-Bits]

Area                                    Addr        Size        Decimal Bytes (Attributes)
--------------------------------        ----        ----        ------- ----- ------------
_CODE                               00000200    0000636D =       25453. bytes (REL,CON)

      Value  Global                              Global Defined In Module
      -----  --------------------------------   ------------------------
     00003EA5  C$diff_screen.c$23$1_0$8           diff_screen
     00003EA8  A$diff_screen$75                   diff_screen
     00003EA9  A$diff_screen$76                   diff_screen
     00003EAC  A$diff_screen$77                   diff_screen
     00003EAD  A$diff_screen$78                   diff_screen
     00003EB0  A$diff_screen$79                   diff_screen
     00003EB1  A$diff_screen$80                   diff_screen
     00003EB2  A$diff_screen$84                   diff_screen
     00003EB2  C$diff_screen.c$24$1_0$8           diff_screen
     00003EB5  A$diff_screen$85                   diff_screen
     00003EB6  A$diff_screen$86                   diff_screen
     00003EB9  A$diff_screen$87                   diff_screen
     00003EBA  A$diff_screen$88                   diff_screen
     00003EBD  A$diff_screen$89                   diff_screen
     00003EBE  A$diff_screen$90                   diff_screen
     00003EBF  A$diff_screen$94                   diff_screen
     00003EBF  C$diff_screen.c$25$1_0$8           diff_screen
     00003EC2  A$diff_screen$95                   diff_screen
     00003EC3  A$diff_screen$96                   diff_screen
     00003EC6  A$diff_screen$97                   diff_screen
     00003EC7  A$diff_screen$98                   diff_screen
     00003ECA  A$diff_screen$99                   diff_screen
     00003ECB  A$diff_screen$100                  diff_screen
     00003ECC  A$diff_screen$104                  diff_screen
     00003ECC  C$diff_screen.c$27$1_0$8           diff_screen
     00003ECF  A$diff_screen$108                  diff_screen
     00003ECF  C$diff_screen.c$28$1_0$8           diff_screen
     00003ED1  A$diff_screen$109                  diff_screen
     00003ED4  A$diff_screen$117                  diff_screen
     00003ED4  C$diff_screen.c$29$1_0$8           diff_screen
     00003ED4  XG$screen_diff_screen_load$0$0     diff_screen
     00003ED5  Fdiff_screen$__str_0$0_0$0         diff_screen
     00003EE7  Fdiff_screen$__str_1$0_0$0         diff_screen
     00003EEC  Fdiff_screen$__str_2$0_0$0         diff_screen
     00003EF1  A$diff_screen$139                  diff_screen
     00003EF1  C$diff_screen.c$31$1_0$10          diff_screen
     00003EF1  G$screen_diff_screen_update$0$0    diff_screen
     00003EF1  _screen_diff_screen_update         diff_screen
     00003EF3  A$diff_screen$140                  diff_screen
     00003EF7  A$diff_screen$141                  diff_screen
     00003EF9  A$diff_screen$142                  diff_screen
     00003EFC  A$diff_screen$143                  diff_screen
     00003EFD  A$diff_screen$144                  diff_screen
     00003EFE  A$diff_screen$151                  diff_screen
     00003EFE  C$diff_screen.c$33$1_0$10          diff_screen
     00003EFE  C$diff_screen.c$34$1_0$10          diff_screen
     00003F01  A$diff_screen$152                  diff_screen
     00003F02  A$diff_screen$153                  diff_screen
     00003F03  A$diff_screen$154                  diff_screen
     00003F04  A$diff_screen$155                  diff_screen
     00003F05  A$diff_screen$156                  diff_screen
ASxxxx Linker V03.00 + NoICE + sdld,  page 186.
Hexadecimal  [32-Bits]

Area                                    Addr        Size        Decimal Bytes (Attributes)
--------------------------------        ----        ----        ------- ----- ------------
_CODE                               00000200    0000636D =       25453. bytes (REL,CON)

      Value  Global                              Global Defined In Module
      -----  --------------------------------   ------------------------
     00003F06  A$diff_screen$157                  diff_screen
     00003F07  A$diff_screen$158                  diff_screen
     00003F08  A$diff_screen$159                  diff_screen
     00003F09  A$diff_screen$160                  diff_screen
     00003F0A  A$diff_screen$161                  diff_screen
     00003F0D  A$diff_screen$162                  diff_screen
     00003F0E  A$diff_screen$163                  diff_screen
     00003F11  A$diff_screen$164                  diff_screen
     00003F14  A$diff_screen$165                  diff_screen
     00003F16  A$diff_screen$166                  diff_screen
     00003F19  A$diff_screen$167                  diff_screen
     00003F1A  A$diff_screen$168                  diff_screen
     00003F1D  A$diff_screen$169                  diff_screen
     00003F20  A$diff_screen$170                  diff_screen
     00003F22  A$diff_screen$171                  diff_screen
     00003F25  A$diff_screen$172                  diff_screen
     00003F26  A$diff_screen$173                  diff_screen
     00003F29  A$diff_screen$174                  diff_screen
     00003F2C  A$diff_screen$175                  diff_screen
     00003F2E  A$diff_screen$179                  diff_screen
     00003F2E  C$diff_screen.c$36$1_0$10          diff_screen
     00003F2F  A$diff_screen$180                  diff_screen
     00003F30  A$diff_screen$181                  diff_screen
     00003F33  A$diff_screen$182                  diff_screen
     00003F34  A$diff_screen$183                  diff_screen
     00003F35  A$diff_screen$184                  diff_screen
     00003F36  A$diff_screen$185                  diff_screen
     00003F37  A$diff_screen$189                  diff_screen
     00003F37  C$diff_screen.c$37$1_0$10          diff_screen
     00003F38  A$diff_screen$190                  diff_screen
     00003F39  A$diff_screen$191                  diff_screen
     00003F3C  A$diff_screen$192                  diff_screen
     00003F3D  A$diff_screen$193                  diff_screen
     00003F3E  A$diff_screen$194                  diff_screen
     00003F3F  A$diff_screen$195                  diff_screen
     00003F40  A$diff_screen$199                  diff_screen
     00003F40  C$diff_screen.c$38$1_0$10          diff_screen
     00003F41  A$diff_screen$200                  diff_screen
     00003F42  A$diff_screen$201                  diff_screen
     00003F44  A$diff_screen$202                  diff_screen
     00003F45  A$diff_screen$203                  diff_screen
     00003F46  A$diff_screen$204                  diff_screen
     00003F48  A$diff_screen$209                  diff_screen
     00003F48  C$diff_screen.c$40$2_0$11          diff_screen
     00003F4B  A$diff_screen$210                  diff_screen
     00003F4C  A$diff_screen$211                  diff_screen
     00003F4E  A$diff_screen$212                  diff_screen
     00003F4F  A$diff_screen$213                  diff_screen
     00003F50  A$diff_screen$217                  diff_screen
     00003F50  C$diff_screen.c$41$2_0$11          diff_screen
     00003F53  A$diff_screen$222                  diff_screen
ASxxxx Linker V03.00 + NoICE + sdld,  page 187.
Hexadecimal  [32-Bits]

Area                                    Addr        Size        Decimal Bytes (Attributes)
--------------------------------        ----        ----        ------- ----- ------------
_CODE                               00000200    0000636D =       25453. bytes (REL,CON)

      Value  Global                              Global Defined In Module
      -----  --------------------------------   ------------------------
     00003F53  C$diff_screen.c$44$1_0$10          diff_screen
     00003F56  A$diff_screen$223                  diff_screen
     00003F57  A$diff_screen$224                  diff_screen
     00003F5A  A$diff_screen$225                  diff_screen
     00003F5D  A$diff_screen$226                  diff_screen
     00003F5E  A$diff_screen$230                  diff_screen
     00003F5E  C$diff_screen.c$45$1_0$10          diff_screen
     00003F5F  A$diff_screen$231                  diff_screen
     00003F61  A$diff_screen$235                  diff_screen
     00003F61  C$diff_screen.c$47$2_0$12          diff_screen
     00003F64  A$diff_screen$239                  diff_screen
     00003F64  C$diff_screen.c$48$2_0$12          diff_screen
     00003F67  A$diff_screen$240                  diff_screen
     00003F6A  A$diff_screen$241                  diff_screen
     00003F6C  A$diff_screen$245                  diff_screen
     00003F6C  C$diff_screen.c$49$2_0$12          diff_screen
     00003F6E  A$diff_screen$250                  diff_screen
     00003F6E  C$diff_screen.c$53$1_0$10          diff_screen
     00003F71  A$diff_screen$251                  diff_screen
     00003F72  A$diff_screen$252                  diff_screen
     00003F74  A$diff_screen$256                  diff_screen
     00003F74  C$diff_screen.c$55$2_0$13          diff_screen
     00003F77  A$diff_screen$257                  diff_screen
     00003F78  A$diff_screen$258                  diff_screen
     00003F7B  A$diff_screen$259                  diff_screen
     00003F7E  A$diff_screen$260                  diff_screen
     00003F7F  A$diff_screen$264                  diff_screen
     00003F7F  C$diff_screen.c$56$2_0$13          diff_screen
     00003F80  A$diff_screen$265                  diff_screen
     00003F82  A$diff_screen$269                  diff_screen
     00003F82  C$diff_screen.c$58$3_0$14          diff_screen
     00003F85  A$diff_screen$270                  diff_screen
     00003F86  A$diff_screen$271                  diff_screen
     00003F89  A$diff_screen$272                  diff_screen
     00003F8C  A$diff_screen$273                  diff_screen
     00003F8D  A$diff_screen$277                  diff_screen
     00003F8D  C$diff_screen.c$59$3_0$14          diff_screen
     00003F8E  A$diff_screen$278                  diff_screen
     00003F90  A$diff_screen$282                  diff_screen
     00003F90  C$diff_screen.c$61$4_0$15          diff_screen
     00003F94  A$diff_screen$283                  diff_screen
     00003F97  A$diff_screen$287                  diff_screen
     00003F97  C$diff_screen.c$62$4_0$15          diff_screen
     00003F9A  A$diff_screen$288                  diff_screen
     00003F9C  A$diff_screen$289                  diff_screen
     00003F9E  A$diff_screen$293                  diff_screen
     00003F9E  C$diff_screen.c$64$5_0$16          diff_screen
     00003FA1  A$diff_screen$294                  diff_screen
     00003FA4  A$diff_screen$295                  diff_screen
     00003FA6  A$diff_screen$302                  diff_screen
     00003FA6  C$diff_screen.c$65$5_0$16          diff_screen
ASxxxx Linker V03.00 + NoICE + sdld,  page 188.
Hexadecimal  [32-Bits]

Area                                    Addr        Size        Decimal Bytes (Attributes)
--------------------------------        ----        ----        ------- ----- ------------
_CODE                               00000200    0000636D =       25453. bytes (REL,CON)

      Value  Global                              Global Defined In Module
      -----  --------------------------------   ------------------------
     00003FA6  C$diff_screen.c$69$3_0$14          diff_screen
     00003FA8  A$diff_screen$307                  diff_screen
     00003FA8  C$diff_screen.c$73$1_0$10          diff_screen
     00003FAB  A$diff_screen$308                  diff_screen
     00003FAC  A$diff_screen$309                  diff_screen
     00003FAF  A$diff_screen$310                  diff_screen
     00003FB2  A$diff_screen$311                  diff_screen
     00003FB3  A$diff_screen$315                  diff_screen
     00003FB3  C$diff_screen.c$48$1_0$10          diff_screen
     00003FB6  A$diff_screen$316                  diff_screen
     00003FB9  A$diff_screen$320                  diff_screen
     00003FB9  C$diff_screen.c$74$1_0$10          diff_screen
     00003FBA  A$diff_screen$321                  diff_screen
     00003FBB  A$diff_screen$322                  diff_screen
     00003FBD  A$diff_screen$326                  diff_screen
     00003FBD  C$diff_screen.c$76$2_0$17          diff_screen
     00003FBF  A$diff_screen$330                  diff_screen
     00003FBF  C$diff_screen.c$77$2_0$17          diff_screen
     00003FC1  A$diff_screen$335                  diff_screen
     00003FC1  C$diff_screen.c$80$1_0$10          diff_screen
     00003FC3  A$diff_screen$340                  diff_screen
     00003FC5  A$diff_screen$341                  diff_screen
     00003FC7  A$diff_screen$346                  diff_screen
     00003FC7  C$diff_screen.c$81$1_0$10          diff_screen
     00003FC7  XG$screen_diff_screen_update$0$0   diff_screen
     00003FC8  A$diff_screen$362                  diff_screen
     00003FC8  C$diff_screen.c$83$1_0$18          diff_screen
     00003FC8  C$diff_screen.c$85$1_0$18          diff_screen
     00003FC8  C$diff_screen.c$86$1_0$18          diff_screen
     00003FC8  Fdiff_screen$display_cursor$0$0    diff_screen
     00003FCB  A$diff_screen$363                  diff_screen
     00003FCC  A$diff_screen$364                  diff_screen
     00003FCF  A$diff_screen$365                  diff_screen
     00003FD0  A$diff_screen$366                  diff_screen
     00003FD3  A$diff_screen$367                  diff_screen
     00003FD4  A$diff_screen$368                  diff_screen
     00003FD5  A$diff_screen$372                  diff_screen
     00003FD5  C$diff_screen.c$87$1_0$18          diff_screen
     00003FD8  A$diff_screen$373                  diff_screen
     00003FD9  A$diff_screen$374                  diff_screen
     00003FDC  A$diff_screen$375                  diff_screen
     00003FDD  A$diff_screen$376                  diff_screen
     00003FE0  A$diff_screen$377                  diff_screen
     00003FE1  A$diff_screen$378                  diff_screen
     00003FE2  A$diff_screen$382                  diff_screen
     00003FE2  C$diff_screen.c$88$1_0$18          diff_screen
     00003FE5  A$diff_screen$383                  diff_screen
     00003FE8  A$diff_screen$384                  diff_screen
     00003FE9  A$diff_screen$385                  diff_screen
     00003FEB  A$diff_screen$386                  diff_screen
     00003FEC  A$diff_screen$387                  diff_screen
ASxxxx Linker V03.00 + NoICE + sdld,  page 189.
Hexadecimal  [32-Bits]

Area                                    Addr        Size        Decimal Bytes (Attributes)
--------------------------------        ----        ----        ------- ----- ------------
_CODE                               00000200    0000636D =       25453. bytes (REL,CON)

      Value  Global                              Global Defined In Module
      -----  --------------------------------   ------------------------
     00003FED  A$diff_screen$388                  diff_screen
     00003FEF  A$diff_screen$389                  diff_screen
     00003FF0  A$diff_screen$390                  diff_screen
     00003FF1  A$diff_screen$391                  diff_screen
     00003FF2  A$diff_screen$392                  diff_screen
     00003FF3  A$diff_screen$393                  diff_screen
     00003FF6  A$diff_screen$394                  diff_screen
     00003FF7  A$diff_screen$395                  diff_screen
     00003FFA  A$diff_screen$396                  diff_screen
     00003FFB  A$diff_screen$397                  diff_screen
     00003FFC  A$diff_screen$405                  diff_screen
     00003FFC  C$diff_screen.c$89$1_0$18          diff_screen
     00003FFC  XFdiff_screen$display_cursor$0$0   diff_screen
     00003FFD  Fdiff_screen$__str_3$0_0$0         diff_screen
     00004000  Fdiff_screen$__str_4$0_0$0         diff_screen
     00004003  A$pace_screen$66                   pace_screen
     00004003  C$pace_screen.c$19$0_0$8           pace_screen
     00004003  C$pace_screen.c$21$1_0$8           pace_screen
     00004003  G$screen_pace_screen_load$0$0      pace_screen
     00004003  _screen_pace_screen_load           pace_screen
     00004006  A$pace_screen$70                   pace_screen
     00004006  C$pace_screen.c$22$1_0$8           pace_screen
     00004009  A$pace_screen$71                   pace_screen
     0000400A  A$pace_screen$72                   pace_screen
     0000400D  A$pace_screen$73                   pace_screen
     0000400E  A$pace_screen$74                   pace_screen
     00004011  A$pace_screen$75                   pace_screen
     00004012  A$pace_screen$76                   pace_screen
     00004013  A$pace_screen$80                   pace_screen
     00004013  C$pace_screen.c$23$1_0$8           pace_screen
     00004016  A$pace_screen$81                   pace_screen
     00004017  A$pace_screen$82                   pace_screen
     0000401A  A$pace_screen$83                   pace_screen
     0000401B  A$pace_screen$84                   pace_screen
     0000401E  A$pace_screen$85                   pace_screen
     0000401F  A$pace_screen$86                   pace_screen
     00004020  A$pace_screen$90                   pace_screen
     00004020  C$pace_screen.c$24$1_0$8           pace_screen
     00004023  A$pace_screen$91                   pace_screen
     00004024  A$pace_screen$92                   pace_screen
     00004027  A$pace_screen$93                   pace_screen
     00004028  A$pace_screen$94                   pace_screen
     0000402B  A$pace_screen$95                   pace_screen
     0000402C  A$pace_screen$96                   pace_screen
     0000402D  A$pace_screen$107                  pace_screen
     0000402D  C$pace_screen.c$26$1_0$8           pace_screen
     0000402D  C$pace_screen.c$27$1_0$8           pace_screen
     0000402D  XG$screen_pace_screen_load$0$0     pace_screen
     00004030  Fpace_screen$__str_0$0_0$0         pace_screen
     00004042  Fpace_screen$__str_1$0_0$0         pace_screen
     00004047  Fpace_screen$__str_2$0_0$0         pace_screen
ASxxxx Linker V03.00 + NoICE + sdld,  page 190.
Hexadecimal  [32-Bits]

Area                                    Addr        Size        Decimal Bytes (Attributes)
--------------------------------        ----        ----        ------- ----- ------------
_CODE                               00000200    0000636D =       25453. bytes (REL,CON)

      Value  Global                              Global Defined In Module
      -----  --------------------------------   ------------------------
     0000404C  A$pace_screen$129                  pace_screen
     0000404C  C$pace_screen.c$29$1_0$10          pace_screen
     0000404C  G$screen_pace_screen_update$0$0    pace_screen
     0000404C  _screen_pace_screen_update         pace_screen
     0000404E  A$pace_screen$130                  pace_screen
     00004052  A$pace_screen$131                  pace_screen
     00004054  A$pace_screen$132                  pace_screen
     00004057  A$pace_screen$133                  pace_screen
     00004058  A$pace_screen$134                  pace_screen
     00004059  A$pace_screen$141                  pace_screen
     00004059  C$pace_screen.c$31$1_0$10          pace_screen
     00004059  C$pace_screen.c$32$1_0$10          pace_screen
     0000405C  A$pace_screen$142                  pace_screen
     0000405D  A$pace_screen$143                  pace_screen
     0000405E  A$pace_screen$144                  pace_screen
     0000405F  A$pace_screen$145                  pace_screen
     00004060  A$pace_screen$146                  pace_screen
     00004061  A$pace_screen$147                  pace_screen
     00004062  A$pace_screen$148                  pace_screen
     00004063  A$pace_screen$149                  pace_screen
     00004064  A$pace_screen$150                  pace_screen
     00004065  A$pace_screen$151                  pace_screen
     00004066  A$pace_screen$152                  pace_screen
     00004068  A$pace_screen$153                  pace_screen
     0000406B  A$pace_screen$154                  pace_screen
     0000406C  A$pace_screen$155                  pace_screen
     0000406F  A$pace_screen$156                  pace_screen
     00004072  A$pace_screen$157                  pace_screen
     00004074  A$pace_screen$158                  pace_screen
     00004075  A$pace_screen$159                  pace_screen
     00004076  A$pace_screen$160                  pace_screen
     00004077  A$pace_screen$161                  pace_screen
     00004078  A$pace_screen$162                  pace_screen
     00004079  A$pace_screen$163                  pace_screen
     0000407A  A$pace_screen$164                  pace_screen
     0000407B  A$pace_screen$165                  pace_screen
     0000407E  A$pace_screen$166                  pace_screen
     0000407F  A$pace_screen$167                  pace_screen
     00004081  A$pace_screen$171                  pace_screen
     00004081  C$pace_screen.c$34$1_0$10          pace_screen
     00004082  A$pace_screen$172                  pace_screen
     00004083  A$pace_screen$173                  pace_screen
     00004086  A$pace_screen$174                  pace_screen
     00004087  A$pace_screen$175                  pace_screen
     00004088  A$pace_screen$176                  pace_screen
     00004089  A$pace_screen$177                  pace_screen
     0000408A  A$pace_screen$181                  pace_screen
     0000408A  C$pace_screen.c$35$1_0$10          pace_screen
     0000408B  A$pace_screen$182                  pace_screen
     0000408C  A$pace_screen$183                  pace_screen
     0000408F  A$pace_screen$184                  pace_screen
ASxxxx Linker V03.00 + NoICE + sdld,  page 191.
Hexadecimal  [32-Bits]

Area                                    Addr        Size        Decimal Bytes (Attributes)
--------------------------------        ----        ----        ------- ----- ------------
_CODE                               00000200    0000636D =       25453. bytes (REL,CON)

      Value  Global                              Global Defined In Module
      -----  --------------------------------   ------------------------
     00004090  A$pace_screen$185                  pace_screen
     00004091  A$pace_screen$186                  pace_screen
     00004092  A$pace_screen$187                  pace_screen
     00004093  A$pace_screen$188                  pace_screen
     00004094  A$pace_screen$189                  pace_screen
     00004095  A$pace_screen$193                  pace_screen
     00004095  C$pace_screen.c$36$1_0$10          pace_screen
     00004096  A$pace_screen$194                  pace_screen
     00004097  A$pace_screen$195                  pace_screen
     00004099  A$pace_screen$196                  pace_screen
     0000409A  A$pace_screen$197                  pace_screen
     0000409B  A$pace_screen$198                  pace_screen
     0000409C  A$pace_screen$199                  pace_screen
     0000409D  A$pace_screen$200                  pace_screen
     0000409F  A$pace_screen$205                  pace_screen
     0000409F  C$pace_screen.c$38$2_0$11          pace_screen
     000040A2  A$pace_screen$206                  pace_screen
     000040A3  A$pace_screen$207                  pace_screen
     000040A5  A$pace_screen$208                  pace_screen
     000040A6  A$pace_screen$209                  pace_screen
     000040A7  A$pace_screen$213                  pace_screen
     000040A7  C$pace_screen.c$39$2_0$11          pace_screen
     000040A8  A$pace_screen$214                  pace_screen
     000040AB  A$pace_screen$215                  pace_screen
     000040AC  A$pace_screen$220                  pace_screen
     000040AC  C$pace_screen.c$42$1_0$10          pace_screen
     000040AD  A$pace_screen$221                  pace_screen
     000040B0  A$pace_screen$222                  pace_screen
     000040B3  A$pace_screen$223                  pace_screen
     000040B4  A$pace_screen$224                  pace_screen
     000040B7  A$pace_screen$225                  pace_screen
     000040BA  A$pace_screen$226                  pace_screen
     000040BD  A$pace_screen$227                  pace_screen
     000040BE  A$pace_screen$231                  pace_screen
     000040BE  C$pace_screen.c$46$1_0$10          pace_screen
     000040C1  A$pace_screen$232                  pace_screen
     000040C4  A$pace_screen$236                  pace_screen
     000040C4  C$pace_screen.c$43$1_0$10          pace_screen
     000040C7  A$pace_screen$237                  pace_screen
     000040C8  A$pace_screen$238                  pace_screen
     000040CA  A$pace_screen$242                  pace_screen
     000040CA  C$pace_screen.c$45$2_0$12          pace_screen
     000040CB  A$pace_screen$243                  pace_screen
     000040CE  A$pace_screen$244                  pace_screen
     000040CF  A$pace_screen$248                  pace_screen
     000040CF  C$pace_screen.c$46$2_0$12          pace_screen
     000040D1  A$pace_screen$249                  pace_screen
     000040D2  A$pace_screen$253                  pace_screen
     000040D2  C$pace_screen.c$47$2_0$12          pace_screen
     000040D4  A$pace_screen$258                  pace_screen
     000040D4  C$pace_screen.c$50$1_0$10          pace_screen
ASxxxx Linker V03.00 + NoICE + sdld,  page 192.
Hexadecimal  [32-Bits]

Area                                    Addr        Size        Decimal Bytes (Attributes)
--------------------------------        ----        ----        ------- ----- ------------
_CODE                               00000200    0000636D =       25453. bytes (REL,CON)

      Value  Global                              Global Defined In Module
      -----  --------------------------------   ------------------------
     000040D5  A$pace_screen$259                  pace_screen
     000040D6  A$pace_screen$260                  pace_screen
     000040D9  A$pace_screen$261                  pace_screen
     000040DA  A$pace_screen$262                  pace_screen
     000040DB  A$pace_screen$263                  pace_screen
     000040DC  A$pace_screen$264                  pace_screen
     000040DD  A$pace_screen$268                  pace_screen
     000040DD  C$pace_screen.c$51$1_0$10          pace_screen
     000040DE  A$pace_screen$269                  pace_screen
     000040E0  A$pace_screen$273                  pace_screen
     000040E0  C$pace_screen.c$53$2_0$13          pace_screen
     000040E2  A$pace_screen$274                  pace_screen
     000040E3  A$pace_screen$278                  pace_screen
     000040E3  C$pace_screen.c$54$2_0$13          pace_screen
     000040E5  A$pace_screen$283                  pace_screen
     000040E5  C$pace_screen.c$57$1_0$10          pace_screen
     000040E7  A$pace_screen$284                  pace_screen
     000040E8  A$pace_screen$289                  pace_screen
     000040EA  A$pace_screen$290                  pace_screen
     000040EC  A$pace_screen$295                  pace_screen
     000040EC  C$pace_screen.c$58$1_0$10          pace_screen
     000040EC  XG$screen_pace_screen_update$0$0   pace_screen
     000040ED  A$pace_screen$311                  pace_screen
     000040ED  C$pace_screen.c$60$1_0$14          pace_screen
     000040ED  C$pace_screen.c$62$1_0$14          pace_screen
     000040ED  C$pace_screen.c$63$1_0$14          pace_screen
     000040ED  Fpace_screen$display_cursor$0$0    pace_screen
     000040F0  A$pace_screen$312                  pace_screen
     000040F1  A$pace_screen$313                  pace_screen
     000040F4  A$pace_screen$314                  pace_screen
     000040F5  A$pace_screen$315                  pace_screen
     000040F8  A$pace_screen$316                  pace_screen
     000040F9  A$pace_screen$317                  pace_screen
     000040FA  A$pace_screen$321                  pace_screen
     000040FA  C$pace_screen.c$64$1_0$14          pace_screen
     000040FD  A$pace_screen$322                  pace_screen
     000040FE  A$pace_screen$323                  pace_screen
     00004101  A$pace_screen$324                  pace_screen
     00004102  A$pace_screen$325                  pace_screen
     00004105  A$pace_screen$326                  pace_screen
     00004106  A$pace_screen$327                  pace_screen
     00004107  A$pace_screen$331                  pace_screen
     00004107  C$pace_screen.c$65$1_0$14          pace_screen
     0000410A  A$pace_screen$332                  pace_screen
     0000410D  A$pace_screen$333                  pace_screen
     0000410E  A$pace_screen$334                  pace_screen
     00004110  A$pace_screen$335                  pace_screen
     00004111  A$pace_screen$336                  pace_screen
     00004112  A$pace_screen$337                  pace_screen
     00004114  A$pace_screen$338                  pace_screen
     00004115  A$pace_screen$339                  pace_screen
ASxxxx Linker V03.00 + NoICE + sdld,  page 193.
Hexadecimal  [32-Bits]

Area                                    Addr        Size        Decimal Bytes (Attributes)
--------------------------------        ----        ----        ------- ----- ------------
_CODE                               00000200    0000636D =       25453. bytes (REL,CON)

      Value  Global                              Global Defined In Module
      -----  --------------------------------   ------------------------
     00004116  A$pace_screen$340                  pace_screen
     00004117  A$pace_screen$341                  pace_screen
     00004118  A$pace_screen$342                  pace_screen
     0000411B  A$pace_screen$343                  pace_screen
     0000411C  A$pace_screen$344                  pace_screen
     0000411F  A$pace_screen$345                  pace_screen
     00004120  A$pace_screen$346                  pace_screen
     00004121  A$pace_screen$354                  pace_screen
     00004121  C$pace_screen.c$66$1_0$14          pace_screen
     00004121  XFpace_screen$display_cursor$0$0   pace_screen
     00004122  Fpace_screen$__str_3$0_0$0         pace_screen
     00004125  Fpace_screen$__str_4$0_0$0         pace_screen
     00004128  A$level_screen$77                  level_screen
     00004128  C$level_screen.c$27$0_0$16         level_screen
     00004128  C$level_screen.c$30$1_0$16         level_screen
     00004128  G$screen_level_screen_init$0$0     level_screen
     00004128  _screen_level_screen_init          level_screen
     0000412A  A$level_screen$78                  level_screen
     0000412D  A$level_screen$86                  level_screen
     0000412D  C$level_screen.c$31$1_0$16         level_screen
     0000412D  XG$screen_level_screen_init$0$0    level_screen
     0000412E  A$level_screen$102                 level_screen
     0000412E  C$level_screen.c$33$1_0$17         level_screen
     0000412E  C$level_screen.c$35$1_0$17         level_screen
     0000412E  C$level_screen.c$36$1_0$17         level_screen
     0000412E  G$screen_level_screen_load$0$0     level_screen
     0000412E  _screen_level_screen_load          level_screen
     00004131  A$level_screen$103                 level_screen
     00004132  A$level_screen$104                 level_screen
     00004135  A$level_screen$105                 level_screen
     00004136  A$level_screen$109                 level_screen
     00004136  C$level_screen.c$38$1_0$17         level_screen
     00004139  A$level_screen$113                 level_screen
     00004139  C$level_screen.c$39$1_0$17         level_screen
     0000413C  A$level_screen$114                 level_screen
     0000413D  A$level_screen$115                 level_screen
     00004140  A$level_screen$116                 level_screen
     00004141  A$level_screen$117                 level_screen
     00004144  A$level_screen$118                 level_screen
     00004145  A$level_screen$119                 level_screen
     00004146  A$level_screen$123                 level_screen
     00004146  C$level_screen.c$40$1_0$17         level_screen
     00004149  A$level_screen$124                 level_screen
     0000414A  A$level_screen$125                 level_screen
     0000414D  A$level_screen$126                 level_screen
     0000414E  A$level_screen$127                 level_screen
     00004151  A$level_screen$128                 level_screen
     00004152  A$level_screen$129                 level_screen
     00004153  A$level_screen$133                 level_screen
     00004153  C$level_screen.c$41$1_0$17         level_screen
     00004156  A$level_screen$134                 level_screen
ASxxxx Linker V03.00 + NoICE + sdld,  page 194.
Hexadecimal  [32-Bits]

Area                                    Addr        Size        Decimal Bytes (Attributes)
--------------------------------        ----        ----        ------- ----- ------------
_CODE                               00000200    0000636D =       25453. bytes (REL,CON)

      Value  Global                              Global Defined In Module
      -----  --------------------------------   ------------------------
     00004157  A$level_screen$135                 level_screen
     0000415A  A$level_screen$136                 level_screen
     0000415B  A$level_screen$137                 level_screen
     0000415E  A$level_screen$138                 level_screen
     0000415F  A$level_screen$139                 level_screen
     00004160  A$level_screen$143                 level_screen
     00004160  C$level_screen.c$44$1_0$17         level_screen
     00004163  A$level_screen$144                 level_screen
     00004164  A$level_screen$145                 level_screen
     00004166  A$level_screen$149                 level_screen
     00004166  C$level_screen.c$46$2_0$18         level_screen
     00004169  A$level_screen$150                 level_screen
     0000416B  A$level_screen$155                 level_screen
     0000416B  C$level_screen.c$49$1_0$17         level_screen
     0000416E  A$level_screen$159                 level_screen
     0000416E  C$level_screen.c$50$1_0$17         level_screen
     00004170  A$level_screen$160                 level_screen
     00004173  A$level_screen$168                 level_screen
     00004173  C$level_screen.c$51$1_0$17         level_screen
     00004173  XG$screen_level_screen_load$0$0    level_screen
     00004174  Flevel_screen$__str_0$0_0$0        level_screen
     00004181  Flevel_screen$__str_1$0_0$0        level_screen
     0000418C  Flevel_screen$__str_2$0_0$0        level_screen
     00004197  A$level_screen$190                 level_screen
     00004197  C$level_screen.c$53$1_0$20         level_screen
     00004197  G$screen_level_screen_update$0$0   level_screen
     00004197  _screen_level_screen_update        level_screen
     00004199  A$level_screen$191                 level_screen
     0000419D  A$level_screen$192                 level_screen
     0000419F  A$level_screen$193                 level_screen
     000041A2  A$level_screen$194                 level_screen
     000041A3  A$level_screen$195                 level_screen
     000041A4  A$level_screen$202                 level_screen
     000041A4  C$level_screen.c$55$1_0$20         level_screen
     000041A4  C$level_screen.c$56$1_0$20         level_screen
     000041A7  A$level_screen$203                 level_screen
     000041A8  A$level_screen$204                 level_screen
     000041A9  A$level_screen$205                 level_screen
     000041AA  A$level_screen$206                 level_screen
     000041AB  A$level_screen$207                 level_screen
     000041AC  A$level_screen$208                 level_screen
     000041AD  A$level_screen$209                 level_screen
     000041AE  A$level_screen$210                 level_screen
     000041B1  A$level_screen$211                 level_screen
     000041B4  A$level_screen$212                 level_screen
     000041B6  A$level_screen$213                 level_screen
     000041B9  A$level_screen$214                 level_screen
     000041BA  A$level_screen$215                 level_screen
     000041BD  A$level_screen$216                 level_screen
     000041C0  A$level_screen$217                 level_screen
     000041C2  A$level_screen$218                 level_screen
ASxxxx Linker V03.00 + NoICE + sdld,  page 195.
Hexadecimal  [32-Bits]

Area                                    Addr        Size        Decimal Bytes (Attributes)
--------------------------------        ----        ----        ------- ----- ------------
_CODE                               00000200    0000636D =       25453. bytes (REL,CON)

      Value  Global                              Global Defined In Module
      -----  --------------------------------   ------------------------
     000041C5  A$level_screen$219                 level_screen
     000041C6  A$level_screen$220                 level_screen
     000041C9  A$level_screen$221                 level_screen
     000041CC  A$level_screen$222                 level_screen
     000041CE  A$level_screen$223                 level_screen
     000041D1  A$level_screen$224                 level_screen
     000041D2  A$level_screen$225                 level_screen
     000041D5  A$level_screen$226                 level_screen
     000041D8  A$level_screen$227                 level_screen
     000041DA  A$level_screen$228                 level_screen
     000041DD  A$level_screen$229                 level_screen
     000041DE  A$level_screen$230                 level_screen
     000041E1  A$level_screen$231                 level_screen
     000041E4  A$level_screen$232                 level_screen
     000041E6  A$level_screen$236                 level_screen
     000041E6  C$level_screen.c$59$1_0$20         level_screen
     000041E9  A$level_screen$237                 level_screen
     000041EA  A$level_screen$238                 level_screen
     000041EC  A$level_screen$242                 level_screen
     000041EC  C$level_screen.c$61$2_0$21         level_screen
     000041EF  A$level_screen$246                 level_screen
     000041F2  A$level_screen$247                 level_screen
     000041F5  A$level_screen$251                 level_screen
     000041F5  C$level_screen.c$62$2_0$21         level_screen
     000041F6  A$level_screen$252                 level_screen
     000041F7  A$level_screen$253                 level_screen
     000041F9  A$level_screen$257                 level_screen
     000041F9  C$level_screen.c$64$3_0$22         level_screen
     000041FB  A$level_screen$258                 level_screen
     000041FC  A$level_screen$262                 level_screen
     000041FC  C$level_screen.c$65$3_0$22         level_screen
     000041FF  A$level_screen$267                 level_screen
     000041FF  C$level_screen.c$69$3_0$23         level_screen
     00004201  A$level_screen$268                 level_screen
     00004202  A$level_screen$272                 level_screen
     00004202  C$level_screen.c$70$3_0$23         level_screen
     00004205  A$level_screen$277                 level_screen
     00004205  C$level_screen.c$74$1_0$20         level_screen
     00004206  A$level_screen$278                 level_screen
     00004209  A$level_screen$279                 level_screen
     0000420A  A$level_screen$280                 level_screen
     0000420B  A$level_screen$281                 level_screen
     0000420C  A$level_screen$285                 level_screen
     0000420C  C$level_screen.c$75$1_0$20         level_screen
     0000420D  A$level_screen$286                 level_screen
     0000420F  A$level_screen$290                 level_screen
     0000420F  C$level_screen.c$77$2_0$24         level_screen
     00004212  A$level_screen$291                 level_screen
     00004213  A$level_screen$292                 level_screen
     00004215  A$level_screen$296                 level_screen
     00004215  C$level_screen.c$79$3_0$25         level_screen
ASxxxx Linker V03.00 + NoICE + sdld,  page 196.
Hexadecimal  [32-Bits]

Area                                    Addr        Size        Decimal Bytes (Attributes)
--------------------------------        ----        ----        ------- ----- ------------
_CODE                               00000200    0000636D =       25453. bytes (REL,CON)

      Value  Global                              Global Defined In Module
      -----  --------------------------------   ------------------------
     00004218  A$level_screen$297                 level_screen
     00004219  A$level_screen$298                 level_screen
     0000421A  A$level_screen$299                 level_screen
     0000421C  A$level_screen$303                 level_screen
     0000421C  C$level_screen.c$81$4_0$26         level_screen
     0000421E  A$level_screen$304                 level_screen
     00004220  A$level_screen$309                 level_screen
     00004220  C$level_screen.c$85$4_0$27         level_screen
     00004221  A$level_screen$310                 level_screen
     00004222  A$level_screen$311                 level_screen
     00004224  A$level_screen$316                 level_screen
     00004224  C$level_screen.c$88$2_0$24         level_screen
     00004227  A$level_screen$317                 level_screen
     00004228  A$level_screen$318                 level_screen
     0000422A  A$level_screen$322                 level_screen
     0000422A  C$level_screen.c$90$3_0$28         level_screen
     0000422D  A$level_screen$323                 level_screen
     0000422E  A$level_screen$324                 level_screen
     0000422F  A$level_screen$325                 level_screen
     00004231  A$level_screen$329                 level_screen
     00004231  C$level_screen.c$92$4_0$29         level_screen
     00004233  A$level_screen$330                 level_screen
     00004235  A$level_screen$335                 level_screen
     00004235  C$level_screen.c$96$4_0$30         level_screen
     00004236  A$level_screen$336                 level_screen
     00004237  A$level_screen$341                 level_screen
     00004237  C$level_screen.c$100$2_0$24        level_screen
     0000423A  A$level_screen$346                 level_screen
     0000423A  C$level_screen.c$103$1_0$20        level_screen
     0000423D  A$level_screen$347                 level_screen
     0000423E  A$level_screen$348                 level_screen
     00004241  A$level_screen$349                 level_screen
     00004244  A$level_screen$350                 level_screen
     00004245  A$level_screen$354                 level_screen
     00004245  C$level_screen.c$104$1_0$20        level_screen
     00004246  A$level_screen$355                 level_screen
     00004248  A$level_screen$359                 level_screen
     00004248  C$level_screen.c$106$2_0$31        level_screen
     0000424B  A$level_screen$360                 level_screen
     0000424C  A$level_screen$361                 level_screen
     0000424E  A$level_screen$365                 level_screen
     0000424E  C$level_screen.c$108$3_0$32        level_screen
     00004251  A$level_screen$366                 level_screen
     00004252  A$level_screen$367                 level_screen
     00004254  A$level_screen$368                 level_screen
     00004256  A$level_screen$372                 level_screen
     00004256  C$level_screen.c$110$4_0$33        level_screen
     00004257  A$level_screen$373                 level_screen
     00004258  A$level_screen$374                 level_screen
     0000425A  A$level_screen$379                 level_screen
     0000425A  C$level_screen.c$114$4_0$34        level_screen
ASxxxx Linker V03.00 + NoICE + sdld,  page 197.
Hexadecimal  [32-Bits]

Area                                    Addr        Size        Decimal Bytes (Attributes)
--------------------------------        ----        ----        ------- ----- ------------
_CODE                               00000200    0000636D =       25453. bytes (REL,CON)

      Value  Global                              Global Defined In Module
      -----  --------------------------------   ------------------------
     0000425B  A$level_screen$380                 level_screen
     0000425C  A$level_screen$381                 level_screen
     0000425E  A$level_screen$386                 level_screen
     0000425E  C$level_screen.c$117$2_0$31        level_screen
     00004261  A$level_screen$387                 level_screen
     00004262  A$level_screen$388                 level_screen
     00004264  A$level_screen$392                 level_screen
     00004264  C$level_screen.c$119$3_0$35        level_screen
     00004267  A$level_screen$393                 level_screen
     00004268  A$level_screen$394                 level_screen
     0000426A  A$level_screen$395                 level_screen
     0000426C  A$level_screen$399                 level_screen
     0000426C  C$level_screen.c$121$4_0$36        level_screen
     0000426D  A$level_screen$400                 level_screen
     0000426E  A$level_screen$401                 level_screen
     00004270  A$level_screen$406                 level_screen
     00004270  C$level_screen.c$125$4_0$37        level_screen
     00004271  A$level_screen$407                 level_screen
     00004272  A$level_screen$412                 level_screen
     00004272  C$level_screen.c$129$2_0$31        level_screen
     00004275  A$level_screen$417                 level_screen
     00004275  C$level_screen.c$132$1_0$20        level_screen
     00004278  A$level_screen$418                 level_screen
     00004279  A$level_screen$419                 level_screen
     0000427B  A$level_screen$423                 level_screen
     0000427B  C$level_screen.c$134$2_0$38        level_screen
     0000427E  A$level_screen$424                 level_screen
     0000427F  A$level_screen$425                 level_screen
     00004282  A$level_screen$426                 level_screen
     00004285  A$level_screen$427                 level_screen
     00004286  A$level_screen$431                 level_screen
     00004286  C$level_screen.c$135$2_0$38        level_screen
     00004289  A$level_screen$432                 level_screen
     0000428A  A$level_screen$433                 level_screen
     0000428D  A$level_screen$434                 level_screen
     00004290  A$level_screen$435                 level_screen
     00004291  A$level_screen$439                 level_screen
     00004291  C$level_screen.c$136$2_0$38        level_screen
     00004294  A$level_screen$440                 level_screen
     00004297  A$level_screen$441                 level_screen
     00004298  A$level_screen$442                 level_screen
     00004299  A$level_screen$443                 level_screen
     0000429B  A$level_screen$444                 level_screen
     0000429E  A$level_screen$445                 level_screen
     000042A1  A$level_screen$446                 level_screen
     000042A2  A$level_screen$447                 level_screen
     000042A3  A$level_screen$448                 level_screen
     000042A5  A$level_screen$453                 level_screen
     000042A5  C$level_screen.c$138$3_0$39        level_screen
     000042A8  A$level_screen$454                 level_screen
     000042A9  A$level_screen$455                 level_screen
ASxxxx Linker V03.00 + NoICE + sdld,  page 198.
Hexadecimal  [32-Bits]

Area                                    Addr        Size        Decimal Bytes (Attributes)
--------------------------------        ----        ----        ------- ----- ------------
_CODE                               00000200    0000636D =       25453. bytes (REL,CON)

      Value  Global                              Global Defined In Module
      -----  --------------------------------   ------------------------
     000042AC  A$level_screen$456                 level_screen
     000042AE  A$level_screen$457                 level_screen
     000042AF  A$level_screen$458                 level_screen
     000042B0  A$level_screen$462                 level_screen
     000042B0  C$level_screen.c$139$3_0$39        level_screen
     000042B3  A$level_screen$467                 level_screen
     000042B3  C$level_screen.c$143$1_0$20        level_screen
     000042B6  A$level_screen$468                 level_screen
     000042B7  A$level_screen$469                 level_screen
     000042BA  A$level_screen$470                 level_screen
     000042BD  A$level_screen$471                 level_screen
     000042BE  A$level_screen$475                 level_screen
     000042BE  C$level_screen.c$144$1_0$20        level_screen
     000042BF  A$level_screen$476                 level_screen
     000042C1  A$level_screen$480                 level_screen
     000042C1  C$level_screen.c$146$2_0$40        level_screen
     000042C4  A$level_screen$484                 level_screen
     000042C4  C$level_screen.c$147$2_0$40        level_screen
     000042C6  A$level_screen$485                 level_screen
     000042C9  A$level_screen$489                 level_screen
     000042C9  C$level_screen.c$148$2_0$40        level_screen
     000042CB  A$level_screen$494                 level_screen
     000042CB  C$level_screen.c$150$1_0$20        level_screen
     000042CE  A$level_screen$495                 level_screen
     000042CF  A$level_screen$496                 level_screen
     000042D2  A$level_screen$497                 level_screen
     000042D5  A$level_screen$498                 level_screen
     000042D6  A$level_screen$502                 level_screen
     000042D6  C$level_screen.c$64$1_0$20         level_screen
     000042D9  A$level_screen$503                 level_screen
     000042DC  A$level_screen$507                 level_screen
     000042DC  C$level_screen.c$151$1_0$20        level_screen
     000042DD  A$level_screen$508                 level_screen
     000042DE  A$level_screen$509                 level_screen
     000042E0  A$level_screen$513                 level_screen
     000042E0  C$level_screen.c$153$2_0$41        level_screen
     000042E2  A$level_screen$517                 level_screen
     000042E2  C$level_screen.c$154$2_0$41        level_screen
     000042E4  A$level_screen$522                 level_screen
     000042E4  C$level_screen.c$157$1_0$20        level_screen
     000042E6  A$level_screen$527                 level_screen
     000042E8  A$level_screen$528                 level_screen
     000042EA  A$level_screen$533                 level_screen
     000042EA  C$level_screen.c$158$1_0$20        level_screen
     000042EA  XG$screen_level_screen_update$0$   level_screen
     000042EB  A$level_screen$549                 level_screen
     000042EB  C$level_screen.c$160$1_0$42        level_screen
     000042EB  C$level_screen.c$162$1_0$42        level_screen
     000042EB  C$level_screen.c$164$1_0$42        level_screen
     000042EB  Flevel_screen$display_options$0$   level_screen
     000042EE  A$level_screen$550                 level_screen
ASxxxx Linker V03.00 + NoICE + sdld,  page 199.
Hexadecimal  [32-Bits]

Area                                    Addr        Size        Decimal Bytes (Attributes)
--------------------------------        ----        ----        ------- ----- ------------
_CODE                               00000200    0000636D =       25453. bytes (REL,CON)

      Value  Global                              Global Defined In Module
      -----  --------------------------------   ------------------------
     000042EF  A$level_screen$551                 level_screen
     000042F2  A$level_screen$552                 level_screen
     000042F3  A$level_screen$553                 level_screen
     000042F6  A$level_screen$554                 level_screen
     000042F7  A$level_screen$555                 level_screen
     000042F8  A$level_screen$559                 level_screen
     000042F8  C$level_screen.c$165$1_0$42        level_screen
     000042FB  A$level_screen$560                 level_screen
     000042FC  A$level_screen$561                 level_screen
     000042FF  A$level_screen$562                 level_screen
     00004300  A$level_screen$563                 level_screen
     00004303  A$level_screen$564                 level_screen
     00004304  A$level_screen$565                 level_screen
     00004305  A$level_screen$569                 level_screen
     00004305  C$level_screen.c$166$1_0$42        level_screen
     00004308  A$level_screen$570                 level_screen
     0000430B  A$level_screen$571                 level_screen
     0000430D  A$level_screen$572                 level_screen
     0000430E  A$level_screen$573                 level_screen
     0000430F  A$level_screen$574                 level_screen
     00004311  A$level_screen$575                 level_screen
     00004312  A$level_screen$576                 level_screen
     00004315  A$level_screen$577                 level_screen
     00004316  A$level_screen$578                 level_screen
     00004319  A$level_screen$579                 level_screen
     0000431A  A$level_screen$580                 level_screen
     0000431B  A$level_screen$584                 level_screen
     0000431B  C$level_screen.c$168$1_0$42        level_screen
     0000431E  A$level_screen$585                 level_screen
     0000431F  A$level_screen$586                 level_screen
     00004321  A$level_screen$590                 level_screen
     00004321  C$level_screen.c$170$2_0$43        level_screen
     00004324  A$level_screen$591                 level_screen
     00004325  A$level_screen$592                 level_screen
     00004328  A$level_screen$593                 level_screen
     00004329  A$level_screen$594                 level_screen
     0000432C  A$level_screen$595                 level_screen
     0000432D  A$level_screen$596                 level_screen
     0000432E  A$level_screen$597                 level_screen
     00004330  A$level_screen$602                 level_screen
     00004330  C$level_screen.c$174$2_0$44        level_screen
     00004333  A$level_screen$603                 level_screen
     00004334  A$level_screen$604                 level_screen
     00004336  A$level_screen$605                 level_screen
     00004337  A$level_screen$606                 level_screen
     0000433A  A$level_screen$607                 level_screen
     0000433B  A$level_screen$608                 level_screen
     0000433C  A$level_screen$609                 level_screen
     0000433D  A$level_screen$610                 level_screen
     0000433E  A$level_screen$611                 level_screen
     00004341  A$level_screen$612                 level_screen
ASxxxx Linker V03.00 + NoICE + sdld,  page 200.
Hexadecimal  [32-Bits]

Area                                    Addr        Size        Decimal Bytes (Attributes)
--------------------------------        ----        ----        ------- ----- ------------
_CODE                               00000200    0000636D =       25453. bytes (REL,CON)

      Value  Global                              Global Defined In Module
      -----  --------------------------------   ------------------------
     00004342  A$level_screen$613                 level_screen
     00004343  A$level_screen$614                 level_screen
     00004346  A$level_screen$615                 level_screen
     00004347  A$level_screen$616                 level_screen
     00004348  A$level_screen$621                 level_screen
     00004348  C$level_screen.c$177$1_0$42        level_screen
     0000434B  A$level_screen$622                 level_screen
     0000434C  A$level_screen$623                 level_screen
     0000434E  A$level_screen$624                 level_screen
     0000434F  A$level_screen$625                 level_screen
     00004352  A$level_screen$626                 level_screen
     00004353  A$level_screen$627                 level_screen
     00004354  A$level_screen$628                 level_screen
     00004355  A$level_screen$629                 level_screen
     00004356  A$level_screen$630                 level_screen
     00004359  A$level_screen$631                 level_screen
     0000435A  A$level_screen$632                 level_screen
     0000435B  A$level_screen$633                 level_screen
     0000435E  A$level_screen$634                 level_screen
     0000435F  A$level_screen$635                 level_screen
     00004360  A$level_screen$643                 level_screen
     00004360  C$level_screen.c$178$1_0$42        level_screen
     00004360  XFlevel_screen$display_options$0   level_screen
     00004361  Flevel_screen$__str_3$0_0$0        level_screen
     00004364  Flevel_screen$__str_4$0_0$0        level_screen
     00004367  Flevel_screen$__str_5$0_0$0        level_screen
     0000436A  A$init_screen$67                   init_screen
     0000436A  C$init_screen.c$10$0_0$19          init_screen
     0000436A  C$init_screen.c$12$1_0$19          init_screen
     0000436A  C$init_screen.c$14$1_0$19          init_screen
     0000436A  G$screen_init_screen_load$0$0      init_screen
     0000436A  _screen_init_screen_load           init_screen
     0000436D  A$init_screen$71                   init_screen
     0000436D  C$init_screen.c$15$1_0$19          init_screen
     00004370  A$init_screen$75                   init_screen
     00004370  C$init_screen.c$18$1_0$19          init_screen
     00004373  A$init_screen$79                   init_screen
     00004373  C$init_screen.c$21$1_0$19          init_screen
     00004376  A$init_screen$83                   init_screen
     00004376  C$init_screen.c$22$1_0$19          init_screen
     00004379  A$init_screen$87                   init_screen
     00004379  C$init_screen.c$23$1_0$19          init_screen
     0000437C  A$init_screen$91                   init_screen
     0000437C  C$init_screen.c$24$1_0$19          init_screen
     0000437F  A$init_screen$95                   init_screen
     0000437F  C$init_screen.c$27$1_0$19          init_screen
     00004382  A$init_screen$96                   init_screen
     00004383  A$init_screen$97                   init_screen
     00004384  A$init_screen$98                   init_screen
     00004387  A$init_screen$99                   init_screen
     00004388  A$init_screen$107                  init_screen
ASxxxx Linker V03.00 + NoICE + sdld,  page 201.
Hexadecimal  [32-Bits]

Area                                    Addr        Size        Decimal Bytes (Attributes)
--------------------------------        ----        ----        ------- ----- ------------
_CODE                               00000200    0000636D =       25453. bytes (REL,CON)

      Value  Global                              Global Defined In Module
      -----  --------------------------------   ------------------------
     00004388  C$init_screen.c$28$1_0$19          init_screen
     00004388  XG$screen_init_screen_load$0$0     init_screen
     00004389  A$init_screen$120                  init_screen
     00004389  C$init_screen.c$30$1_0$21          init_screen
     00004389  C$init_screen.c$32$1_0$21          init_screen
     00004389  G$screen_init_screen_update$0$0    init_screen
     00004389  _screen_init_screen_update         init_screen
     0000438A  A$init_screen$121                  init_screen
     0000438B  A$init_screen$122                  init_screen
     0000438C  A$init_screen$123                  init_screen
     0000438D  A$init_screen$124                  init_screen
     0000438F  A$init_screen$132                  init_screen
     0000438F  C$init_screen.c$33$1_0$21          init_screen
     0000438F  XG$screen_init_screen_update$0$0   init_screen
     00004390  A$ready_screen$69                  ready_screen
     00004390  C$ready_screen.c$17$0_0$47         ready_screen
     00004390  C$ready_screen.c$19$1_0$47         ready_screen
     00004390  C$ready_screen.c$23$1_0$47         ready_screen
     00004390  G$screen_ready_screen_load$0$0     ready_screen
     00004390  _screen_ready_screen_load          ready_screen
     00004393  A$ready_screen$70                  ready_screen
     00004394  A$ready_screen$71                  ready_screen
     00004397  A$ready_screen$72                  ready_screen
     00004398  A$ready_screen$76                  ready_screen
     00004398  C$ready_screen.c$26$1_0$47         ready_screen
     0000439B  A$ready_screen$77                  ready_screen
     0000439C  A$ready_screen$78                  ready_screen
     0000439D  A$ready_screen$79                  ready_screen
     0000439E  A$ready_screen$80                  ready_screen
     000043A0  A$ready_screen$84                  ready_screen
     000043A0  C$ready_screen.c$28$2_0$48         ready_screen
     000043A3  A$ready_screen$85                  ready_screen
     000043A4  A$ready_screen$86                  ready_screen
     000043A5  A$ready_screen$87                  ready_screen
     000043A6  A$ready_screen$88                  ready_screen
     000043A7  A$ready_screen$89                  ready_screen
     000043A8  A$ready_screen$90                  ready_screen
     000043A9  A$ready_screen$91                  ready_screen
     000043AA  A$ready_screen$92                  ready_screen
     000043AB  A$ready_screen$93                  ready_screen
     000043AC  A$ready_screen$94                  ready_screen
     000043AD  A$ready_screen$95                  ready_screen
     000043AE  A$ready_screen$96                  ready_screen
     000043AF  A$ready_screen$97                  ready_screen
     000043B0  A$ready_screen$98                  ready_screen
     000043B1  A$ready_screen$99                  ready_screen
     000043B2  A$ready_screen$103                 ready_screen
     000043B2  C$ready_screen.c$29$2_0$48         ready_screen
     000043B3  A$ready_screen$104                 ready_screen
     000043B4  A$ready_screen$105                 ready_screen
     000043B5  A$ready_screen$106                 ready_screen
ASxxxx Linker V03.00 + NoICE + sdld,  page 202.
Hexadecimal  [32-Bits]

Area                                    Addr        Size        Decimal Bytes (Attributes)
--------------------------------        ----        ----        ------- ----- ------------
_CODE                               00000200    0000636D =       25453. bytes (REL,CON)

      Value  Global                              Global Defined In Module
      -----  --------------------------------   ------------------------
     000043B6  A$ready_screen$107                 ready_screen
     000043B7  A$ready_screen$108                 ready_screen
     000043B9  A$ready_screen$112                 ready_screen
     000043B9  C$ready_screen.c$31$3_0$49         ready_screen
     000043BC  A$ready_screen$113                 ready_screen
     000043BD  A$ready_screen$114                 ready_screen
     000043BE  A$ready_screen$115                 ready_screen
     000043C1  A$ready_screen$116                 ready_screen
     000043C2  A$ready_screen$117                 ready_screen
     000043C3  A$ready_screen$118                 ready_screen
     000043C4  A$ready_screen$123                 ready_screen
     000043C4  C$ready_screen.c$37$1_0$47         ready_screen
     000043C7  A$ready_screen$127                 ready_screen
     000043C7  C$ready_screen.c$39$1_0$47         ready_screen
     000043CA  A$ready_screen$138                 ready_screen
     000043CA  C$ready_screen.c$40$1_0$47         ready_screen
     000043CA  C$ready_screen.c$41$1_0$47         ready_screen
     000043CA  XG$screen_ready_screen_load$0$0    ready_screen
     000043CD  A$ready_screen$148                 ready_screen
     000043CD  C$ready_screen.c$43$1_0$51         ready_screen
     000043CD  G$screen_ready_screen_update$0$0   ready_screen
     000043CD  _screen_ready_screen_update        ready_screen
     000043CF  A$ready_screen$149                 ready_screen
     000043D3  A$ready_screen$150                 ready_screen
     000043D5  A$ready_screen$151                 ready_screen
     000043D6  A$ready_screen$155                 ready_screen
     000043D6  C$ready_screen.c$45$2_0$51         ready_screen
     000043D9  A$ready_screen$156                 ready_screen
     000043DA  A$ready_screen$157                 ready_screen
     000043DB  A$ready_screen$158                 ready_screen
     000043DC  A$ready_screen$159                 ready_screen
     000043DD  A$ready_screen$160                 ready_screen
     000043DE  A$ready_screen$161                 ready_screen
     000043DF  A$ready_screen$162                 ready_screen
     000043E0  A$ready_screen$163                 ready_screen
     000043E1  A$ready_screen$164                 ready_screen
     000043E2  A$ready_screen$168                 ready_screen
     000043E2  C$ready_screen.c$49$1_0$51         ready_screen
     000043E3  A$ready_screen$169                 ready_screen
     000043E4  A$ready_screen$170                 ready_screen
     000043E7  A$ready_screen$171                 ready_screen
     000043EA  A$ready_screen$172                 ready_screen
     000043ED  A$ready_screen$173                 ready_screen
     000043EE  A$ready_screen$174                 ready_screen
     000043EF  A$ready_screen$175                 ready_screen
     000043F0  A$ready_screen$176                 ready_screen
     000043F1  A$ready_screen$180                 ready_screen
     000043F1  C$ready_screen.c$54$1_0$51         ready_screen
     000043F2  A$ready_screen$181                 ready_screen
     000043F3  A$ready_screen$182                 ready_screen
     000043F6  A$ready_screen$183                 ready_screen
ASxxxx Linker V03.00 + NoICE + sdld,  page 203.
Hexadecimal  [32-Bits]

Area                                    Addr        Size        Decimal Bytes (Attributes)
--------------------------------        ----        ----        ------- ----- ------------
_CODE                               00000200    0000636D =       25453. bytes (REL,CON)

      Value  Global                              Global Defined In Module
      -----  --------------------------------   ------------------------
     000043F7  A$ready_screen$184                 ready_screen
     000043F8  A$ready_screen$185                 ready_screen
     000043F9  A$ready_screen$186                 ready_screen
     000043FA  A$ready_screen$190                 ready_screen
     000043FA  C$ready_screen.c$56$1_0$51         ready_screen
     000043FB  A$ready_screen$191                 ready_screen
     000043FC  A$ready_screen$192                 ready_screen
     000043FF  A$ready_screen$193                 ready_screen
     00004400  A$ready_screen$194                 ready_screen
     00004401  A$ready_screen$198                 ready_screen
     00004402  A$ready_screen$199                 ready_screen
     00004403  A$ready_screen$203                 ready_screen
     00004403  C$ready_screen.c$60$1_0$51         ready_screen
     00004406  A$ready_screen$204                 ready_screen
     00004409  A$ready_screen$208                 ready_screen
     00004409  C$ready_screen.c$57$1_0$51         ready_screen
     0000440A  A$ready_screen$209                 ready_screen
     0000440B  A$ready_screen$210                 ready_screen
     0000440D  A$ready_screen$211                 ready_screen
     0000440E  A$ready_screen$212                 ready_screen
     0000440F  A$ready_screen$213                 ready_screen
     00004411  A$ready_screen$214                 ready_screen
     00004412  A$ready_screen$215                 ready_screen
     00004414  A$ready_screen$220                 ready_screen
     00004414  C$ready_screen.c$59$2_0$52         ready_screen
     00004415  A$ready_screen$221                 ready_screen
     00004418  A$ready_screen$222                 ready_screen
     00004419  A$ready_screen$226                 ready_screen
     00004419  C$ready_screen.c$60$2_0$52         ready_screen
     0000441B  A$ready_screen$227                 ready_screen
     0000441C  A$ready_screen$231                 ready_screen
     0000441C  C$ready_screen.c$61$2_0$52         ready_screen
     0000441E  A$ready_screen$236                 ready_screen
     0000441E  C$ready_screen.c$64$1_0$51         ready_screen
     00004420  A$ready_screen$237                 ready_screen
     00004421  A$ready_screen$242                 ready_screen
     00004423  A$ready_screen$243                 ready_screen
     00004425  A$ready_screen$248                 ready_screen
     00004425  C$ready_screen.c$65$1_0$51         ready_screen
     00004425  XG$screen_ready_screen_update$0$   ready_screen
     00004426  A$load_screen$80                   load_screen
     00004426  C$load_screen.c$21$0_0$58          load_screen
     00004426  G$screen_load_screen_load$0$0      load_screen
     00004426  _screen_load_screen_load           load_screen
     00004428  A$load_screen$81                   load_screen
     0000442C  A$load_screen$82                   load_screen
     0000442E  A$load_screen$83                   load_screen
     0000442F  A$load_screen$90                   load_screen
     0000442F  C$load_screen.c$23$1_0$58          load_screen
     0000442F  C$load_screen.c$26$1_0$58          load_screen
     00004432  A$load_screen$94                   load_screen
ASxxxx Linker V03.00 + NoICE + sdld,  page 204.
Hexadecimal  [32-Bits]

Area                                    Addr        Size        Decimal Bytes (Attributes)
--------------------------------        ----        ----        ------- ----- ------------
_CODE                               00000200    0000636D =       25453. bytes (REL,CON)

      Value  Global                              Global Defined In Module
      -----  --------------------------------   ------------------------
     00004432  C$load_screen.c$27$1_0$58          load_screen
     00004435  A$load_screen$95                   load_screen
     00004436  A$load_screen$96                   load_screen
     00004439  A$load_screen$97                   load_screen
     0000443A  A$load_screen$101                  load_screen
     0000443A  C$load_screen.c$28$1_0$58          load_screen
     0000443D  A$load_screen$105                  load_screen
     0000443D  C$load_screen.c$29$1_0$58          load_screen
     00004440  A$load_screen$109                  load_screen
     00004440  C$load_screen.c$31$1_0$58          load_screen
     00004443  A$load_screen$110                  load_screen
     00004444  A$load_screen$111                  load_screen
     00004446  A$load_screen$112                  load_screen
     00004449  A$load_screen$113                  load_screen
     0000444A  A$load_screen$114                  load_screen
     0000444C  A$load_screen$116                  load_screen
     0000444E  A$load_screen$118                  load_screen
     00004451  A$load_screen$122                  load_screen
     00004451  C$load_screen.c$32$1_0$58          load_screen
     00004454  A$load_screen$123                  load_screen
     00004457  A$load_screen$124                  load_screen
     0000445A  A$load_screen$125                  load_screen
     0000445B  A$load_screen$126                  load_screen
     0000445E  A$load_screen$127                  load_screen
     0000445F  A$load_screen$128                  load_screen
     00004462  A$load_screen$129                  load_screen
     00004463  A$load_screen$130                  load_screen
     00004466  A$load_screen$131                  load_screen
     00004467  A$load_screen$132                  load_screen
     00004468  A$load_screen$133                  load_screen
     0000446B  A$load_screen$134                  load_screen
     0000446C  A$load_screen$135                  load_screen
     0000446D  A$load_screen$136                  load_screen
     0000446E  A$load_screen$137                  load_screen
     0000446F  A$load_screen$138                  load_screen
     00004470  A$load_screen$139                  load_screen
     00004471  A$load_screen$140                  load_screen
     00004474  A$load_screen$141                  load_screen
     00004475  A$load_screen$142                  load_screen
     00004476  A$load_screen$143                  load_screen
     00004477  A$load_screen$147                  load_screen
     00004477  C$load_screen.c$33$1_0$58          load_screen
     0000447A  A$load_screen$151                  load_screen
     0000447A  C$load_screen.c$34$1_0$58          load_screen
     0000447D  A$load_screen$155                  load_screen
     0000447D  C$load_screen.c$35$1_0$58          load_screen
     00004480  A$load_screen$159                  load_screen
     00004480  C$load_screen.c$37$1_0$58          load_screen
     00004483  A$load_screen$163                  load_screen
     00004483  C$load_screen.c$38$1_0$58          load_screen
     00004486  A$load_screen$167                  load_screen
ASxxxx Linker V03.00 + NoICE + sdld,  page 205.
Hexadecimal  [32-Bits]

Area                                    Addr        Size        Decimal Bytes (Attributes)
--------------------------------        ----        ----        ------- ----- ------------
_CODE                               00000200    0000636D =       25453. bytes (REL,CON)

      Value  Global                              Global Defined In Module
      -----  --------------------------------   ------------------------
     00004486  C$load_screen.c$39$1_0$58          load_screen
     00004489  A$load_screen$171                  load_screen
     00004489  C$load_screen.c$40$1_0$58          load_screen
     0000448C  A$load_screen$175                  load_screen
     0000448C  C$load_screen.c$41$1_0$58          load_screen
     0000448F  A$load_screen$176                  load_screen
     00004490  A$load_screen$177                  load_screen
     00004493  A$load_screen$178                  load_screen
     00004494  A$load_screen$179                  load_screen
     00004497  A$load_screen$180                  load_screen
     00004498  A$load_screen$181                  load_screen
     00004499  A$load_screen$182                  load_screen
     0000449A  A$load_screen$183                  load_screen
     0000449D  A$load_screen$184                  load_screen
     0000449E  A$load_screen$185                  load_screen
     0000449F  A$load_screen$189                  load_screen
     0000449F  C$load_screen.c$44$1_0$58          load_screen
     000044A2  A$load_screen$193                  load_screen
     000044A2  C$load_screen.c$45$1_0$58          load_screen
     000044A5  A$load_screen$197                  load_screen
     000044A5  C$load_screen.c$46$1_0$58          load_screen
     000044A8  A$load_screen$201                  load_screen
     000044A8  C$load_screen.c$47$1_0$58          load_screen
     000044AB  A$load_screen$205                  load_screen
     000044AB  C$load_screen.c$49$1_0$58          load_screen
     000044AE  A$load_screen$206                  load_screen
     000044AF  A$load_screen$207                  load_screen
     000044B1  A$load_screen$211                  load_screen
     000044B1  C$load_screen.c$51$2_0$59          load_screen
     000044B4  A$load_screen$212                  load_screen
     000044B5  A$load_screen$213                  load_screen
     000044B6  A$load_screen$214                  load_screen
     000044B9  A$load_screen$215                  load_screen
     000044BA  A$load_screen$220                  load_screen
     000044BA  C$load_screen.c$53$1_0$58          load_screen
     000044BD  A$load_screen$224                  load_screen
     000044BD  C$load_screen.c$56$1_0$58          load_screen
     000044C0  A$load_screen$228                  load_screen
     000044C2  A$load_screen$229                  load_screen
     000044C4  A$load_screen$234                  load_screen
     000044C4  C$load_screen.c$57$1_0$58          load_screen
     000044C4  XG$screen_load_screen_load$0$0     load_screen
     000044C5  A$load_screen$244                  load_screen
     000044C5  C$load_screen.c$59$1_0$61          load_screen
     000044C5  G$screen_load_screen_update$0$0    load_screen
     000044C5  _screen_load_screen_update         load_screen
     000044C7  A$load_screen$245                  load_screen
     000044CB  A$load_screen$246                  load_screen
     000044CD  A$load_screen$247                  load_screen
     000044CE  A$load_screen$251                  load_screen
     000044CE  C$load_screen.c$61$2_0$61          load_screen
ASxxxx Linker V03.00 + NoICE + sdld,  page 206.
Hexadecimal  [32-Bits]

Area                                    Addr        Size        Decimal Bytes (Attributes)
--------------------------------        ----        ----        ------- ----- ------------
_CODE                               00000200    0000636D =       25453. bytes (REL,CON)

      Value  Global                              Global Defined In Module
      -----  --------------------------------   ------------------------
     000044D1  A$load_screen$252                  load_screen
     000044D2  A$load_screen$253                  load_screen
     000044D3  A$load_screen$254                  load_screen
     000044D4  A$load_screen$255                  load_screen
     000044D5  A$load_screen$256                  load_screen
     000044D6  A$load_screen$257                  load_screen
     000044D7  A$load_screen$258                  load_screen
     000044D8  A$load_screen$259                  load_screen
     000044D9  A$load_screen$260                  load_screen
     000044DA  A$load_screen$264                  load_screen
     000044DA  C$load_screen.c$66$1_0$61          load_screen
     000044DB  A$load_screen$265                  load_screen
     000044DC  A$load_screen$266                  load_screen
     000044DF  A$load_screen$267                  load_screen
     000044E2  A$load_screen$268                  load_screen
     000044E5  A$load_screen$269                  load_screen
     000044E6  A$load_screen$270                  load_screen
     000044E7  A$load_screen$271                  load_screen
     000044E8  A$load_screen$272                  load_screen
     000044E9  A$load_screen$276                  load_screen
     000044E9  C$load_screen.c$71$1_0$61          load_screen
     000044EA  A$load_screen$277                  load_screen
     000044EB  A$load_screen$278                  load_screen
     000044EE  A$load_screen$279                  load_screen
     000044EF  A$load_screen$280                  load_screen
     000044F0  A$load_screen$281                  load_screen
     000044F1  A$load_screen$282                  load_screen
     000044F2  A$load_screen$286                  load_screen
     000044F2  C$load_screen.c$73$1_0$61          load_screen
     000044F3  A$load_screen$287                  load_screen
     000044F4  A$load_screen$288                  load_screen
     000044F7  A$load_screen$289                  load_screen
     000044F8  A$load_screen$290                  load_screen
     000044F9  A$load_screen$294                  load_screen
     000044FA  A$load_screen$295                  load_screen
     000044FB  A$load_screen$299                  load_screen
     000044FB  C$load_screen.c$79$1_0$61          load_screen
     000044FE  A$load_screen$300                  load_screen
     00004501  A$load_screen$304                  load_screen
     00004501  C$load_screen.c$74$1_0$61          load_screen
     00004502  A$load_screen$305                  load_screen
     00004503  A$load_screen$306                  load_screen
     00004505  A$load_screen$307                  load_screen
     00004506  A$load_screen$308                  load_screen
     00004507  A$load_screen$309                  load_screen
     00004509  A$load_screen$310                  load_screen
     0000450A  A$load_screen$311                  load_screen
     0000450C  A$load_screen$316                  load_screen
     0000450C  C$load_screen.c$76$2_0$62          load_screen
     0000450D  A$load_screen$317                  load_screen
     00004510  A$load_screen$318                  load_screen
ASxxxx Linker V03.00 + NoICE + sdld,  page 207.
Hexadecimal  [32-Bits]

Area                                    Addr        Size        Decimal Bytes (Attributes)
--------------------------------        ----        ----        ------- ----- ------------
_CODE                               00000200    0000636D =       25453. bytes (REL,CON)

      Value  Global                              Global Defined In Module
      -----  --------------------------------   ------------------------
     00004513  A$load_screen$319                  load_screen
     00004514  A$load_screen$320                  load_screen
     00004515  A$load_screen$321                  load_screen
     00004518  A$load_screen$322                  load_screen
     00004519  A$load_screen$323                  load_screen
     0000451A  A$load_screen$324                  load_screen
     0000451B  A$load_screen$325                  load_screen
     0000451C  A$load_screen$329                  load_screen
     0000451C  C$load_screen.c$77$2_0$62          load_screen
     0000451D  A$load_screen$330                  load_screen
     0000451E  A$load_screen$331                  load_screen
     0000451F  A$load_screen$332                  load_screen
     00004522  A$load_screen$333                  load_screen
     00004523  A$load_screen$334                  load_screen
     00004524  A$load_screen$338                  load_screen
     00004524  C$load_screen.c$79$2_0$62          load_screen
     00004526  A$load_screen$339                  load_screen
     00004527  A$load_screen$343                  load_screen
     00004527  C$load_screen.c$80$2_0$62          load_screen
     00004529  A$load_screen$348                  load_screen
     00004529  C$load_screen.c$83$1_0$61          load_screen
     0000452B  A$load_screen$349                  load_screen
     0000452C  A$load_screen$354                  load_screen
     0000452E  A$load_screen$355                  load_screen
     00004530  A$load_screen$360                  load_screen
     00004530  C$load_screen.c$84$1_0$61          load_screen
     00004530  XG$screen_load_screen_update$0$0   load_screen
     00004531  A$play_screen$91                   play_screen
     00004531  C$play_screen.c$32$0_0$23          play_screen
     00004531  C$play_screen.c$34$1_0$23          play_screen
     00004531  C$play_screen.c$35$1_0$23          play_screen
     00004531  G$screen_play_screen_load$0$0      play_screen
     00004531  _screen_play_screen_load           play_screen
     00004534  A$play_screen$95                   play_screen
     00004534  C$play_screen.c$38$1_0$23          play_screen
     00004537  A$play_screen$96                   play_screen
     00004538  A$play_screen$97                   play_screen
     0000453A  A$play_screen$98                   play_screen
     0000453D  A$play_screen$99                   play_screen
     0000453E  A$play_screen$100                  play_screen
     00004540  A$play_screen$102                  play_screen
     00004542  A$play_screen$104                  play_screen
     00004545  A$play_screen$108                  play_screen
     00004545  C$play_screen.c$39$1_0$23          play_screen
     00004548  A$play_screen$109                  play_screen
     00004549  A$play_screen$113                  play_screen
     00004549  C$play_screen.c$40$1_0$23          play_screen
     0000454C  A$play_screen$114                  play_screen
     0000454F  A$play_screen$118                  play_screen
     0000454F  C$play_screen.c$41$1_0$23          play_screen
     00004552  A$play_screen$119                  play_screen
ASxxxx Linker V03.00 + NoICE + sdld,  page 208.
Hexadecimal  [32-Bits]

Area                                    Addr        Size        Decimal Bytes (Attributes)
--------------------------------        ----        ----        ------- ----- ------------
_CODE                               00000200    0000636D =       25453. bytes (REL,CON)

      Value  Global                              Global Defined In Module
      -----  --------------------------------   ------------------------
     00004554  A$play_screen$123                  play_screen
     00004554  C$play_screen.c$42$1_0$23          play_screen
     00004555  A$play_screen$124                  play_screen
     00004557  A$play_screen$125                  play_screen
     00004558  A$play_screen$126                  play_screen
     00004559  A$play_screen$127                  play_screen
     0000455C  A$play_screen$131                  play_screen
     0000455C  C$play_screen.c$44$1_0$23          play_screen
     0000455E  A$play_screen$132                  play_screen
     0000455F  A$play_screen$133                  play_screen
     00004560  A$play_screen$134                  play_screen
     00004563  A$play_screen$135                  play_screen
     00004564  A$play_screen$143                  play_screen
     00004564  C$play_screen.c$45$1_0$23          play_screen
     00004564  XG$screen_play_screen_load$0$0     play_screen
     00004565  A$play_screen$153                  play_screen
     00004565  C$play_screen.c$47$1_0$25          play_screen
     00004565  G$screen_play_screen_update$0$0    play_screen
     00004565  _screen_play_screen_update         play_screen
     00004567  A$play_screen$154                  play_screen
     0000456B  A$play_screen$155                  play_screen
     0000456D  A$play_screen$156                  play_screen
     0000456E  A$play_screen$157                  play_screen
     0000456F  A$play_screen$173                  play_screen
     0000456F  C$play_screen.c$49$1_0$25          play_screen
     0000456F  C$play_screen.c$51$1_0$25          play_screen
     0000456F  C$play_screen.c$53$1_0$25          play_screen
     0000456F  C$play_screen.c$54$1_0$25          play_screen
     0000456F  C$play_screen.c$63$1_0$25          play_screen
     00004572  A$play_screen$174                  play_screen
     00004573  A$play_screen$178                  play_screen
     00004573  C$play_screen.c$64$1_0$25          play_screen
     00004574  A$play_screen$179                  play_screen
     00004576  A$play_screen$183                  play_screen
     00004576  C$play_screen.c$66$2_0$26          play_screen
     00004579  A$play_screen$184                  play_screen
     0000457B  A$play_screen$189                  play_screen
     0000457B  C$play_screen.c$69$1_0$25          play_screen
     0000457E  A$play_screen$190                  play_screen
     0000457F  A$play_screen$191                  play_screen
     00004581  A$play_screen$195                  play_screen
     00004581  C$play_screen.c$72$2_0$27          play_screen
     00004584  A$play_screen$199                  play_screen
     00004584  C$play_screen.c$73$2_0$27          play_screen
     00004587  A$play_screen$203                  play_screen
     00004587  C$play_screen.c$74$2_0$27          play_screen
     0000458A  A$play_screen$207                  play_screen
     0000458A  C$play_screen.c$75$2_0$27          play_screen
     0000458D  A$play_screen$211                  play_screen
     0000458D  C$play_screen.c$78$2_0$27          play_screen
     00004590  A$play_screen$216                  play_screen
ASxxxx Linker V03.00 + NoICE + sdld,  page 209.
Hexadecimal  [32-Bits]

Area                                    Addr        Size        Decimal Bytes (Attributes)
--------------------------------        ----        ----        ------- ----- ------------
_CODE                               00000200    0000636D =       25453. bytes (REL,CON)

      Value  Global                              Global Defined In Module
      -----  --------------------------------   ------------------------
     00004590  C$play_screen.c$81$1_0$25          play_screen
     00004593  A$play_screen$217                  play_screen
     00004594  A$play_screen$218                  play_screen
     00004596  A$play_screen$222                  play_screen
     00004596  C$play_screen.c$83$2_0$28          play_screen
     00004599  A$play_screen$223                  play_screen
     0000459A  A$play_screen$224                  play_screen
     0000459D  A$play_screen$225                  play_screen
     0000459F  A$play_screen$226                  play_screen
     000045A0  A$play_screen$227                  play_screen
     000045A1  A$play_screen$232                  play_screen
     000045A1  C$play_screen.c$87$1_0$25          play_screen
     000045A4  A$play_screen$236                  play_screen
     000045A4  C$play_screen.c$88$1_0$25          play_screen
     000045A7  A$play_screen$240                  play_screen
     000045A7  C$play_screen.c$92$1_0$25          play_screen
     000045AA  A$play_screen$244                  play_screen
     000045AA  C$play_screen.c$93$1_0$25          play_screen
     000045AB  A$play_screen$245                  play_screen
     000045AC  A$play_screen$246                  play_screen
     000045AE  A$play_screen$250                  play_screen
     000045AE  C$play_screen.c$95$2_0$29          play_screen
     000045B1  A$play_screen$251                  play_screen
     000045B2  A$play_screen$255                  play_screen
     000045B2  C$play_screen.c$96$2_0$29          play_screen
     000045B3  A$play_screen$256                  play_screen
     000045B5  A$play_screen$260                  play_screen
     000045B5  C$play_screen.c$98$3_0$30          play_screen
     000045B8  A$play_screen$264                  play_screen
     000045B8  C$play_screen.c$99$3_0$30          play_screen
     000045BB  A$play_screen$265                  play_screen
     000045BC  A$play_screen$269                  play_screen
     000045BC  C$play_screen.c$102$1_0$25         play_screen
     000045BF  A$play_screen$273                  play_screen
     000045BF  C$play_screen.c$100$3_0$30         play_screen
     000045C0  A$play_screen$274                  play_screen
     000045C2  A$play_screen$278                  play_screen
     000045C2  C$play_screen.c$102$4_0$31         play_screen
     000045C4  A$play_screen$279                  play_screen
     000045C6  A$play_screen$284                  play_screen
     000045C6  C$play_screen.c$106$4_0$32         play_screen
     000045C8  A$play_screen$289                  play_screen
     000045C8  C$play_screen.c$109$3_0$30         play_screen
     000045CB  A$play_screen$290                  play_screen
     000045CE  A$play_screen$291                  play_screen
     000045D0  A$play_screen$295                  play_screen
     000045D0  C$play_screen.c$110$3_0$30         play_screen
     000045D3  A$play_screen$300                  play_screen
     000045D3  C$play_screen.c$115$2_0$33         play_screen
     000045D6  A$play_screen$305                  play_screen
     000045D6  C$play_screen.c$120$1_0$25         play_screen
ASxxxx Linker V03.00 + NoICE + sdld,  page 210.
Hexadecimal  [32-Bits]

Area                                    Addr        Size        Decimal Bytes (Attributes)
--------------------------------        ----        ----        ------- ----- ------------
_CODE                               00000200    0000636D =       25453. bytes (REL,CON)

      Value  Global                              Global Defined In Module
      -----  --------------------------------   ------------------------
     000045D9  A$play_screen$306                  play_screen
     000045DB  A$play_screen$307                  play_screen
     000045DD  A$play_screen$311                  play_screen
     000045DD  C$play_screen.c$122$2_0$34         play_screen
     000045E0  A$play_screen$312                  play_screen
     000045E1  A$play_screen$313                  play_screen
     000045E4  A$play_screen$314                  play_screen
     000045E5  A$play_screen$315                  play_screen
     000045E7  A$play_screen$319                  play_screen
     000045E7  C$play_screen.c$125$3_0$35         play_screen
     000045EA  A$play_screen$320                  play_screen
     000045EB  A$play_screen$324                  play_screen
     000045EB  C$play_screen.c$126$3_0$35         play_screen
     000045EC  A$play_screen$325                  play_screen
     000045ED  A$play_screen$326                  play_screen
     000045EF  A$play_screen$330                  play_screen
     000045EF  C$play_screen.c$128$4_0$36         play_screen
     000045F0  A$play_screen$331                  play_screen
     000045F1  A$play_screen$332                  play_screen
     000045F3  A$play_screen$336                  play_screen
     000045F3  C$play_screen.c$130$5_0$37         play_screen
     000045F6  A$play_screen$337                  play_screen
     000045F9  A$play_screen$338                  play_screen
     000045FB  A$play_screen$342                  play_screen
     000045FB  C$play_screen.c$131$5_0$37         play_screen
     000045FE  A$play_screen$347                  play_screen
     000045FE  C$play_screen.c$133$4_0$36         play_screen
     000045FF  A$play_screen$348                  play_screen
     00004601  A$play_screen$349                  play_screen
     00004603  A$play_screen$350                  play_screen
     00004605  A$play_screen$351                  play_screen
     00004607  A$play_screen$356                  play_screen
     00004607  C$play_screen.c$135$5_0$38         play_screen
     0000460A  A$play_screen$360                  play_screen
     0000460A  C$play_screen.c$136$5_0$38         play_screen
     0000460D  A$play_screen$364                  play_screen
     0000460D  C$play_screen.c$138$5_0$38         play_screen
     00004610  A$play_screen$365                  play_screen
     00004613  A$play_screen$366                  play_screen
     00004614  A$play_screen$367                  play_screen
     00004615  A$play_screen$368                  play_screen
     00004618  A$play_screen$369                  play_screen
     00004619  A$play_screen$370                  play_screen
     0000461A  A$play_screen$371                  play_screen
     0000461B  A$play_screen$372                  play_screen
     0000461C  A$play_screen$373                  play_screen
     0000461E  A$play_screen$377                  play_screen
     0000461E  C$play_screen.c$140$6_0$39         play_screen
     00004621  A$play_screen$378                  play_screen
     00004623  A$play_screen$382                  play_screen
     00004623  C$play_screen.c$141$6_0$39         play_screen
ASxxxx Linker V03.00 + NoICE + sdld,  page 211.
Hexadecimal  [32-Bits]

Area                                    Addr        Size        Decimal Bytes (Attributes)
--------------------------------        ----        ----        ------- ----- ------------
_CODE                               00000200    0000636D =       25453. bytes (REL,CON)

      Value  Global                              Global Defined In Module
      -----  --------------------------------   ------------------------
     00004626  A$play_screen$383                  play_screen
     00004628  A$play_screen$388                  play_screen
     00004628  C$play_screen.c$149$4_0$36         play_screen
     00004629  A$play_screen$389                  play_screen
     0000462B  A$play_screen$390                  play_screen
     0000462D  A$play_screen$391                  play_screen
     0000462F  A$play_screen$392                  play_screen
     00004631  A$play_screen$397                  play_screen
     00004631  C$play_screen.c$151$5_0$40         play_screen
     00004634  A$play_screen$402                  play_screen
     00004634  C$play_screen.c$158$1_0$25         play_screen
     00004637  A$play_screen$403                  play_screen
     00004638  A$play_screen$404                  play_screen
     0000463A  A$play_screen$408                  play_screen
     0000463A  C$play_screen.c$160$2_0$41         play_screen
     0000463D  A$play_screen$409                  play_screen
     00004640  A$play_screen$410                  play_screen
     00004642  A$play_screen$414                  play_screen
     00004642  C$play_screen.c$161$2_0$41         play_screen
     00004645  A$play_screen$419                  play_screen
     00004645  C$play_screen.c$165$1_0$25         play_screen
     00004648  A$play_screen$420                  play_screen
     0000464A  A$play_screen$421                  play_screen
     0000464C  A$play_screen$425                  play_screen
     0000464C  C$play_screen.c$167$2_0$42         play_screen
     0000464F  A$play_screen$426                  play_screen
     00004652  A$play_screen$427                  play_screen
     00004654  A$play_screen$431                  play_screen
     00004654  C$play_screen.c$168$2_0$42         play_screen
     00004657  A$play_screen$436                  play_screen
     00004657  C$play_screen.c$172$1_0$25         play_screen
     0000465A  A$play_screen$437                  play_screen
     0000465B  A$play_screen$438                  play_screen
     0000465C  A$play_screen$439                  play_screen
     0000465E  A$play_screen$440                  play_screen
     00004660  A$play_screen$441                  play_screen
     00004662  A$play_screen$442                  play_screen
     00004664  A$play_screen$446                  play_screen
     00004664  C$play_screen.c$174$2_0$43         play_screen
     00004667  A$play_screen$447                  play_screen
     0000466A  A$play_screen$448                  play_screen
     0000466C  A$play_screen$452                  play_screen
     0000466C  C$play_screen.c$175$2_0$43         play_screen
     0000466F  A$play_screen$457                  play_screen
     00004673  A$play_screen$458                  play_screen
     00004677  A$play_screen$459                  play_screen
     0000467A  A$play_screen$460                  play_screen
     0000467D  A$play_screen$461                  play_screen
     00004680  A$play_screen$462                  play_screen
     00004683  A$play_screen$463                  play_screen
     00004687  A$play_screen$465                  play_screen
ASxxxx Linker V03.00 + NoICE + sdld,  page 212.
Hexadecimal  [32-Bits]

Area                                    Addr        Size        Decimal Bytes (Attributes)
--------------------------------        ----        ----        ------- ----- ------------
_CODE                               00000200    0000636D =       25453. bytes (REL,CON)

      Value  Global                              Global Defined In Module
      -----  --------------------------------   ------------------------
     0000468A  A$play_screen$466                  play_screen
     0000468D  A$play_screen$467                  play_screen
     0000468E  A$play_screen$468                  play_screen
     00004691  A$play_screen$472                  play_screen
     00004691  C$play_screen.c$181$3_0$45         play_screen
     00004694  A$play_screen$473                  play_screen
     00004696  A$play_screen$474                  play_screen
     00004697  A$play_screen$475                  play_screen
     00004698  A$play_screen$476                  play_screen
     00004699  A$play_screen$477                  play_screen
     0000469A  A$play_screen$478                  play_screen
     0000469B  A$play_screen$479                  play_screen
     0000469C  A$play_screen$480                  play_screen
     0000469D  A$play_screen$481                  play_screen
     0000469E  A$play_screen$482                  play_screen
     000046A1  A$play_screen$483                  play_screen
     000046A2  A$play_screen$487                  play_screen
     000046A2  C$play_screen.c$182$3_0$45         play_screen
     000046A3  A$play_screen$488                  play_screen
     000046A4  A$play_screen$489                  play_screen
     000046A5  A$play_screen$490                  play_screen
     000046A6  A$play_screen$491                  play_screen
     000046A7  A$play_screen$492                  play_screen
     000046A8  A$play_screen$493                  play_screen
     000046A9  A$play_screen$494                  play_screen
     000046AA  A$play_screen$495                  play_screen
     000046AB  A$play_screen$496                  play_screen
     000046AE  A$play_screen$497                  play_screen
     000046B1  A$play_screen$498                  play_screen
     000046B3  A$play_screen$500                  play_screen
     000046B6  A$play_screen$501                  play_screen
     000046B9  A$play_screen$502                  play_screen
     000046BA  A$play_screen$503                  play_screen
     000046BD  A$play_screen$504                  play_screen
     000046BF  A$play_screen$506                  play_screen
     000046C2  A$play_screen$510                  play_screen
     000046C2  C$play_screen.c$186$4_0$46         play_screen
     000046C5  A$play_screen$511                  play_screen
     000046C6  A$play_screen$512                  play_screen
     000046C7  A$play_screen$513                  play_screen
     000046C9  A$play_screen$514                  play_screen
     000046CA  A$play_screen$515                  play_screen
     000046CB  A$play_screen$516                  play_screen
     000046CC  A$play_screen$517                  play_screen
     000046CD  A$play_screen$518                  play_screen
     000046D0  A$play_screen$519                  play_screen
     000046D2  A$play_screen$521                  play_screen
     000046D5  A$play_screen$525                  play_screen
     000046D5  C$play_screen.c$188$5_0$47         play_screen
     000046D6  A$play_screen$526                  play_screen
     000046D7  A$play_screen$527                  play_screen
ASxxxx Linker V03.00 + NoICE + sdld,  page 213.
Hexadecimal  [32-Bits]

Area                                    Addr        Size        Decimal Bytes (Attributes)
--------------------------------        ----        ----        ------- ----- ------------
_CODE                               00000200    0000636D =       25453. bytes (REL,CON)

      Value  Global                              Global Defined In Module
      -----  --------------------------------   ------------------------
     000046D8  A$play_screen$528                  play_screen
     000046D9  A$play_screen$529                  play_screen
     000046DA  A$play_screen$530                  play_screen
     000046DB  A$play_screen$531                  play_screen
     000046DD  A$play_screen$536                  play_screen
     000046DD  C$play_screen.c$192$5_0$48         play_screen
     000046DE  A$play_screen$537                  play_screen
     000046E0  A$play_screen$538                  play_screen
     000046E1  A$play_screen$543                  play_screen
     000046E1  C$play_screen.c$195$4_0$46         play_screen
     000046E4  A$play_screen$544                  play_screen
     000046E6  A$play_screen$545                  play_screen
     000046E7  A$play_screen$546                  play_screen
     000046E8  A$play_screen$547                  play_screen
     000046E9  A$play_screen$548                  play_screen
     000046EC  A$play_screen$549                  play_screen
     000046EE  A$play_screen$551                  play_screen
     000046F1  A$play_screen$555                  play_screen
     000046F1  C$play_screen.c$197$5_0$49         play_screen
     000046F4  A$play_screen$556                  play_screen
     000046F7  A$play_screen$557                  play_screen
     000046F8  A$play_screen$561                  play_screen
     000046F8  C$play_screen.c$198$5_0$49         play_screen
     000046FB  A$play_screen$562                  play_screen
     000046FE  A$play_screen$563                  play_screen
     00004700  A$play_screen$567                  play_screen
     00004700  C$play_screen.c$199$5_0$49         play_screen
     00004702  A$play_screen$572                  play_screen
     00004702  C$play_screen.c$179$2_0$44         play_screen
     00004705  A$play_screen$573                  play_screen
     00004708  A$play_screen$574                  play_screen
     0000470B  A$play_screen$575                  play_screen
     0000470E  A$play_screen$580                  play_screen
     0000470E  C$play_screen.c$204$1_0$25         play_screen
     00004711  A$play_screen$581                  play_screen
     00004714  A$play_screen$582                  play_screen
     00004716  A$play_screen$587                  play_screen
     00004718  A$play_screen$588                  play_screen
     0000471A  A$play_screen$593                  play_screen
     0000471A  C$play_screen.c$205$1_0$25         play_screen
     0000471A  XG$screen_play_screen_update$0$0   play_screen
     0000471B  A$play_screen$609                  play_screen
     0000471B  C$play_screen.c$207$1_0$50         play_screen
     0000471B  C$play_screen.c$209$1_0$50         play_screen
     0000471B  C$play_screen.c$211$1_0$50         play_screen
     0000471B  Fplay_screen$increase_lives$0$0    play_screen
     0000471E  A$play_screen$610                  play_screen
     0000471F  A$play_screen$614                  play_screen
     0000471F  C$play_screen.c$213$2_0$51         play_screen
     00004720  A$play_screen$618                  play_screen
     00004720  C$play_screen.c$216$1_0$50         play_screen
ASxxxx Linker V03.00 + NoICE + sdld,  page 214.
Hexadecimal  [32-Bits]

Area                                    Addr        Size        Decimal Bytes (Attributes)
--------------------------------        ----        ----        ------- ----- ------------
_CODE                               00000200    0000636D =       25453. bytes (REL,CON)

      Value  Global                              Global Defined In Module
      -----  --------------------------------   ------------------------
     00004723  A$play_screen$619                  play_screen
     00004725  A$play_screen$620                  play_screen
     00004726  A$play_screen$624                  play_screen
     00004726  C$play_screen.c$218$2_0$52         play_screen
     00004729  A$play_screen$628                  play_screen
     00004729  C$play_screen.c$219$2_0$52         play_screen
     0000472B  A$play_screen$629                  play_screen
     0000472C  A$play_screen$630                  play_screen
     0000472D  A$play_screen$631                  play_screen
     00004730  A$play_screen$632                  play_screen
     00004731  A$play_screen$643                  play_screen
     00004731  C$play_screen.c$220$2_0$52         play_screen
     00004731  C$play_screen.c$222$1_0$50         play_screen
     00004731  XFplay_screen$increase_lives$0$0   play_screen
     00004734  A$play_screen$653                  play_screen
     00004734  C$play_screen.c$224$1_0$53         play_screen
     00004734  Fplay_screen$ground_collision$0$   play_screen
     00004736  A$play_screen$654                  play_screen
     0000473A  A$play_screen$655                  play_screen
     0000473C  A$play_screen$656                  play_screen
     0000473F  A$play_screen$657                  play_screen
     00004740  A$play_screen$658                  play_screen
     00004741  A$play_screen$668                  play_screen
     00004741  C$play_screen.c$226$1_0$53         play_screen
     00004741  C$play_screen.c$227$1_0$53         play_screen
     00004741  C$play_screen.c$233$1_0$53         play_screen
     00004745  A$play_screen$669                  play_screen
     00004748  A$play_screen$670                  play_screen
     0000474B  A$play_screen$671                  play_screen
     0000474C  A$play_screen$672                  play_screen
     0000474D  A$play_screen$673                  play_screen
     00004750  A$play_screen$674                  play_screen
     00004753  A$play_screen$675                  play_screen
     00004756  A$play_screen$676                  play_screen
     00004757  A$play_screen$677                  play_screen
     00004758  A$play_screen$678                  play_screen
     00004759  A$play_screen$679                  play_screen
     0000475C  A$play_screen$680                  play_screen
     0000475D  A$play_screen$681                  play_screen
     0000475E  A$play_screen$682                  play_screen
     0000475F  A$play_screen$683                  play_screen
     00004760  A$play_screen$684                  play_screen
     00004763  A$play_screen$685                  play_screen
     00004766  A$play_screen$686                  play_screen
     00004767  A$play_screen$687                  play_screen
     00004768  A$play_screen$688                  play_screen
     00004769  A$play_screen$689                  play_screen
     0000476A  A$play_screen$690                  play_screen
     0000476B  A$play_screen$691                  play_screen
     0000476C  A$play_screen$692                  play_screen
     0000476D  A$play_screen$693                  play_screen
ASxxxx Linker V03.00 + NoICE + sdld,  page 215.
Hexadecimal  [32-Bits]

Area                                    Addr        Size        Decimal Bytes (Attributes)
--------------------------------        ----        ----        ------- ----- ------------
_CODE                               00000200    0000636D =       25453. bytes (REL,CON)

      Value  Global                              Global Defined In Module
      -----  --------------------------------   ------------------------
     0000476E  A$play_screen$694                  play_screen
     0000476F  A$play_screen$695                  play_screen
     00004770  A$play_screen$696                  play_screen
     00004773  A$play_screen$697                  play_screen
     00004776  A$play_screen$701                  play_screen
     00004776  C$play_screen.c$234$1_0$53         play_screen
     00004779  A$play_screen$702                  play_screen
     0000477B  A$play_screen$703                  play_screen
     0000477E  A$play_screen$704                  play_screen
     00004781  A$play_screen$705                  play_screen
     00004783  A$play_screen$706                  play_screen
     00004786  A$play_screen$707                  play_screen
     00004789  A$play_screen$708                  play_screen
     0000478C  A$play_screen$709                  play_screen
     0000478D  A$play_screen$710                  play_screen
     0000478E  A$play_screen$711                  play_screen
     0000478F  A$play_screen$712                  play_screen
     00004792  A$play_screen$713                  play_screen
     00004793  A$play_screen$714                  play_screen
     00004794  A$play_screen$715                  play_screen
     00004795  A$play_screen$716                  play_screen
     00004796  A$play_screen$717                  play_screen
     00004797  A$play_screen$718                  play_screen
     0000479A  A$play_screen$719                  play_screen
     0000479D  A$play_screen$723                  play_screen
     0000479D  C$play_screen.c$237$1_0$53         play_screen
     000047A0  A$play_screen$724                  play_screen
     000047A1  A$play_screen$725                  play_screen
     000047A4  A$play_screen$726                  play_screen
     000047A5  A$play_screen$727                  play_screen
     000047A7  A$play_screen$728                  play_screen
     000047AA  A$play_screen$729                  play_screen
     000047AB  A$play_screen$730                  play_screen
     000047AC  A$play_screen$731                  play_screen
     000047AD  A$play_screen$732                  play_screen
     000047AE  A$play_screen$733                  play_screen
     000047B1  A$play_screen$734                  play_screen
     000047B4  A$play_screen$735                  play_screen
     000047B5  A$play_screen$736                  play_screen
     000047B7  A$play_screen$737                  play_screen
     000047B9  A$play_screen$741                  play_screen
     000047B9  C$play_screen.c$239$2_0$54         play_screen
     000047BB  A$play_screen$742                  play_screen
     000047BE  A$play_screen$747                  play_screen
     000047BE  C$play_screen.c$243$1_0$53         play_screen
     000047C0  A$play_screen$748                  play_screen
     000047C3  A$play_screen$749                  play_screen
     000047C6  A$play_screen$750                  play_screen
     000047C8  A$play_screen$751                  play_screen
     000047CB  A$play_screen$752                  play_screen
     000047CE  A$play_screen$753                  play_screen
ASxxxx Linker V03.00 + NoICE + sdld,  page 216.
Hexadecimal  [32-Bits]

Area                                    Addr        Size        Decimal Bytes (Attributes)
--------------------------------        ----        ----        ------- ----- ------------
_CODE                               00000200    0000636D =       25453. bytes (REL,CON)

      Value  Global                              Global Defined In Module
      -----  --------------------------------   ------------------------
     000047D1  A$play_screen$754                  play_screen
     000047D4  A$play_screen$755                  play_screen
     000047D5  A$play_screen$759                  play_screen
     000047D5  C$play_screen.c$244$1_0$53         play_screen
     000047D8  A$play_screen$760                  play_screen
     000047D9  A$play_screen$761                  play_screen
     000047DB  A$play_screen$765                  play_screen
     000047DB  C$play_screen.c$246$2_0$55         play_screen
     000047DE  A$play_screen$766                  play_screen
     000047E0  A$play_screen$767                  play_screen
     000047E2  A$play_screen$768                  play_screen
     000047E4  A$play_screen$769                  play_screen
     000047E5  A$play_screen$771                  play_screen
     000047E8  A$play_screen$772                  play_screen
     000047E9  A$play_screen$773                  play_screen
     000047EB  A$play_screen$774                  play_screen
     000047EE  A$play_screen$775                  play_screen
     000047F0  A$play_screen$776                  play_screen
     000047F2  A$play_screen$781                  play_screen
     000047F2  C$play_screen.c$248$3_0$56         play_screen
     000047F5  A$play_screen$782                  play_screen
     000047F8  A$play_screen$783                  play_screen
     000047FA  A$play_screen$787                  play_screen
     000047FA  C$play_screen.c$249$3_0$56         play_screen
     000047FD  A$play_screen$788                  play_screen
     000047FE  A$play_screen$789                  play_screen
     00004801  A$play_screen$790                  play_screen
     00004802  A$play_screen$791                  play_screen
     00004803  A$play_screen$792                  play_screen
     00004804  A$play_screen$793                  play_screen
     00004805  A$play_screen$794                  play_screen
     00004808  A$play_screen$795                  play_screen
     00004809  A$play_screen$800                  play_screen
     00004809  C$play_screen.c$251$2_0$55         play_screen
     0000480C  A$play_screen$801                  play_screen
     0000480D  A$play_screen$802                  play_screen
     0000480F  A$play_screen$806                  play_screen
     0000480F  C$play_screen.c$253$3_0$57         play_screen
     00004811  A$play_screen$807                  play_screen
     00004813  A$play_screen$812                  play_screen
     00004813  C$play_screen.c$255$2_0$55         play_screen
     00004816  A$play_screen$813                  play_screen
     00004818  A$play_screen$814                  play_screen
     0000481A  A$play_screen$818                  play_screen
     0000481A  C$play_screen.c$257$3_0$58         play_screen
     0000481C  A$play_screen$819                  play_screen
     0000481E  A$play_screen$824                  play_screen
     0000481E  C$play_screen.c$262$1_0$53         play_screen
     00004820  A$play_screen$825                  play_screen
     00004823  A$play_screen$826                  play_screen
     00004824  A$play_screen$827                  play_screen
ASxxxx Linker V03.00 + NoICE + sdld,  page 217.
Hexadecimal  [32-Bits]

Area                                    Addr        Size        Decimal Bytes (Attributes)
--------------------------------        ----        ----        ------- ----- ------------
_CODE                               00000200    0000636D =       25453. bytes (REL,CON)

      Value  Global                              Global Defined In Module
      -----  --------------------------------   ------------------------
     00004826  A$play_screen$828                  play_screen
     00004829  A$play_screen$829                  play_screen
     0000482A  A$play_screen$830                  play_screen
     0000482B  A$play_screen$837                  play_screen
     0000482B  C$play_screen.c$263$1_0$53         play_screen
     0000482B  C$play_screen.c$265$2_0$59         play_screen
     0000482C  A$play_screen$838                  play_screen
     0000482D  A$play_screen$839                  play_screen
     0000482F  A$play_screen$840                  play_screen
     00004831  A$play_screen$841                  play_screen
     00004833  A$play_screen$842                  play_screen
     00004835  A$play_screen$843                  play_screen
     00004836  A$play_screen$845                  play_screen
     00004837  A$play_screen$846                  play_screen
     00004838  A$play_screen$847                  play_screen
     0000483A  A$play_screen$848                  play_screen
     0000483B  A$play_screen$849                  play_screen
     0000483D  A$play_screen$850                  play_screen
     0000483F  A$play_screen$855                  play_screen
     0000483F  C$play_screen.c$267$3_0$60         play_screen
     00004840  A$play_screen$856                  play_screen
     00004841  A$play_screen$860                  play_screen
     00004841  C$play_screen.c$268$3_0$60         play_screen
     00004844  A$play_screen$861                  play_screen
     00004845  A$play_screen$862                  play_screen
     00004846  A$play_screen$863                  play_screen
     00004849  A$play_screen$864                  play_screen
     0000484A  A$play_screen$865                  play_screen
     0000484B  A$play_screen$866                  play_screen
     0000484C  A$play_screen$867                  play_screen
     0000484D  A$play_screen$868                  play_screen
     0000484E  A$play_screen$869                  play_screen
     00004851  A$play_screen$870                  play_screen
     00004852  A$play_screen$871                  play_screen
     00004853  A$play_screen$876                  play_screen
     00004853  C$play_screen.c$270$2_0$59         play_screen
     00004854  A$play_screen$877                  play_screen
     00004855  A$play_screen$878                  play_screen
     00004857  A$play_screen$882                  play_screen
     00004857  C$play_screen.c$272$3_0$61         play_screen
     00004859  A$play_screen$883                  play_screen
     0000485B  A$play_screen$888                  play_screen
     0000485B  C$play_screen.c$274$2_0$59         play_screen
     0000485C  A$play_screen$889                  play_screen
     0000485E  A$play_screen$896                  play_screen
     0000485E  C$play_screen.c$276$3_0$62         play_screen
     0000485E  C$play_screen.c$280$1_0$53         play_screen
     00004860  A$play_screen$897                  play_screen
     00004862  A$play_screen$899                  play_screen
     00004864  A$play_screen$904                  play_screen
     00004866  A$play_screen$905                  play_screen
ASxxxx Linker V03.00 + NoICE + sdld,  page 218.
Hexadecimal  [32-Bits]

Area                                    Addr        Size        Decimal Bytes (Attributes)
--------------------------------        ----        ----        ------- ----- ------------
_CODE                               00000200    0000636D =       25453. bytes (REL,CON)

      Value  Global                              Global Defined In Module
      -----  --------------------------------   ------------------------
     00004868  A$play_screen$910                  play_screen
     00004868  C$play_screen.c$281$1_0$53         play_screen
     00004868  XFplay_screen$ground_collision$0   play_screen
     00004869  A$reset_screen$66                  reset_screen
     00004869  C$reset_screen.c$16$0_0$7          reset_screen
     00004869  C$reset_screen.c$18$1_0$7          reset_screen
     00004869  G$screen_reset_screen_load$0$0     reset_screen
     00004869  _screen_reset_screen_load          reset_screen
     0000486C  A$reset_screen$70                  reset_screen
     0000486C  C$reset_screen.c$19$1_0$7          reset_screen
     0000486F  A$reset_screen$74                  reset_screen
     0000486F  C$reset_screen.c$20$1_0$7          reset_screen
     00004872  A$reset_screen$75                  reset_screen
     00004873  A$reset_screen$76                  reset_screen
     00004876  A$reset_screen$77                  reset_screen
     00004877  A$reset_screen$81                  reset_screen
     00004877  C$reset_screen.c$21$1_0$7          reset_screen
     0000487A  A$reset_screen$85                  reset_screen
     0000487A  C$reset_screen.c$22$1_0$7          reset_screen
     0000487C  A$reset_screen$86                  reset_screen
     0000487F  A$reset_screen$94                  reset_screen
     0000487F  C$reset_screen.c$23$1_0$7          reset_screen
     0000487F  XG$screen_reset_screen_load$0$0    reset_screen
     00004880  A$reset_screen$104                 reset_screen
     00004880  C$reset_screen.c$25$1_0$9          reset_screen
     00004880  G$screen_reset_screen_update$0$0   reset_screen
     00004880  _screen_reset_screen_update        reset_screen
     00004882  A$reset_screen$105                 reset_screen
     00004886  A$reset_screen$106                 reset_screen
     00004888  A$reset_screen$116                 reset_screen
     00004888  C$reset_screen.c$27$1_0$9          reset_screen
     00004888  C$reset_screen.c$28$1_0$9          reset_screen
     00004888  C$reset_screen.c$31$1_0$9          reset_screen
     0000488B  A$reset_screen$120                 reset_screen
     0000488B  C$reset_screen.c$32$1_0$9          reset_screen
     0000488E  A$reset_screen$121                 reset_screen
     0000488F  A$reset_screen$122                 reset_screen
     00004891  A$reset_screen$126                 reset_screen
     00004891  C$reset_screen.c$34$2_0$10         reset_screen
     00004894  A$reset_screen$130                 reset_screen
     00004894  C$reset_screen.c$47$1_0$9          reset_screen
     00004897  A$reset_screen$131                 reset_screen
     0000489A  A$reset_screen$135                 reset_screen
     0000489A  C$reset_screen.c$35$2_0$10         reset_screen
     0000489B  A$reset_screen$136                 reset_screen
     0000489C  A$reset_screen$137                 reset_screen
     0000489E  A$reset_screen$141                 reset_screen
     0000489E  C$reset_screen.c$37$3_0$11         reset_screen
     000048A1  A$reset_screen$142                 reset_screen
     000048A2  A$reset_screen$143                 reset_screen
     000048A4  A$reset_screen$144                 reset_screen
ASxxxx Linker V03.00 + NoICE + sdld,  page 219.
Hexadecimal  [32-Bits]

Area                                    Addr        Size        Decimal Bytes (Attributes)
--------------------------------        ----        ----        ------- ----- ------------
_CODE                               00000200    0000636D =       25453. bytes (REL,CON)

      Value  Global                              Global Defined In Module
      -----  --------------------------------   ------------------------
     000048A6  A$reset_screen$148                 reset_screen
     000048A6  C$reset_screen.c$39$4_0$12         reset_screen
     000048A9  A$reset_screen$149                 reset_screen
     000048AA  A$reset_screen$150                 reset_screen
     000048AB  A$reset_screen$151                 reset_screen
     000048AD  A$reset_screen$155                 reset_screen
     000048AD  C$reset_screen.c$41$5_0$13         reset_screen
     000048AF  A$reset_screen$159                 reset_screen
     000048AF  C$reset_screen.c$42$5_0$13         reset_screen
     000048B2  A$reset_screen$160                 reset_screen
     000048B4  A$reset_screen$164                 reset_screen
     000048B4  C$reset_screen.c$43$5_0$13         reset_screen
     000048B7  A$reset_screen$165                 reset_screen
     000048B9  A$reset_screen$170                 reset_screen
     000048B9  C$reset_screen.c$47$3_0$11         reset_screen
     000048BA  A$reset_screen$171                 reset_screen
     000048BB  A$reset_screen$175                 reset_screen
     000048BB  C$reset_screen.c$48$3_0$11         reset_screen
     000048BD  A$reset_screen$180                 reset_screen
     000048BD  C$reset_screen.c$52$3_0$14         reset_screen
     000048BF  A$reset_screen$181                 reset_screen
     000048C0  A$reset_screen$185                 reset_screen
     000048C0  C$reset_screen.c$53$3_0$14         reset_screen
     000048C2  A$reset_screen$190                 reset_screen
     000048C2  C$reset_screen.c$57$1_0$9          reset_screen
     000048C5  A$reset_screen$191                 reset_screen
     000048C6  A$reset_screen$195                 reset_screen
     000048C6  C$reset_screen.c$58$1_0$9          reset_screen
     000048C7  A$reset_screen$196                 reset_screen
     000048C9  A$reset_screen$200                 reset_screen
     000048C9  C$reset_screen.c$60$2_0$15         reset_screen
     000048CC  A$reset_screen$201                 reset_screen
     000048CE  A$reset_screen$205                 reset_screen
     000048CE  C$reset_screen.c$61$2_0$15         reset_screen
     000048D1  A$reset_screen$206                 reset_screen
     000048D2  A$reset_screen$207                 reset_screen
     000048D5  A$reset_screen$208                 reset_screen
     000048D6  A$reset_screen$212                 reset_screen
     000048D6  C$reset_screen.c$62$2_0$15         reset_screen
     000048D8  A$reset_screen$217                 reset_screen
     000048D8  C$reset_screen.c$66$1_0$9          reset_screen
     000048DB  A$reset_screen$218                 reset_screen
     000048DD  A$reset_screen$219                 reset_screen
     000048DF  A$reset_screen$223                 reset_screen
     000048DF  C$reset_screen.c$68$2_0$16         reset_screen
     000048E2  A$reset_screen$224                 reset_screen
     000048E4  A$reset_screen$229                 reset_screen
     000048E4  C$reset_screen.c$72$2_0$17         reset_screen
     000048E7  A$reset_screen$234                 reset_screen
     000048E7  C$reset_screen.c$75$1_0$9          reset_screen
     000048EA  A$reset_screen$235                 reset_screen
ASxxxx Linker V03.00 + NoICE + sdld,  page 220.
Hexadecimal  [32-Bits]

Area                                    Addr        Size        Decimal Bytes (Attributes)
--------------------------------        ----        ----        ------- ----- ------------
_CODE                               00000200    0000636D =       25453. bytes (REL,CON)

      Value  Global                              Global Defined In Module
      -----  --------------------------------   ------------------------
     000048ED  A$reset_screen$236                 reset_screen
     000048EF  A$reset_screen$241                 reset_screen
     000048F1  A$reset_screen$246                 reset_screen
     000048F1  C$reset_screen.c$76$1_0$9          reset_screen
     000048F1  XG$screen_reset_screen_update$0$   reset_screen
     000048F2  A$pass_screen$82                   pass_screen
     000048F2  C$pass_screen.c$21$0_0$34          pass_screen
     000048F2  C$pass_screen.c$23$1_0$34          pass_screen
     000048F2  C$pass_screen.c$24$1_0$34          pass_screen
     000048F2  C$pass_screen.c$25$1_0$34          pass_screen
     000048F2  C$pass_screen.c$26$1_0$34          pass_screen
     000048F2  C$pass_screen.c$27$1_0$34          pass_screen
     000048F2  G$screen_pass_screen_load$0$0      pass_screen
     000048F2  _screen_pass_screen_load           pass_screen
     000048F4  A$pass_screen$86                   pass_screen
     000048F4  C$pass_screen.c$30$1_0$34          pass_screen
     000048F5  A$pass_screen$87                   pass_screen
     000048F8  A$pass_screen$88                   pass_screen
     000048F9  A$pass_screen$92                   pass_screen
     000048F9  C$pass_screen.c$31$1_0$34          pass_screen
     000048FC  A$pass_screen$93                   pass_screen
     000048FD  A$pass_screen$94                   pass_screen
     000048FF  A$pass_screen$98                   pass_screen
     000048FF  C$pass_screen.c$33$2_0$35          pass_screen
     00004900  A$pass_screen$99                   pass_screen
     00004903  A$pass_screen$100                  pass_screen
     00004904  A$pass_screen$105                  pass_screen
     00004904  C$pass_screen.c$37$1_0$34          pass_screen
     00004907  A$pass_screen$106                  pass_screen
     00004908  A$pass_screen$107                  pass_screen
     0000490B  A$pass_screen$111                  pass_screen
     0000490B  C$pass_screen.c$38$1_0$34          pass_screen
     0000490E  A$pass_screen$112                  pass_screen
     0000490F  A$pass_screen$113                  pass_screen
     00004910  A$pass_screen$114                  pass_screen
     00004911  A$pass_screen$115                  pass_screen
     00004913  A$pass_screen$119                  pass_screen
     00004913  C$pass_screen.c$40$2_0$36          pass_screen
     00004916  A$pass_screen$120                  pass_screen
     00004917  A$pass_screen$121                  pass_screen
     00004919  A$pass_screen$125                  pass_screen
     00004919  C$pass_screen.c$42$3_0$37          pass_screen
     0000491B  A$pass_screen$130                  pass_screen
     0000491B  C$pass_screen.c$46$1_0$34          pass_screen
     0000491C  A$pass_screen$131                  pass_screen
     0000491F  A$pass_screen$132                  pass_screen
     00004920  A$pass_screen$133                  pass_screen
     00004923  A$pass_screen$134                  pass_screen
     00004924  A$pass_screen$135                  pass_screen
     00004925  A$pass_screen$139                  pass_screen
     00004925  C$pass_screen.c$47$1_0$34          pass_screen
ASxxxx Linker V03.00 + NoICE + sdld,  page 221.
Hexadecimal  [32-Bits]

Area                                    Addr        Size        Decimal Bytes (Attributes)
--------------------------------        ----        ----        ------- ----- ------------
_CODE                               00000200    0000636D =       25453. bytes (REL,CON)

      Value  Global                              Global Defined In Module
      -----  --------------------------------   ------------------------
     00004926  A$pass_screen$140                  pass_screen
     00004927  A$pass_screen$141                  pass_screen
     00004928  A$pass_screen$142                  pass_screen
     00004929  A$pass_screen$143                  pass_screen
     0000492C  A$pass_screen$144                  pass_screen
     0000492D  A$pass_screen$145                  pass_screen
     0000492E  A$pass_screen$149                  pass_screen
     0000492E  C$pass_screen.c$49$1_0$34          pass_screen
     0000492F  A$pass_screen$150                  pass_screen
     00004930  A$pass_screen$151                  pass_screen
     00004931  A$pass_screen$155                  pass_screen
     00004931  C$pass_screen.c$51$2_0$38          pass_screen
     00004934  A$pass_screen$156                  pass_screen
     00004935  A$pass_screen$157                  pass_screen
     00004937  A$pass_screen$158                  pass_screen
     0000493A  A$pass_screen$159                  pass_screen
     0000493B  A$pass_screen$160                  pass_screen
     0000493D  A$pass_screen$162                  pass_screen
     0000493F  A$pass_screen$167                  pass_screen
     0000493F  C$pass_screen.c$52$2_0$38          pass_screen
     00004940  A$pass_screen$168                  pass_screen
     00004941  A$pass_screen$172                  pass_screen
     00004941  C$pass_screen.c$54$3_0$39          pass_screen
     00004944  A$pass_screen$176                  pass_screen
     00004944  C$pass_screen.c$55$3_0$39          pass_screen
     00004947  A$pass_screen$180                  pass_screen
     00004947  C$pass_screen.c$57$3_0$39          pass_screen
     0000494A  A$pass_screen$181                  pass_screen
     0000494B  A$pass_screen$182                  pass_screen
     0000494D  A$pass_screen$183                  pass_screen
     0000494E  A$pass_screen$187                  pass_screen
     0000494E  C$pass_screen.c$59$4_0$40          pass_screen
     00004950  A$pass_screen$188                  pass_screen
     00004951  A$pass_screen$199                  pass_screen
     00004951  C$pass_screen.c$60$4_0$40          pass_screen
     00004951  C$pass_screen.c$64$1_0$34          pass_screen
     00004951  XG$screen_pass_screen_load$0$0     pass_screen
     00004954  A$pass_screen$209                  pass_screen
     00004954  C$pass_screen.c$66$1_0$42          pass_screen
     00004954  G$screen_pass_screen_update$0$0    pass_screen
     00004954  _screen_pass_screen_update         pass_screen
     00004956  A$pass_screen$210                  pass_screen
     0000495A  A$pass_screen$211                  pass_screen
     0000495C  A$pass_screen$218                  pass_screen
     0000495C  C$pass_screen.c$70$1_0$42          pass_screen
     0000495C  C$pass_screen.c$75$1_0$42          pass_screen
     0000495F  A$pass_screen$222                  pass_screen
     0000495F  C$pass_screen.c$76$1_0$42          pass_screen
     00004962  A$pass_screen$226                  pass_screen
     00004962  C$pass_screen.c$78$1_0$42          pass_screen
     00004965  A$pass_screen$230                  pass_screen
ASxxxx Linker V03.00 + NoICE + sdld,  page 222.
Hexadecimal  [32-Bits]

Area                                    Addr        Size        Decimal Bytes (Attributes)
--------------------------------        ----        ----        ------- ----- ------------
_CODE                               00000200    0000636D =       25453. bytes (REL,CON)

      Value  Global                              Global Defined In Module
      -----  --------------------------------   ------------------------
     00004965  C$pass_screen.c$89$1_0$42          pass_screen
     00004968  A$pass_screen$231                  pass_screen
     0000496B  A$pass_screen$235                  pass_screen
     0000496B  C$pass_screen.c$79$1_0$42          pass_screen
     0000496C  A$pass_screen$236                  pass_screen
     0000496D  A$pass_screen$237                  pass_screen
     0000496F  A$pass_screen$241                  pass_screen
     0000496F  C$pass_screen.c$81$2_0$43          pass_screen
     00004972  A$pass_screen$242                  pass_screen
     00004973  A$pass_screen$243                  pass_screen
     00004974  A$pass_screen$244                  pass_screen
     00004975  A$pass_screen$248                  pass_screen
     00004975  C$pass_screen.c$82$2_0$43          pass_screen
     00004977  A$pass_screen$249                  pass_screen
     00004979  A$pass_screen$253                  pass_screen
     00004979  C$pass_screen.c$84$3_0$44          pass_screen
     0000497A  A$pass_screen$254                  pass_screen
     0000497B  A$pass_screen$258                  pass_screen
     0000497E  A$pass_screen$259                  pass_screen
     0000497F  A$pass_screen$263                  pass_screen
     0000497F  C$pass_screen.c$88$1_0$42          pass_screen
     00004982  A$pass_screen$267                  pass_screen
     00004982  C$pass_screen.c$85$3_0$44          pass_screen
     00004983  A$pass_screen$268                  pass_screen
     00004984  A$pass_screen$269                  pass_screen
     00004986  A$pass_screen$273                  pass_screen
     00004986  C$pass_screen.c$87$4_0$45          pass_screen
     00004989  A$pass_screen$274                  pass_screen
     0000498B  A$pass_screen$278                  pass_screen
     0000498B  C$pass_screen.c$88$4_0$45          pass_screen
     0000498C  A$pass_screen$279                  pass_screen
     0000498D  A$pass_screen$283                  pass_screen
     0000498D  C$pass_screen.c$89$4_0$45          pass_screen
     0000498F  A$pass_screen$284                  pass_screen
     00004990  A$pass_screen$288                  pass_screen
     00004990  C$pass_screen.c$90$4_0$45          pass_screen
     00004992  A$pass_screen$293                  pass_screen
     00004992  C$pass_screen.c$93$3_0$44          pass_screen
     00004993  A$pass_screen$294                  pass_screen
     00004994  A$pass_screen$295                  pass_screen
     00004995  A$pass_screen$299                  pass_screen
     00004995  C$pass_screen.c$94$3_0$44          pass_screen
     00004997  A$pass_screen$300                  pass_screen
     00004999  A$pass_screen$304                  pass_screen
     00004999  C$pass_screen.c$96$4_0$46          pass_screen
     0000499A  A$pass_screen$305                  pass_screen
     0000499B  A$pass_screen$309                  pass_screen
     0000499B  C$pass_screen.c$97$4_0$46          pass_screen
     0000499D  A$pass_screen$310                  pass_screen
     0000499E  A$pass_screen$314                  pass_screen
     0000499E  C$pass_screen.c$98$4_0$46          pass_screen
ASxxxx Linker V03.00 + NoICE + sdld,  page 223.
Hexadecimal  [32-Bits]

Area                                    Addr        Size        Decimal Bytes (Attributes)
--------------------------------        ----        ----        ------- ----- ------------
_CODE                               00000200    0000636D =       25453. bytes (REL,CON)

      Value  Global                              Global Defined In Module
      -----  --------------------------------   ------------------------
     000049A0  A$pass_screen$319                  pass_screen
     000049A0  C$pass_screen.c$102$2_0$43         pass_screen
     000049A2  A$pass_screen$320                  pass_screen
     000049A3  A$pass_screen$324                  pass_screen
     000049A3  C$pass_screen.c$103$2_0$43         pass_screen
     000049A5  A$pass_screen$329                  pass_screen
     000049A5  C$pass_screen.c$106$1_0$42         pass_screen
     000049A7  A$pass_screen$330                  pass_screen
     000049A8  A$pass_screen$335                  pass_screen
     000049AA  A$pass_screen$340                  pass_screen
     000049AA  C$pass_screen.c$107$1_0$42         pass_screen
     000049AA  XG$screen_pass_screen_update$0$0   pass_screen
     000049AB  A$pass_screen$356                  pass_screen
     000049AB  C$pass_screen.c$109$1_0$47         pass_screen
     000049AB  C$pass_screen.c$111$1_0$47         pass_screen
     000049AB  C$pass_screen.c$112$1_0$47         pass_screen
     000049AB  Fpass_screen$increase_lives$0$0    pass_screen
     000049AE  A$pass_screen$357                  pass_screen
     000049B0  A$pass_screen$358                  pass_screen
     000049B1  A$pass_screen$362                  pass_screen
     000049B1  C$pass_screen.c$117$2_0$48         pass_screen
     000049B3  A$pass_screen$363                  pass_screen
     000049B4  A$pass_screen$364                  pass_screen
     000049B5  A$pass_screen$365                  pass_screen
     000049B8  A$pass_screen$366                  pass_screen
     000049B9  A$pass_screen$377                  pass_screen
     000049B9  C$pass_screen.c$118$2_0$48         pass_screen
     000049B9  C$pass_screen.c$120$1_0$47         pass_screen
     000049B9  XFpass_screen$increase_lives$0$0   pass_screen
     000049BC  A$gems_screen$72                   gems_screen
     000049BC  C$gems_screen.c$19$0_0$17          gems_screen
     000049BC  C$gems_screen.c$21$1_0$17          gems_screen
     000049BC  G$screen_gems_screen_load$0$0      gems_screen
     000049BC  _screen_gems_screen_load           gems_screen
     000049BF  A$gems_screen$76                   gems_screen
     000049BF  C$gems_screen.c$22$1_0$17          gems_screen
     000049C2  A$gems_screen$77                   gems_screen
     000049C3  A$gems_screen$78                   gems_screen
     000049C6  A$gems_screen$79                   gems_screen
     000049C7  A$gems_screen$83                   gems_screen
     000049C7  C$gems_screen.c$23$1_0$17          gems_screen
     000049CA  A$gems_screen$87                   gems_screen
     000049CA  C$gems_screen.c$25$1_0$17          gems_screen
     000049CD  A$gems_screen$88                   gems_screen
     000049CE  A$gems_screen$89                   gems_screen
     000049D0  A$gems_screen$90                   gems_screen
     000049D1  A$gems_screen$91                   gems_screen
     000049D2  A$gems_screen$92                   gems_screen
     000049D5  A$gems_screen$93                   gems_screen
     000049D6  A$gems_screen$94                   gems_screen
     000049D7  A$gems_screen$98                   gems_screen
ASxxxx Linker V03.00 + NoICE + sdld,  page 224.
Hexadecimal  [32-Bits]

Area                                    Addr        Size        Decimal Bytes (Attributes)
--------------------------------        ----        ----        ------- ----- ------------
_CODE                               00000200    0000636D =       25453. bytes (REL,CON)

      Value  Global                              Global Defined In Module
      -----  --------------------------------   ------------------------
     000049D7  C$gems_screen.c$26$1_0$17          gems_screen
     000049DA  A$gems_screen$99                   gems_screen
     000049DB  A$gems_screen$100                  gems_screen
     000049DE  A$gems_screen$104                  gems_screen
     000049DE  C$gems_screen.c$28$1_0$17          gems_screen
     000049E0  A$gems_screen$105                  gems_screen
     000049E1  A$gems_screen$106                  gems_screen
     000049E2  A$gems_screen$107                  gems_screen
     000049E5  A$gems_screen$108                  gems_screen
     000049E6  A$gems_screen$112                  gems_screen
     000049E6  C$gems_screen.c$29$1_0$17          gems_screen
     000049E8  A$gems_screen$113                  gems_screen
     000049EB  A$gems_screen$121                  gems_screen
     000049EB  C$gems_screen.c$30$1_0$17          gems_screen
     000049EB  XG$screen_gems_screen_load$0$0     gems_screen
     000049EC  A$gems_screen$131                  gems_screen
     000049EC  C$gems_screen.c$32$1_0$19          gems_screen
     000049EC  G$screen_gems_screen_update$0$0    gems_screen
     000049EC  _screen_gems_screen_update         gems_screen
     000049EE  A$gems_screen$132                  gems_screen
     000049F2  A$gems_screen$133                  gems_screen
     000049F4  A$gems_screen$134                  gems_screen
     000049F5  A$gems_screen$141                  gems_screen
     000049F5  C$gems_screen.c$34$1_0$19          gems_screen
     000049F5  C$gems_screen.c$39$1_0$19          gems_screen
     000049F8  A$gems_screen$142                  gems_screen
     000049F9  A$gems_screen$146                  gems_screen
     000049F9  C$gems_screen.c$40$1_0$19          gems_screen
     000049FA  A$gems_screen$147                  gems_screen
     000049FD  A$gems_screen$148                  gems_screen
     000049FE  A$gems_screen$149                  gems_screen
     000049FF  A$gems_screen$150                  gems_screen
     00004A00  A$gems_screen$154                  gems_screen
     00004A00  C$gems_screen.c$50$1_0$19          gems_screen
     00004A03  A$gems_screen$155                  gems_screen
     00004A06  A$gems_screen$156                  gems_screen
     00004A09  A$gems_screen$157                  gems_screen
     00004A0C  A$gems_screen$161                  gems_screen
     00004A0C  C$gems_screen.c$42$1_0$19          gems_screen
     00004A0D  A$gems_screen$162                  gems_screen
     00004A0E  A$gems_screen$163                  gems_screen
     00004A10  A$gems_screen$167                  gems_screen
     00004A10  C$gems_screen.c$44$2_0$20          gems_screen
     00004A11  A$gems_screen$168                  gems_screen
     00004A14  A$gems_screen$169                  gems_screen
     00004A15  A$gems_screen$170                  gems_screen
     00004A16  A$gems_screen$174                  gems_screen
     00004A16  C$gems_screen.c$45$2_0$20          gems_screen
     00004A17  A$gems_screen$175                  gems_screen
     00004A19  A$gems_screen$179                  gems_screen
     00004A19  C$gems_screen.c$47$3_0$21          gems_screen
ASxxxx Linker V03.00 + NoICE + sdld,  page 225.
Hexadecimal  [32-Bits]

Area                                    Addr        Size        Decimal Bytes (Attributes)
--------------------------------        ----        ----        ------- ----- ------------
_CODE                               00000200    0000636D =       25453. bytes (REL,CON)

      Value  Global                              Global Defined In Module
      -----  --------------------------------   ------------------------
     00004A1C  A$gems_screen$183                  gems_screen
     00004A1C  C$gems_screen.c$48$3_0$21          gems_screen
     00004A1F  A$gems_screen$184                  gems_screen
     00004A21  A$gems_screen$188                  gems_screen
     00004A21  C$gems_screen.c$50$3_0$21          gems_screen
     00004A22  A$gems_screen$189                  gems_screen
     00004A23  A$gems_screen$190                  gems_screen
     00004A25  A$gems_screen$194                  gems_screen
     00004A25  C$gems_screen.c$51$3_0$21          gems_screen
     00004A27  A$gems_screen$199                  gems_screen
     00004A27  C$gems_screen.c$56$2_0$22          gems_screen
     00004A28  A$gems_screen$200                  gems_screen
     00004A2B  A$gems_screen$201                  gems_screen
     00004A2C  A$gems_screen$206                  gems_screen
     00004A2C  C$gems_screen.c$59$1_0$19          gems_screen
     00004A2D  A$gems_screen$207                  gems_screen
     00004A2E  A$gems_screen$208                  gems_screen
     00004A30  A$gems_screen$212                  gems_screen
     00004A30  C$gems_screen.c$61$2_0$23          gems_screen
     00004A31  A$gems_screen$213                  gems_screen
     00004A32  A$gems_screen$214                  gems_screen
     00004A34  A$gems_screen$218                  gems_screen
     00004A34  C$gems_screen.c$62$2_0$23          gems_screen
     00004A36  A$gems_screen$223                  gems_screen
     00004A36  C$gems_screen.c$66$1_0$19          gems_screen
     00004A39  A$gems_screen$227                  gems_screen
     00004A39  C$gems_screen.c$67$1_0$19          gems_screen
     00004A3C  A$gems_screen$231                  gems_screen
     00004A3C  C$gems_screen.c$69$1_0$19          gems_screen
     00004A3D  A$gems_screen$232                  gems_screen
     00004A3E  A$gems_screen$233                  gems_screen
     00004A40  A$gems_screen$238                  gems_screen
     00004A42  A$gems_screen$239                  gems_screen
     00004A44  A$gems_screen$244                  gems_screen
     00004A44  C$gems_screen.c$70$1_0$19          gems_screen
     00004A44  XG$screen_gems_screen_update$0$0   gems_screen
     00004A45  A$dead_screen$70                   dead_screen
     00004A45  C$dead_screen.c$15$0_0$9           dead_screen
     00004A45  C$dead_screen.c$17$1_0$9           dead_screen
     00004A45  C$dead_screen.c$18$1_0$9           dead_screen
     00004A45  C$dead_screen.c$20$1_0$9           dead_screen
     00004A45  G$screen_dead_screen_load$0$0      dead_screen
     00004A45  _screen_dead_screen_load           dead_screen
     00004A48  A$dead_screen$74                   dead_screen
     00004A48  C$dead_screen.c$21$1_0$9           dead_screen
     00004A4B  A$dead_screen$75                   dead_screen
     00004A4C  A$dead_screen$76                   dead_screen
     00004A4E  A$dead_screen$80                   dead_screen
     00004A4E  C$dead_screen.c$23$2_0$10          dead_screen
     00004A51  A$dead_screen$85                   dead_screen
     00004A51  C$dead_screen.c$26$1_0$9           dead_screen
ASxxxx Linker V03.00 + NoICE + sdld,  page 226.
Hexadecimal  [32-Bits]

Area                                    Addr        Size        Decimal Bytes (Attributes)
--------------------------------        ----        ----        ------- ----- ------------
_CODE                               00000200    0000636D =       25453. bytes (REL,CON)

      Value  Global                              Global Defined In Module
      -----  --------------------------------   ------------------------
     00004A54  A$dead_screen$86                   dead_screen
     00004A55  A$dead_screen$87                   dead_screen
     00004A58  A$dead_screen$88                   dead_screen
     00004A59  A$dead_screen$92                   dead_screen
     00004A59  C$dead_screen.c$29$1_0$9           dead_screen
     00004A5C  A$dead_screen$93                   dead_screen
     00004A5F  A$dead_screen$94                   dead_screen
     00004A60  A$dead_screen$95                   dead_screen
     00004A61  A$dead_screen$96                   dead_screen
     00004A63  A$dead_screen$97                   dead_screen
     00004A65  A$dead_screen$98                   dead_screen
     00004A67  A$dead_screen$99                   dead_screen
     00004A69  A$dead_screen$103                  dead_screen
     00004A69  C$dead_screen.c$31$2_0$11          dead_screen
     00004A6C  A$dead_screen$104                  dead_screen
     00004A6F  A$dead_screen$109                  dead_screen
     00004A6F  C$dead_screen.c$34$1_0$9           dead_screen
     00004A72  A$dead_screen$113                  dead_screen
     00004A72  C$dead_screen.c$35$1_0$9           dead_screen
     00004A74  A$dead_screen$114                  dead_screen
     00004A75  A$dead_screen$115                  dead_screen
     00004A76  A$dead_screen$116                  dead_screen
     00004A79  A$dead_screen$117                  dead_screen
     00004A7A  A$dead_screen$125                  dead_screen
     00004A7A  C$dead_screen.c$36$1_0$9           dead_screen
     00004A7A  XG$screen_dead_screen_load$0$0     dead_screen
     00004A7B  A$dead_screen$135                  dead_screen
     00004A7B  C$dead_screen.c$38$1_0$13          dead_screen
     00004A7B  G$screen_dead_screen_update$0$0    dead_screen
     00004A7B  _screen_dead_screen_update         dead_screen
     00004A7D  A$dead_screen$136                  dead_screen
     00004A81  A$dead_screen$137                  dead_screen
     00004A83  A$dead_screen$147                  dead_screen
     00004A83  C$dead_screen.c$40$1_0$13          dead_screen
     00004A83  C$dead_screen.c$41$1_0$13          dead_screen
     00004A83  C$dead_screen.c$45$1_0$13          dead_screen
     00004A86  A$dead_screen$151                  dead_screen
     00004A86  C$dead_screen.c$48$1_0$13          dead_screen
     00004A89  A$dead_screen$152                  dead_screen
     00004A8B  A$dead_screen$153                  dead_screen
     00004A8D  A$dead_screen$157                  dead_screen
     00004A8D  C$dead_screen.c$50$2_0$14          dead_screen
     00004A90  A$dead_screen$162                  dead_screen
     00004A90  C$dead_screen.c$53$1_0$13          dead_screen
     00004A93  A$dead_screen$166                  dead_screen
     00004A93  C$dead_screen.c$58$1_0$13          dead_screen
     00004A96  A$dead_screen$167                  dead_screen
     00004A99  A$dead_screen$171                  dead_screen
     00004A99  C$dead_screen.c$54$1_0$13          dead_screen
     00004A9A  A$dead_screen$172                  dead_screen
     00004A9B  A$dead_screen$173                  dead_screen
ASxxxx Linker V03.00 + NoICE + sdld,  page 227.
Hexadecimal  [32-Bits]

Area                                    Addr        Size        Decimal Bytes (Attributes)
--------------------------------        ----        ----        ------- ----- ------------
_CODE                               00000200    0000636D =       25453. bytes (REL,CON)

      Value  Global                              Global Defined In Module
      -----  --------------------------------   ------------------------
     00004A9D  A$dead_screen$177                  dead_screen
     00004A9D  C$dead_screen.c$56$2_0$15          dead_screen
     00004AA0  A$dead_screen$178                  dead_screen
     00004AA1  A$dead_screen$179                  dead_screen
     00004AA3  A$dead_screen$183                  dead_screen
     00004AA3  C$dead_screen.c$58$3_0$16          dead_screen
     00004AA5  A$dead_screen$184                  dead_screen
     00004AA6  A$dead_screen$188                  dead_screen
     00004AA6  C$dead_screen.c$59$3_0$16          dead_screen
     00004AA8  A$dead_screen$193                  dead_screen
     00004AA8  C$dead_screen.c$62$2_0$15          dead_screen
     00004AAA  A$dead_screen$194                  dead_screen
     00004AAB  A$dead_screen$198                  dead_screen
     00004AAB  C$dead_screen.c$63$2_0$15          dead_screen
     00004AAD  A$dead_screen$203                  dead_screen
     00004AAD  C$dead_screen.c$66$1_0$13          dead_screen
     00004AAF  A$dead_screen$204                  dead_screen
     00004AB0  A$dead_screen$209                  dead_screen
     00004AB2  A$dead_screen$214                  dead_screen
     00004AB2  C$dead_screen.c$67$1_0$13          dead_screen
     00004AB2  XG$screen_dead_screen_update$0$0   dead_screen
     00004AB3  A$cont_screen$77                   cont_screen
     00004AB3  C$cont_screen.c$25$0_0$13          cont_screen
     00004AB3  C$cont_screen.c$27$1_0$13          cont_screen
     00004AB3  G$screen_cont_screen_load$0$0      cont_screen
     00004AB3  _screen_cont_screen_load           cont_screen
     00004AB6  A$cont_screen$81                   cont_screen
     00004AB6  C$cont_screen.c$28$1_0$13          cont_screen
     00004AB9  A$cont_screen$82                   cont_screen
     00004ABA  A$cont_screen$83                   cont_screen
     00004ABD  A$cont_screen$84                   cont_screen
     00004ABE  A$cont_screen$88                   cont_screen
     00004ABE  C$cont_screen.c$29$1_0$13          cont_screen
     00004AC1  A$cont_screen$92                   cont_screen
     00004AC1  C$cont_screen.c$30$1_0$13          cont_screen
     00004AC4  A$cont_screen$93                   cont_screen
     00004AC6  A$cont_screen$97                   cont_screen
     00004AC6  C$cont_screen.c$32$1_0$13          cont_screen
     00004AC9  A$cont_screen$101                  cont_screen
     00004AC9  C$cont_screen.c$33$1_0$13          cont_screen
     00004ACB  A$cont_screen$102                  cont_screen
     00004ACE  A$cont_screen$110                  cont_screen
     00004ACE  C$cont_screen.c$34$1_0$13          cont_screen
     00004ACE  XG$screen_cont_screen_load$0$0     cont_screen
     00004ACF  A$cont_screen$120                  cont_screen
     00004ACF  C$cont_screen.c$36$1_0$15          cont_screen
     00004ACF  G$screen_cont_screen_update$0$0    cont_screen
     00004ACF  _screen_cont_screen_update         cont_screen
     00004AD1  A$cont_screen$121                  cont_screen
     00004AD5  A$cont_screen$122                  cont_screen
     00004AD7  A$cont_screen$123                  cont_screen
ASxxxx Linker V03.00 + NoICE + sdld,  page 228.
Hexadecimal  [32-Bits]

Area                                    Addr        Size        Decimal Bytes (Attributes)
--------------------------------        ----        ----        ------- ----- ------------
_CODE                               00000200    0000636D =       25453. bytes (REL,CON)

      Value  Global                              Global Defined In Module
      -----  --------------------------------   ------------------------
     00004ADA  A$cont_screen$124                  cont_screen
     00004ADB  A$cont_screen$125                  cont_screen
     00004ADC  A$cont_screen$129                  cont_screen
     00004ADC  C$cont_screen.c$38$2_0$15          cont_screen
     00004ADF  A$cont_screen$130                  cont_screen
     00004AE0  A$cont_screen$131                  cont_screen
     00004AE1  A$cont_screen$132                  cont_screen
     00004AE2  A$cont_screen$133                  cont_screen
     00004AE3  A$cont_screen$134                  cont_screen
     00004AE4  A$cont_screen$135                  cont_screen
     00004AE5  A$cont_screen$136                  cont_screen
     00004AE6  A$cont_screen$137                  cont_screen
     00004AE7  A$cont_screen$138                  cont_screen
     00004AE8  A$cont_screen$139                  cont_screen
     00004AEB  A$cont_screen$140                  cont_screen
     00004AEC  A$cont_screen$141                  cont_screen
     00004AEF  A$cont_screen$142                  cont_screen
     00004AF2  A$cont_screen$143                  cont_screen
     00004AF4  A$cont_screen$144                  cont_screen
     00004AF5  A$cont_screen$145                  cont_screen
     00004AF6  A$cont_screen$146                  cont_screen
     00004AF7  A$cont_screen$147                  cont_screen
     00004AF8  A$cont_screen$148                  cont_screen
     00004AF9  A$cont_screen$149                  cont_screen
     00004AFB  A$cont_screen$153                  cont_screen
     00004AFB  C$cont_screen.c$42$1_0$15          cont_screen
     00004AFC  A$cont_screen$154                  cont_screen
     00004AFD  A$cont_screen$155                  cont_screen
     00004B00  A$cont_screen$156                  cont_screen
     00004B03  A$cont_screen$157                  cont_screen
     00004B04  A$cont_screen$158                  cont_screen
     00004B05  A$cont_screen$162                  cont_screen
     00004B05  C$cont_screen.c$45$1_0$15          cont_screen
     00004B08  A$cont_screen$163                  cont_screen
     00004B09  A$cont_screen$164                  cont_screen
     00004B0B  A$cont_screen$168                  cont_screen
     00004B0B  C$cont_screen.c$47$2_0$16          cont_screen
     00004B0E  A$cont_screen$172                  cont_screen
     00004B0E  C$cont_screen.c$53$1_0$15          cont_screen
     00004B11  A$cont_screen$173                  cont_screen
     00004B14  A$cont_screen$177                  cont_screen
     00004B14  C$cont_screen.c$48$2_0$16          cont_screen
     00004B15  A$cont_screen$178                  cont_screen
     00004B16  A$cont_screen$179                  cont_screen
     00004B18  A$cont_screen$183                  cont_screen
     00004B18  C$cont_screen.c$50$3_0$17          cont_screen
     00004B1B  A$cont_screen$184                  cont_screen
     00004B1C  A$cont_screen$185                  cont_screen
     00004B1E  A$cont_screen$189                  cont_screen
     00004B1E  C$cont_screen.c$52$4_0$18          cont_screen
     00004B1F  A$cont_screen$190                  cont_screen
ASxxxx Linker V03.00 + NoICE + sdld,  page 229.
Hexadecimal  [32-Bits]

Area                                    Addr        Size        Decimal Bytes (Attributes)
--------------------------------        ----        ----        ------- ----- ------------
_CODE                               00000200    0000636D =       25453. bytes (REL,CON)

      Value  Global                              Global Defined In Module
      -----  --------------------------------   ------------------------
     00004B22  A$cont_screen$191                  cont_screen
     00004B23  A$cont_screen$195                  cont_screen
     00004B23  C$cont_screen.c$53$4_0$18          cont_screen
     00004B25  A$cont_screen$196                  cont_screen
     00004B26  A$cont_screen$200                  cont_screen
     00004B26  C$cont_screen.c$54$4_0$18          cont_screen
     00004B28  A$cont_screen$205                  cont_screen
     00004B28  C$cont_screen.c$58$4_0$19          cont_screen
     00004B2A  A$cont_screen$206                  cont_screen
     00004B2B  A$cont_screen$210                  cont_screen
     00004B2B  C$cont_screen.c$59$4_0$19          cont_screen
     00004B2D  A$cont_screen$215                  cont_screen
     00004B2D  C$cont_screen.c$64$3_0$20          cont_screen
     00004B2F  A$cont_screen$216                  cont_screen
     00004B30  A$cont_screen$220                  cont_screen
     00004B30  C$cont_screen.c$65$3_0$20          cont_screen
     00004B32  A$cont_screen$225                  cont_screen
     00004B32  C$cont_screen.c$69$1_0$15          cont_screen
     00004B33  A$cont_screen$226                  cont_screen
     00004B34  A$cont_screen$227                  cont_screen
     00004B37  A$cont_screen$228                  cont_screen
     00004B38  A$cont_screen$229                  cont_screen
     00004B39  A$cont_screen$230                  cont_screen
     00004B3A  A$cont_screen$231                  cont_screen
     00004B3B  A$cont_screen$235                  cont_screen
     00004B3B  C$cont_screen.c$70$1_0$15          cont_screen
     00004B3C  A$cont_screen$236                  cont_screen
     00004B3D  A$cont_screen$237                  cont_screen
     00004B40  A$cont_screen$238                  cont_screen
     00004B41  A$cont_screen$239                  cont_screen
     00004B42  A$cont_screen$240                  cont_screen
     00004B43  A$cont_screen$241                  cont_screen
     00004B44  A$cont_screen$245                  cont_screen
     00004B44  C$cont_screen.c$71$1_0$15          cont_screen
     00004B45  A$cont_screen$246                  cont_screen
     00004B46  A$cont_screen$247                  cont_screen
     00004B48  A$cont_screen$248                  cont_screen
     00004B49  A$cont_screen$249                  cont_screen
     00004B4A  A$cont_screen$250                  cont_screen
     00004B4C  A$cont_screen$255                  cont_screen
     00004B4C  C$cont_screen.c$73$2_0$21          cont_screen
     00004B4F  A$cont_screen$256                  cont_screen
     00004B50  A$cont_screen$257                  cont_screen
     00004B53  A$cont_screen$258                  cont_screen
     00004B55  A$cont_screen$259                  cont_screen
     00004B56  A$cont_screen$260                  cont_screen
     00004B57  A$cont_screen$264                  cont_screen
     00004B57  C$cont_screen.c$74$2_0$21          cont_screen
     00004B5A  A$cont_screen$269                  cont_screen
     00004B5A  C$cont_screen.c$77$1_0$15          cont_screen
     00004B5D  A$cont_screen$270                  cont_screen
ASxxxx Linker V03.00 + NoICE + sdld,  page 230.
Hexadecimal  [32-Bits]

Area                                    Addr        Size        Decimal Bytes (Attributes)
--------------------------------        ----        ----        ------- ----- ------------
_CODE                               00000200    0000636D =       25453. bytes (REL,CON)

      Value  Global                              Global Defined In Module
      -----  --------------------------------   ------------------------
     00004B5E  A$cont_screen$271                  cont_screen
     00004B61  A$cont_screen$272                  cont_screen
     00004B64  A$cont_screen$273                  cont_screen
     00004B65  A$cont_screen$277                  cont_screen
     00004B65  C$cont_screen.c$78$1_0$15          cont_screen
     00004B66  A$cont_screen$278                  cont_screen
     00004B68  A$cont_screen$282                  cont_screen
     00004B68  C$cont_screen.c$80$2_0$22          cont_screen
     00004B6B  A$cont_screen$286                  cont_screen
     00004B6B  C$cont_screen.c$81$2_0$22          cont_screen
     00004B6D  A$cont_screen$287                  cont_screen
     00004B70  A$cont_screen$291                  cont_screen
     00004B70  C$cont_screen.c$82$2_0$22          cont_screen
     00004B72  A$cont_screen$296                  cont_screen
     00004B72  C$cont_screen.c$85$1_0$15          cont_screen
     00004B75  A$cont_screen$297                  cont_screen
     00004B78  A$cont_screen$298                  cont_screen
     00004B7A  A$cont_screen$303                  cont_screen
     00004B7C  A$cont_screen$304                  cont_screen
     00004B7E  A$cont_screen$309                  cont_screen
     00004B7E  C$cont_screen.c$86$1_0$15          cont_screen
     00004B7E  XG$screen_cont_screen_update$0$0   cont_screen
     00004B7F  A$cont_screen$322                  cont_screen
     00004B7F  C$cont_screen.c$88$1_0$23          cont_screen
     00004B7F  C$cont_screen.c$90$1_0$23          cont_screen
     00004B7F  Fcont_screen$display_cursor$0$0    cont_screen
     00004B82  A$cont_screen$323                  cont_screen
     00004B83  A$cont_screen$324                  cont_screen
     00004B86  A$cont_screen$325                  cont_screen
     00004B87  A$cont_screen$326                  cont_screen
     00004B8A  A$cont_screen$327                  cont_screen
     00004B8B  A$cont_screen$328                  cont_screen
     00004B8C  A$cont_screen$332                  cont_screen
     00004B8C  C$cont_screen.c$91$1_0$23          cont_screen
     00004B8F  A$cont_screen$333                  cont_screen
     00004B90  A$cont_screen$334                  cont_screen
     00004B93  A$cont_screen$335                  cont_screen
     00004B94  A$cont_screen$336                  cont_screen
     00004B97  A$cont_screen$337                  cont_screen
     00004B98  A$cont_screen$338                  cont_screen
     00004B99  A$cont_screen$342                  cont_screen
     00004B99  C$cont_screen.c$92$1_0$23          cont_screen
     00004B9C  A$cont_screen$343                  cont_screen
     00004B9F  A$cont_screen$344                  cont_screen
     00004BA1  A$cont_screen$345                  cont_screen
     00004BA2  A$cont_screen$346                  cont_screen
     00004BA3  A$cont_screen$347                  cont_screen
     00004BA5  A$cont_screen$348                  cont_screen
     00004BA6  A$cont_screen$349                  cont_screen
     00004BA7  A$cont_screen$350                  cont_screen
     00004BA8  A$cont_screen$351                  cont_screen
ASxxxx Linker V03.00 + NoICE + sdld,  page 231.
Hexadecimal  [32-Bits]

Area                                    Addr        Size        Decimal Bytes (Attributes)
--------------------------------        ----        ----        ------- ----- ------------
_CODE                               00000200    0000636D =       25453. bytes (REL,CON)

      Value  Global                              Global Defined In Module
      -----  --------------------------------   ------------------------
     00004BA9  A$cont_screen$352                  cont_screen
     00004BAC  A$cont_screen$353                  cont_screen
     00004BAD  A$cont_screen$354                  cont_screen
     00004BB0  A$cont_screen$355                  cont_screen
     00004BB1  A$cont_screen$356                  cont_screen
     00004BB2  A$cont_screen$364                  cont_screen
     00004BB2  C$cont_screen.c$93$1_0$23          cont_screen
     00004BB2  XFcont_screen$display_cursor$0$0   cont_screen
     00004BB3  Fcont_screen$__str_0$0_0$0         cont_screen
     00004BB6  Fcont_screen$__str_1$0_0$0         cont_screen
     00004BB9  A$over_screen$66                   over_screen
     00004BB9  C$over_screen.c$19$0_0$24          over_screen
     00004BB9  C$over_screen.c$21$1_0$24          over_screen
     00004BB9  C$over_screen.c$24$1_0$24          over_screen
     00004BB9  G$screen_over_screen_load$0$0      over_screen
     00004BB9  _screen_over_screen_load           over_screen
     00004BBC  A$over_screen$67                   over_screen
     00004BBE  A$over_screen$71                   over_screen
     00004BBE  C$over_screen.c$26$1_0$24          over_screen
     00004BC1  A$over_screen$75                   over_screen
     00004BC1  C$over_screen.c$27$1_0$24          over_screen
     00004BC4  A$over_screen$76                   over_screen
     00004BC5  A$over_screen$77                   over_screen
     00004BC8  A$over_screen$78                   over_screen
     00004BC9  A$over_screen$89                   over_screen
     00004BC9  C$over_screen.c$28$1_0$24          over_screen
     00004BC9  C$over_screen.c$29$1_0$24          over_screen
     00004BC9  XG$screen_over_screen_load$0$0     over_screen
     00004BCC  A$over_screen$102                  over_screen
     00004BCC  C$over_screen.c$31$1_0$26          over_screen
     00004BCC  C$over_screen.c$36$1_0$26          over_screen
     00004BCC  G$screen_over_screen_update$0$0    over_screen
     00004BCC  _screen_over_screen_update         over_screen
     00004BCF  A$over_screen$106                  over_screen
     00004BCF  C$over_screen.c$37$1_0$26          over_screen
     00004BD2  A$over_screen$110                  over_screen
     00004BD2  C$over_screen.c$39$1_0$26          over_screen
     00004BD5  A$over_screen$111                  over_screen
     00004BD6  A$over_screen$115                  over_screen
     00004BD6  C$over_screen.c$43$1_0$26          over_screen
     00004BD7  A$over_screen$116                  over_screen
     00004BD8  A$over_screen$117                  over_screen
     00004BD9  A$over_screen$118                  over_screen
     00004BDA  A$over_screen$122                  over_screen
     00004BDA  C$over_screen.c$40$1_0$26          over_screen
     00004BDB  A$over_screen$123                  over_screen
     00004BDC  A$over_screen$124                  over_screen
     00004BDE  A$over_screen$128                  over_screen
     00004BDE  C$over_screen.c$42$2_0$27          over_screen
     00004BDF  A$over_screen$129                  over_screen
     00004BE2  A$over_screen$130                  over_screen
ASxxxx Linker V03.00 + NoICE + sdld,  page 232.
Hexadecimal  [32-Bits]

Area                                    Addr        Size        Decimal Bytes (Attributes)
--------------------------------        ----        ----        ------- ----- ------------
_CODE                               00000200    0000636D =       25453. bytes (REL,CON)

      Value  Global                              Global Defined In Module
      -----  --------------------------------   ------------------------
     00004BE3  A$over_screen$134                  over_screen
     00004BE3  C$over_screen.c$43$2_0$27          over_screen
     00004BE5  A$over_screen$138                  over_screen
     00004BE5  C$over_screen.c$44$2_0$27          over_screen
     00004BE6  A$over_screen$143                  over_screen
     00004BE6  C$over_screen.c$47$1_0$26          over_screen
     00004BE8  A$over_screen$151                  over_screen
     00004BE8  C$over_screen.c$48$1_0$26          over_screen
     00004BE8  XG$screen_over_screen_update$0$0   over_screen
     00004BE9  A$beat_screen$63                   beat_screen
     00004BE9  C$beat_screen.c$11$0_0$6           beat_screen
     00004BE9  C$beat_screen.c$13$1_0$6           beat_screen
     00004BE9  G$screen_beat_screen_load$0$0      beat_screen
     00004BE9  _screen_beat_screen_load           beat_screen
     00004BEC  A$beat_screen$67                   beat_screen
     00004BEC  C$beat_screen.c$14$1_0$6           beat_screen
     00004BEF  A$beat_screen$71                   beat_screen
     00004BEF  C$beat_screen.c$15$1_0$6           beat_screen
     00004BF2  A$beat_screen$72                   beat_screen
     00004BF3  A$beat_screen$73                   beat_screen
     00004BF6  A$beat_screen$74                   beat_screen
     00004BF7  A$beat_screen$85                   beat_screen
     00004BF7  C$beat_screen.c$16$1_0$6           beat_screen
     00004BF7  C$beat_screen.c$17$1_0$6           beat_screen
     00004BF7  XG$screen_beat_screen_load$0$0     beat_screen
     00004BFA  A$beat_screen$98                   beat_screen
     00004BFA  C$beat_screen.c$19$1_0$8           beat_screen
     00004BFA  C$beat_screen.c$24$1_0$8           beat_screen
     00004BFA  G$screen_beat_screen_update$0$0    beat_screen
     00004BFA  _screen_beat_screen_update         beat_screen
     00004BFD  A$beat_screen$102                  beat_screen
     00004BFD  C$beat_screen.c$25$1_0$8           beat_screen
     00004C00  A$beat_screen$106                  beat_screen
     00004C00  C$beat_screen.c$27$1_0$8           beat_screen
     00004C03  A$beat_screen$107                  beat_screen
     00004C04  A$beat_screen$111                  beat_screen
     00004C04  C$beat_screen.c$31$1_0$8           beat_screen
     00004C05  A$beat_screen$112                  beat_screen
     00004C06  A$beat_screen$113                  beat_screen
     00004C07  A$beat_screen$114                  beat_screen
     00004C08  A$beat_screen$118                  beat_screen
     00004C08  C$beat_screen.c$28$1_0$8           beat_screen
     00004C09  A$beat_screen$119                  beat_screen
     00004C0A  A$beat_screen$120                  beat_screen
     00004C0C  A$beat_screen$124                  beat_screen
     00004C0C  C$beat_screen.c$30$2_0$9           beat_screen
     00004C0D  A$beat_screen$125                  beat_screen
     00004C10  A$beat_screen$126                  beat_screen
     00004C11  A$beat_screen$130                  beat_screen
     00004C11  C$beat_screen.c$31$2_0$9           beat_screen
     00004C13  A$beat_screen$134                  beat_screen
ASxxxx Linker V03.00 + NoICE + sdld,  page 233.
Hexadecimal  [32-Bits]

Area                                    Addr        Size        Decimal Bytes (Attributes)
--------------------------------        ----        ----        ------- ----- ------------
_CODE                               00000200    0000636D =       25453. bytes (REL,CON)

      Value  Global                              Global Defined In Module
      -----  --------------------------------   ------------------------
     00004C13  C$beat_screen.c$32$2_0$9           beat_screen
     00004C14  A$beat_screen$139                  beat_screen
     00004C14  C$beat_screen.c$35$1_0$8           beat_screen
     00004C16  A$beat_screen$147                  beat_screen
     00004C16  C$beat_screen.c$36$1_0$8           beat_screen
     00004C16  XG$screen_beat_screen_update$0$0   beat_screen
     00004C17  A$test_screen$66                   test_screen
     00004C17  C$test_screen.c$11$0_0$25          test_screen
     00004C17  C$test_screen.c$16$1_0$25          test_screen
     00004C17  G$screen_test_screen_load$0$0      test_screen
     00004C17  _screen_test_screen_load           test_screen
     00004C18  A$test_screen$67                   test_screen
     00004C19  A$test_screen$68                   test_screen
     00004C1B  A$test_screen$69                   test_screen
     00004C1C  A$test_screen$70                   test_screen
     00004C1F  A$test_screen$71                   test_screen
     00004C20  A$test_screen$72                   test_screen
     00004C23  A$test_screen$73                   test_screen
     00004C24  A$test_screen$74                   test_screen
     00004C25  A$test_screen$78                   test_screen
     00004C25  C$test_screen.c$19$1_0$25          test_screen
     00004C28  A$test_screen$79                   test_screen
     00004C29  A$test_screen$80                   test_screen
     00004C2C  A$test_screen$81                   test_screen
     00004C2D  A$test_screen$82                   test_screen
     00004C30  A$test_screen$83                   test_screen
     00004C31  A$test_screen$84                   test_screen
     00004C32  A$test_screen$88                   test_screen
     00004C32  C$test_screen.c$20$1_0$25          test_screen
     00004C35  A$test_screen$89                   test_screen
     00004C36  A$test_screen$90                   test_screen
     00004C39  A$test_screen$91                   test_screen
     00004C3A  A$test_screen$92                   test_screen
     00004C3D  A$test_screen$93                   test_screen
     00004C3E  A$test_screen$94                   test_screen
     00004C3F  A$test_screen$98                   test_screen
     00004C3F  C$test_screen.c$22$1_0$25          test_screen
     00004C41  A$test_screen$102                  test_screen
     00004C41  C$test_screen.c$23$1_0$25          test_screen
     00004C42  A$test_screen$103                  test_screen
     00004C45  A$test_screen$104                  test_screen
     00004C46  A$test_screen$105                  test_screen
     00004C49  A$test_screen$106                  test_screen
     00004C4A  A$test_screen$107                  test_screen
     00004C4D  A$test_screen$108                  test_screen
     00004C4E  A$test_screen$109                  test_screen
     00004C4F  A$test_screen$110                  test_screen
     00004C50  A$test_screen$114                  test_screen
     00004C50  C$test_screen.c$24$1_0$25          test_screen
     00004C52  A$test_screen$115                  test_screen
     00004C55  A$test_screen$116                  test_screen
ASxxxx Linker V03.00 + NoICE + sdld,  page 234.
Hexadecimal  [32-Bits]

Area                                    Addr        Size        Decimal Bytes (Attributes)
--------------------------------        ----        ----        ------- ----- ------------
_CODE                               00000200    0000636D =       25453. bytes (REL,CON)

      Value  Global                              Global Defined In Module
      -----  --------------------------------   ------------------------
     00004C56  A$test_screen$117                  test_screen
     00004C57  A$test_screen$118                  test_screen
     00004C5A  A$test_screen$119                  test_screen
     00004C5B  A$test_screen$120                  test_screen
     00004C5C  A$test_screen$128                  test_screen
     00004C5C  C$test_screen.c$25$1_0$25          test_screen
     00004C5C  XG$screen_test_screen_load$0$0     test_screen
     00004C5D  Ftest_screen$__str_0$0_0$0         test_screen
     00004C69  Ftest_screen$__str_1$0_0$0         test_screen
     00004C70  A$test_screen$146                  test_screen
     00004C70  C$test_screen.c$27$1_0$27          test_screen
     00004C70  G$screen_test_screen_update$0$0    test_screen
     00004C70  _screen_test_screen_update         test_screen
     00004C72  A$test_screen$147                  test_screen
     00004C76  A$test_screen$148                  test_screen
     00004C78  A$test_screen$149                  test_screen
     00004C7B  A$test_screen$150                  test_screen
     00004C7C  A$test_screen$151                  test_screen
     00004C7D  A$test_screen$155                  test_screen
     00004C7D  C$test_screen.c$29$2_0$27          test_screen
     00004C80  A$test_screen$156                  test_screen
     00004C81  A$test_screen$157                  test_screen
     00004C82  A$test_screen$158                  test_screen
     00004C83  A$test_screen$159                  test_screen
     00004C84  A$test_screen$160                  test_screen
     00004C85  A$test_screen$161                  test_screen
     00004C86  A$test_screen$162                  test_screen
     00004C87  A$test_screen$163                  test_screen
     00004C88  A$test_screen$164                  test_screen
     00004C89  A$test_screen$165                  test_screen
     00004C8C  A$test_screen$166                  test_screen
     00004C8D  A$test_screen$167                  test_screen
     00004C90  A$test_screen$168                  test_screen
     00004C93  A$test_screen$169                  test_screen
     00004C95  A$test_screen$170                  test_screen
     00004C98  A$test_screen$171                  test_screen
     00004C99  A$test_screen$172                  test_screen
     00004C9C  A$test_screen$173                  test_screen
     00004C9F  A$test_screen$174                  test_screen
     00004CA1  A$test_screen$178                  test_screen
     00004CA1  C$test_screen.c$32$1_0$27          test_screen
     00004CA2  A$test_screen$179                  test_screen
     00004CA3  A$test_screen$180                  test_screen
     00004CA6  A$test_screen$181                  test_screen
     00004CA7  A$test_screen$182                  test_screen
     00004CA8  A$test_screen$183                  test_screen
     00004CA9  A$test_screen$184                  test_screen
     00004CAA  A$test_screen$188                  test_screen
     00004CAA  C$test_screen.c$33$1_0$27          test_screen
     00004CAB  A$test_screen$189                  test_screen
     00004CAD  A$test_screen$193                  test_screen
ASxxxx Linker V03.00 + NoICE + sdld,  page 235.
Hexadecimal  [32-Bits]

Area                                    Addr        Size        Decimal Bytes (Attributes)
--------------------------------        ----        ----        ------- ----- ------------
_CODE                               00000200    0000636D =       25453. bytes (REL,CON)

      Value  Global                              Global Defined In Module
      -----  --------------------------------   ------------------------
     00004CAD  C$test_screen.c$35$2_0$28          test_screen
     00004CAE  A$test_screen$194                  test_screen
     00004CB1  A$test_screen$195                  test_screen
     00004CB2  A$test_screen$196                  test_screen
     00004CB5  A$test_screen$197                  test_screen
     00004CB6  A$test_screen$198                  test_screen
     00004CB9  A$test_screen$199                  test_screen
     00004CBA  A$test_screen$200                  test_screen
     00004CBB  A$test_screen$201                  test_screen
     00004CBE  A$test_screen$202                  test_screen
     00004CBF  A$test_screen$207                  test_screen
     00004CBF  C$test_screen.c$39$1_0$27          test_screen
     00004CC0  A$test_screen$208                  test_screen
     00004CC3  A$test_screen$209                  test_screen
     00004CC4  A$test_screen$210                  test_screen
     00004CC5  A$test_screen$211                  test_screen
     00004CC6  A$test_screen$215                  test_screen
     00004CC6  C$test_screen.c$40$1_0$27          test_screen
     00004CC7  A$test_screen$216                  test_screen
     00004CC9  A$test_screen$220                  test_screen
     00004CC9  C$test_screen.c$42$2_0$29          test_screen
     00004CCC  A$test_screen$221                  test_screen
     00004CCD  A$test_screen$222                  test_screen
     00004CD0  A$test_screen$223                  test_screen
     00004CD1  A$test_screen$224                  test_screen
     00004CD4  A$test_screen$225                  test_screen
     00004CD5  A$test_screen$226                  test_screen
     00004CD6  A$test_screen$230                  test_screen
     00004CD6  C$test_screen.c$43$2_0$29          test_screen
     00004CD9  A$test_screen$235                  test_screen
     00004CD9  C$test_screen.c$45$1_0$27          test_screen
     00004CDC  A$test_screen$236                  test_screen
     00004CDD  A$test_screen$237                  test_screen
     00004CE0  A$test_screen$238                  test_screen
     00004CE3  A$test_screen$239                  test_screen
     00004CE4  A$test_screen$243                  test_screen
     00004CE4  C$test_screen.c$46$1_0$27          test_screen
     00004CE5  A$test_screen$244                  test_screen
     00004CE7  A$test_screen$248                  test_screen
     00004CE7  C$test_screen.c$48$2_0$30          test_screen
     00004CEA  A$test_screen$249                  test_screen
     00004CEB  A$test_screen$250                  test_screen
     00004CEE  A$test_screen$251                  test_screen
     00004CEF  A$test_screen$252                  test_screen
     00004CF2  A$test_screen$253                  test_screen
     00004CF3  A$test_screen$254                  test_screen
     00004CF4  A$test_screen$258                  test_screen
     00004CF4  C$test_screen.c$49$2_0$30          test_screen
     00004CF7  A$test_screen$263                  test_screen
     00004CF7  C$test_screen.c$52$1_0$27          test_screen
     00004CFA  A$test_screen$264                  test_screen
ASxxxx Linker V03.00 + NoICE + sdld,  page 236.
Hexadecimal  [32-Bits]

Area                                    Addr        Size        Decimal Bytes (Attributes)
--------------------------------        ----        ----        ------- ----- ------------
_CODE                               00000200    0000636D =       25453. bytes (REL,CON)

      Value  Global                              Global Defined In Module
      -----  --------------------------------   ------------------------
     00004CFB  A$test_screen$265                  test_screen
     00004CFE  A$test_screen$266                  test_screen
     00004D01  A$test_screen$267                  test_screen
     00004D02  A$test_screen$271                  test_screen
     00004D02  C$test_screen.c$53$1_0$27          test_screen
     00004D03  A$test_screen$272                  test_screen
     00004D05  A$test_screen$276                  test_screen
     00004D05  C$test_screen.c$55$2_0$31          test_screen
     00004D08  A$test_screen$280                  test_screen
     00004D08  C$test_screen.c$56$2_0$31          test_screen
     00004D0B  A$test_screen$281                  test_screen
     00004D0C  A$test_screen$282                  test_screen
     00004D0F  A$test_screen$283                  test_screen
     00004D10  A$test_screen$284                  test_screen
     00004D11  A$test_screen$285                  test_screen
     00004D14  A$test_screen$286                  test_screen
     00004D15  A$test_screen$287                  test_screen
     00004D16  A$test_screen$288                  test_screen
     00004D17  A$test_screen$292                  test_screen
     00004D17  C$test_screen.c$57$2_0$31          test_screen
     00004D19  A$test_screen$293                  test_screen
     00004D1C  A$test_screen$294                  test_screen
     00004D1D  A$test_screen$295                  test_screen
     00004D1E  A$test_screen$296                  test_screen
     00004D21  A$test_screen$297                  test_screen
     00004D22  A$test_screen$298                  test_screen
     00004D23  A$test_screen$303                  test_screen
     00004D23  C$test_screen.c$60$1_0$27          test_screen
     00004D26  A$test_screen$304                  test_screen
     00004D29  A$test_screen$305                  test_screen
     00004D2B  A$test_screen$309                  test_screen
     00004D2D  A$test_screen$310                  test_screen
     00004D2F  A$test_screen$315                  test_screen
     00004D2F  C$test_screen.c$61$1_0$27          test_screen
     00004D2F  XG$screen_test_screen_update$0$0   test_screen
     00004D30  Ftest_screen$__str_2$0_0$0         test_screen
     00004D3C  Ftest_screen$__str_3$0_0$0         test_screen
     00004D48  Ftest_screen$__str_4$0_0$0         test_screen
     00004D59  Ftest_screen$__str_5$0_0$0         test_screen
     00004D60  A$func_screen$57                   func_screen
     00004D60  C$func_screen.c$10$1_0$6           func_screen
     00004D60  C$func_screen.c$8$0_0$6            func_screen
     00004D60  G$screen_func_screen_load$0$0      func_screen
     00004D60  _screen_func_screen_load           func_screen
     00004D61  A$func_screen$58                   func_screen
     00004D62  A$func_screen$59                   func_screen
     00004D64  A$func_screen$60                   func_screen
     00004D65  A$func_screen$61                   func_screen
     00004D68  A$func_screen$62                   func_screen
     00004D69  A$func_screen$63                   func_screen
     00004D6C  A$func_screen$64                   func_screen
ASxxxx Linker V03.00 + NoICE + sdld,  page 237.
Hexadecimal  [32-Bits]

Area                                    Addr        Size        Decimal Bytes (Attributes)
--------------------------------        ----        ----        ------- ----- ------------
_CODE                               00000200    0000636D =       25453. bytes (REL,CON)

      Value  Global                              Global Defined In Module
      -----  --------------------------------   ------------------------
     00004D6D  A$func_screen$65                   func_screen
     00004D6E  A$func_screen$73                   func_screen
     00004D6E  C$func_screen.c$11$1_0$6           func_screen
     00004D6E  XG$screen_func_screen_load$0$0     func_screen
     00004D6F  Ffunc_screen$__str_0$0_0$0         func_screen
     00004D83  A$func_screen$90                   func_screen
     00004D83  C$func_screen.c$13$1_0$8           func_screen
     00004D83  C$func_screen.c$15$1_0$8           func_screen
     00004D83  G$screen_func_screen_update$0$0    func_screen
     00004D83  _screen_func_screen_update         func_screen
     00004D84  A$func_screen$91                   func_screen
     00004D85  A$func_screen$92                   func_screen
     00004D86  A$func_screen$93                   func_screen
     00004D87  A$func_screen$94                   func_screen
     00004D89  A$func_screen$102                  func_screen
     00004D89  C$func_screen.c$16$1_0$8           func_screen
     00004D89  XG$screen_func_screen_update$0$0   func_screen
     00004D8A  A$view_screen$94                   view_screen
     00004D8A  C$view_screen.c$22$0_0$32          view_screen
     00004D8A  C$view_screen.c$24$1_0$32          view_screen
     00004D8A  C$view_screen.c$26$1_0$32          view_screen
     00004D8A  G$screen_view_screen_load$0$0      view_screen
     00004D8A  _screen_view_screen_load           view_screen
     00004D8D  A$view_screen$98                   view_screen
     00004D8D  C$view_screen.c$27$1_0$32          view_screen
     00004D90  A$view_screen$102                  view_screen
     00004D90  C$view_screen.c$28$1_0$32          view_screen
     00004D93  A$view_screen$106                  view_screen
     00004D93  C$view_screen.c$31$1_0$32          view_screen
     00004D96  A$view_screen$110                  view_screen
     00004D96  C$view_screen.c$34$1_0$32          view_screen
     00004D99  A$view_screen$114                  view_screen
     00004D99  C$view_screen.c$35$1_0$32          view_screen
     00004D9C  A$view_screen$118                  view_screen
     00004D9C  C$view_screen.c$36$1_0$32          view_screen
     00004D9F  A$view_screen$122                  view_screen
     00004D9F  C$view_screen.c$37$1_0$32          view_screen
     00004DA2  A$view_screen$126                  view_screen
     00004DA2  C$view_screen.c$40$1_0$32          view_screen
     00004DA5  A$view_screen$127                  view_screen
     00004DA6  A$view_screen$128                  view_screen
     00004DA7  A$view_screen$129                  view_screen
     00004DAA  A$view_screen$130                  view_screen
     00004DAB  A$view_screen$141                  view_screen
     00004DAB  C$view_screen.c$41$1_0$32          view_screen
     00004DAB  C$view_screen.c$42$1_0$32          view_screen
     00004DAB  XG$screen_view_screen_load$0$0     view_screen
     00004DAE  A$view_screen$151                  view_screen
     00004DAE  C$view_screen.c$44$1_0$34          view_screen
     00004DAE  G$screen_view_screen_update$0$0    view_screen
     00004DAE  _screen_view_screen_update         view_screen
ASxxxx Linker V03.00 + NoICE + sdld,  page 238.
Hexadecimal  [32-Bits]

Area                                    Addr        Size        Decimal Bytes (Attributes)
--------------------------------        ----        ----        ------- ----- ------------
_CODE                               00000200    0000636D =       25453. bytes (REL,CON)

      Value  Global                              Global Defined In Module
      -----  --------------------------------   ------------------------
     00004DB0  A$view_screen$152                  view_screen
     00004DB4  A$view_screen$153                  view_screen
     00004DB6  A$view_screen$154                  view_screen
     00004DB9  A$view_screen$155                  view_screen
     00004DBA  A$view_screen$156                  view_screen
     00004DBB  A$view_screen$163                  view_screen
     00004DBB  C$view_screen.c$46$1_0$34          view_screen
     00004DBB  C$view_screen.c$47$1_0$34          view_screen
     00004DBE  A$view_screen$164                  view_screen
     00004DBF  A$view_screen$165                  view_screen
     00004DC0  A$view_screen$166                  view_screen
     00004DC1  A$view_screen$167                  view_screen
     00004DC2  A$view_screen$168                  view_screen
     00004DC3  A$view_screen$169                  view_screen
     00004DC4  A$view_screen$170                  view_screen
     00004DC5  A$view_screen$171                  view_screen
     00004DC6  A$view_screen$172                  view_screen
     00004DC7  A$view_screen$173                  view_screen
     00004DC8  A$view_screen$174                  view_screen
     00004DCA  A$view_screen$175                  view_screen
     00004DCD  A$view_screen$176                  view_screen
     00004DCE  A$view_screen$177                  view_screen
     00004DD1  A$view_screen$178                  view_screen
     00004DD4  A$view_screen$179                  view_screen
     00004DD6  A$view_screen$180                  view_screen
     00004DD7  A$view_screen$181                  view_screen
     00004DD8  A$view_screen$182                  view_screen
     00004DD9  A$view_screen$183                  view_screen
     00004DDA  A$view_screen$184                  view_screen
     00004DDB  A$view_screen$185                  view_screen
     00004DDC  A$view_screen$186                  view_screen
     00004DDD  A$view_screen$187                  view_screen
     00004DE0  A$view_screen$188                  view_screen
     00004DE1  A$view_screen$189                  view_screen
     00004DE4  A$view_screen$190                  view_screen
     00004DE7  A$view_screen$191                  view_screen
     00004DE9  A$view_screen$192                  view_screen
     00004DEC  A$view_screen$193                  view_screen
     00004DED  A$view_screen$194                  view_screen
     00004DF0  A$view_screen$195                  view_screen
     00004DF3  A$view_screen$196                  view_screen
     00004DF5  A$view_screen$200                  view_screen
     00004DF5  C$view_screen.c$49$1_0$34          view_screen
     00004DF6  A$view_screen$201                  view_screen
     00004DF7  A$view_screen$202                  view_screen
     00004DFA  A$view_screen$203                  view_screen
     00004DFB  A$view_screen$204                  view_screen
     00004DFC  A$view_screen$205                  view_screen
     00004DFD  A$view_screen$206                  view_screen
     00004DFE  A$view_screen$210                  view_screen
     00004DFE  C$view_screen.c$50$1_0$34          view_screen
ASxxxx Linker V03.00 + NoICE + sdld,  page 239.
Hexadecimal  [32-Bits]

Area                                    Addr        Size        Decimal Bytes (Attributes)
--------------------------------        ----        ----        ------- ----- ------------
_CODE                               00000200    0000636D =       25453. bytes (REL,CON)

      Value  Global                              Global Defined In Module
      -----  --------------------------------   ------------------------
     00004DFF  A$view_screen$211                  view_screen
     00004E01  A$view_screen$215                  view_screen
     00004E01  C$view_screen.c$52$2_0$35          view_screen
     00004E04  A$view_screen$216                  view_screen
     00004E05  A$view_screen$217                  view_screen
     00004E06  A$view_screen$218                  view_screen
     00004E08  A$view_screen$222                  view_screen
     00004E08  C$view_screen.c$54$3_0$36          view_screen
     00004E0A  A$view_screen$223                  view_screen
     00004E0C  A$view_screen$228                  view_screen
     00004E0C  C$view_screen.c$58$3_0$37          view_screen
     00004E0D  A$view_screen$229                  view_screen
     00004E0E  A$view_screen$234                  view_screen
     00004E0E  C$view_screen.c$60$2_0$35          view_screen
     00004E0F  A$view_screen$235                  view_screen
     00004E12  A$view_screen$236                  view_screen
     00004E13  A$view_screen$241                  view_screen
     00004E13  C$view_screen.c$63$1_0$34          view_screen
     00004E14  A$view_screen$242                  view_screen
     00004E17  A$view_screen$243                  view_screen
     00004E18  A$view_screen$244                  view_screen
     00004E19  A$view_screen$245                  view_screen
     00004E1A  A$view_screen$246                  view_screen
     00004E1B  A$view_screen$247                  view_screen
     00004E1C  A$view_screen$251                  view_screen
     00004E1C  C$view_screen.c$64$1_0$34          view_screen
     00004E1D  A$view_screen$252                  view_screen
     00004E1F  A$view_screen$256                  view_screen
     00004E1F  C$view_screen.c$66$2_0$38          view_screen
     00004E22  A$view_screen$257                  view_screen
     00004E25  A$view_screen$258                  view_screen
     00004E27  A$view_screen$259                  view_screen
     00004E29  A$view_screen$263                  view_screen
     00004E29  C$view_screen.c$68$3_0$39          view_screen
     00004E2C  A$view_screen$264                  view_screen
     00004E2E  A$view_screen$265                  view_screen
     00004E30  A$view_screen$270                  view_screen
     00004E30  C$view_screen.c$72$3_0$40          view_screen
     00004E33  A$view_screen$271                  view_screen
     00004E34  A$view_screen$272                  view_screen
     00004E37  A$view_screen$277                  view_screen
     00004E37  C$view_screen.c$74$2_0$38          view_screen
     00004E38  A$view_screen$278                  view_screen
     00004E3B  A$view_screen$279                  view_screen
     00004E3C  A$view_screen$284                  view_screen
     00004E3C  C$view_screen.c$77$1_0$34          view_screen
     00004E3D  A$view_screen$285                  view_screen
     00004E40  A$view_screen$286                  view_screen
     00004E41  A$view_screen$287                  view_screen
     00004E42  A$view_screen$288                  view_screen
     00004E45  A$view_screen$289                  view_screen
ASxxxx Linker V03.00 + NoICE + sdld,  page 240.
Hexadecimal  [32-Bits]

Area                                    Addr        Size        Decimal Bytes (Attributes)
--------------------------------        ----        ----        ------- ----- ------------
_CODE                               00000200    0000636D =       25453. bytes (REL,CON)

      Value  Global                              Global Defined In Module
      -----  --------------------------------   ------------------------
     00004E48  A$view_screen$290                  view_screen
     00004E49  A$view_screen$294                  view_screen
     00004E49  C$view_screen.c$78$1_0$34          view_screen
     00004E4A  A$view_screen$295                  view_screen
     00004E4C  A$view_screen$299                  view_screen
     00004E4C  C$view_screen.c$80$2_0$41          view_screen
     00004E4F  A$view_screen$300                  view_screen
     00004E50  A$view_screen$301                  view_screen
     00004E52  A$view_screen$305                  view_screen
     00004E52  C$view_screen.c$82$3_0$42          view_screen
     00004E55  A$view_screen$306                  view_screen
     00004E57  A$view_screen$307                  view_screen
     00004E59  A$view_screen$312                  view_screen
     00004E59  C$view_screen.c$86$3_0$43          view_screen
     00004E5A  A$view_screen$313                  view_screen
     00004E5D  A$view_screen$318                  view_screen
     00004E5D  C$view_screen.c$88$2_0$41          view_screen
     00004E5E  A$view_screen$319                  view_screen
     00004E61  A$view_screen$320                  view_screen
     00004E62  A$view_screen$325                  view_screen
     00004E62  C$view_screen.c$91$1_0$34          view_screen
     00004E63  A$view_screen$326                  view_screen
     00004E66  A$view_screen$327                  view_screen
     00004E67  A$view_screen$328                  view_screen
     00004E68  A$view_screen$329                  view_screen
     00004E69  A$view_screen$333                  view_screen
     00004E69  C$view_screen.c$92$1_0$34          view_screen
     00004E6A  A$view_screen$334                  view_screen
     00004E6C  A$view_screen$338                  view_screen
     00004E6C  C$view_screen.c$94$2_0$44          view_screen
     00004E6F  A$view_screen$339                  view_screen
     00004E72  A$view_screen$340                  view_screen
     00004E74  A$view_screen$341                  view_screen
     00004E76  A$view_screen$345                  view_screen
     00004E76  C$view_screen.c$96$3_0$45          view_screen
     00004E79  A$view_screen$346                  view_screen
     00004E7B  A$view_screen$347                  view_screen
     00004E7D  A$view_screen$352                  view_screen
     00004E7D  C$view_screen.c$100$3_0$46         view_screen
     00004E80  A$view_screen$353                  view_screen
     00004E81  A$view_screen$354                  view_screen
     00004E84  A$view_screen$359                  view_screen
     00004E84  C$view_screen.c$102$2_0$44         view_screen
     00004E87  A$view_screen$364                  view_screen
     00004E87  C$view_screen.c$105$1_0$34         view_screen
     00004E8A  A$view_screen$365                  view_screen
     00004E8B  A$view_screen$366                  view_screen
     00004E8E  A$view_screen$367                  view_screen
     00004E91  A$view_screen$368                  view_screen
     00004E92  A$view_screen$372                  view_screen
     00004E92  C$view_screen.c$106$1_0$34         view_screen
ASxxxx Linker V03.00 + NoICE + sdld,  page 241.
Hexadecimal  [32-Bits]

Area                                    Addr        Size        Decimal Bytes (Attributes)
--------------------------------        ----        ----        ------- ----- ------------
_CODE                               00000200    0000636D =       25453. bytes (REL,CON)

      Value  Global                              Global Defined In Module
      -----  --------------------------------   ------------------------
     00004E93  A$view_screen$373                  view_screen
     00004E95  A$view_screen$377                  view_screen
     00004E95  C$view_screen.c$108$2_0$47         view_screen
     00004E98  A$view_screen$378                  view_screen
     00004E99  A$view_screen$379                  view_screen
     00004E9B  A$view_screen$380                  view_screen
     00004E9C  A$view_screen$381                  view_screen
     00004E9D  A$view_screen$385                  view_screen
     00004E9D  C$view_screen.c$109$2_0$47         view_screen
     00004EA0  A$view_screen$390                  view_screen
     00004EA0  C$view_screen.c$112$1_0$34         view_screen
     00004EA3  A$view_screen$391                  view_screen
     00004EA4  A$view_screen$392                  view_screen
     00004EA7  A$view_screen$393                  view_screen
     00004EAA  A$view_screen$394                  view_screen
     00004EAB  A$view_screen$398                  view_screen
     00004EAB  C$view_screen.c$115$1_0$34         view_screen
     00004EAE  A$view_screen$399                  view_screen
     00004EB1  A$view_screen$403                  view_screen
     00004EB1  C$view_screen.c$113$1_0$34         view_screen
     00004EB2  A$view_screen$404                  view_screen
     00004EB3  A$view_screen$405                  view_screen
     00004EB5  A$view_screen$409                  view_screen
     00004EB5  C$view_screen.c$115$2_0$48         view_screen
     00004EB7  A$view_screen$413                  view_screen
     00004EB7  C$view_screen.c$116$2_0$48         view_screen
     00004EB9  A$view_screen$418                  view_screen
     00004EB9  C$view_screen.c$120$1_0$34         view_screen
     00004EBA  A$view_screen$419                  view_screen
     00004EBD  A$view_screen$420                  view_screen
     00004EC0  A$view_screen$421                  view_screen
     00004EC1  A$view_screen$425                  view_screen
     00004EC1  C$view_screen.c$123$1_0$34         view_screen
     00004EC3  A$view_screen$430                  view_screen
     00004EC5  A$view_screen$431                  view_screen
     00004EC7  A$view_screen$436                  view_screen
     00004EC7  C$view_screen.c$124$1_0$34         view_screen
     00004EC7  XG$screen_view_screen_update$0$0   view_screen
     00004EC8  A$view_screen$452                  view_screen
     00004EC8  C$view_screen.c$126$1_0$49         view_screen
     00004EC8  C$view_screen.c$128$1_0$49         view_screen
     00004EC8  C$view_screen.c$132$1_0$49         view_screen
     00004EC8  Fview_screen$load_screen$0$0       view_screen
     00004ECB  A$view_screen$456                  view_screen
     00004ECB  C$view_screen.c$133$1_0$49         view_screen
     00004ECE  A$view_screen$460                  view_screen
     00004ECE  C$view_screen.c$135$1_0$49         view_screen
     00004ED1  A$view_screen$461                  view_screen
     00004ED2  A$view_screen$462                  view_screen
     00004ED4  A$view_screen$463                  view_screen
     00004ED7  A$view_screen$464                  view_screen
ASxxxx Linker V03.00 + NoICE + sdld,  page 242.
Hexadecimal  [32-Bits]

Area                                    Addr        Size        Decimal Bytes (Attributes)
--------------------------------        ----        ----        ------- ----- ------------
_CODE                               00000200    0000636D =       25453. bytes (REL,CON)

      Value  Global                              Global Defined In Module
      -----  --------------------------------   ------------------------
     00004ED8  A$view_screen$465                  view_screen
     00004EDA  A$view_screen$466                  view_screen
     00004EDB  A$view_screen$467                  view_screen
     00004EDD  A$view_screen$469                  view_screen
     00004EDF  A$view_screen$474                  view_screen
     00004EDF  C$view_screen.c$136$1_0$49         view_screen
     00004EE2  A$view_screen$475                  view_screen
     00004EE3  A$view_screen$476                  view_screen
     00004EE6  A$view_screen$477                  view_screen
     00004EE7  A$view_screen$478                  view_screen
     00004EEA  A$view_screen$479                  view_screen
     00004EEB  A$view_screen$480                  view_screen
     00004EEC  A$view_screen$481                  view_screen
     00004EED  A$view_screen$482                  view_screen
     00004EEE  A$view_screen$483                  view_screen
     00004EEF  A$view_screen$484                  view_screen
     00004EF0  A$view_screen$485                  view_screen
     00004EF1  A$view_screen$486                  view_screen
     00004EF2  A$view_screen$487                  view_screen
     00004EF3  A$view_screen$488                  view_screen
     00004EF4  A$view_screen$489                  view_screen
     00004EF7  A$view_screen$490                  view_screen
     00004EF8  A$view_screen$491                  view_screen
     00004EF9  A$view_screen$492                  view_screen
     00004EFA  A$view_screen$496                  view_screen
     00004EFA  C$view_screen.c$137$1_0$49         view_screen
     00004EFD  A$view_screen$500                  view_screen
     00004EFD  C$view_screen.c$138$1_0$49         view_screen
     00004F00  A$view_screen$504                  view_screen
     00004F00  C$view_screen.c$139$1_0$49         view_screen
     00004F03  A$view_screen$508                  view_screen
     00004F03  C$view_screen.c$141$1_0$49         view_screen
     00004F06  A$view_screen$512                  view_screen
     00004F06  C$view_screen.c$142$1_0$49         view_screen
     00004F09  A$view_screen$516                  view_screen
     00004F09  C$view_screen.c$143$1_0$49         view_screen
     00004F0C  A$view_screen$520                  view_screen
     00004F0C  C$view_screen.c$144$1_0$49         view_screen
     00004F0F  A$view_screen$524                  view_screen
     00004F0F  C$view_screen.c$145$1_0$49         view_screen
     00004F12  A$view_screen$525                  view_screen
     00004F13  A$view_screen$526                  view_screen
     00004F16  A$view_screen$527                  view_screen
     00004F17  A$view_screen$528                  view_screen
     00004F18  A$view_screen$529                  view_screen
     00004F19  A$view_screen$530                  view_screen
     00004F1A  A$view_screen$531                  view_screen
     00004F1B  A$view_screen$532                  view_screen
     00004F1C  A$view_screen$533                  view_screen
     00004F1D  A$view_screen$534                  view_screen
     00004F20  A$view_screen$535                  view_screen
ASxxxx Linker V03.00 + NoICE + sdld,  page 243.
Hexadecimal  [32-Bits]

Area                                    Addr        Size        Decimal Bytes (Attributes)
--------------------------------        ----        ----        ------- ----- ------------
_CODE                               00000200    0000636D =       25453. bytes (REL,CON)

      Value  Global                              Global Defined In Module
      -----  --------------------------------   ------------------------
     00004F21  A$view_screen$536                  view_screen
     00004F22  A$view_screen$540                  view_screen
     00004F22  C$view_screen.c$148$1_0$49         view_screen
     00004F25  A$view_screen$544                  view_screen
     00004F25  C$view_screen.c$149$1_0$49         view_screen
     00004F28  A$view_screen$548                  view_screen
     00004F28  C$view_screen.c$150$1_0$49         view_screen
     00004F2B  A$view_screen$552                  view_screen
     00004F2B  C$view_screen.c$151$1_0$49         view_screen
     00004F2E  A$view_screen$556                  view_screen
     00004F2E  C$view_screen.c$153$1_0$49         view_screen
     00004F31  A$view_screen$557                  view_screen
     00004F32  A$view_screen$558                  view_screen
     00004F34  A$view_screen$562                  view_screen
     00004F34  C$view_screen.c$155$2_0$50         view_screen
     00004F37  A$view_screen$563                  view_screen
     00004F38  A$view_screen$564                  view_screen
     00004F39  A$view_screen$565                  view_screen
     00004F3C  A$view_screen$566                  view_screen
     00004F3D  A$view_screen$571                  view_screen
     00004F3D  C$view_screen.c$157$1_0$49         view_screen
     00004F3E  A$view_screen$572                  view_screen
     00004F3F  A$view_screen$573                  view_screen
     00004F41  A$view_screen$574                  view_screen
     00004F42  A$view_screen$575                  view_screen
     00004F45  A$view_screen$576                  view_screen
     00004F46  A$view_screen$577                  view_screen
     00004F49  A$view_screen$578                  view_screen
     00004F4A  A$view_screen$579                  view_screen
     00004F4B  A$view_screen$583                  view_screen
     00004F4B  C$view_screen.c$158$1_0$49         view_screen
     00004F4E  A$view_screen$587                  view_screen
     00004F4E  C$view_screen.c$159$1_0$49         view_screen
     00004F51  A$view_screen$598                  view_screen
     00004F51  C$view_screen.c$162$1_0$49         view_screen
     00004F51  C$view_screen.c$163$1_0$49         view_screen
     00004F51  XFview_screen$load_screen$0$0      view_screen
     00004F54  Fview_screen$__str_0$0_0$0         view_screen
     00004F5B  A$screen_manager$115               screen_manager
     00004F5B  C$screen_manager.c$36$0_0$27       screen_manager
     00004F5B  C$screen_manager.c$38$1_0$27       screen_manager
     00004F5B  G$engine_screen_manager_init$0$0   screen_manager
     00004F5B  _engine_screen_manager_init        screen_manager
     00004F5E  A$screen_manager$116               screen_manager
     00004F5F  A$screen_manager$117               screen_manager
     00004F60  A$screen_manager$118               screen_manager
     00004F63  A$screen_manager$122               screen_manager
     00004F63  C$screen_manager.c$39$1_0$27       screen_manager
     00004F67  A$screen_manager$123               screen_manager
     00004F6B  A$screen_manager$127               screen_manager
     00004F6B  C$screen_manager.c$42$1_0$27       screen_manager
ASxxxx Linker V03.00 + NoICE + sdld,  page 244.
Hexadecimal  [32-Bits]

Area                                    Addr        Size        Decimal Bytes (Attributes)
--------------------------------        ----        ----        ------- ----- ------------
_CODE                               00000200    0000636D =       25453. bytes (REL,CON)

      Value  Global                              Global Defined In Module
      -----  --------------------------------   ------------------------
     00004F6E  A$screen_manager$128               screen_manager
     00004F71  A$screen_manager$132               screen_manager
     00004F71  C$screen_manager.c$43$1_0$27       screen_manager
     00004F74  A$screen_manager$133               screen_manager
     00004F77  A$screen_manager$137               screen_manager
     00004F77  C$screen_manager.c$44$1_0$27       screen_manager
     00004F7A  A$screen_manager$138               screen_manager
     00004F7D  A$screen_manager$142               screen_manager
     00004F7D  C$screen_manager.c$45$1_0$27       screen_manager
     00004F80  A$screen_manager$143               screen_manager
     00004F83  A$screen_manager$147               screen_manager
     00004F83  C$screen_manager.c$46$1_0$27       screen_manager
     00004F86  A$screen_manager$148               screen_manager
     00004F89  A$screen_manager$152               screen_manager
     00004F89  C$screen_manager.c$47$1_0$27       screen_manager
     00004F8C  A$screen_manager$153               screen_manager
     00004F8F  A$screen_manager$157               screen_manager
     00004F8F  C$screen_manager.c$48$1_0$27       screen_manager
     00004F92  A$screen_manager$158               screen_manager
     00004F95  A$screen_manager$162               screen_manager
     00004F95  C$screen_manager.c$49$1_0$27       screen_manager
     00004F98  A$screen_manager$163               screen_manager
     00004F9B  A$screen_manager$167               screen_manager
     00004F9B  C$screen_manager.c$50$1_0$27       screen_manager
     00004F9E  A$screen_manager$168               screen_manager
     00004FA1  A$screen_manager$172               screen_manager
     00004FA1  C$screen_manager.c$51$1_0$27       screen_manager
     00004FA4  A$screen_manager$173               screen_manager
     00004FA7  A$screen_manager$177               screen_manager
     00004FA7  C$screen_manager.c$52$1_0$27       screen_manager
     00004FAA  A$screen_manager$178               screen_manager
     00004FAD  A$screen_manager$182               screen_manager
     00004FAD  C$screen_manager.c$53$1_0$27       screen_manager
     00004FB0  A$screen_manager$183               screen_manager
     00004FB3  A$screen_manager$187               screen_manager
     00004FB3  C$screen_manager.c$54$1_0$27       screen_manager
     00004FB6  A$screen_manager$188               screen_manager
     00004FB9  A$screen_manager$192               screen_manager
     00004FB9  C$screen_manager.c$55$1_0$27       screen_manager
     00004FBC  A$screen_manager$193               screen_manager
     00004FBF  A$screen_manager$197               screen_manager
     00004FBF  C$screen_manager.c$56$1_0$27       screen_manager
     00004FC2  A$screen_manager$198               screen_manager
     00004FC5  A$screen_manager$202               screen_manager
     00004FC5  C$screen_manager.c$57$1_0$27       screen_manager
     00004FC8  A$screen_manager$203               screen_manager
     00004FCB  A$screen_manager$207               screen_manager
     00004FCB  C$screen_manager.c$58$1_0$27       screen_manager
     00004FCE  A$screen_manager$208               screen_manager
     00004FD1  A$screen_manager$212               screen_manager
     00004FD1  C$screen_manager.c$59$1_0$27       screen_manager
ASxxxx Linker V03.00 + NoICE + sdld,  page 245.
Hexadecimal  [32-Bits]

Area                                    Addr        Size        Decimal Bytes (Attributes)
--------------------------------        ----        ----        ------- ----- ------------
_CODE                               00000200    0000636D =       25453. bytes (REL,CON)

      Value  Global                              Global Defined In Module
      -----  --------------------------------   ------------------------
     00004FD4  A$screen_manager$213               screen_manager
     00004FD7  A$screen_manager$217               screen_manager
     00004FD7  C$screen_manager.c$60$1_0$27       screen_manager
     00004FDA  A$screen_manager$218               screen_manager
     00004FDD  A$screen_manager$222               screen_manager
     00004FDD  C$screen_manager.c$61$1_0$27       screen_manager
     00004FE0  A$screen_manager$223               screen_manager
     00004FE3  A$screen_manager$227               screen_manager
     00004FE3  C$screen_manager.c$62$1_0$27       screen_manager
     00004FE6  A$screen_manager$228               screen_manager
     00004FE9  A$screen_manager$232               screen_manager
     00004FE9  C$screen_manager.c$63$1_0$27       screen_manager
     00004FEC  A$screen_manager$233               screen_manager
     00004FEF  A$screen_manager$237               screen_manager
     00004FEF  C$screen_manager.c$64$1_0$27       screen_manager
     00004FF2  A$screen_manager$238               screen_manager
     00004FF5  A$screen_manager$242               screen_manager
     00004FF5  C$screen_manager.c$67$1_0$27       screen_manager
     00004FF8  A$screen_manager$243               screen_manager
     00004FFB  A$screen_manager$247               screen_manager
     00004FFB  C$screen_manager.c$68$1_0$27       screen_manager
     00004FFE  A$screen_manager$248               screen_manager
     00005001  A$screen_manager$252               screen_manager
     00005001  C$screen_manager.c$69$1_0$27       screen_manager
     00005004  A$screen_manager$253               screen_manager
     00005007  A$screen_manager$257               screen_manager
     00005007  C$screen_manager.c$70$1_0$27       screen_manager
     0000500A  A$screen_manager$258               screen_manager
     0000500D  A$screen_manager$262               screen_manager
     0000500D  C$screen_manager.c$71$1_0$27       screen_manager
     00005010  A$screen_manager$263               screen_manager
     00005013  A$screen_manager$267               screen_manager
     00005013  C$screen_manager.c$72$1_0$27       screen_manager
     00005016  A$screen_manager$268               screen_manager
     00005019  A$screen_manager$272               screen_manager
     00005019  C$screen_manager.c$73$1_0$27       screen_manager
     0000501C  A$screen_manager$273               screen_manager
     0000501F  A$screen_manager$277               screen_manager
     0000501F  C$screen_manager.c$74$1_0$27       screen_manager
     00005022  A$screen_manager$278               screen_manager
     00005025  A$screen_manager$282               screen_manager
     00005025  C$screen_manager.c$75$1_0$27       screen_manager
     00005028  A$screen_manager$283               screen_manager
     0000502B  A$screen_manager$287               screen_manager
     0000502B  C$screen_manager.c$76$1_0$27       screen_manager
     0000502E  A$screen_manager$288               screen_manager
     00005031  A$screen_manager$292               screen_manager
     00005031  C$screen_manager.c$77$1_0$27       screen_manager
     00005034  A$screen_manager$293               screen_manager
     00005037  A$screen_manager$297               screen_manager
     00005037  C$screen_manager.c$78$1_0$27       screen_manager
ASxxxx Linker V03.00 + NoICE + sdld,  page 246.
Hexadecimal  [32-Bits]

Area                                    Addr        Size        Decimal Bytes (Attributes)
--------------------------------        ----        ----        ------- ----- ------------
_CODE                               00000200    0000636D =       25453. bytes (REL,CON)

      Value  Global                              Global Defined In Module
      -----  --------------------------------   ------------------------
     0000503A  A$screen_manager$298               screen_manager
     0000503D  A$screen_manager$302               screen_manager
     0000503D  C$screen_manager.c$79$1_0$27       screen_manager
     00005040  A$screen_manager$303               screen_manager
     00005043  A$screen_manager$307               screen_manager
     00005043  C$screen_manager.c$80$1_0$27       screen_manager
     00005046  A$screen_manager$308               screen_manager
     00005049  A$screen_manager$312               screen_manager
     00005049  C$screen_manager.c$81$1_0$27       screen_manager
     0000504C  A$screen_manager$313               screen_manager
     0000504F  A$screen_manager$317               screen_manager
     0000504F  C$screen_manager.c$82$1_0$27       screen_manager
     00005052  A$screen_manager$318               screen_manager
     00005055  A$screen_manager$322               screen_manager
     00005055  C$screen_manager.c$83$1_0$27       screen_manager
     00005058  A$screen_manager$323               screen_manager
     0000505B  A$screen_manager$327               screen_manager
     0000505B  C$screen_manager.c$84$1_0$27       screen_manager
     0000505E  A$screen_manager$328               screen_manager
     00005061  A$screen_manager$332               screen_manager
     00005061  C$screen_manager.c$85$1_0$27       screen_manager
     00005064  A$screen_manager$333               screen_manager
     00005067  A$screen_manager$337               screen_manager
     00005067  C$screen_manager.c$86$1_0$27       screen_manager
     0000506A  A$screen_manager$338               screen_manager
     0000506D  A$screen_manager$342               screen_manager
     0000506D  C$screen_manager.c$87$1_0$27       screen_manager
     00005070  A$screen_manager$343               screen_manager
     00005073  A$screen_manager$347               screen_manager
     00005073  C$screen_manager.c$88$1_0$27       screen_manager
     00005076  A$screen_manager$348               screen_manager
     00005079  A$screen_manager$352               screen_manager
     00005079  C$screen_manager.c$89$1_0$27       screen_manager
     0000507C  A$screen_manager$353               screen_manager
     0000507F  A$screen_manager$364               screen_manager
     0000507F  C$screen_manager.c$92$1_0$27       screen_manager
     0000507F  C$screen_manager.c$93$1_0$27       screen_manager
     0000507F  XG$engine_screen_manager_init$0$   screen_manager
     00005082  A$screen_manager$377               screen_manager
     00005082  C$screen_manager.c$95$1_0$28       screen_manager
     00005082  C$screen_manager.c$97$1_0$28       screen_manager
     00005082  G$engine_screen_manager_update$0   screen_manager
     00005082  _engine_screen_manager_update      screen_manager
     00005085  A$screen_manager$378               screen_manager
     00005089  A$screen_manager$379               screen_manager
     0000508C  A$screen_manager$380               screen_manager
     0000508E  A$screen_manager$384               screen_manager
     0000508E  C$screen_manager.c$99$2_0$29       screen_manager
     00005091  A$screen_manager$385               screen_manager
     00005095  A$screen_manager$386               screen_manager
     00005098  A$screen_manager$390               screen_manager
ASxxxx Linker V03.00 + NoICE + sdld,  page 247.
Hexadecimal  [32-Bits]

Area                                    Addr        Size        Decimal Bytes (Attributes)
--------------------------------        ----        ----        ------- ----- ------------
_CODE                               00000200    0000636D =       25453. bytes (REL,CON)

      Value  Global                              Global Defined In Module
      -----  --------------------------------   ------------------------
     00005098  C$screen_manager.c$100$2_0$29      screen_manager
     0000509B  A$screen_manager$391               screen_manager
     0000509E  A$screen_manager$392               screen_manager
     000050A0  A$screen_manager$393               screen_manager
     000050A1  A$screen_manager$394               screen_manager
     000050A2  A$screen_manager$395               screen_manager
     000050A3  A$screen_manager$396               screen_manager
     000050A4  A$screen_manager$397               screen_manager
     000050A5  A$screen_manager$398               screen_manager
     000050A6  A$screen_manager$399               screen_manager
     000050A9  A$screen_manager$404               screen_manager
     000050A9  C$screen_manager.c$103$1_0$28      screen_manager
     000050AC  A$screen_manager$405               screen_manager
     000050AF  A$screen_manager$406               screen_manager
     000050B0  A$screen_manager$407               screen_manager
     000050B2  A$screen_manager$408               screen_manager
     000050B3  A$screen_manager$409               screen_manager
     000050B4  A$screen_manager$410               screen_manager
     000050B5  A$screen_manager$411               screen_manager
     000050B6  A$screen_manager$412               screen_manager
     000050B7  A$screen_manager$413               screen_manager
     000050BA  A$screen_manager$414               screen_manager
     000050BB  A$screen_manager$415               screen_manager
     000050BC  A$screen_manager$416               screen_manager
     000050BD  A$screen_manager$417               screen_manager
     000050C0  A$screen_manager$418               screen_manager
     000050C1  A$screen_manager$426               screen_manager
     000050C1  C$screen_manager.c$104$1_0$28      screen_manager
     000050C1  XG$engine_screen_manager_update$   screen_manager
     000050C2  G$back_tiles__palette__bin$0_0$0   gfx
     000050C2  _back_tiles__palette__bin          gfx
     000050D2  G$back_tiles__tilemap__bin$0_0$0   gfx
     000050D2  _back_tiles__tilemap__bin          gfx
     000051D2  G$back_tiles__tiles__psgcompr$0_   gfx
     000051D2  _back_tiles__tiles__psgcompr       gfx
     00005953  G$sfx_accept_psg$0_0$0             psg
     00005953  _sfx_accept_psg                    psg
     00005973  G$sfx_death_psg$0_0$0              psg
     00005973  _sfx_death_psg                     psg
     00005B51  G$sfx_gem_psg$0_0$0                psg
     00005B51  _sfx_gem_psg                       psg
     00005B6D  G$sfx_level_psg$0_0$0              psg
     00005B6D  _sfx_level_psg                     psg
     00005D7F  G$sfx_power_psg$0_0$0              psg
     00005D7F  _sfx_power_psg                     psg
     00005DA2  G$sfx_reset_psg$0_0$0              psg
     00005DA2  _sfx_reset_psg                     psg
     00005DC5  __divuint                          
     00005DCD  __divuchar                         
     00005DD4  __divu8                            
     00005DD7  __divu16                           
ASxxxx Linker V03.00 + NoICE + sdld,  page 248.
Hexadecimal  [32-Bits]

Area                                    Addr        Size        Decimal Bytes (Attributes)
--------------------------------        ----        ----        ------- ----- ------------
_CODE                               00000200    0000636D =       25453. bytes (REL,CON)

      Value  Global                              Global Defined In Module
      -----  --------------------------------   ------------------------
     00005E06  _UNSAFE_SMS_copySpritestoSAT       SMSlib_UNSAFE
     00005E1E  _UNSAFE_SMS_VRAMmemcpy32           SMSlib_UNSAFE
     00005E3B  _UNSAFE_SMS_VRAMmemcpy64           SMSlib_UNSAFE
     00005E58  _UNSAFE_SMS_VRAMmemcpy128          SMSlib_UNSAFE
     00005E75  _SMS_init                          SMSlib
     00005EC9  _VDPReg_init                       SMSlib
     00005ED4  _SMS_VDPType                       SMSlib
     00005EDC  _SMS_VDPturnOnFeature              SMSlib
     00005EF3  _SMS_VDPturnOffFeature             SMSlib
     00005F0C  _SMS_setBGScrollX                  SMSlib
     00005F16  _SMS_setBGScrollY                  SMSlib
     00005F20  _SMS_setBackdropColor              SMSlib
     00005F2A  _SMS_useFirstHalfTilesforSprites   SMSlib
     00005F3E  _SMS_setSpriteMode                 SMSlib
     00005F83  _SMS_setBGPaletteColor             SMSlib
     00005F97  _SMS_setSpritePaletteColor         SMSlib
     00005FAB  _SMS_loadBGPalette                 SMSlib
     00005FBF  _SMS_loadSpritePalette             SMSlib
     00005FD3  _SMS_setColor                      SMSlib
     00005FD7  _SMS_initSprites                   SMSlib
     00005FDD  _SMS_addSprite                     SMSlib
     00006032  _SMS_finalizeSprites               SMSlib
     00006044  _SMS_copySpritestoSAT              SMSlib
     0000606D  _SMS_waitForVBlank                 SMSlib
     0000607A  _SMS_getKeysStatus                 SMSlib
     0000607E  _SMS_getKeysPressed                SMSlib
     0000609B  _SMS_getKeysHeld                   SMSlib
     000060B2  _SMS_getKeysReleased               SMSlib
     000060CF  _SMS_queryPauseRequested           SMSlib
     000060D7  _SMS_resetPauseRequest             SMSlib
     000060DD  _SMS_setLineInterruptHandler       SMSlib
     000060EE  _SMS_setLineCounter                SMSlib
     000060FD  _SMS_getVCount                     SMSlib
     00006101  _SMS_getHCount                     SMSlib
     00006105  _SMS_isr                           SMSlib
     0000613B  _SMS_nmi_isr                       SMSlib
     0000614E  _rand                              rand
     000061FB  _srand                             rand
     00006217  __mulint                           
     0000621D  __mul16                            
     00006231  _SMS_loadSTMcompressedTileMapAre   SMSlib_STMcomp
     00006412  ___sdcc_call_hl                    
     00006413  _SMS_loadPSGaidencompressedTiles   SMSlib_PSGaiden
     000064F5  __modschar                         
     00006502  __modsint                          
     0000650E  __moduchar                         
     0000651A  __moduint                          
     00006525  __divsint                          
     0000652E  __divschar                         
     00006535  __div8                             
     00006539  __div_signexte                     
ASxxxx Linker V03.00 + NoICE + sdld,  page 249.
Hexadecimal  [32-Bits]

Area                                    Addr        Size        Decimal Bytes (Attributes)
--------------------------------        ----        ----        ------- ----- ------------
_CODE                               00000200    0000636D =       25453. bytes (REL,CON)

      Value  Global                              Global Defined In Module
      -----  --------------------------------   ------------------------
     0000653D  __div16                            
     00006563  __get_remainder                    

ASxxxx Linker V03.00 + NoICE + sdld,  page 250.
Hexadecimal  [32-Bits]

Area                                    Addr        Size        Decimal Bytes (Attributes)
--------------------------------        ----        ----        ------- ----- ------------
_HEADER0                            00000000    00000006 =           6. bytes (ABS,CON)

      Value  Global                              Global Defined In Module
      -----  --------------------------------   ------------------------
     00000006  _SMS_crt0_RST08                    crt0

ASxxxx Linker V03.00 + NoICE + sdld,  page 251.
Hexadecimal  [32-Bits]

Area                                    Addr        Size        Decimal Bytes (Attributes)
--------------------------------        ----        ----        ------- ----- ------------
_HEADER1                            00000000    00000009 =           9. bytes (ABS,CON)

      Value  Global                              Global Defined In Module
      -----  --------------------------------   ------------------------
     00000011  _SMS_crt0_RST18                    crt0

ASxxxx Linker V03.00 + NoICE + sdld,  page 252.
Hexadecimal  [32-Bits]

Area                                    Addr        Size        Decimal Bytes (Attributes)
--------------------------------        ----        ----        ------- ----- ------------
_HEADER2                            00000000    0000000A =          10. bytes (ABS,CON)

      Value  Global                              Global Defined In Module
      -----  --------------------------------   ------------------------
ASxxxx Linker V03.00 + NoICE + sdld,  page 253.
Hexadecimal  [32-Bits]

Area                                    Addr        Size        Decimal Bytes (Attributes)
--------------------------------        ----        ----        ------- ----- ------------
_HEADER3                            00000000    00000003 =           3. bytes (ABS,CON)

      Value  Global                              Global Defined In Module
      -----  --------------------------------   ------------------------
ASxxxx Linker V03.00 + NoICE + sdld,  page 254.
Hexadecimal  [32-Bits]

Area                                    Addr        Size        Decimal Bytes (Attributes)
--------------------------------        ----        ----        ------- ----- ------------
_HEADER4                            00000000    00000003 =           3. bytes (ABS,CON)

      Value  Global                              Global Defined In Module
      -----  --------------------------------   ------------------------
ASxxxx Linker V03.00 + NoICE + sdld,  page 255.
Hexadecimal  [32-Bits]

Area                                    Addr        Size        Decimal Bytes (Attributes)
--------------------------------        ----        ----        ------- ----- ------------
_HEADER5                            00000000    0000012A =         298. bytes (ABS,CON)

      Value  Global                              Global Defined In Module
      -----  --------------------------------   ------------------------
     00000099  _OUTI128                           crt0
     00000119  _OUTI64                            crt0
     00000159  _OUTI32                            crt0
     00000199  _outi_block                        crt0

ASxxxx Linker V03.00 + NoICE + sdld,  page 256.
Hexadecimal  [32-Bits]

Area                                    Addr        Size        Decimal Bytes (Attributes)
--------------------------------        ----        ----        ------- ----- ------------
_INITIALIZER                        0000656D    000001F9 =         505. bytes (REL,CON)

      Value  Global                              Global Defined In Module
      -----  --------------------------------   ------------------------
     0000656D  Fglobal_manager$__xinit_count_te   global_manager
     00006581  Fglobal_manager$__xinit_lives_te   global_manager
     00006595  Flevel_object$__xinit_tutorialda   level_object
     000065A9  Flevel_object$__xinit_levelAAdat   level_object
     000065F9  Flevel_object$__xinit_levelBBdat   level_object
     00006649  Fanim_object$__xinit_player_anim   anim_object
     0000665F  Fanim_object$__xinit_enemyA_anim   anim_object
     00006661  Fanim_object$__xinit_enemyB_anim   anim_object
     00006663  Fanim_object$__xinit_enemyC_anim   anim_object
     00006665  Fanim_object$__xinit_enemyD_anim   anim_object
     00006667  Faudio_object$__xinit_game_audio   audio_object
     0000666D  Faudio_object$__xinit_title_audi   audio_object
     0000666F  Faudio_object$__xinit_beat_audio   audio_object
     00006671  Faudio_object$__xinit_over_audio   audio_object
     00006673  Fintro_object$__xinit_intro_text   intro_object
     00006687  Fintro_object$__xinit_intro_text   intro_object
     0000669B  Ftutorial_object$__xinit_tutoria   tutorial_object
     000066AF  Ftutorial_object$__xinit_tutoria   tutorial_object
     000066C3  Ftile_manager$__xinit_guard_tile   tile_manager
     000066CB  Fmemo_manager$__xinit_small_tile   memo_manager
     000066CE  Finput_manager$__xinit_curr_joyp   input_manager
     000066D0  Finput_manager$__xinit_prev_joyp   input_manager
     000066D2  Fplayer_manager$__xinit_velocity   player_manager
     000066DC  Fplayer_manager$__xinit_velocity   player_manager
     000066E6  Fplayer_manager$__xinit_velocity   player_manager
     000066F7  Fplayer_manager$__xinit_gravityZ   player_manager
     00006708  Fplayer_manager$__xinit_leftTile   player_manager
     00006718  Fplayer_manager$__xinit_rghtTile   player_manager
     00006728  Fplayer_manager$__xinit_topXTile   player_manager
     00006738  Fplayer_manager$__xinit_botXTile   player_manager
     00006748  Fenemy_manager$__xinit_enemy_til   enemy_manager
     00006750  Fgame_manager$__xinit_diff_text$   game_manager
     00006754  Fentry_screen$__xinit_cursorY$0_   entry_screen
     00006756  Fdiff_screen$__xinit_cursorX$0_0   diff_screen
     00006758  Fpace_screen$__xinit_cursorX$0_0   pace_screen
     0000675A  Flevel_screen$__xinit_cursorY$0_   level_screen
     0000675C  Fcont_screen$__xinit_cursorX$0_0   cont_screen

ASxxxx Linker V03.00 + NoICE + sdld,  page 257.
Hexadecimal  [32-Bits]

Area                                    Addr        Size        Decimal Bytes (Attributes)
--------------------------------        ----        ----        ------- ----- ------------
_GSINIT                             00006766    0000000F =          15. bytes (REL,CON)

      Value  Global                              Global Defined In Module
      -----  --------------------------------   ------------------------
     00006766  gsinit                             crt0

ASxxxx Linker V03.00 + NoICE + sdld,  page 258.
Hexadecimal  [32-Bits]

Area                                    Addr        Size        Decimal Bytes (Attributes)
--------------------------------        ----        ----        ------- ----- ------------
_GSFINAL                            00006775    00000001 =           1. bytes (REL,CON)

      Value  Global                              Global Defined In Module
      -----  --------------------------------   ------------------------
ASxxxx Linker V03.00 + NoICE + sdld,  page 259.
Hexadecimal  [32-Bits]

Area                                    Addr        Size        Decimal Bytes (Attributes)
--------------------------------        ----        ----        ------- ----- ------------
_DATA                               0000C000    00000442 =        1090. bytes (REL,CON)

      Value  Global                              Global Defined In Module
      -----  --------------------------------   ------------------------
     0000C000  Lmain.main$global_pause$1_0$58     main
     0000C001  _PSGMusicStatus                    PSGlib
     0000C002  _PSGMusicStart                     PSGlib
     0000C004  _PSGMusicPointer                   PSGlib
     0000C006  _PSGMusicLoopPoint                 PSGlib
     0000C008  _PSGMusicSkipFrames                PSGlib
     0000C009  _PSGLoopFlag                       PSGlib
     0000C00A  _PSGMusicLastLatch                 PSGlib
     0000C00B  _PSGMusicVolumeAttenuation         PSGlib
     0000C00C  _PSGMusicSubstringLen              PSGlib
     0000C00D  _PSGMusicSubstringRetAddr          PSGlib
     0000C00F  _PSGChan0Volume                    PSGlib
     0000C010  _PSGChan1Volume                    PSGlib
     0000C011  _PSGChan2Volume                    PSGlib
     0000C012  _PSGChan3Volume                    PSGlib
     0000C013  _PSGChan2LowTone                   PSGlib
     0000C014  _PSGChan2HighTone                  PSGlib
     0000C015  _PSGChan3LowTone                   PSGlib
     0000C016  _PSGChannel2SFX                    PSGlib
     0000C017  _PSGChannel3SFX                    PSGlib
     0000C018  _PSGSFXChan2Volume                 PSGlib
     0000C019  _PSGSFXChan3Volume                 PSGlib
     0000C01A  _PSGSFXStatus                      PSGlib
     0000C01B  _PSGSFXStart                       PSGlib
     0000C01D  _PSGSFXPointer                     PSGlib
     0000C01F  _PSGSFXLoopPoint                   PSGlib
     0000C021  _PSGSFXSkipFrames                  PSGlib
     0000C022  _PSGSFXLoopFlag                    PSGlib
     0000C023  _PSGSFXSubstringLen                PSGlib
     0000C024  _PSGSFXSubstringRetAddr            PSGlib
     0000C026  G$global_hack_object$0_0$0         hack_manager
     0000C026  _global_hack_object                hack_manager
     0000C02F  G$global_delay_object$0_0$0        delay_manager
     0000C02F  _global_delay_object               delay_manager
     0000C033  G$global_reset_object$0_0$0        reset_manager
     0000C033  _global_reset_object               reset_manager
     0000C036  Fmemo_manager$border$0_0$0         memo_manager
     0000C037  Fmemo_manager$index$0_0$0          memo_manager
     0000C038  G$global_level_object$0_0$0        level_manager
     0000C038  _global_level_object               level_manager
     0000C1E2  G$global_player_object$0_0$0       player_manager
     0000C1E2  _global_player_object              player_manager
     0000C21A  Fplayer_manager$minDistanceX$0_0   player_manager
     0000C21C  Fplayer_manager$negMinDistanceX$   player_manager
     0000C21E  Fplayer_manager$minDistanceY$0_0   player_manager
     0000C220  Fplayer_manager$negMinDistanceY$   player_manager
     0000C222  G$global_enemy_master$0_0$0        enemy_manager
     0000C222  _global_enemy_master               enemy_manager
     0000C223  G$global_enemy_objects$0_0$0       enemy_manager
     0000C223  _global_enemy_objects              enemy_manager
ASxxxx Linker V03.00 + NoICE + sdld,  page 260.
Hexadecimal  [32-Bits]

Area                                    Addr        Size        Decimal Bytes (Attributes)
--------------------------------        ----        ----        ------- ----- ------------
_DATA                               0000C000    00000442 =        1090. bytes (REL,CON)

      Value  Global                              Global Defined In Module
      -----  --------------------------------   ------------------------
     0000C277  G$global_score_object$0_0$0        score_manager
     0000C277  _global_score_object               score_manager
     0000C27D  G$global_stats_object$0_0$0        stats_manager
     0000C27D  _global_stats_object               stats_manager
     0000C2DF  G$global_game_object$0_0$0         game_manager
     0000C2DF  _global_game_object                game_manager
     0000C2E6  Fintro_screen$count$0_0$0          intro_screen
     0000C2E7  Fintro_screen$first$0_0$0          intro_screen
     0000C2E8  Fintro_screen$stage$0_0$0          intro_screen
     0000C2E9  Fintro_screen$pause$0_0$0          intro_screen
     0000C2EA  Ftitle_screen$flash$0_0$0          title_screen
     0000C2EB  Ftitle_screen$cheat_count$0_0$0    title_screen
     0000C2EC  Fentry_screen$select_count$0_0$0   entry_screen
     0000C2ED  Fdiff_screen$select_count$0_0$0    diff_screen
     0000C2EE  Flevel_screen$stage$0_0$0          level_screen
     0000C2EF  Flevel_screen$cursor$0_0$0         level_screen
     0000C2F0  Fplay_screen$invincible$0_0$0      play_screen
     0000C2F1  Fplay_screen$game_speed$0_0$0      play_screen
     0000C2F2  Fplay_screen$loop_speed$0_0$0      play_screen
     0000C2F3  Fplay_screen$collision$0_0$0       play_screen
     0000C2F4  Freset_screen$stage$0_0$0          reset_screen
     0000C2F5  Fpass_screen$gem_level$0_0$0       pass_screen
     0000C2F6  Fgems_screen$stage$0_0$0           gems_screen
     0000C2F7  Fcont_screen$stage$0_0$0           cont_screen
     0000C2F8  Fcont_screen$cursor$0_0$0          cont_screen
     0000C2F9  Fscreen_manager$load_method$0_0$   screen_manager
     0000C327  Fscreen_manager$update_method$0_   screen_manager
     0000C355  Fscreen_manager$curr_screen_type   screen_manager
     0000C356  Fscreen_manager$next_screen_type   screen_manager
     0000C357  _VDPBlank                          SMSlib
     0000C358  _SMS_VDPFlags                      SMSlib
     0000C359  _PauseRequested                    SMSlib
     0000C35A  _VDPType                           SMSlib
     0000C35B  _KeysStatus                        SMSlib
     0000C35D  _PreviousKeysStatus                SMSlib
     0000C35F  _SpriteTableY                      SMSlib
     0000C39F  _SpriteTableXN                     SMSlib
     0000C41F  _SpriteNextFree                    SMSlib
     0000C420  _SMS_theLineInterruptHandler       SMSlib
     0000C422  _decompBuffer                      SMSlib_PSGaiden
ASxxxx Linker V03.00 + NoICE + sdld,  page 261.
Hexadecimal  [32-Bits]

Area                                    Addr        Size        Decimal Bytes (Attributes)
--------------------------------        ----        ----        ------- ----- ------------
_INITIALIZED                        0000C442    000001F9 =         505. bytes (REL,CON)

      Value  Global                              Global Defined In Module
      -----  --------------------------------   ------------------------
     0000C442  G$count_text$0_0$0                 global_manager
     0000C442  _count_text                        global_manager
     0000C456  G$lives_text$0_0$0                 global_manager
     0000C456  _lives_text                        global_manager
     0000C46A  G$tutorialdata$0_0$0               level_object
     0000C46A  _tutorialdata                      level_object
     0000C47E  G$levelAAdata$0_0$0                level_object
     0000C47E  _levelAAdata                       level_object
     0000C4CE  G$levelBBdata$0_0$0                level_object
     0000C4CE  _levelBBdata                       level_object
     0000C51E  G$player_anim_data$0_0$0           anim_object
     0000C51E  _player_anim_data                  anim_object
     0000C534  G$enemyA_anim_data$0_0$0           anim_object
     0000C534  _enemyA_anim_data                  anim_object
     0000C536  G$enemyB_anim_data$0_0$0           anim_object
     0000C536  _enemyB_anim_data                  anim_object
     0000C538  G$enemyC_anim_data$0_0$0           anim_object
     0000C538  _enemyC_anim_data                  anim_object
     0000C53A  G$enemyD_anim_data$0_0$0           anim_object
     0000C53A  _enemyD_anim_data                  anim_object
     0000C53C  G$game_audio_data$0_0$0            audio_object
     0000C53C  _game_audio_data                   audio_object
     0000C542  G$title_audio_data$0_0$0           audio_object
     0000C542  _title_audio_data                  audio_object
     0000C544  G$beat_audio_data$0_0$0            audio_object
     0000C544  _beat_audio_data                   audio_object
     0000C546  G$over_audio_data$0_0$0            audio_object
     0000C546  _over_audio_data                   audio_object
     0000C548  G$intro_textTop$0_0$0              intro_object
     0000C548  _intro_textTop                     intro_object
     0000C55C  G$intro_textBot$0_0$0              intro_object
     0000C55C  _intro_textBot                     intro_object
     0000C570  G$tutorial_textTop$0_0$0           tutorial_object
     0000C570  _tutorial_textTop                  tutorial_object
     0000C584  G$tutorial_textBot$0_0$0           tutorial_object
     0000C584  _tutorial_textBot                  tutorial_object
     0000C598  Ftile_manager$guard_tiles$0_0$0    tile_manager
     0000C5A0  Fmemo_manager$small_tiles$0_0$0    memo_manager
     0000C5A3  Finput_manager$curr_joypad1$0_0$   input_manager
     0000C5A5  Finput_manager$prev_joypad1$0_0$   input_manager
     0000C5A7  Fplayer_manager$velocityXgnd$0_0   player_manager
     0000C5B1  Fplayer_manager$velocityXair$0_0   player_manager
     0000C5BB  Fplayer_manager$velocityY$0_0$0    player_manager
     0000C5CC  Fplayer_manager$gravityZZ$0_0$0    player_manager
     0000C5DD  Fplayer_manager$leftTileArray$0_   player_manager
     0000C5ED  Fplayer_manager$rghtTileArray$0_   player_manager
     0000C5FD  Fplayer_manager$topXTileArray$0_   player_manager
     0000C60D  Fplayer_manager$botXTileArray$0_   player_manager
     0000C61D  Fenemy_manager$enemy_tiles$0_0$0   enemy_manager
     0000C625  Fgame_manager$diff_text$0_0$0      game_manager
ASxxxx Linker V03.00 + NoICE + sdld,  page 262.
Hexadecimal  [32-Bits]

Area                                    Addr        Size        Decimal Bytes (Attributes)
--------------------------------        ----        ----        ------- ----- ------------
_INITIALIZED                        0000C442    000001F9 =         505. bytes (REL,CON)

      Value  Global                              Global Defined In Module
      -----  --------------------------------   ------------------------
     0000C629  Fentry_screen$cursorY$0_0$0        entry_screen
     0000C62B  Fdiff_screen$cursorX$0_0$0         diff_screen
     0000C62D  Fpace_screen$cursorX$0_0$0         pace_screen
     0000C62F  Flevel_screen$cursorY$0_0$0        level_screen
     0000C631  Fcont_screen$cursorX$0_0$0         cont_screen
     0000C633  _VDPReg                            SMSlib
     0000C635  _spritesHeight                     SMSlib
     0000C636  _spritesWidth                      SMSlib

ASxxxx Linker V03.00 + NoICE + sdld,  page 263.
Hexadecimal  [32-Bits]

Area                                    Addr        Size        Decimal Bytes (Attributes)
--------------------------------        ----        ----        ------- ----- ------------
_BANK2                              00008000    00000F76 =        3958. bytes (REL,CON)

      Value  Global                              Global Defined In Module
      -----  --------------------------------   ------------------------
     00008000  _enemyA_idle__tiles__psgcompr      bank2
     000080EF  _enemyB_idle__tiles__psgcompr      bank2
     000081F1  _enemyC_idle__tiles__psgcompr      bank2
     000082E6  _enemyD_idle__tiles__psgcompr      bank2
     000083E8  _player_idle__tiles__psgcompr      bank2
     00008516  _player_run_left_01__tiles__psgc   bank2
     00008633  _player_run_left_02__tiles__psgc   bank2
     0000874B  _player_run_left_03__tiles__psgc   bank2
     0000884A  _player_run_left_04__tiles__psgc   bank2
     0000892A  _player_run_left_05__tiles__psgc   bank2
     00008A3E  _player_run_rght_01__tiles__psgc   bank2
     00008B5B  _player_run_rght_02__tiles__psgc   bank2
     00008C73  _player_run_rght_03__tiles__psgc   bank2
     00008D72  _player_run_rght_04__tiles__psgc   bank2
     00008E52  _player_run_rght_05__tiles__psgc   bank2
     00008F66  _sprites__palette__bin             bank2

ASxxxx Linker V03.00 + NoICE + sdld,  page 264.
Hexadecimal  [32-Bits]

Area                                    Addr        Size        Decimal Bytes (Attributes)
--------------------------------        ----        ----        ------- ----- ------------
_BANK3                              00008000    00003B84 =       15236. bytes (REL,CON)

      Value  Global                              Global Defined In Module
      -----  --------------------------------   ------------------------
     00008000  _guardA_idle__tilemap__bin         bank3
     00008010  _guardA_idle__tiles__psgcompr      bank3
     000080FF  _guardB_idle__tilemap__bin         bank3
     0000810F  _guardB_idle__tiles__psgcompr      bank3
     00008211  _guardC_idle__tilemap__bin         bank3
     00008221  _guardC_idle__tiles__psgcompr      bank3
     00008316  _guardD_idle__tilemap__bin         bank3
     00008326  _guardD_idle__tiles__psgcompr      bank3
     00008428  _splash__tilemap__stmcompr         bank3
     0000846F  _splash__tiles__psgcompr           bank3
     00008C98  _title6__tilemap__stmcompr         bank3
     00008E09  _title6__tiles__psgcompr           bank3
     00009FD6  _title8__tilemap__stmcompr         bank3
     0000A147  _title8__tiles__psgcompr           bank3
     0000B314  _tutorial0_txt                     bank3
     0000B3EC  _tutorial1_txt                     bank3
     0000B4C4  _tutorial2_txt                     bank3
     0000B59C  _tutorial3_txt                     bank3
     0000B674  _tutorial4_txt                     bank3
     0000B74C  _tutorial5_txt                     bank3
     0000B824  _tutorial6_txt                     bank3
     0000B8FC  _tutorial7_txt                     bank3
     0000B9D4  _tutorial8_txt                     bank3
     0000BAAC  _tutorial9_txt                     bank3
ASxxxx Linker V03.00 + NoICE + sdld,  page 265.
Hexadecimal  [32-Bits]

Area                                    Addr        Size        Decimal Bytes (Attributes)
--------------------------------        ----        ----        ------- ----- ------------
_BANK4                              00008000    000021C0 =        8640. bytes (REL,CON)

      Value  Global                              Global Defined In Module
      -----  --------------------------------   ------------------------
     00008000  _level0101_txt                     bank4
     000080D8  _level0102_txt                     bank4
     000081B0  _level0103_txt                     bank4
     00008288  _level0104_txt                     bank4
     00008360  _level0105_txt                     bank4
     00008438  _level0106_txt                     bank4
     00008510  _level0107_txt                     bank4
     000085E8  _level0108_txt                     bank4
     000086C0  _level0109_txt                     bank4
     00008798  _level0110_txt                     bank4
     00008870  _level0201_txt                     bank4
     00008948  _level0202_txt                     bank4
     00008A20  _level0203_txt                     bank4
     00008AF8  _level0204_txt                     bank4
     00008BD0  _level0205_txt                     bank4
     00008CA8  _level0206_txt                     bank4
     00008D80  _level0207_txt                     bank4
     00008E58  _level0208_txt                     bank4
     00008F30  _level0209_txt                     bank4
     00009008  _level0210_txt                     bank4
     000090E0  _level0301_txt                     bank4
     000091B8  _level0302_txt                     bank4
     00009290  _level0303_txt                     bank4
     00009368  _level0304_txt                     bank4
     00009440  _level0305_txt                     bank4
     00009518  _level0306_txt                     bank4
     000095F0  _level0307_txt                     bank4
     000096C8  _level0308_txt                     bank4
     000097A0  _level0309_txt                     bank4
     00009878  _level0310_txt                     bank4
     00009950  _level0401_txt                     bank4
     00009A28  _level0402_txt                     bank4
     00009B00  _level0403_txt                     bank4
     00009BD8  _level0404_txt                     bank4
     00009CB0  _level0405_txt                     bank4
     00009D88  _level0406_txt                     bank4
     00009E60  _level0407_txt                     bank4
     00009F38  _level0408_txt                     bank4
     0000A010  _level0409_txt                     bank4
     0000A0E8  _level0410_txt                     bank4

ASxxxx Linker V03.00 + NoICE + sdld,  page 266.
Hexadecimal  [32-Bits]

Area                                    Addr        Size        Decimal Bytes (Attributes)
--------------------------------        ----        ----        ------- ----- ------------
_BANK5                              00008000    000021C0 =        8640. bytes (REL,CON)

      Value  Global                              Global Defined In Module
      -----  --------------------------------   ------------------------
     00008000  _level0501_txt                     bank5
     000080D8  _level0502_txt                     bank5
     000081B0  _level0503_txt                     bank5
     00008288  _level0504_txt                     bank5
     00008360  _level0505_txt                     bank5
     00008438  _level0506_txt                     bank5
     00008510  _level0507_txt                     bank5
     000085E8  _level0508_txt                     bank5
     000086C0  _level0509_txt                     bank5
     00008798  _level0510_txt                     bank5
     00008870  _level0601_txt                     bank5
     00008948  _level0602_txt                     bank5
     00008A20  _level0603_txt                     bank5
     00008AF8  _level0604_txt                     bank5
     00008BD0  _level0605_txt                     bank5
     00008CA8  _level0606_txt                     bank5
     00008D80  _level0607_txt                     bank5
     00008E58  _level0608_txt                     bank5
     00008F30  _level0609_txt                     bank5
     00009008  _level0610_txt                     bank5
     000090E0  _level0701_txt                     bank5
     000091B8  _level0702_txt                     bank5
     00009290  _level0703_txt                     bank5
     00009368  _level0704_txt                     bank5
     00009440  _level0705_txt                     bank5
     00009518  _level0706_txt                     bank5
     000095F0  _level0707_txt                     bank5
     000096C8  _level0708_txt                     bank5
     000097A0  _level0709_txt                     bank5
     00009878  _level0710_txt                     bank5
     00009950  _level0801_txt                     bank5
     00009A28  _level0802_txt                     bank5
     00009B00  _level0803_txt                     bank5
     00009BD8  _level0804_txt                     bank5
     00009CB0  _level0805_txt                     bank5
     00009D88  _level0806_txt                     bank5
     00009E60  _level0807_txt                     bank5
     00009F38  _level0808_txt                     bank5
     0000A010  _level0809_txt                     bank5
     0000A0E8  _level0810_txt                     bank5

ASxxxx Linker V03.00 + NoICE + sdld,  page 267.
Hexadecimal  [32-Bits]

Area                                    Addr        Size        Decimal Bytes (Attributes)
--------------------------------        ----        ----        ------- ----- ------------
_BANK6                              00008000    000026B4 =        9908. bytes (REL,CON)

      Value  Global                              Global Defined In Module
      -----  --------------------------------   ------------------------
     00008000  _mus_beat_psg                      bank6
     00008625  _mus_over_psg                      bank6
     00008996  _mus_title_psg                     bank6
ASxxxx Linker V03.00 + NoICE + sdld,  page 268.
Hexadecimal  [32-Bits]

Area                                    Addr        Size        Decimal Bytes (Attributes)
--------------------------------        ----        ----        ------- ----- ------------
_BANK7                              00008000    00002029 =        8233. bytes (REL,CON)

      Value  Global                              Global Defined In Module
      -----  --------------------------------   ------------------------
     00008000  _mus_game01_psg                    bank7

ASxxxx Linker V03.00 + NoICE + sdld,  page 269.
Hexadecimal  [32-Bits]

Area                                    Addr        Size        Decimal Bytes (Attributes)
--------------------------------        ----        ----        ------- ----- ------------
_BANK8                              00008000    00001F11 =        7953. bytes (REL,CON)

      Value  Global                              Global Defined In Module
      -----  --------------------------------   ------------------------
     00008000  _mus_game02_psg                    bank8

ASxxxx Linker V03.00 + NoICE + sdld,  page 270.
Hexadecimal  [32-Bits]

Area                                    Addr        Size        Decimal Bytes (Attributes)
--------------------------------        ----        ----        ------- ----- ------------
_BANK9                              00008000    000026D4 =        9940. bytes (REL,CON)

      Value  Global                              Global Defined In Module
      -----  --------------------------------   ------------------------
     00008000  _mus_game03_psg                    bank9

ASxxxx Linker V03.00 + NoICE + sdld,  page 271.
Hexadecimal  [32-Bits]

Area                                    Addr        Size        Decimal Bytes (Attributes)
--------------------------------        ----        ----        ------- ----- ------------
_BANK10                             00008000    00000006 =           6. bytes (REL,CON)

      Value  Global                              Global Defined In Module
      -----  --------------------------------   ------------------------
     00008000  _bank10_txt                        bank10

ASxxxx Linker V03.00 + NoICE + sdld,  page 272.
Hexadecimal  [32-Bits]

Area                                    Addr        Size        Decimal Bytes (Attributes)
--------------------------------        ----        ----        ------- ----- ------------
_BANK11                             00008000    00000006 =           6. bytes (REL,CON)

      Value  Global                              Global Defined In Module
      -----  --------------------------------   ------------------------
     00008000  _bank11_txt                        bank11

ASxxxx Linker V03.00 + NoICE + sdld,  page 273.
Hexadecimal  [32-Bits]

Area                                    Addr        Size        Decimal Bytes (Attributes)
--------------------------------        ----        ----        ------- ----- ------------
_BANK12                             00008000    00000006 =           6. bytes (REL,CON)

      Value  Global                              Global Defined In Module
      -----  --------------------------------   ------------------------
     00008000  _bank12_txt                        bank12

ASxxxx Linker V03.00 + NoICE + sdld,  page 274.
Hexadecimal  [32-Bits]

Area                                    Addr        Size        Decimal Bytes (Attributes)
--------------------------------        ----        ----        ------- ----- ------------
_BANK13                             00008000    00000006 =           6. bytes (REL,CON)

      Value  Global                              Global Defined In Module
      -----  --------------------------------   ------------------------
     00008000  _bank13_txt                        bank13

ASxxxx Linker V03.00 + NoICE + sdld,  page 275.
Hexadecimal  [32-Bits]

Area                                    Addr        Size        Decimal Bytes (Attributes)
--------------------------------        ----        ----        ------- ----- ------------
_BANK14                             00008000    00000006 =           6. bytes (REL,CON)

      Value  Global                              Global Defined In Module
      -----  --------------------------------   ------------------------
     00008000  _bank14_txt                        bank14

ASxxxx Linker V03.00 + NoICE + sdld,  page 276.
Hexadecimal  [32-Bits]

Area                                    Addr        Size        Decimal Bytes (Attributes)
--------------------------------        ----        ----        ------- ----- ------------
_BANK15                             00008000    00000006 =           6. bytes (REL,CON)

      Value  Global                              Global Defined In Module
      -----  --------------------------------   ------------------------
     00008000  _bank15_txt                        bank15

ASxxxx Linker V03.00 + NoICE + sdld,  page 277.
Hexadecimal  [32-Bits]

Area                                    Addr        Size        Decimal Bytes (Attributes)
--------------------------------        ----        ----        ------- ----- ------------
_CABS0                              00000000    00000010 =          16. bytes (ABS,CON)

      Value  Global                              Global Defined In Module
      -----  --------------------------------   ------------------------
     00007FF0  G$__SMS__SEGA_signature$0_0$0      _sms_manager
     00007FF0  ___SMS__SEGA_signature             _sms_manager

ASxxxx Linker V03.00 + NoICE + sdld,  page 278.
Hexadecimal  [32-Bits]

Area                                    Addr        Size        Decimal Bytes (Attributes)
--------------------------------        ----        ----        ------- ----- ------------
_CABS1                              00000000    00000011 =          17. bytes (ABS,CON)

      Value  Global                              Global Defined In Module
      -----  --------------------------------   ------------------------
     00007FCF  G$__SMS__SDSC_author$0_0$0         _sms_manager
     00007FCF  ___SMS__SDSC_author                _sms_manager

ASxxxx Linker V03.00 + NoICE + sdld,  page 279.
Hexadecimal  [32-Bits]

Area                                    Addr        Size        Decimal Bytes (Attributes)
--------------------------------        ----        ----        ------- ----- ------------
_CABS2                              00000000    00000014 =          20. bytes (ABS,CON)

      Value  Global                              Global Defined In Module
      -----  --------------------------------   ------------------------
     00007FBB  G$__SMS__SDSC_name$0_0$0           _sms_manager
     00007FBB  ___SMS__SDSC_name                  _sms_manager

ASxxxx Linker V03.00 + NoICE + sdld,  page 280.
Hexadecimal  [32-Bits]

Area                                    Addr        Size        Decimal Bytes (Attributes)
--------------------------------        ----        ----        ------- ----- ------------
_CABS3                              00000000    0000003D =          61. bytes (ABS,CON)

      Value  Global                              Global Defined In Module
      -----  --------------------------------   ------------------------
     00007F7E  G$__SMS__SDSC_descr$0_0$0          _sms_manager
     00007F7E  ___SMS__SDSC_descr                 _sms_manager

ASxxxx Linker V03.00 + NoICE + sdld,  page 281.
Hexadecimal  [32-Bits]

Area                                    Addr        Size        Decimal Bytes (Attributes)
--------------------------------        ----        ----        ------- ----- ------------
_CABS4                              00000000    00000010 =          16. bytes (ABS,CON)

      Value  Global                              Global Defined In Module
      -----  --------------------------------   ------------------------
     00007FE0  G$__SMS__SDSC_signature$0_0$0      _sms_manager
     00007FE0  ___SMS__SDSC_signature             _sms_manager

ASxxxx Linker V03.00 + NoICE + sdld,  page 282.

Files Linked                              [ module(s) ]

../crt0/crt0_sms.rel                      [ crt0 ]
main.rel                                  [ main ]
../lib/PSGlib.rel                         [ PSGlib ]
banks/bank2.rel                           [ bank2 ]
banks/bank3.rel                           [ bank3 ]
banks/bank4.rel                           [ bank4 ]
banks/bank5.rel                           [ bank5 ]
banks/bank6.rel                           [ bank6 ]
banks/bank7.rel                           [ bank7 ]
banks/bank8.rel                           [ bank8 ]
banks/bank9.rel                           [ bank9 ]
banks/bank10.rel                          [ bank10 ]
banks/bank11.rel                          [ bank11 ]
banks/bank12.rel                          [ bank12 ]
banks/bank13.rel                          [ bank13 ]
banks/bank14.rel                          [ bank14 ]
banks/bank15.rel                          [ bank15 ]
engine/asm_manager.rel                    [ asm_manager ]
source/_sms_manager.rel                   [ _sms_manager ]
source/_snd_manager.rel                   [ _snd_manager ]
source/global_manager.rel                 [ global_manager ]
source/debug_manager.rel                  [ debug_manager ]
source/hack_manager.rel                   [ hack_manager ]
source/level_object.rel                   [ level_object ]
source/anim_object.rel                    [ anim_object ]
source/audio_object.rel                   [ audio_object ]
source/intro_object.rel                   [ intro_object ]
source/tutorial_object.rel                [ tutorial_object ]
source/content_manager.rel                [ content_manager ]
source/font_manager.rel                   [ font_manager ]
source/text_manager.rel                   [ text_manager ]
source/delay_manager.rel                  [ delay_manager ]
source/reset_manager.rel                  [ reset_manager ]
source/sprite_manager.rel                 [ sprite_manager ]
source/tile_manager.rel                   [ tile_manager ]
source/memo_manager.rel                   [ memo_manager ]
source/level_manager.rel                  [ level_manager ]
source/anim_manager.rel                   [ anim_manager ]
source/input_manager.rel                  [ input_manager ]
source/player_manager.rel                 [ player_manager ]
source/enemy_manager.rel                  [ enemy_manager ]
source/score_manager.rel                  [ score_manager ]
source/state_manager.rel                  [ state_manager ]
source/stats_manager.rel                  [ stats_manager ]
source/audio_manager.rel                  [ audio_manager ]
source/game_manager.rel                   [ game_manager ]
source/none_screen.rel                    [ none_screen ]
source/splash_screen.rel                  [ splash_screen ]
source/intro_screen.rel                   [ intro_screen ]
source/begin_screen.rel                   [ begin_screen ]
source/title_screen.rel                   [ title_screen ]
source/entry_screen.rel                   [ entry_screen ]
source/diff_screen.rel                    [ diff_screen ]
source/pace_screen.rel                    [ pace_screen ]
source/level_screen.rel                   [ level_screen ]
source/init_screen.rel                    [ init_screen ]
source/ready_screen.rel                   [ ready_screen ]
source/load_screen.rel                    [ load_screen ]
source/play_screen.rel                    [ play_screen ]
source/reset_screen.rel                   [ reset_screen ]
source/pass_screen.rel                    [ pass_screen ]
source/gems_screen.rel                    [ gems_screen ]
source/dead_screen.rel                    [ dead_screen ]
source/cont_screen.rel                    [ cont_screen ]
source/over_screen.rel                    [ over_screen ]
source/beat_screen.rel                    [ beat_screen ]
source/test_screen.rel                    [ test_screen ]
source/func_screen.rel                    [ func_screen ]
source/view_screen.rel                    [ view_screen ]
source/screen_manager.rel                 [ screen_manager ]
gfx.rel                                   [ gfx ]
psg.rel                                   [ psg ]


Libraries Linked                          [ object file ]

/home/stevepro/sdcc/bin/../share/sdcc/lib/z80/z80.lib
                                          [ divunsigned.rel ]
../lib/SMSlib.lib                         [ SMSlib_UNSAFE.rel ]
../lib/SMSlib.lib                         [ SMSlib.rel ]
/home/stevepro/sdcc/bin/../share/sdcc/lib/z80/z80.lib
                                          [ rand.rel ]
/home/stevepro/sdcc/bin/../share/sdcc/lib/z80/z80.lib
                                          [ mul.rel ]
../lib/SMSlib.lib                         [ SMSlib_STMcomp.rel ]
/home/stevepro/sdcc/bin/../share/sdcc/lib/z80/z80.lib
                                          [ __sdcc_call_hl.rel ]
../lib/SMSlib.lib                         [ SMSlib_PSGaiden.rel ]
/home/stevepro/sdcc/bin/../share/sdcc/lib/z80/z80.lib
                                          [ modsigned.rel ]
/home/stevepro/sdcc/bin/../share/sdcc/lib/z80/z80.lib
                                          [ modunsigned.rel ]
/home/stevepro/sdcc/bin/../share/sdcc/lib/z80/z80.lib
                                          [ divsigned.rel ]

ASxxxx Linker V03.00 + NoICE + sdld,  page 283.

User Base Address Definitions

_CODE = 0x0200
_DATA = 0xc000
_BANK2=0x8000
_BANK3=0x8000
_BANK4=0x8000
_BANK5=0x8000
_BANK6=0x8000
_BANK7=0x8000
_BANK8=0x8000
_BANK9=0x8000
_BANK10=0x8000
_BANK11=0x8000
_BANK12=0x8000
_BANK13=0x8000
_BANK14=0x8000
_BANK15=0x8000

