ASxxxx Linker V03.00 + NoICE + sdld,  page 1.
Hexadecimal  [32-Bits]

Area                                    Addr        Size        Decimal Bytes (Attributes)
--------------------------------        ----        ----        ------- ----- ------------
.  .ABS.                            00000000    00000000 =           0. bytes (ABS,CON)

      Value  Global                              Global Defined In Module
      -----  --------------------------------   ------------------------
     00000000  .__.ABS.                           
     00000000  l__BSEG                         
     00000000  l__BSS                          
     00000000  l__CABS                         
     00000000  l__DABS                         
     00000000  l__HEADER                       
     00000000  l__HEAP                         
     00000000  l__HOME                         
     00000000  s__CABS                         
     00000000  s__CABS0                        
     00000000  s__CABS1                        
     00000000  s__CABS2                        
     00000000  s__CABS3                        
     00000000  s__CABS4                        
     00000000  s__DABS                         
     00000000  s__HEADER                       
     00000000  s__HEADER0                      
     00000000  s__HEADER1                      
     00000000  s__HEADER2                      
     00000000  s__HEADER3                      
     00000000  s__HEADER4                      
     00000000  s__HEADER5                      
     00000001  l__GSFINAL                      
     00000003  l__HEADER3                      
     00000003  l__HEADER4                      
     00000006  l__HEADER0                      
     00000009  l__HEADER1                      
     0000000A  l__HEADER2                      
     0000000E  l__CABS1                        
     0000000F  l__CABS2                        
     0000000F  l__GSINIT                       
     0000000F  l__INITIALIZED                  
     0000000F  l__INITIALIZER                  
     00000010  l__CABS0                        
     00000010  l__CABS4                        
     00000021  l__CABS3                        
     0000011E  l__DATA                         
     0000012A  l__HEADER5                      
     00000200  s__CODE                         
     000025EE  l__BANK3                        
     00002B56  l__CODE                         
     00002D56  s__HOME                         
     00002D56  s__INITIALIZER                  
     00002D65  s__GSINIT                       
     00002D74  s__GSFINAL                      
     00004000  l__BANK2                        
     00008000  _SMS_SRAM                          SMSlib_autotext
     00008000  s__BANK2                        
     00008000  s__BANK3                        
     0000C000  s__DATA                         
ASxxxx Linker V03.00 + NoICE + sdld,  page 2.
Hexadecimal  [32-Bits]

Area                                    Addr        Size        Decimal Bytes (Attributes)
--------------------------------        ----        ----        ------- ----- ------------
.  .ABS.                            00000000    00000000 =           0. bytes (ABS,CON)

      Value  Global                              Global Defined In Module
      -----  --------------------------------   ------------------------
     0000C11E  s__INITIALIZED                  
     0000C12D  s__BSEG                         
     0000C12D  s__BSS                          
     0000C12D  s__HEAP                         
     0000FFFC  _SRAM_bank_to_be_mapped_on_slot2   SMSlib_autotext
     0000FFFF  _ROM_bank_to_be_mapped_on_slot2    SMSlib_autotext

ASxxxx Linker V03.00 + NoICE + sdld,  page 3.
Hexadecimal  [32-Bits]

Area                                    Addr        Size        Decimal Bytes (Attributes)
--------------------------------        ----        ----        ------- ----- ------------
_CODE                               00000200    00002B56 =       11094. bytes (REL,CON)

      Value  Global                              Global Defined In Module
      -----  --------------------------------   ------------------------
     00000200  __clock                            crt0
     00000204  _exit                              crt0
     0000020A  _main                              main
     000002DA  _PSGStop                           PSGlib
     00000301  _PSGResume                         PSGlib
     0000034D  _PSGPlay                           PSGlib
     0000037A  _PSGPlayLoops                      PSGlib
     00000391  _PSGCancelLoop                     PSGlib
     0000039C  _PSGPlayNoRepeat                   PSGlib
     000003B0  _PSGGetStatus                      PSGlib
     000003B5  _PSGSilenceChannels                PSGlib
     000003C6  _PSGRestoreVolumes                 PSGlib
     000004C1  _PSGSetMusicVolumeAttenuation      PSGlib
     000005A5  _PSGSFXStop                        PSGlib
     0000066D  _PSGSFXPlay                        PSGlib
     000006BA  _PSGSFXCancelLoop                  PSGlib
     000006C0  _PSGSFXGetStatus                   PSGlib
     000006C5  _PSGSFXPlayLoop                    PSGlib
     000006E2  _PSGFrame                          PSGlib
     00000806  _PSGSFXFrame                       PSGlib
     0000088C  _devkit_SMS_init                   _sms_manager
     0000088F  _devkit_SMS_VDPturnOnFeature       _sms_manager
     0000089E  _devkit_SMS_VDPturnOffFeature      _sms_manager
     000008AD  _devkit_VDPFEATURE_EXTRAHEIGHT     _sms_manager
     000008B1  _devkit_VDPFEATURE_SHIFTSPRITES    _sms_manager
     000008B5  _devkit_VDPFEATURE_HIDEFIRSTCOL    _sms_manager
     000008B9  _devkit_VDPFEATURE_LEFTCOLBLANK    _sms_manager
     000008BD  _devkit_VDPFEATURE_LOCKHSCROLL     _sms_manager
     000008C1  _devkit_VDPFEATURE_LOCKVSCROLL     _sms_manager
     000008C5  _devkit_VDPFEATURE_ZOOMSPRITES     _sms_manager
     000008C9  _devkit_VDPFEATURE_USETALLSPRITE   _sms_manager
     000008CD  _devkit_VDPFEATURE_240LINES        _sms_manager
     000008D1  _devkit_VDPFEATURE_224LINES        _sms_manager
     000008D5  _devkit_VDPFEATURE_FRAMEIRQ        _sms_manager
     000008D9  _devkit_VDPFEATURE_SHOWDISPLAY     _sms_manager
     000008DD  _devkit_SMS_displayOn              _sms_manager
     000008E3  _devkit_SMS_displayOff             _sms_manager
     000008E9  _devkit_SMS_setBGScrollX           _sms_manager
     000008F5  _devkit_SMS_setBGScrollY           _sms_manager
     00000901  _devkit_SMS_setBackdropColor       _sms_manager
     0000090D  _devkit_SMS_useFirstHalfTilesfor   _sms_manager
     0000091C  _devkit_SMS_setSpriteMode          _sms_manager
     00000928  _devkit_SPRITEMODE_NORMAL          _sms_manager
     0000092B  _devkit_SPRITEMODE_TALL            _sms_manager
     0000092E  _devkit_SPRITEMODE_ZOOMED          _sms_manager
     00000931  _devkit_SPRITEMODE_TALL_ZOOMED     _sms_manager
     00000934  _devkit_SMS_mapROMBank             _sms_manager
     00000941  _devkit_SMS_enableSRAM             _sms_manager
     00000947  _devkit_SMS_enableSRAMBank         _sms_manager
     0000095A  _devkit_SMS_disableSRAM            _sms_manager
ASxxxx Linker V03.00 + NoICE + sdld,  page 4.
Hexadecimal  [32-Bits]

Area                                    Addr        Size        Decimal Bytes (Attributes)
--------------------------------        ----        ----        ------- ----- ------------
_CODE                               00000200    00002B56 =       11094. bytes (REL,CON)

      Value  Global                              Global Defined In Module
      -----  --------------------------------   ------------------------
     00000960  _devkit_SMS_SRAM                   _sms_manager
     00000964  _devkit_SMS_waitForVBlank          _sms_manager
     00000967  _devkit_SMS_crt0_RST08             _sms_manager
     00000976  _devkit_SMS_crt0_RST18             _sms_manager
     00000985  _devkit_SMS_setTile                _sms_manager
     00000994  _devkit_SMS_setAddr                _sms_manager
     000009A3  _devkit_XYtoADDR                   _sms_manager
     000009A4  _devkit_SMS_setNextTileatXY        _sms_manager
     000009C6  _devkit_SMS_setNextTileatLoc       _sms_manager
     000009D2  _devkit_SMS_setNextTileatAddr      _sms_manager
     000009E0  _devkit_SMS_setTileatXY            _sms_manager
     00000A09  _devkit_TILEtoADDR                 _sms_manager
     00000A0A  _devkit_TILE_FLIPPED_X             _sms_manager
     00000A0E  _devkit_TILE_FLIPPED_Y             _sms_manager
     00000A12  _devkit_TILE_USE_SPRITE_PALETTE    _sms_manager
     00000A16  _devkit_TILE_PRIORITY              _sms_manager
     00000A1A  _devkit_SMS_loadTiles              _sms_manager
     00000A46  _devkit_SMS_load1bppTiles          _sms_manager
     00000A7E  _devkit_SMS_loadPSGaidencompress   _sms_manager
     00000A98  _devkit_SMS_loadPSGaidencompress   _sms_manager
     00000AB9  _devkit_UNSAFE_SMS_loadZX7compre   _sms_manager
     00000AD3  _devkit_UNSAFE_SMS_loadZX7compre   _sms_manager
     00000AF4  _devkit_UNSAFE_SMS_loadaPLibcomp   _sms_manager
     00000B0E  _devkit_UNSAFE_SMS_loadaPLibcomp   _sms_manager
     00000B2F  _devkit_SMS_loadTileMap            _sms_manager
     00000B61  _devkit_SMS_loadTileMapArea        _sms_manager
     00000B93  _devkit_SMS_loadSTMcompressedTil   _sms_manager
     00000BAD  _devkit_SMS_loadSTMcompressedTil   _sms_manager
     00000BDA  _devkit_SMS_loadSTMcompressedTil   _sms_manager
     00000C07  _devkit_SMS_initSprites            _sms_manager
     00000C0A  _devkit_SMS_addSprite              _sms_manager
     00000C27  _devkit_SMS_addTwoAdjoiningSprit   _sms_manager
     00000C44  _devkit_SMS_addThreeAdjoiningSpr   _sms_manager
     00000C61  _devkit_SMS_reserveSprite          _sms_manager
     00000C64  _devkit_SMS_updateSpritePosition   _sms_manager
     00000C81  _devkit_SMS_updateSpriteImage      _sms_manager
     00000C93  _devkit_SMS_hideSprite             _sms_manager
     00000C9F  _devkit_SMS_setClippingWindow      _sms_manager
     00000CC3  _devkit_SMS_addSpriteClipping      _sms_manager
     00000CE7  _devkit_SMS_finalizeSprites        _sms_manager
     00000CEA  _devkit_SMS_copySpritestoSAT       _sms_manager
     00000CED  _devkit_SMS_setBGPaletteColor      _sms_manager
     00000CFF  _devkit_SMS_setSpritePaletteColo   _sms_manager
     00000D11  _devkit_SMS_loadBGPalette          _sms_manager
     00000D20  _devkit_SMS_loadSpritePalette      _sms_manager
     00000D2F  _devkit_SMS_setNextBGColoratInde   _sms_manager
     00000D3F  _devkit_SMS_setNextSpriteColorat   _sms_manager
     00000D51  _devkit_SMS_setColor               _sms_manager
     00000D5D  _devkit_RGB                        _sms_manager
     00000D78  _devkit_RGB8                       _sms_manager
     00000DA1  _devkit_SMS_loadBGPaletteHalfBri   _sms_manager
ASxxxx Linker V03.00 + NoICE + sdld,  page 5.
Hexadecimal  [32-Bits]

Area                                    Addr        Size        Decimal Bytes (Attributes)
--------------------------------        ----        ----        ------- ----- ------------
_CODE                               00000200    00002B56 =       11094. bytes (REL,CON)

      Value  Global                              Global Defined In Module
      -----  --------------------------------   ------------------------
     00000DB0  _devkit_SMS_loadSpritePaletteHal   _sms_manager
     00000DBF  _devkit_SMS_zeroBGPalette          _sms_manager
     00000DC2  _devkit_SMS_zeroSpritePalette      _sms_manager
     00000DC5  _devkit_SMS_configureTextRendere   _sms_manager
     00000DD4  _devkit_SMS_autoSetUpTextRendere   _sms_manager
     00000DD7  _devkit_SMS_decompressZX7          _sms_manager
     00000DF1  _devkit_SMS_getKeysStatus          _sms_manager
     00000DF4  _devkit_SMS_getKeysPressed         _sms_manager
     00000DF7  _devkit_SMS_getKeysHeld            _sms_manager
     00000DFA  _devkit_SMS_getKeysReleased        _sms_manager
     00000DFD  _devkit_PORT_A_KEY_UP              _sms_manager
     00000E01  _devkit_PORT_A_KEY_DOWN            _sms_manager
     00000E05  _devkit_PORT_A_KEY_LEFT            _sms_manager
     00000E09  _devkit_PORT_A_KEY_RIGHT           _sms_manager
     00000E0D  _devkit_PORT_A_KEY_1               _sms_manager
     00000E11  _devkit_PORT_A_KEY_2               _sms_manager
     00000E15  _devkit_PORT_A_KEY_START           _sms_manager
     00000E19  _devkit_PORT_B_KEY_UP              _sms_manager
     00000E1D  _devkit_PORT_B_KEY_DOWN            _sms_manager
     00000E21  _devkit_PORT_B_KEY_LEFT            _sms_manager
     00000E25  _devkit_PORT_B_KEY_RIGHT           _sms_manager
     00000E29  _devkit_PORT_B_KEY_1               _sms_manager
     00000E2D  _devkit_PORT_B_KEY_2               _sms_manager
     00000E31  _devkit_PORT_B_KEY_START           _sms_manager
     00000E35  _devkit_RESET_KEY                  _sms_manager
     00000E39  _devkit_CARTRIDGE_SLOT             _sms_manager
     00000E3D  _devkit_PORT_A_TH                  _sms_manager
     00000E41  _devkit_PORT_B_TH                  _sms_manager
     00000E45  _devkit_PORT_A                     _sms_manager
     00000E48  _devkit_PORT_B                     _sms_manager
     00000E4B  _devkit_SMS_detectPaddle           _sms_manager
     00000E57  _devkit_SMS_readPaddle             _sms_manager
     00000E63  _devkit_SMS_queryPauseRequested    _sms_manager
     00000E66  _devkit_SMS_resetPauseRequest      _sms_manager
     00000E69  _devkit_SMS_VDPFlags               _sms_manager
     00000E6E  _devkit_VDPFLAG_SPRITEOVERFLOW     _sms_manager
     00000E71  _devkit_VDPFLAG_SPRITECOLLISION    _sms_manager
     00000E74  _devkit_SMS_setLineInterruptHand   _sms_manager
     00000E7B  _devkit_SMS_setLineCounter         _sms_manager
     00000E87  _devkit_SMS_enableLineInterrupt    _sms_manager
     00000E8D  _devkit_SMS_disableLineInterrupt   _sms_manager
     00000E93  _devkit_SMS_getVCount              _sms_manager
     00000E96  _devkit_SMS_getHCount              _sms_manager
     00000E99  _devkit_SMS_VRAMmemcpy             _sms_manager
     00000EBC  _devkit_SMS_VRAMmemcpy_brief       _sms_manager
     00000EDD  _devkit_SMS_VRAMmemset             _sms_manager
     00000EFF  _devkit_SMS_VRAMmemsetW            _sms_manager
     00000F27  _devkit_UNSAFE_SMS_copySpritesto   _sms_manager
     00000F2A  _devkit_UNSAFE_SMS_VRAMmemcpy32    _sms_manager
     00000F44  _devkit_UNSAFE_SMS_VRAMmemcpy64    _sms_manager
     00000F5E  _devkit_UNSAFE_SMS_VRAMmemcpy128   _sms_manager
ASxxxx Linker V03.00 + NoICE + sdld,  page 6.
Hexadecimal  [32-Bits]

Area                                    Addr        Size        Decimal Bytes (Attributes)
--------------------------------        ----        ----        ------- ----- ------------
_CODE                               00000200    00002B56 =       11094. bytes (REL,CON)

      Value  Global                              Global Defined In Module
      -----  --------------------------------   ------------------------
     00000F78  _devkit_UNSAFE_SMS_load1Tile       _sms_manager
     00000F91  _devkit_UNSAFE_SMS_load2Tiles      _sms_manager
     00000FAA  _devkit_UNSAFE_SMS_load4Tiles      _sms_manager
     00000FC3  _dekvit_SMS_isr                    _sms_manager
     00000FC6  _dekvit_SMS_nmi_isr                _sms_manager
     00000FC9  _devkit_SMS_addSprite_bulk8        _sms_manager
     0000109D  _devkit_SMS_addSprite_bulk12       _sms_manager
     000011A9  _devkit_SMS_setTilePriority        _sms_manager
     000011B9  _devkit_isCollisionDetected        _sms_manager
     000011FE  _devkit_PSGPlay                    _snd_manager
     00001208  _devkit_PSGPlayNoRepeat            _snd_manager
     00001212  _devkit_PSGStop                    _snd_manager
     00001215  _devkit_PSGResume                  _snd_manager
     00001218  _devkit_PSGGetStatus               _snd_manager
     0000121B  _devkit_PSGSetMusicVolumeAttenua   _snd_manager
     00001227  _devkit_PSGSFXPlay                 _snd_manager
     0000123F  _devkit_PSGSFXStop                 _snd_manager
     00001242  _devkit_PSGSFXGetStatus            _snd_manager
     00001245  _devkit_PSGSilenceChannels         _snd_manager
     00001248  _devkit_PSGRestoreVolumes          _snd_manager
     0000124B  _devkit_PSGFrame                   _snd_manager
     0000124E  _devkit_PSGSFXFrame                _snd_manager
     00001251  _devkit_SFX_CHANNEL2               _snd_manager
     00001254  _devkit_SFX_CHANNEL3               _snd_manager
     00001257  _devkit_SFX_CHANNELS2AND3          _snd_manager
     0000125A  _engine_asm_manager_clear_VRAM     asm_manager
     00001270  _engine_audio_manager_music_game   audio_manager
     0000129A  _engine_audio_manager_music_resu   audio_manager
     0000129D  _engine_audio_manager_music_stop   audio_manager
     000012DB  _engine_content_manager_load_bac   content_manager
     000012F0  _engine_font_manager_draw_char     font_manager
     0000131C  _engine_font_manager_draw_text     font_manager
     00001370  _engine_font_manager_draw_data     font_manager
     00001426  _engine_font_manager_draw_data_Z   font_manager
     000014B7  _engine_input_manager_update       input_manager
     000014C4  _engine_input_manager_hold_up      input_manager
     000014CD  _engine_input_manager_hold_down    input_manager
     000014D6  _engine_input_manager_hold_left    input_manager
     000014DF  _engine_input_manager_hold_right   input_manager
     000014E8  _engine_input_manager_hold_fire1   input_manager
     000014F1  _engine_input_manager_hold_fire2   input_manager
     000014FA  _engine_input_manager_move_up      input_manager
     00001503  _engine_input_manager_move_down    input_manager
     0000150C  _engine_input_manager_move_left    input_manager
     00001515  _engine_input_manager_move_right   input_manager
     0000151E  _engine_input_manager_move_fire1   input_manager
     00001527  _engine_input_manager_move_fire2   input_manager
     0000157D  _game_audio_bank                   audio_object
     0000157F  _back_tiles__palette__bin          gfx
     0000158F  _back_tiles__tilemap__bin          gfx
     0000168F  _back_tiles__tiles__psgcompr       gfx
ASxxxx Linker V03.00 + NoICE + sdld,  page 7.
Hexadecimal  [32-Bits]

Area                                    Addr        Size        Decimal Bytes (Attributes)
--------------------------------        ----        ----        ------- ----- ------------
_CODE                               00000200    00002B56 =       11094. bytes (REL,CON)

      Value  Global                              Global Defined In Module
      -----  --------------------------------   ------------------------
     00001E10  _SMS_reserveSprite                 SMSlib_spriteAdv
     00001E31  _SMS_updateSpritePosition          SMSlib_spriteAdv
     00001E68  _SMS_updateSpriteImage             SMSlib_spriteAdv
     00001E82  _SMS_hideSprite                    SMSlib_spriteAdv
     00001E94  _UNSAFE_SMS_loadaPLibcompressedT   SMSlib_aPLib
     00001FF3  __divuint                          
     00001FFB  __divuchar                         
     00002002  __divu8                            
     00002005  __divu16                           
     00002034  _UNSAFE_SMS_copySpritestoSAT       SMSlib_UNSAFE
     0000207B  _UNSAFE_SMS_VRAMmemcpy32           SMSlib_UNSAFE
     0000209B  _UNSAFE_SMS_VRAMmemcpy64           SMSlib_UNSAFE
     000020BB  _UNSAFE_SMS_VRAMmemcpy128          SMSlib_UNSAFE
     000020DB  _SMS_init                          SMSlib
     0000210D  _VDPReg_init                       SMSlib
     00002118  _SMS_VDPturnOnFeature              SMSlib
     0000212D  _SMS_VDPturnOffFeature             SMSlib
     00002145  _SMS_setBGScrollX                  SMSlib
     0000214F  _SMS_setBGScrollY                  SMSlib
     00002159  _SMS_setBackdropColor              SMSlib
     00002163  _SMS_useFirstHalfTilesforSprites   SMSlib
     00002179  _SMS_setSpriteMode                 SMSlib
     000021C7  _SMS_setBGPaletteColor             SMSlib
     000021DB  _SMS_setSpritePaletteColor         SMSlib
     000021EF  _SMS_loadBGPalette                 SMSlib
     00002204  _SMS_loadSpritePalette             SMSlib
     00002219  _SMS_setColor                      SMSlib
     0000221D  _SMS_waitForVBlank                 SMSlib
     0000222A  _SMS_getKeysStatus                 SMSlib
     0000222E  _SMS_getKeysPressed                SMSlib
     0000224B  _SMS_getKeysHeld                   SMSlib
     0000225F  _SMS_getKeysReleased               SMSlib
     0000227C  _SMS_queryPauseRequested           SMSlib
     00002281  _SMS_resetPauseRequest             SMSlib
     00002287  _SMS_setLineInterruptHandler       SMSlib
     0000228B  _SMS_setLineCounter                SMSlib
     00002295  _SMS_getVCount                     SMSlib
     00002299  _SMS_getHCount                     SMSlib
     0000229D  _SMS_isr                           SMSlib
     000022D3  _SMS_nmi_isr                       SMSlib
     000022DC  _SMS_loadPSGaidencompressedTiles   SMSlib_PSGaiden
     000023B6  _SMS_load1bppTiles                 SMSlib_load1bppTiles
     00002428  _SMS_setClippingWindow             SMSlib_spriteClip
     0000244B  _SMS_addSpriteClipping             SMSlib_spriteClip
     00002508  _SMS_VRAMmemset                    SMSlib_VRAMmemset
     0000252B  _SMS_VRAMmemsetW                   SMSlib_VRAMmemset
     00002559  _SMS_loadBGPaletteHalfBrightness   SMSlib_paletteAdv
     00002570  _SMS_zeroBGPalette                 SMSlib_paletteAdv
     00002584  _SMS_loadSpritePaletteHalfBright   SMSlib_paletteAdv
     0000259B  _SMS_zeroSpritePalette             SMSlib_paletteAdv
     000025AF  _SMS_decompressZX7                 SMSlib_zx7
ASxxxx Linker V03.00 + NoICE + sdld,  page 8.
Hexadecimal  [32-Bits]

Area                                    Addr        Size        Decimal Bytes (Attributes)
--------------------------------        ----        ----        ------- ----- ------------
_CODE                               00000200    00002B56 =       11094. bytes (REL,CON)

      Value  Global                              Global Defined In Module
      -----  --------------------------------   ------------------------
     0000260D  _SMS_configureTextRenderer         SMSlib_textrenderer
     00002611  _putchar                           SMSlib_textrenderer
     00002623  _SMS_addThreeAdjoiningSprites      SMSlib_threesprites
     0000267C  _SMS_initSprites                   SMSlib_sprite
     00002682  _SMS_addSprite                     SMSlib_sprite
     000026B5  _SMS_copySpritestoSAT              SMSlib_sprite
     000026EB  _SMS_addTwoAdjoiningSprites        SMSlib_twosprites
     0000272A  _SMS_detectPaddle                  SMSlib_paddle
     00002750  _SMS_readPaddle                    SMSlib_paddle
     000027AE  _SMS_VRAMmemcpy_brief              SMSlib_VRAMmemcpy_brief
     000027BF  _UNSAFE_SMS_loadZX7compressedTil   SMSlib_UNSAFE_zx7
     0000283F  ___sdcc_call_hl                    
     00002840  _SMS_finalizeSprites               SMSlib_deprecated
     00002841  _SMS_VRAMmemcpy                    SMSlib_VRAMmemcpy
     0000285A  _SMS_loadSTMcompressedTileMapatA   SMSlib_STMcomp
     00002982  _SMS_loadTileMapArea               SMSlib_loadTileMapArea
     00002A02  _SMS_autoSetUpTextRenderer         SMSlib_autotext
     00002A3F  _devkitSMS_font__tiles__1bpp       SMSlib_autotext
     00002D3F  __moduchar                         
     00002D4B  __moduint                          

ASxxxx Linker V03.00 + NoICE + sdld,  page 9.
Hexadecimal  [32-Bits]

Area                                    Addr        Size        Decimal Bytes (Attributes)
--------------------------------        ----        ----        ------- ----- ------------
_HEADER0                            00000000    00000006 =           6. bytes (ABS,CON)

      Value  Global                              Global Defined In Module
      -----  --------------------------------   ------------------------
     00000006  _SMS_crt0_RST08                    crt0

ASxxxx Linker V03.00 + NoICE + sdld,  page 10.
Hexadecimal  [32-Bits]

Area                                    Addr        Size        Decimal Bytes (Attributes)
--------------------------------        ----        ----        ------- ----- ------------
_HEADER1                            00000000    00000009 =           9. bytes (ABS,CON)

      Value  Global                              Global Defined In Module
      -----  --------------------------------   ------------------------
     00000011  _SMS_crt0_RST18                    crt0

ASxxxx Linker V03.00 + NoICE + sdld,  page 11.
Hexadecimal  [32-Bits]

Area                                    Addr        Size        Decimal Bytes (Attributes)
--------------------------------        ----        ----        ------- ----- ------------
_HEADER2                            00000000    0000000A =          10. bytes (ABS,CON)

      Value  Global                              Global Defined In Module
      -----  --------------------------------   ------------------------
ASxxxx Linker V03.00 + NoICE + sdld,  page 12.
Hexadecimal  [32-Bits]

Area                                    Addr        Size        Decimal Bytes (Attributes)
--------------------------------        ----        ----        ------- ----- ------------
_HEADER3                            00000000    00000003 =           3. bytes (ABS,CON)

      Value  Global                              Global Defined In Module
      -----  --------------------------------   ------------------------
ASxxxx Linker V03.00 + NoICE + sdld,  page 13.
Hexadecimal  [32-Bits]

Area                                    Addr        Size        Decimal Bytes (Attributes)
--------------------------------        ----        ----        ------- ----- ------------
_HEADER4                            00000000    00000003 =           3. bytes (ABS,CON)

      Value  Global                              Global Defined In Module
      -----  --------------------------------   ------------------------
ASxxxx Linker V03.00 + NoICE + sdld,  page 14.
Hexadecimal  [32-Bits]

Area                                    Addr        Size        Decimal Bytes (Attributes)
--------------------------------        ----        ----        ------- ----- ------------
_HEADER5                            00000000    0000012A =         298. bytes (ABS,CON)

      Value  Global                              Global Defined In Module
      -----  --------------------------------   ------------------------
     00000099  _OUTI128                           crt0
     00000119  _OUTI64                            crt0
     00000159  _OUTI32                            crt0
     00000199  _outi_block                        crt0

ASxxxx Linker V03.00 + NoICE + sdld,  page 15.
Hexadecimal  [32-Bits]

Area                                    Addr        Size        Decimal Bytes (Attributes)
--------------------------------        ----        ----        ------- ----- ------------
_INITIALIZER                        00002D56    0000000F =          15. bytes (REL,CON)

      Value  Global                              Global Defined In Module
      -----  --------------------------------   ------------------------
ASxxxx Linker V03.00 + NoICE + sdld,  page 16.
Hexadecimal  [32-Bits]

Area                                    Addr        Size        Decimal Bytes (Attributes)
--------------------------------        ----        ----        ------- ----- ------------
_GSINIT                             00002D65    0000000F =          15. bytes (REL,CON)

      Value  Global                              Global Defined In Module
      -----  --------------------------------   ------------------------
     00002D65  gsinit                             crt0

ASxxxx Linker V03.00 + NoICE + sdld,  page 17.
Hexadecimal  [32-Bits]

Area                                    Addr        Size        Decimal Bytes (Attributes)
--------------------------------        ----        ----        ------- ----- ------------
_GSFINAL                            00002D74    00000001 =           1. bytes (REL,CON)

      Value  Global                              Global Defined In Module
      -----  --------------------------------   ------------------------
ASxxxx Linker V03.00 + NoICE + sdld,  page 18.
Hexadecimal  [32-Bits]

Area                                    Addr        Size        Decimal Bytes (Attributes)
--------------------------------        ----        ----        ------- ----- ------------
_DATA                               0000C000    0000011E =         286. bytes (REL,CON)

      Value  Global                              Global Defined In Module
      -----  --------------------------------   ------------------------
     0000C000  _PSGMusicStatus                    PSGlib
     0000C001  _PSGMusicStart                     PSGlib
     0000C003  _PSGMusicPointer                   PSGlib
     0000C005  _PSGMusicLoopPoint                 PSGlib
     0000C007  _PSGMusicSkipFrames                PSGlib
     0000C008  _PSGLoopFlag                       PSGlib
     0000C009  _PSGLoopCounter                    PSGlib
     0000C00A  _PSGMusicLastLatch                 PSGlib
     0000C00B  _PSGMusicVolumeAttenuation         PSGlib
     0000C00C  _PSGMusicSubstringLen              PSGlib
     0000C00D  _PSGMusicSubstringRetAddr          PSGlib
     0000C00F  _PSGChan0Volume                    PSGlib
     0000C010  _PSGChan1Volume                    PSGlib
     0000C011  _PSGChan2Volume                    PSGlib
     0000C012  _PSGChan3Volume                    PSGlib
     0000C013  _PSGChan2LowTone                   PSGlib
     0000C014  _PSGChan2HighTone                  PSGlib
     0000C015  _PSGChan3LowTone                   PSGlib
     0000C016  _PSGChannel2SFX                    PSGlib
     0000C017  _PSGChannel3SFX                    PSGlib
     0000C018  _PSGSFXChan2Volume                 PSGlib
     0000C019  _PSGSFXChan3Volume                 PSGlib
     0000C01A  _PSGSFXStatus                      PSGlib
     0000C01B  _PSGSFXStart                       PSGlib
     0000C01D  _PSGSFXPointer                     PSGlib
     0000C01F  _PSGSFXLoopPoint                   PSGlib
     0000C021  _PSGSFXSkipFrames                  PSGlib
     0000C022  _PSGSFXLoopFlag                    PSGlib
     0000C023  _PSGSFXSubstringLen                PSGlib
     0000C024  _PSGSFXSubstringRetAddr            PSGlib
     0000C026  _VDPBlank                          SMSlib
     0000C027  _SMS_VDPFlags                      SMSlib
     0000C028  _PauseRequested                    SMSlib
     0000C029  _SMS_Port3EBIOSvalue               SMSlib
     0000C02A  _KeysStatus                        SMSlib
     0000C02C  _PreviousKeysStatus                SMSlib
     0000C02E  _SMS_theLineInterruptHandler       SMSlib
     0000C030  _decompBuffer                      SMSlib_PSGaiden
     0000C050  _clipWin_x0                        SMSlib_spriteClip
     0000C051  _clipWin_y0                        SMSlib_spriteClip
     0000C052  _SMS_TextRenderer_offset           SMSlib_textrenderer
     0000C054  _SpriteTableY                      SMSlib_sprite
     0000C094  _SpriteTableXN                     SMSlib_sprite
     0000C114  _SpriteNextFree                    SMSlib_sprite
     0000C115  _STM_src                           SMSlib_STMcomp
     0000C117  _STM_dest                          SMSlib_STMcomp
     0000C119  _STM_HH                            SMSlib_STMcomp
     0000C11A  _STM_oldHH                         SMSlib_STMcomp
     0000C11B  _STM_needRestore                   SMSlib_STMcomp
     0000C11C  _STM_ttw                           SMSlib_STMcomp
ASxxxx Linker V03.00 + NoICE + sdld,  page 19.
Hexadecimal  [32-Bits]

Area                                    Addr        Size        Decimal Bytes (Attributes)
--------------------------------        ----        ----        ------- ----- ------------
_DATA                               0000C000    0000011E =         286. bytes (REL,CON)

      Value  Global                              Global Defined In Module
      -----  --------------------------------   ------------------------
     0000C11D  _STM_width                         SMSlib_STMcomp
ASxxxx Linker V03.00 + NoICE + sdld,  page 20.
Hexadecimal  [32-Bits]

Area                                    Addr        Size        Decimal Bytes (Attributes)
--------------------------------        ----        ----        ------- ----- ------------
_INITIALIZED                        0000C11E    0000000F =          15. bytes (REL,CON)

      Value  Global                              Global Defined In Module
      -----  --------------------------------   ------------------------
     0000C122  _game_audio_data                   audio_object
     0000C126  _VDPReg                            SMSlib
     0000C128  _spritesHeight                     SMSlib
     0000C129  _spritesWidth                      SMSlib
     0000C12A  _spritesTileOffset                 SMSlib
     0000C12B  _clipWin_x1                        SMSlib_spriteClip
     0000C12C  _clipWin_y1                        SMSlib_spriteClip

ASxxxx Linker V03.00 + NoICE + sdld,  page 21.
Hexadecimal  [32-Bits]

Area                                    Addr        Size        Decimal Bytes (Attributes)
--------------------------------        ----        ----        ------- ----- ------------
_BANK2                              00008000    00004000 =       16384. bytes (REL,CON)

      Value  Global                              Global Defined In Module
      -----  --------------------------------   ------------------------
     00008000  _mus_game01_psg                    bank2

ASxxxx Linker V03.00 + NoICE + sdld,  page 22.
Hexadecimal  [32-Bits]

Area                                    Addr        Size        Decimal Bytes (Attributes)
--------------------------------        ----        ----        ------- ----- ------------
_BANK3                              00008000    000025EE =        9710. bytes (REL,CON)

      Value  Global                              Global Defined In Module
      -----  --------------------------------   ------------------------
     00008000  _mus_game02_psg                    bank3

ASxxxx Linker V03.00 + NoICE + sdld,  page 23.
Hexadecimal  [32-Bits]

Area                                    Addr        Size        Decimal Bytes (Attributes)
--------------------------------        ----        ----        ------- ----- ------------
_CABS0                              00000000    00000010 =          16. bytes (ABS,CON)

      Value  Global                              Global Defined In Module
      -----  --------------------------------   ------------------------
     00007FF0  ___SMS__SEGA_signature             _sms_manager

ASxxxx Linker V03.00 + NoICE + sdld,  page 24.
Hexadecimal  [32-Bits]

Area                                    Addr        Size        Decimal Bytes (Attributes)
--------------------------------        ----        ----        ------- ----- ------------
_CABS1                              00000000    0000000E =          14. bytes (ABS,CON)

      Value  Global                              Global Defined In Module
      -----  --------------------------------   ------------------------
     00007FD2  ___SMS__SDSC_author                _sms_manager

ASxxxx Linker V03.00 + NoICE + sdld,  page 25.
Hexadecimal  [32-Bits]

Area                                    Addr        Size        Decimal Bytes (Attributes)
--------------------------------        ----        ----        ------- ----- ------------
_CABS2                              00000000    0000000F =          15. bytes (ABS,CON)

      Value  Global                              Global Defined In Module
      -----  --------------------------------   ------------------------
     00007FC3  ___SMS__SDSC_name                  _sms_manager

ASxxxx Linker V03.00 + NoICE + sdld,  page 26.
Hexadecimal  [32-Bits]

Area                                    Addr        Size        Decimal Bytes (Attributes)
--------------------------------        ----        ----        ------- ----- ------------
_CABS3                              00000000    00000021 =          33. bytes (ABS,CON)

      Value  Global                              Global Defined In Module
      -----  --------------------------------   ------------------------
     00007FA2  ___SMS__SDSC_descr                 _sms_manager

ASxxxx Linker V03.00 + NoICE + sdld,  page 27.
Hexadecimal  [32-Bits]

Area                                    Addr        Size        Decimal Bytes (Attributes)
--------------------------------        ----        ----        ------- ----- ------------
_CABS4                              00000000    00000010 =          16. bytes (ABS,CON)

      Value  Global                              Global Defined In Module
      -----  --------------------------------   ------------------------
     00007FE0  ___SMS__SDSC_signature             _sms_manager

ASxxxx Linker V03.00 + NoICE + sdld,  page 28.

Files Linked                              [ module(s) ]

../crt0/crt0_sms.rel                      [ crt0 ]
main.rel                                  [ main ]
../lib/PSGlib.rel                         [ PSGlib ]
banks/bank2.rel                           [ bank2 ]
banks/bank3.rel                           [ bank3 ]
devkit/_sms_manager.rel                   [ _sms_manager ]
devkit/_snd_manager.rel                   [ _snd_manager ]
engine/asm_manager.rel                    [ asm_manager ]
engine/audio_manager.rel                  [ audio_manager ]
engine/content_manager.rel                [ content_manager ]
engine/font_manager.rel                   [ font_manager ]
engine/input_manager.rel                  [ input_manager ]
object/audio_object.rel                   [ audio_object ]
gfx.rel                                   [ gfx ]


Libraries Linked                          [ object file ]

../lib/SMSlib.lib                         [ SMSlib_spriteAdv.rel ]
../lib/SMSlib.lib                         [ SMSlib_aPLib.rel ]
C:\Program Files\SDCC\bin\..\lib\z80/z80.lib
                                          [ divunsigned.rel ]
../lib/SMSlib.lib                         [ SMSlib_UNSAFE.rel ]
../lib/SMSlib.lib                         [ SMSlib.rel ]
../lib/SMSlib.lib                         [ SMSlib_PSGaiden.rel ]
../lib/SMSlib.lib                         [ SMSlib_load1bppTiles.rel ]
../lib/SMSlib.lib                         [ SMSlib_spriteClip.rel ]
../lib/SMSlib.lib                         [ SMSlib_VRAMmemset.rel ]
../lib/SMSlib.lib                         [ SMSlib_paletteAdv.rel ]
../lib/SMSlib.lib                         [ SMSlib_zx7.rel ]
../lib/SMSlib.lib                         [ SMSlib_textrenderer.rel ]
../lib/SMSlib.lib                         [ SMSlib_threesprites.rel ]
../lib/SMSlib.lib                         [ SMSlib_sprite.rel ]
../lib/SMSlib.lib                         [ SMSlib_twosprites.rel ]
../lib/SMSlib.lib                         [ SMSlib_paddle.rel ]
../lib/SMSlib.lib                         [ SMSlib_VRAMmemcpy_brief.rel ]
../lib/SMSlib.lib                         [ SMSlib_UNSAFE_zx7.rel ]
C:\Program Files\SDCC\bin\..\lib\z80/z80.lib
                                          [ __sdcc_call_hl.rel ]
../lib/SMSlib.lib                         [ SMSlib_deprecated.rel ]
../lib/SMSlib.lib                         [ SMSlib_VRAMmemcpy.rel ]
../lib/SMSlib.lib                         [ SMSlib_STMcomp.rel ]
../lib/SMSlib.lib                         [ SMSlib_loadTileMapArea.rel ]
../lib/SMSlib.lib                         [ SMSlib_autotext.rel ]
C:\Program Files\SDCC\bin\..\lib\z80/z80.lib
                                          [ modunsigned.rel ]

ASxxxx Linker V03.00 + NoICE + sdld,  page 29.

User Base Address Definitions

_CODE = 0x0200
_DATA = 0xc000
_BANK2=0x8000
_BANK3=0x8000

